ARM GAS  C:\Users\30806\AppData\Local\Temp\ccxw87g1.s 			page 1


   1              		.cpu cortex-m4
   2              		.arch armv7e-m
   3              		.fpu fpv4-sp-d16
   4              		.eabi_attribute 27, 1	@ Tag_ABI_HardFP_use
   5              		.eabi_attribute 28, 1	@ Tag_ABI_VFP_args
   6              		.eabi_attribute 20, 1	@ Tag_ABI_FP_denormal
   7              		.eabi_attribute 21, 1	@ Tag_ABI_FP_exceptions
   8              		.eabi_attribute 23, 3	@ Tag_ABI_FP_number_model
   9              		.eabi_attribute 24, 1	@ Tag_ABI_align8_needed
  10              		.eabi_attribute 25, 1	@ Tag_ABI_align8_preserved
  11              		.eabi_attribute 26, 1	@ Tag_ABI_enum_size
  12              		.eabi_attribute 30, 1	@ Tag_ABI_optimization_goals
  13              		.eabi_attribute 34, 1	@ Tag_CPU_unaligned_access
  14              		.eabi_attribute 18, 4	@ Tag_ABI_PCS_wchar_t
  15              		.file	"user_maths.cpp"
  16              	@ GNU C++14 (GNU Arm Embedded Toolchain 10.3-2021.10) version 10.3.1 20210824 (release) (arm-none-e
  17              	@	compiled by GNU C version 7.3-win32 20180312, GMP version 6.1.0, MPFR version 3.1.4, MPC version 
  18              	
  19              	@ GGC heuristics: --param ggc-min-expand=100 --param ggc-min-heapsize=131072
  20              	@ options passed:  -I Core/Inc -I Drivers/STM32F4xx_HAL_Driver/Inc
  21              	@ -I Drivers/STM32F4xx_HAL_Driver/Inc/Legacy
  22              	@ -I Middlewares/Third_Party/FreeRTOS/Source/include
  23              	@ -I Middlewares/Third_Party/FreeRTOS/Source/CMSIS_RTOS
  24              	@ -I Middlewares/Third_Party/FreeRTOS/Source/portable/GCC/ARM_CM4F
  25              	@ -I Drivers/CMSIS/Device/ST/STM32F4xx/Include -I Drivers/CMSIS/Include
  26              	@ -I Middlewares/ST/ARM/DSP/Inc
  27              	@ -I ACE_ECF_25-ACE-ECF-V1.1-/Algorithm/user_maths
  28              	@ -I ACE_ECF_25-ACE-ECF-V1.1-/Algorithm
  29              	@ -I ACE_ECF_25-ACE-ECF-V1.1-/Algorithm/filter_alg
  30              	@ -I ACE_ECF_25-ACE-ECF-V1.1-/Algorithm/kalman_filter
  31              	@ -I ACE_ECF_25-ACE-ECF-V1.1-/Algorithm/lqr
  32              	@ -I ACE_ECF_25-ACE-ECF-V1.1-/Algorithm/PID
  33              	@ -I ACE_ECF_25-ACE-ECF-V1.1-/Algorithm/quaternion_kalman
  34              	@ -I ACE_ECF_25-ACE-ECF-V1.1-/Algorithm/user_maths
  35              	@ -I ACE_ECF_25-ACE-ECF-V1.1-/Algorithm/user_maths/cpp_files
  36              	@ -I ACE_ECF_25-ACE-ECF-V1.1-/Bsp -I ACE_ECF_25-ACE-ECF-V1.1-/Bsp/bsp_usart
  37              	@ -I ACE_ECF_25-ACE-ECF-V1.1-/Bsp/bsp_usart/F4
  38              	@ -I ACE_ECF_25-ACE-ECF-V1.1-/Bsp/can_part
  39              	@ -I ACE_ECF_25-ACE-ECF-V1.1-/Bsp/can_part/can
  40              	@ -I ACE_ECF_25-ACE-ECF-V1.1-/Bsp/dwt -I ACE_ECF_25-ACE-ECF-V1.1-/module
  41              	@ -I ACE_ECF_25-ACE-ECF-V1.1-/module/dr16
  42              	@ -I ACE_ECF_25-ACE-ECF-V1.1-/module/motor
  43              	@ -I ACE_ECF_25-ACE-ECF-V1.1-/module/motor/DJImotor
  44              	@ -I ACE_ECF_25-ACE-ECF-V1.1-/module/referee -I Main -I App -I Task
  45              	@ -imultilib thumb/v7e-m+fp/hard
  46              	@ -iprefix d:\stm_for_vs\gcc-arm-none-eabi-10.3-2021.10\bin\../lib/gcc/arm-none-eabi/10.3.1/
  47              	@ -isysroot d:\stm_for_vs\gcc-arm-none-eabi-10.3-2021.10\bin\../arm-none-eabi
  48              	@ -MMD build/user_maths.d -MF build/user_maths.d -MP -MQ build/user_maths.o
  49              	@ -D__USES_INITFINI__ -D USE_HAL_DRIVER -D STM32F405xx
  50              	@ ACE_ECF_25-ACE-ECF-V1.1-/Algorithm/user_maths/cpp_files/user_maths.cpp
  51              	@ -mcpu=cortex-m4 -mthumb -mfpu=fpv4-sp-d16 -mfloat-abi=hard
  52              	@ -mlibarch=armv7e-m+fp -march=armv7e-m+fp
  53              	@ -auxbase-strip build/user_maths.o -g -gdwarf-2 -g -ggdb3 -Og -Wall
  54              	@ -fno-rtti -fno-exceptions -fverbose-asm -fdata-sections
  55              	@ -ffunction-sections -fpermissive
  56              	@ options enabled:  -faggressive-loop-optimizations -fallocation-dce
  57              	@ -fauto-inc-dec -fcombine-stack-adjustments -fcompare-elim
ARM GAS  C:\Users\30806\AppData\Local\Temp\ccxw87g1.s 			page 2


  58              	@ -fcprop-registers -fdata-sections -fdefer-pop
  59              	@ -fdelete-null-pointer-checks -fdwarf2-cfi-asm -fearly-inlining
  60              	@ -feliminate-unused-debug-symbols -feliminate-unused-debug-types
  61              	@ -fforward-propagate -ffp-int-builtin-inexact -ffunction-cse
  62              	@ -ffunction-sections -fgcse-lm -fgnu-unique -fguess-branch-probability
  63              	@ -fident -finline -finline-atomics -fipa-profile -fipa-pure-const
  64              	@ -fipa-reference -fipa-reference-addressable -fipa-stack-alignment
  65              	@ -fira-hoist-pressure -fira-share-save-slots -fira-share-spill-slots
  66              	@ -fivopts -fkeep-static-consts -fleading-underscore -flifetime-dse
  67              	@ -fmath-errno -fmerge-constants -fmerge-debug-strings -fomit-frame-pointer
  68              	@ -fpeephole -fplt -fprefetch-loop-arrays -freg-struct-return
  69              	@ -freorder-blocks -fsched-critical-path-heuristic
  70              	@ -fsched-dep-count-heuristic -fsched-group-heuristic -fsched-interblock
  71              	@ -fsched-last-insn-heuristic -fsched-pressure -fsched-rank-heuristic
  72              	@ -fsched-spec -fsched-spec-insn-heuristic -fsched-stalled-insns-dep
  73              	@ -fsection-anchors -fsemantic-interposition -fshow-column -fshrink-wrap
  74              	@ -fshrink-wrap-separate -fsigned-zeros -fsplit-ivs-in-unroller
  75              	@ -fsplit-wide-types -fssa-backprop -fstdarg-opt
  76              	@ -fstrict-volatile-bitfields -fsync-libcalls -ftoplevel-reorder
  77              	@ -ftrapping-math -ftree-builtin-call-dce -ftree-ccp -ftree-ch
  78              	@ -ftree-coalesce-vars -ftree-copy-prop -ftree-cselim -ftree-dce
  79              	@ -ftree-dominator-opts -ftree-forwprop -ftree-fre -ftree-loop-if-convert
  80              	@ -ftree-loop-im -ftree-loop-ivcanon -ftree-loop-optimize
  81              	@ -ftree-parallelize-loops= -ftree-phiprop -ftree-reassoc -ftree-scev-cprop
  82              	@ -ftree-sink -ftree-slsr -ftree-ter -funit-at-a-time -fvar-tracking
  83              	@ -fvar-tracking-assignments -fverbose-asm -fzero-initialized-in-bss
  84              	@ -masm-syntax-unified -mbe32 -mlittle-endian -mpic-data-is-text-relative
  85              	@ -msched-prolog -mthumb -munaligned-access -mvectorize-with-neon-quad
  86              	
  87              		.text
  88              	.Ltext0:
  89              		.cfi_sections	.debug_frame
  90              		.section	.text._ZN12user_maths_c7invSqrtEf,"ax",%progbits
  91              		.align	1
  92              		.global	_ZN12user_maths_c7invSqrtEf
  93              		.syntax unified
  94              		.thumb
  95              		.thumb_func
  96              		.type	_ZN12user_maths_c7invSqrtEf, %function
  97              	_ZN12user_maths_c7invSqrtEf:
  98              	.LVL0:
  99              	.LFB374:
 100              		.file 1 "ACE_ECF_25-ACE-ECF-V1.1-/Algorithm/user_maths/cpp_files/user_maths.cpp"
   1:ACE_ECF_25-ACE-ECF-V1.1-/Algorithm/user_maths/cpp_files/user_maths.cpp **** #include "user_maths.hpp"
   2:ACE_ECF_25-ACE-ECF-V1.1-/Algorithm/user_maths/cpp_files/user_maths.cpp **** #include <stddef.h>
   3:ACE_ECF_25-ACE-ECF-V1.1-/Algorithm/user_maths/cpp_files/user_maths.cpp **** #include "arm_math.h"
   4:ACE_ECF_25-ACE-ECF-V1.1-/Algorithm/user_maths/cpp_files/user_maths.cpp **** #include "list_of_trigfunction.h"
   5:ACE_ECF_25-ACE-ECF-V1.1-/Algorithm/user_maths/cpp_files/user_maths.cpp **** 
   6:ACE_ECF_25-ACE-ECF-V1.1-/Algorithm/user_maths/cpp_files/user_maths.cpp **** float user_maths_c::invSqrt(float x) //平方根倒数速算法
   7:ACE_ECF_25-ACE-ECF-V1.1-/Algorithm/user_maths/cpp_files/user_maths.cpp **** {
 101              		.loc 1 7 1 view -0
 102              		.cfi_startproc
 103              		@ args = 0, pretend = 0, frame = 0
 104              		@ frame_needed = 0, uses_anonymous_args = 0
 105              		@ link register save eliminated.
   8:ACE_ECF_25-ACE-ECF-V1.1-/Algorithm/user_maths/cpp_files/user_maths.cpp ****     float halfx = 0.5f * x;
 106              		.loc 1 8 5 view .LVU1
ARM GAS  C:\Users\30806\AppData\Local\Temp\ccxw87g1.s 			page 3


 107              	@ ACE_ECF_25-ACE-ECF-V1.1-/Algorithm/user_maths/cpp_files/user_maths.cpp:8:     float halfx = 0.5f 
 108              		.loc 1 8 11 is_stmt 0 view .LVU2
 109 0000 F6EE007A 		vmov.f32	s15, #5.0e-1	@ tmp124,
 110 0004 60EE277A 		vmul.f32	s15, s0, s15	@ halfx, x, tmp124
 111              	.LVL1:
   9:ACE_ECF_25-ACE-ECF-V1.1-/Algorithm/user_maths/cpp_files/user_maths.cpp ****     float y = x;
 112              		.loc 1 9 5 is_stmt 1 view .LVU3
  10:ACE_ECF_25-ACE-ECF-V1.1-/Algorithm/user_maths/cpp_files/user_maths.cpp ****     long i = *(long *)&y;
 113              		.loc 1 10 5 view .LVU4
 114              	@ ACE_ECF_25-ACE-ECF-V1.1-/Algorithm/user_maths/cpp_files/user_maths.cpp:10:     long i = *(long *)
 115              		.loc 1 10 14 is_stmt 0 view .LVU5
 116 0008 10EE103A 		vmov	r3, s0	@ int	@ _1, x
 117              	.LVL2:
  11:ACE_ECF_25-ACE-ECF-V1.1-/Algorithm/user_maths/cpp_files/user_maths.cpp ****     i = 0x5f3759df - (i >> 1);
 118              		.loc 1 11 5 is_stmt 1 view .LVU6
  12:ACE_ECF_25-ACE-ECF-V1.1-/Algorithm/user_maths/cpp_files/user_maths.cpp ****     y = *(float *)&i;
 119              		.loc 1 12 5 view .LVU7
 120              	@ ACE_ECF_25-ACE-ECF-V1.1-/Algorithm/user_maths/cpp_files/user_maths.cpp:12:     y = *(float *)&i;
 121              		.loc 1 12 9 is_stmt 0 view .LVU8
 122 000c 074A     		ldr	r2, .L2	@ tmp125,
 123 000e A2EB6303 		sub	r3, r2, r3, asr #1	@ tmp130, tmp125, _1,
 124              	.LVL3:
 125              		.loc 1 12 9 view .LVU9
 126 0012 07EE103A 		vmov	s14, r3	@ int	@ _4, tmp130
 127              	.LVL4:
  13:ACE_ECF_25-ACE-ECF-V1.1-/Algorithm/user_maths/cpp_files/user_maths.cpp ****     y = y * (1.5f - (halfx * y * y));
 128              		.loc 1 13 5 is_stmt 1 view .LVU10
 129              	@ ACE_ECF_25-ACE-ECF-V1.1-/Algorithm/user_maths/cpp_files/user_maths.cpp:13:     y = y * (1.5f - (h
 130              		.loc 1 13 28 is_stmt 0 view .LVU11
 131 0016 67EE277A 		vmul.f32	s15, s14, s15	@ _5, _4, halfx
 132              	.LVL5:
 133              	@ ACE_ECF_25-ACE-ECF-V1.1-/Algorithm/user_maths/cpp_files/user_maths.cpp:13:     y = y * (1.5f - (h
 134              		.loc 1 13 32 view .LVU12
 135 001a 67EE277A 		vmul.f32	s15, s14, s15	@ _6, _4, _5
 136              	@ ACE_ECF_25-ACE-ECF-V1.1-/Algorithm/user_maths/cpp_files/user_maths.cpp:13:     y = y * (1.5f - (h
 137              		.loc 1 13 19 view .LVU13
 138 001e B7EE080A 		vmov.f32	s0, #1.5e+0	@ tmp126,
 139              	.LVL6:
 140              		.loc 1 13 19 view .LVU14
 141 0022 30EE670A 		vsub.f32	s0, s0, s15	@ _7, tmp126, _6
 142              	.LVL7:
  14:ACE_ECF_25-ACE-ECF-V1.1-/Algorithm/user_maths/cpp_files/user_maths.cpp ****     return y;
 143              		.loc 1 14 5 is_stmt 1 view .LVU15
 144              	@ ACE_ECF_25-ACE-ECF-V1.1-/Algorithm/user_maths/cpp_files/user_maths.cpp:15: }
  15:ACE_ECF_25-ACE-ECF-V1.1-/Algorithm/user_maths/cpp_files/user_maths.cpp **** }
 145              		.loc 1 15 1 is_stmt 0 view .LVU16
 146 0026 27EE000A 		vmul.f32	s0, s14, s0	@, _4, _7
 147 002a 7047     		bx	lr	@
 148              	.L3:
 149              		.align	2
 150              	.L2:
 151 002c DF59375F 		.word	1597463007
 152              		.cfi_endproc
 153              	.LFE374:
 154              		.size	_ZN12user_maths_c7invSqrtEf, .-_ZN12user_maths_c7invSqrtEf
 155              		.section	.text._ZN12user_maths_c7max_absEss,"ax",%progbits
 156              		.align	1
ARM GAS  C:\Users\30806\AppData\Local\Temp\ccxw87g1.s 			page 4


 157              		.global	_ZN12user_maths_c7max_absEss
 158              		.syntax unified
 159              		.thumb
 160              		.thumb_func
 161              		.type	_ZN12user_maths_c7max_absEss, %function
 162              	_ZN12user_maths_c7max_absEss:
 163              	.LVL8:
 164              	.LFB375:
  16:ACE_ECF_25-ACE-ECF-V1.1-/Algorithm/user_maths/cpp_files/user_maths.cpp **** 
  17:ACE_ECF_25-ACE-ECF-V1.1-/Algorithm/user_maths/cpp_files/user_maths.cpp **** /*取两个数最大值的绝对值*/
  18:ACE_ECF_25-ACE-ECF-V1.1-/Algorithm/user_maths/cpp_files/user_maths.cpp **** int16_t user_maths_c::max_abs(int16_t x, int16_t y)
  19:ACE_ECF_25-ACE-ECF-V1.1-/Algorithm/user_maths/cpp_files/user_maths.cpp **** {
 165              		.loc 1 19 1 is_stmt 1 view -0
 166              		.cfi_startproc
 167              		@ args = 0, pretend = 0, frame = 0
 168              		@ frame_needed = 0, uses_anonymous_args = 0
 169              		@ link register save eliminated.
  20:ACE_ECF_25-ACE-ECF-V1.1-/Algorithm/user_maths/cpp_files/user_maths.cpp ****     if (user_abs(x) >= user_abs(y))
 170              		.loc 1 20 5 view .LVU18
 171              	@ ACE_ECF_25-ACE-ECF-V1.1-/Algorithm/user_maths/cpp_files/user_maths.cpp:20:     if (user_abs(x) >=
 172              		.loc 1 20 9 is_stmt 0 view .LVU19
 173 0000 0029     		cmp	r1, #0	@ tmp119,
 174 0002 B8BF     		it	lt
 175 0004 4942     		rsblt	r1, r1, #0	@ tmp119, tmp122,
 176              	.LVL9:
 177              		.loc 1 20 9 view .LVU20
 178 0006 89B2     		uxth	r1, r1	@ _1, tmp119
 179              	@ ACE_ECF_25-ACE-ECF-V1.1-/Algorithm/user_maths/cpp_files/user_maths.cpp:20:     if (user_abs(x) >=
 180              		.loc 1 20 24 view .LVU21
 181 0008 82EAE270 		eor	r0, r2, r2, asr #31	@ tmp120, tmp123, tmp123,
 182              	.LVL10:
 183              		.loc 1 20 24 view .LVU22
 184 000c A0EBE270 		sub	r0, r0, r2, asr #31	@ tmp120, tmp120, tmp123,
 185 0010 80B2     		uxth	r0, r0	@ _2, tmp120
 186              	@ ACE_ECF_25-ACE-ECF-V1.1-/Algorithm/user_maths/cpp_files/user_maths.cpp:20:     if (user_abs(x) >=
 187              		.loc 1 20 5 view .LVU23
 188 0012 8142     		cmp	r1, r0	@ _1, _2
 189 0014 01D3     		bcc	.L5		@,
  21:ACE_ECF_25-ACE-ECF-V1.1-/Algorithm/user_maths/cpp_files/user_maths.cpp ****         return user_abs(x);
 190              		.loc 1 21 9 is_stmt 1 view .LVU24
 191              	@ ACE_ECF_25-ACE-ECF-V1.1-/Algorithm/user_maths/cpp_files/user_maths.cpp:21:         return user_ab
 192              		.loc 1 21 16 is_stmt 0 view .LVU25
 193 0016 08B2     		sxth	r0, r1	@ <retval>, _1
 194 0018 7047     		bx	lr	@
 195              	.L5:
  22:ACE_ECF_25-ACE-ECF-V1.1-/Algorithm/user_maths/cpp_files/user_maths.cpp ****     else
  23:ACE_ECF_25-ACE-ECF-V1.1-/Algorithm/user_maths/cpp_files/user_maths.cpp ****         return user_abs(y);
 196              		.loc 1 23 9 is_stmt 1 view .LVU26
 197              	@ ACE_ECF_25-ACE-ECF-V1.1-/Algorithm/user_maths/cpp_files/user_maths.cpp:23:         return user_ab
 198              		.loc 1 23 16 is_stmt 0 view .LVU27
 199 001a 00B2     		sxth	r0, r0	@ <retval>, _2
 200              	@ ACE_ECF_25-ACE-ECF-V1.1-/Algorithm/user_maths/cpp_files/user_maths.cpp:24: }
  24:ACE_ECF_25-ACE-ECF-V1.1-/Algorithm/user_maths/cpp_files/user_maths.cpp **** }
 201              		.loc 1 24 1 view .LVU28
 202 001c 7047     		bx	lr	@
 203              		.cfi_endproc
 204              	.LFE375:
ARM GAS  C:\Users\30806\AppData\Local\Temp\ccxw87g1.s 			page 5


 205              		.size	_ZN12user_maths_c7max_absEss, .-_ZN12user_maths_c7max_absEss
 206              		.section	.text._ZN12user_maths_c27motion_acceleration_controlEss,"ax",%progbits
 207              		.align	1
 208              		.global	_ZN12user_maths_c27motion_acceleration_controlEss
 209              		.syntax unified
 210              		.thumb
 211              		.thumb_func
 212              		.type	_ZN12user_maths_c27motion_acceleration_controlEss, %function
 213              	_ZN12user_maths_c27motion_acceleration_controlEss:
 214              	.LVL11:
 215              	.LFB376:
  25:ACE_ECF_25-ACE-ECF-V1.1-/Algorithm/user_maths/cpp_files/user_maths.cpp **** 
  26:ACE_ECF_25-ACE-ECF-V1.1-/Algorithm/user_maths/cpp_files/user_maths.cpp **** /*
  27:ACE_ECF_25-ACE-ECF-V1.1-/Algorithm/user_maths/cpp_files/user_maths.cpp ****  *功能：运动控制斜坡函数（加速度限制）
  28:ACE_ECF_25-ACE-ECF-V1.1-/Algorithm/user_maths/cpp_files/user_maths.cpp ****  *传入：1.加速度限制对应结构体  2.控制量 3.限制加速度
  29:ACE_ECF_25-ACE-ECF-V1.1-/Algorithm/user_maths/cpp_files/user_maths.cpp ****  *传出：处理量
  30:ACE_ECF_25-ACE-ECF-V1.1-/Algorithm/user_maths/cpp_files/user_maths.cpp ****  *类型：16位整形
  31:ACE_ECF_25-ACE-ECF-V1.1-/Algorithm/user_maths/cpp_files/user_maths.cpp ****  */
  32:ACE_ECF_25-ACE-ECF-V1.1-/Algorithm/user_maths/cpp_files/user_maths.cpp **** int16_t user_maths_c::motion_acceleration_control( int16_t Input, int16_t Limit)
  33:ACE_ECF_25-ACE-ECF-V1.1-/Algorithm/user_maths/cpp_files/user_maths.cpp **** {
 216              		.loc 1 33 1 is_stmt 1 view -0
 217              		.cfi_startproc
 218              		@ args = 0, pretend = 0, frame = 0
 219              		@ frame_needed = 0, uses_anonymous_args = 0
 220              		@ link register save eliminated.
 221              		.loc 1 33 1 is_stmt 0 view .LVU30
 222 0000 07EE901A 		vmov	s15, r1	@ int	@ tmp131, Input
 223 0004 07EE102A 		vmov	s14, r2	@ int	@ tmp132, Limit
  34:ACE_ECF_25-ACE-ECF-V1.1-/Algorithm/user_maths/cpp_files/user_maths.cpp ****     this->acceleration_control.Input = Input;
 224              		.loc 1 34 5 is_stmt 1 view .LVU31
 225              	@ ACE_ECF_25-ACE-ECF-V1.1-/Algorithm/user_maths/cpp_files/user_maths.cpp:34:     this->acceleration
 226              		.loc 1 34 38 is_stmt 0 view .LVU32
 227 0008 F8EEE77A 		vcvt.f32.s32	s15, s15	@ _1, tmp131
 228 000c C0ED007A 		vstr.32	s15, [r0]	@ _1, this_13(D)->acceleration_control.Input
  35:ACE_ECF_25-ACE-ECF-V1.1-/Algorithm/user_maths/cpp_files/user_maths.cpp ****     this->acceleration_control.acc_limit = Limit;
 229              		.loc 1 35 5 is_stmt 1 view .LVU33
 230              	@ ACE_ECF_25-ACE-ECF-V1.1-/Algorithm/user_maths/cpp_files/user_maths.cpp:35:     this->acceleration
 231              		.loc 1 35 42 is_stmt 0 view .LVU34
 232 0010 B8EEC77A 		vcvt.f32.s32	s14, s14	@ _2, tmp132
 233 0014 80ED047A 		vstr.32	s14, [r0, #16]	@ _2, this_13(D)->acceleration_control.acc_limit
  36:ACE_ECF_25-ACE-ECF-V1.1-/Algorithm/user_maths/cpp_files/user_maths.cpp **** 
  37:ACE_ECF_25-ACE-ECF-V1.1-/Algorithm/user_maths/cpp_files/user_maths.cpp ****     this->acceleration_control.acc_now = this->acceleration_control.Input - this->acceleration_cont
 234              		.loc 1 37 5 is_stmt 1 view .LVU35
 235              	@ ACE_ECF_25-ACE-ECF-V1.1-/Algorithm/user_maths/cpp_files/user_maths.cpp:37:     this->acceleration
 236              		.loc 1 37 104 is_stmt 0 view .LVU36
 237 0018 D0ED016A 		vldr.32	s13, [r0, #4]	@ _3, this_13(D)->acceleration_control.Last_Input
 238              	@ ACE_ECF_25-ACE-ECF-V1.1-/Algorithm/user_maths/cpp_files/user_maths.cpp:37:     this->acceleration
 239              		.loc 1 37 75 view .LVU37
 240 001c 77EEE67A 		vsub.f32	s15, s15, s13	@ _4, _1, _3
 241              	@ ACE_ECF_25-ACE-ECF-V1.1-/Algorithm/user_maths/cpp_files/user_maths.cpp:37:     this->acceleration
 242              		.loc 1 37 40 view .LVU38
 243 0020 C0ED037A 		vstr.32	s15, [r0, #12]	@ _4, this_13(D)->acceleration_control.acc_now
  38:ACE_ECF_25-ACE-ECF-V1.1-/Algorithm/user_maths/cpp_files/user_maths.cpp **** 
  39:ACE_ECF_25-ACE-ECF-V1.1-/Algorithm/user_maths/cpp_files/user_maths.cpp ****     if (user_abs(this->acceleration_control.acc_now) > this->acceleration_control.acc_limit)
 244              		.loc 1 39 5 is_stmt 1 view .LVU39
 245              	@ ACE_ECF_25-ACE-ECF-V1.1-/Algorithm/user_maths/cpp_files/user_maths.cpp:39:     if (user_abs(this-
 246              		.loc 1 39 9 is_stmt 0 view .LVU40
ARM GAS  C:\Users\30806\AppData\Local\Temp\ccxw87g1.s 			page 6


 247 0024 F5EEC07A 		vcmpe.f32	s15, #0	@ _4
 248 0028 F1EE10FA 		vmrs	APSR_nzcv, FPSCR
 249 002c 18DD     		ble	.L13		@,
 250 002e B0EE676A 		vmov.f32	s12, s15	@ iftmp.6_9, _4
 251              	.L8:
 252              	@ ACE_ECF_25-ACE-ECF-V1.1-/Algorithm/user_maths/cpp_files/user_maths.cpp:39:     if (user_abs(this-
 253              		.loc 1 39 5 discriminator 4 view .LVU41
 254 0032 B4EEC67A 		vcmpe.f32	s14, s12	@ _2, iftmp.6_9
 255 0036 F1EE10FA 		vmrs	APSR_nzcv, FPSCR
 256 003a 07D5     		bpl	.L9		@,
  40:ACE_ECF_25-ACE-ECF-V1.1-/Algorithm/user_maths/cpp_files/user_maths.cpp ****     {
  41:ACE_ECF_25-ACE-ECF-V1.1-/Algorithm/user_maths/cpp_files/user_maths.cpp ****         this->acceleration_control.Output = this->acceleration_control.Last_Input + this->accelerat
 257              		.loc 1 41 9 is_stmt 1 discriminator 4 view .LVU42
 258              	@ ACE_ECF_25-ACE-ECF-V1.1-/Algorithm/user_maths/cpp_files/user_maths.cpp:41:         this->accelera
 259              		.loc 1 41 120 is_stmt 0 discriminator 4 view .LVU43
 260 003c C7EE865A 		vdiv.f32	s11, s15, s12	@ _5, _4, iftmp.6_9
 261              	@ ACE_ECF_25-ACE-ECF-V1.1-/Algorithm/user_maths/cpp_files/user_maths.cpp:41:         this->accelera
 262              		.loc 1 41 167 discriminator 4 view .LVU44
 263 0040 27EE257A 		vmul.f32	s14, s14, s11	@ _6, _2, _5
 264              	@ ACE_ECF_25-ACE-ECF-V1.1-/Algorithm/user_maths/cpp_files/user_maths.cpp:41:         this->accelera
 265              		.loc 1 41 83 discriminator 4 view .LVU45
 266 0044 36EE877A 		vadd.f32	s14, s13, s14	@ _7, _3, _6
 267              	@ ACE_ECF_25-ACE-ECF-V1.1-/Algorithm/user_maths/cpp_files/user_maths.cpp:41:         this->accelera
 268              		.loc 1 41 43 discriminator 4 view .LVU46
 269 0048 80ED027A 		vstr.32	s14, [r0, #8]	@ _7, this_13(D)->acceleration_control.Output
 270              	.L9:
  42:ACE_ECF_25-ACE-ECF-V1.1-/Algorithm/user_maths/cpp_files/user_maths.cpp ****     }
  43:ACE_ECF_25-ACE-ECF-V1.1-/Algorithm/user_maths/cpp_files/user_maths.cpp **** 
  44:ACE_ECF_25-ACE-ECF-V1.1-/Algorithm/user_maths/cpp_files/user_maths.cpp ****     this->acceleration_control.Last_Input = this->acceleration_control.Output;
 271              		.loc 1 44 5 is_stmt 1 view .LVU47
 272              	@ ACE_ECF_25-ACE-ECF-V1.1-/Algorithm/user_maths/cpp_files/user_maths.cpp:44:     this->acceleration
 273              		.loc 1 44 72 is_stmt 0 view .LVU48
 274 004c D0ED027A 		vldr.32	s15, [r0, #8]	@ _8, this_13(D)->acceleration_control.Output
 275              	@ ACE_ECF_25-ACE-ECF-V1.1-/Algorithm/user_maths/cpp_files/user_maths.cpp:44:     this->acceleration
 276              		.loc 1 44 43 view .LVU49
 277 0050 C0ED017A 		vstr.32	s15, [r0, #4]	@ _8, this_13(D)->acceleration_control.Last_Input
  45:ACE_ECF_25-ACE-ECF-V1.1-/Algorithm/user_maths/cpp_files/user_maths.cpp **** 
  46:ACE_ECF_25-ACE-ECF-V1.1-/Algorithm/user_maths/cpp_files/user_maths.cpp ****     return this->acceleration_control.Output;
 278              		.loc 1 46 5 is_stmt 1 view .LVU50
 279              	@ ACE_ECF_25-ACE-ECF-V1.1-/Algorithm/user_maths/cpp_files/user_maths.cpp:46:     return this->accel
 280              		.loc 1 46 39 is_stmt 0 view .LVU51
 281 0054 FDEEE77A 		vcvt.s32.f32	s15, s15	@ tmp128, _8
 282              	@ ACE_ECF_25-ACE-ECF-V1.1-/Algorithm/user_maths/cpp_files/user_maths.cpp:47: }
  47:ACE_ECF_25-ACE-ECF-V1.1-/Algorithm/user_maths/cpp_files/user_maths.cpp **** }
 283              		.loc 1 47 1 view .LVU52
 284 0058 17EE903A 		vmov	r3, s15	@ int	@ tmp128, tmp128
 285 005c 18B2     		sxth	r0, r3	@, tmp128
 286              	.LVL12:
 287              		.loc 1 47 1 view .LVU53
 288 005e 7047     		bx	lr	@
 289              	.LVL13:
 290              	.L13:
 291              	@ ACE_ECF_25-ACE-ECF-V1.1-/Algorithm/user_maths/cpp_files/user_maths.cpp:39:     if (user_abs(this-
  39:ACE_ECF_25-ACE-ECF-V1.1-/Algorithm/user_maths/cpp_files/user_maths.cpp ****     {
 292              		.loc 1 39 9 discriminator 2 view .LVU54
 293 0060 B1EE676A 		vneg.f32	s12, s15	@ iftmp.6_9, _4
 294 0064 E5E7     		b	.L8		@
ARM GAS  C:\Users\30806\AppData\Local\Temp\ccxw87g1.s 			page 7


 295              		.cfi_endproc
 296              	.LFE376:
 297              		.size	_ZN12user_maths_c27motion_acceleration_controlEss, .-_ZN12user_maths_c27motion_acceleration_
 298              		.section	.text._ZN12user_maths_c22loop_restriction_int16Ess,"ax",%progbits
 299              		.align	1
 300              		.global	_ZN12user_maths_c22loop_restriction_int16Ess
 301              		.syntax unified
 302              		.thumb
 303              		.thumb_func
 304              		.type	_ZN12user_maths_c22loop_restriction_int16Ess, %function
 305              	_ZN12user_maths_c22loop_restriction_int16Ess:
 306              	.LVL14:
 307              	.LFB377:
  48:ACE_ECF_25-ACE-ECF-V1.1-/Algorithm/user_maths/cpp_files/user_maths.cpp **** 
  49:ACE_ECF_25-ACE-ECF-V1.1-/Algorithm/user_maths/cpp_files/user_maths.cpp **** /*
  50:ACE_ECF_25-ACE-ECF-V1.1-/Algorithm/user_maths/cpp_files/user_maths.cpp ****  *功能：正负循环限制（16位）
  51:ACE_ECF_25-ACE-ECF-V1.1-/Algorithm/user_maths/cpp_files/user_maths.cpp ****  *传入：1.输入值  2.限制幅度(正数)
  52:ACE_ECF_25-ACE-ECF-V1.1-/Algorithm/user_maths/cpp_files/user_maths.cpp ****  *传出：限幅输出值
  53:ACE_ECF_25-ACE-ECF-V1.1-/Algorithm/user_maths/cpp_files/user_maths.cpp ****  *描述：将输入值限制在 +-限制幅度 的范围内
  54:ACE_ECF_25-ACE-ECF-V1.1-/Algorithm/user_maths/cpp_files/user_maths.cpp ****  */
  55:ACE_ECF_25-ACE-ECF-V1.1-/Algorithm/user_maths/cpp_files/user_maths.cpp **** int16_t user_maths_c::loop_restriction_int16(int16_t num, int16_t limit_num)
  56:ACE_ECF_25-ACE-ECF-V1.1-/Algorithm/user_maths/cpp_files/user_maths.cpp **** {
 308              		.loc 1 56 1 is_stmt 1 view -0
 309              		.cfi_startproc
 310              		@ args = 0, pretend = 0, frame = 0
 311              		@ frame_needed = 0, uses_anonymous_args = 0
 312              		@ link register save eliminated.
 313              		.loc 1 56 1 is_stmt 0 view .LVU56
 314 0000 0846     		mov	r0, r1	@ num, tmp136
 315              	.LVL15:
  57:ACE_ECF_25-ACE-ECF-V1.1-/Algorithm/user_maths/cpp_files/user_maths.cpp ****     if (user_abs(num) > limit_num)
 316              		.loc 1 57 5 is_stmt 1 view .LVU57
 317              	@ ACE_ECF_25-ACE-ECF-V1.1-/Algorithm/user_maths/cpp_files/user_maths.cpp:57:     if (user_abs(num) 
 318              		.loc 1 57 9 is_stmt 0 view .LVU58
 319 0002 81EAE173 		eor	r3, r1, r1, asr #31	@ tmp126, num, num,
 320 0006 A3EBE173 		sub	r3, r3, r1, asr #31	@ tmp126, tmp126, num,
 321 000a 9BB2     		uxth	r3, r3	@ _2, tmp126
 322              	@ ACE_ECF_25-ACE-ECF-V1.1-/Algorithm/user_maths/cpp_files/user_maths.cpp:57:     if (user_abs(num) 
 323              		.loc 1 57 5 view .LVU59
 324 000c 9342     		cmp	r3, r2	@ _2, limit_num
 325 000e 06DD     		ble	.L15		@,
  58:ACE_ECF_25-ACE-ECF-V1.1-/Algorithm/user_maths/cpp_files/user_maths.cpp ****     {
  59:ACE_ECF_25-ACE-ECF-V1.1-/Algorithm/user_maths/cpp_files/user_maths.cpp ****         if (num >= 0)
 326              		.loc 1 59 9 is_stmt 1 view .LVU60
 327 0010 0029     		cmp	r1, #0	@ num,
 328 0012 02DB     		blt	.L16		@,
  60:ACE_ECF_25-ACE-ECF-V1.1-/Algorithm/user_maths/cpp_files/user_maths.cpp ****             num -= limit_num;
 329              		.loc 1 60 13 view .LVU61
 330              	@ ACE_ECF_25-ACE-ECF-V1.1-/Algorithm/user_maths/cpp_files/user_maths.cpp:60:             num -= lim
 331              		.loc 1 60 17 is_stmt 0 view .LVU62
 332 0014 881A     		subs	r0, r1, r2	@ tmp131, num, limit_num
 333 0016 00B2     		sxth	r0, r0	@ num, tmp131
 334              	.LVL16:
 335              		.loc 1 60 17 view .LVU63
 336 0018 7047     		bx	lr	@
 337              	.LVL17:
 338              	.L16:
ARM GAS  C:\Users\30806\AppData\Local\Temp\ccxw87g1.s 			page 8


  61:ACE_ECF_25-ACE-ECF-V1.1-/Algorithm/user_maths/cpp_files/user_maths.cpp ****         else
  62:ACE_ECF_25-ACE-ECF-V1.1-/Algorithm/user_maths/cpp_files/user_maths.cpp ****             num += limit_num;
 339              		.loc 1 62 13 is_stmt 1 view .LVU64
 340              	@ ACE_ECF_25-ACE-ECF-V1.1-/Algorithm/user_maths/cpp_files/user_maths.cpp:62:             num += lim
 341              		.loc 1 62 17 is_stmt 0 view .LVU65
 342 001a 1044     		add	r0, r0, r2	@ tmp134, limit_num
 343 001c 00B2     		sxth	r0, r0	@ num, tmp134
 344              	.LVL18:
 345              	.L15:
  63:ACE_ECF_25-ACE-ECF-V1.1-/Algorithm/user_maths/cpp_files/user_maths.cpp ****     }
  64:ACE_ECF_25-ACE-ECF-V1.1-/Algorithm/user_maths/cpp_files/user_maths.cpp ****     return num;
 346              		.loc 1 64 5 is_stmt 1 view .LVU66
 347              	@ ACE_ECF_25-ACE-ECF-V1.1-/Algorithm/user_maths/cpp_files/user_maths.cpp:65: }
  65:ACE_ECF_25-ACE-ECF-V1.1-/Algorithm/user_maths/cpp_files/user_maths.cpp **** }
 348              		.loc 1 65 1 is_stmt 0 view .LVU67
 349 001e 7047     		bx	lr	@
 350              		.cfi_endproc
 351              	.LFE377:
 352              		.size	_ZN12user_maths_c22loop_restriction_int16Ess, .-_ZN12user_maths_c22loop_restriction_int16Ess
 353              		.section	.text._ZN12user_maths_c22loop_restriction_floatEff,"ax",%progbits
 354              		.align	1
 355              		.global	_ZN12user_maths_c22loop_restriction_floatEff
 356              		.syntax unified
 357              		.thumb
 358              		.thumb_func
 359              		.type	_ZN12user_maths_c22loop_restriction_floatEff, %function
 360              	_ZN12user_maths_c22loop_restriction_floatEff:
 361              	.LVL19:
 362              	.LFB378:
  66:ACE_ECF_25-ACE-ECF-V1.1-/Algorithm/user_maths/cpp_files/user_maths.cpp **** 
  67:ACE_ECF_25-ACE-ECF-V1.1-/Algorithm/user_maths/cpp_files/user_maths.cpp **** /*
  68:ACE_ECF_25-ACE-ECF-V1.1-/Algorithm/user_maths/cpp_files/user_maths.cpp ****  *功能：正负循环限制（float）
  69:ACE_ECF_25-ACE-ECF-V1.1-/Algorithm/user_maths/cpp_files/user_maths.cpp ****  *传入：1.输入值  2.限制幅度(正数)
  70:ACE_ECF_25-ACE-ECF-V1.1-/Algorithm/user_maths/cpp_files/user_maths.cpp ****  *传出：限幅输出值
  71:ACE_ECF_25-ACE-ECF-V1.1-/Algorithm/user_maths/cpp_files/user_maths.cpp ****  *描述：将输入值限制在 +-限制幅度 的范围内
  72:ACE_ECF_25-ACE-ECF-V1.1-/Algorithm/user_maths/cpp_files/user_maths.cpp ****  */
  73:ACE_ECF_25-ACE-ECF-V1.1-/Algorithm/user_maths/cpp_files/user_maths.cpp **** float user_maths_c::loop_restriction_float(float num, float limit_num)
  74:ACE_ECF_25-ACE-ECF-V1.1-/Algorithm/user_maths/cpp_files/user_maths.cpp **** {
 363              		.loc 1 74 1 is_stmt 1 view -0
 364              		.cfi_startproc
 365              		@ args = 0, pretend = 0, frame = 0
 366              		@ frame_needed = 0, uses_anonymous_args = 0
 367              		@ link register save eliminated.
  75:ACE_ECF_25-ACE-ECF-V1.1-/Algorithm/user_maths/cpp_files/user_maths.cpp ****     if (user_abs(num) > limit_num)
 368              		.loc 1 75 5 view .LVU69
 369              	@ ACE_ECF_25-ACE-ECF-V1.1-/Algorithm/user_maths/cpp_files/user_maths.cpp:75:     if (user_abs(num) 
 370              		.loc 1 75 9 is_stmt 0 view .LVU70
 371 0000 B5EEC00A 		vcmpe.f32	s0, #0	@ num
 372 0004 F1EE10FA 		vmrs	APSR_nzcv, FPSCR
 373 0008 0EDD     		ble	.L27		@,
 374 000a F0EE407A 		vmov.f32	s15, s0	@ iftmp.12_2, num
 375              	.L18:
 376              	@ ACE_ECF_25-ACE-ECF-V1.1-/Algorithm/user_maths/cpp_files/user_maths.cpp:75:     if (user_abs(num) 
 377              		.loc 1 75 5 discriminator 4 view .LVU71
 378 000e F4EEE07A 		vcmpe.f32	s15, s1	@ iftmp.12_2, limit_num
 379 0012 F1EE10FA 		vmrs	APSR_nzcv, FPSCR
 380 0016 0CDD     		ble	.L19		@,
ARM GAS  C:\Users\30806\AppData\Local\Temp\ccxw87g1.s 			page 9


  76:ACE_ECF_25-ACE-ECF-V1.1-/Algorithm/user_maths/cpp_files/user_maths.cpp ****     {
  77:ACE_ECF_25-ACE-ECF-V1.1-/Algorithm/user_maths/cpp_files/user_maths.cpp ****         if (num >= 0)
 381              		.loc 1 77 9 is_stmt 1 view .LVU72
 382 0018 B5EEC00A 		vcmpe.f32	s0, #0	@ num
 383 001c F1EE10FA 		vmrs	APSR_nzcv, FPSCR
 384 0020 05DB     		blt	.L26		@,
  78:ACE_ECF_25-ACE-ECF-V1.1-/Algorithm/user_maths/cpp_files/user_maths.cpp ****             num -= limit_num;
 385              		.loc 1 78 13 view .LVU73
 386              	@ ACE_ECF_25-ACE-ECF-V1.1-/Algorithm/user_maths/cpp_files/user_maths.cpp:78:             num -= lim
 387              		.loc 1 78 17 is_stmt 0 view .LVU74
 388 0022 30EE600A 		vsub.f32	s0, s0, s1	@ num, num, limit_num
 389              	.LVL20:
 390              		.loc 1 78 17 view .LVU75
 391 0026 7047     		bx	lr	@
 392              	.L27:
 393              	@ ACE_ECF_25-ACE-ECF-V1.1-/Algorithm/user_maths/cpp_files/user_maths.cpp:75:     if (user_abs(num) 
  75:ACE_ECF_25-ACE-ECF-V1.1-/Algorithm/user_maths/cpp_files/user_maths.cpp ****     if (user_abs(num) > limit_num)
 394              		.loc 1 75 9 discriminator 2 view .LVU76
 395 0028 F1EE407A 		vneg.f32	s15, s0	@ iftmp.12_2, num
 396 002c EFE7     		b	.L18		@
 397              	.L26:
  79:ACE_ECF_25-ACE-ECF-V1.1-/Algorithm/user_maths/cpp_files/user_maths.cpp ****         else
  80:ACE_ECF_25-ACE-ECF-V1.1-/Algorithm/user_maths/cpp_files/user_maths.cpp ****             num += limit_num;
 398              		.loc 1 80 13 is_stmt 1 view .LVU77
 399              	@ ACE_ECF_25-ACE-ECF-V1.1-/Algorithm/user_maths/cpp_files/user_maths.cpp:80:             num += lim
 400              		.loc 1 80 17 is_stmt 0 view .LVU78
 401 002e 30EE200A 		vadd.f32	s0, s0, s1	@ num, num, limit_num
 402              	.LVL21:
 403              	.L19:
  81:ACE_ECF_25-ACE-ECF-V1.1-/Algorithm/user_maths/cpp_files/user_maths.cpp ****     }
  82:ACE_ECF_25-ACE-ECF-V1.1-/Algorithm/user_maths/cpp_files/user_maths.cpp ****     return num;
 404              		.loc 1 82 5 is_stmt 1 view .LVU79
 405              	@ ACE_ECF_25-ACE-ECF-V1.1-/Algorithm/user_maths/cpp_files/user_maths.cpp:83: }
  83:ACE_ECF_25-ACE-ECF-V1.1-/Algorithm/user_maths/cpp_files/user_maths.cpp **** }
 406              		.loc 1 83 1 is_stmt 0 view .LVU80
 407 0032 7047     		bx	lr	@
 408              		.cfi_endproc
 409              	.LFE378:
 410              		.size	_ZN12user_maths_c22loop_restriction_floatEff, .-_ZN12user_maths_c22loop_restriction_floatEff
 411              		.section	.text._ZN12user_maths_c19loop_fp32_constrainEfff,"ax",%progbits
 412              		.align	1
 413              		.global	_ZN12user_maths_c19loop_fp32_constrainEfff
 414              		.syntax unified
 415              		.thumb
 416              		.thumb_func
 417              		.type	_ZN12user_maths_c19loop_fp32_constrainEfff, %function
 418              	_ZN12user_maths_c19loop_fp32_constrainEfff:
 419              	.LVL22:
 420              	.LFB379:
  84:ACE_ECF_25-ACE-ECF-V1.1-/Algorithm/user_maths/cpp_files/user_maths.cpp **** 
  85:ACE_ECF_25-ACE-ECF-V1.1-/Algorithm/user_maths/cpp_files/user_maths.cpp **** /*循环限幅32*/
  86:ACE_ECF_25-ACE-ECF-V1.1-/Algorithm/user_maths/cpp_files/user_maths.cpp **** float user_maths_c::loop_fp32_constrain(float Input, float minValue, float maxValue)
  87:ACE_ECF_25-ACE-ECF-V1.1-/Algorithm/user_maths/cpp_files/user_maths.cpp **** {
 421              		.loc 1 87 1 is_stmt 1 view -0
 422              		.cfi_startproc
 423              		@ args = 0, pretend = 0, frame = 0
 424              		@ frame_needed = 0, uses_anonymous_args = 0
ARM GAS  C:\Users\30806\AppData\Local\Temp\ccxw87g1.s 			page 10


 425              		@ link register save eliminated.
  88:ACE_ECF_25-ACE-ECF-V1.1-/Algorithm/user_maths/cpp_files/user_maths.cpp ****     if (maxValue < minValue)
 426              		.loc 1 88 5 view .LVU82
 427 0000 B4EEE01A 		vcmpe.f32	s2, s1	@ maxValue, minValue
 428 0004 F1EE10FA 		vmrs	APSR_nzcv, FPSCR
 429 0008 0ED4     		bmi	.L29		@,
  89:ACE_ECF_25-ACE-ECF-V1.1-/Algorithm/user_maths/cpp_files/user_maths.cpp ****     {
  90:ACE_ECF_25-ACE-ECF-V1.1-/Algorithm/user_maths/cpp_files/user_maths.cpp ****         return Input;
  91:ACE_ECF_25-ACE-ECF-V1.1-/Algorithm/user_maths/cpp_files/user_maths.cpp ****     }
  92:ACE_ECF_25-ACE-ECF-V1.1-/Algorithm/user_maths/cpp_files/user_maths.cpp **** 
  93:ACE_ECF_25-ACE-ECF-V1.1-/Algorithm/user_maths/cpp_files/user_maths.cpp ****     if (Input > maxValue)
 430              		.loc 1 93 5 view .LVU83
 431              	.LBB2:
 432 000a B4EEC01A 		vcmpe.f32	s2, s0	@ maxValue, Input
 433 000e F1EE10FA 		vmrs	APSR_nzcv, FPSCR
 434 0012 0AD5     		bpl	.L41		@,
 435              	.LBB3:
  94:ACE_ECF_25-ACE-ECF-V1.1-/Algorithm/user_maths/cpp_files/user_maths.cpp ****     {
  95:ACE_ECF_25-ACE-ECF-V1.1-/Algorithm/user_maths/cpp_files/user_maths.cpp ****         float len = maxValue - minValue;
 436              		.loc 1 95 9 view .LVU84
 437              	@ ACE_ECF_25-ACE-ECF-V1.1-/Algorithm/user_maths/cpp_files/user_maths.cpp:95:         float len = ma
 438              		.loc 1 95 15 is_stmt 0 view .LVU85
 439 0014 71EE600A 		vsub.f32	s1, s2, s1	@ len, maxValue, minValue
 440              	.LVL23:
 441              		.loc 1 95 15 view .LVU86
 442 0018 01E0     		b	.L33		@
 443              	.L42:
  96:ACE_ECF_25-ACE-ECF-V1.1-/Algorithm/user_maths/cpp_files/user_maths.cpp ****         while (Input > maxValue)
  97:ACE_ECF_25-ACE-ECF-V1.1-/Algorithm/user_maths/cpp_files/user_maths.cpp ****         {
  98:ACE_ECF_25-ACE-ECF-V1.1-/Algorithm/user_maths/cpp_files/user_maths.cpp ****             Input -= len;
 444              		.loc 1 98 13 is_stmt 1 view .LVU87
 445              	@ ACE_ECF_25-ACE-ECF-V1.1-/Algorithm/user_maths/cpp_files/user_maths.cpp:98:             Input -= l
 446              		.loc 1 98 19 is_stmt 0 view .LVU88
 447 001a 30EE600A 		vsub.f32	s0, s0, s1	@ Input, Input, len
 448              	.LVL24:
 449              	.L33:
  96:ACE_ECF_25-ACE-ECF-V1.1-/Algorithm/user_maths/cpp_files/user_maths.cpp ****         while (Input > maxValue)
 450              		.loc 1 96 9 is_stmt 1 view .LVU89
  96:ACE_ECF_25-ACE-ECF-V1.1-/Algorithm/user_maths/cpp_files/user_maths.cpp ****         while (Input > maxValue)
 451              		.loc 1 96 22 view .LVU90
 452 001e B4EEC10A 		vcmpe.f32	s0, s2	@ Input, maxValue
 453 0022 F1EE10FA 		vmrs	APSR_nzcv, FPSCR
 454 0026 F8DC     		bgt	.L42		@,
 455              	.LVL25:
 456              	.L29:
  96:ACE_ECF_25-ACE-ECF-V1.1-/Algorithm/user_maths/cpp_files/user_maths.cpp ****         while (Input > maxValue)
 457              		.loc 1 96 22 is_stmt 0 view .LVU91
 458              	.LBE3:
 459              	.LBE2:
 460              	@ ACE_ECF_25-ACE-ECF-V1.1-/Algorithm/user_maths/cpp_files/user_maths.cpp:110: }
  99:ACE_ECF_25-ACE-ECF-V1.1-/Algorithm/user_maths/cpp_files/user_maths.cpp ****         }
 100:ACE_ECF_25-ACE-ECF-V1.1-/Algorithm/user_maths/cpp_files/user_maths.cpp ****     }
 101:ACE_ECF_25-ACE-ECF-V1.1-/Algorithm/user_maths/cpp_files/user_maths.cpp ****     else if (Input < minValue)
 102:ACE_ECF_25-ACE-ECF-V1.1-/Algorithm/user_maths/cpp_files/user_maths.cpp ****     {
 103:ACE_ECF_25-ACE-ECF-V1.1-/Algorithm/user_maths/cpp_files/user_maths.cpp ****         float len = maxValue - minValue;
 104:ACE_ECF_25-ACE-ECF-V1.1-/Algorithm/user_maths/cpp_files/user_maths.cpp ****         while (Input < minValue)
 105:ACE_ECF_25-ACE-ECF-V1.1-/Algorithm/user_maths/cpp_files/user_maths.cpp ****         {
ARM GAS  C:\Users\30806\AppData\Local\Temp\ccxw87g1.s 			page 11


 106:ACE_ECF_25-ACE-ECF-V1.1-/Algorithm/user_maths/cpp_files/user_maths.cpp ****             Input += len;
 107:ACE_ECF_25-ACE-ECF-V1.1-/Algorithm/user_maths/cpp_files/user_maths.cpp ****         }
 108:ACE_ECF_25-ACE-ECF-V1.1-/Algorithm/user_maths/cpp_files/user_maths.cpp ****     }
 109:ACE_ECF_25-ACE-ECF-V1.1-/Algorithm/user_maths/cpp_files/user_maths.cpp ****     return Input;
 110:ACE_ECF_25-ACE-ECF-V1.1-/Algorithm/user_maths/cpp_files/user_maths.cpp **** }
 461              		.loc 1 110 1 view .LVU92
 462 0028 7047     		bx	lr	@
 463              	.LVL26:
 464              	.L41:
 101:ACE_ECF_25-ACE-ECF-V1.1-/Algorithm/user_maths/cpp_files/user_maths.cpp ****     {
 465              		.loc 1 101 10 is_stmt 1 view .LVU93
 466              	.LBB6:
 467              	.LBB4:
 468 002a F4EEC00A 		vcmpe.f32	s1, s0	@ minValue, Input
 469 002e F1EE10FA 		vmrs	APSR_nzcv, FPSCR
 470 0032 F9DD     		ble	.L29		@,
 471              	.LBB5:
 103:ACE_ECF_25-ACE-ECF-V1.1-/Algorithm/user_maths/cpp_files/user_maths.cpp ****         while (Input < minValue)
 472              		.loc 1 103 9 view .LVU94
 473              	@ ACE_ECF_25-ACE-ECF-V1.1-/Algorithm/user_maths/cpp_files/user_maths.cpp:103:         float len = m
 103:ACE_ECF_25-ACE-ECF-V1.1-/Algorithm/user_maths/cpp_files/user_maths.cpp ****         while (Input < minValue)
 474              		.loc 1 103 15 is_stmt 0 view .LVU95
 475 0034 31EE601A 		vsub.f32	s2, s2, s1	@ len, maxValue, minValue
 476              	.LVL27:
 477              	.L36:
 104:ACE_ECF_25-ACE-ECF-V1.1-/Algorithm/user_maths/cpp_files/user_maths.cpp ****         {
 478              		.loc 1 104 9 is_stmt 1 view .LVU96
 104:ACE_ECF_25-ACE-ECF-V1.1-/Algorithm/user_maths/cpp_files/user_maths.cpp ****         {
 479              		.loc 1 104 22 view .LVU97
 480 0038 B4EEE00A 		vcmpe.f32	s0, s1	@ Input, minValue
 481 003c F1EE10FA 		vmrs	APSR_nzcv, FPSCR
 482 0040 F2D5     		bpl	.L29		@,
 106:ACE_ECF_25-ACE-ECF-V1.1-/Algorithm/user_maths/cpp_files/user_maths.cpp ****         }
 483              		.loc 1 106 13 view .LVU98
 484              	@ ACE_ECF_25-ACE-ECF-V1.1-/Algorithm/user_maths/cpp_files/user_maths.cpp:106:             Input += 
 106:ACE_ECF_25-ACE-ECF-V1.1-/Algorithm/user_maths/cpp_files/user_maths.cpp ****         }
 485              		.loc 1 106 19 is_stmt 0 view .LVU99
 486 0042 30EE010A 		vadd.f32	s0, s0, s2	@ Input, Input, len
 487              	.LVL28:
 488              	@ ACE_ECF_25-ACE-ECF-V1.1-/Algorithm/user_maths/cpp_files/user_maths.cpp:104:         while (Input 
 104:ACE_ECF_25-ACE-ECF-V1.1-/Algorithm/user_maths/cpp_files/user_maths.cpp ****         {
 489              		.loc 1 104 9 view .LVU100
 490 0046 F7E7     		b	.L36		@
 491              	.LBE5:
 492              	.LBE4:
 493              	.LBE6:
 494              		.cfi_endproc
 495              	.LFE379:
 496              		.size	_ZN12user_maths_c19loop_fp32_constrainEfff, .-_ZN12user_maths_c19loop_fp32_constrainEfff
 497              		.section	.text._ZN12user_maths_c24data_accelerated_controlEPff,"ax",%progbits
 498              		.align	1
 499              		.global	_ZN12user_maths_c24data_accelerated_controlEPff
 500              		.syntax unified
 501              		.thumb
 502              		.thumb_func
 503              		.type	_ZN12user_maths_c24data_accelerated_controlEPff, %function
 504              	_ZN12user_maths_c24data_accelerated_controlEPff:
ARM GAS  C:\Users\30806\AppData\Local\Temp\ccxw87g1.s 			page 12


 505              	.LVL29:
 506              	.LFB380:
 111:ACE_ECF_25-ACE-ECF-V1.1-/Algorithm/user_maths/cpp_files/user_maths.cpp **** 
 112:ACE_ECF_25-ACE-ECF-V1.1-/Algorithm/user_maths/cpp_files/user_maths.cpp **** //斜坡函数(加速度限制)
 113:ACE_ECF_25-ACE-ECF-V1.1-/Algorithm/user_maths/cpp_files/user_maths.cpp **** void user_maths_c::data_accelerated_control(float *input, float acc)
 114:ACE_ECF_25-ACE-ECF-V1.1-/Algorithm/user_maths/cpp_files/user_maths.cpp **** {
 507              		.loc 1 114 1 is_stmt 1 view -0
 508              		.cfi_startproc
 509              		@ args = 0, pretend = 0, frame = 0
 510              		@ frame_needed = 0, uses_anonymous_args = 0
 511              		@ link register save eliminated.
 115:ACE_ECF_25-ACE-ECF-V1.1-/Algorithm/user_maths/cpp_files/user_maths.cpp ****     static int16_t last_num = 0;
 512              		.loc 1 115 5 view .LVU102
 116:ACE_ECF_25-ACE-ECF-V1.1-/Algorithm/user_maths/cpp_files/user_maths.cpp ****     int16_t temp;
 513              		.loc 1 116 5 view .LVU103
 117:ACE_ECF_25-ACE-ECF-V1.1-/Algorithm/user_maths/cpp_files/user_maths.cpp ****     temp = *input - last_num;
 514              		.loc 1 117 5 view .LVU104
 515              	@ ACE_ECF_25-ACE-ECF-V1.1-/Algorithm/user_maths/cpp_files/user_maths.cpp:117:     temp = *input - l
 516              		.loc 1 117 12 is_stmt 0 view .LVU105
 517 0000 D1ED007A 		vldr.32	s15, [r1]	@ _1, *input_17(D)
 518              	@ ACE_ECF_25-ACE-ECF-V1.1-/Algorithm/user_maths/cpp_files/user_maths.cpp:117:     temp = *input - l
 519              		.loc 1 117 19 view .LVU106
 520 0004 184B     		ldr	r3, .L47	@ tmp131,
 521 0006 B3F90030 		ldrsh	r3, [r3]	@ last_num, last_num
 522 000a 07EE103A 		vmov	s14, r3	@ int	@ last_num, last_num
 523 000e B8EEC77A 		vcvt.f32.s32	s14, s14	@ _3, last_num
 524 0012 77EEC77A 		vsub.f32	s15, s15, s14	@ _4, _1, _3
 525              	@ ACE_ECF_25-ACE-ECF-V1.1-/Algorithm/user_maths/cpp_files/user_maths.cpp:117:     temp = *input - l
 526              		.loc 1 117 10 view .LVU107
 527 0016 FDEEE77A 		vcvt.s32.f32	s15, s15	@ tmp134, _4
 528 001a 17EE903A 		vmov	r3, s15	@ int	@ tmp134, tmp134
 529 001e 1BB2     		sxth	r3, r3	@ temp, tmp134
 530              	.LVL30:
 118:ACE_ECF_25-ACE-ECF-V1.1-/Algorithm/user_maths/cpp_files/user_maths.cpp **** 
 119:ACE_ECF_25-ACE-ECF-V1.1-/Algorithm/user_maths/cpp_files/user_maths.cpp ****     if (user_abs(temp) > acc)
 531              		.loc 1 119 5 is_stmt 1 view .LVU108
 532              	@ ACE_ECF_25-ACE-ECF-V1.1-/Algorithm/user_maths/cpp_files/user_maths.cpp:119:     if (user_abs(temp
 533              		.loc 1 119 9 is_stmt 0 view .LVU109
 534 0020 83EAE372 		eor	r2, r3, r3, asr #31	@ tmp135, temp, temp,
 535 0024 A2EBE372 		sub	r2, r2, r3, asr #31	@ tmp135, tmp135, temp,
 536 0028 92B2     		uxth	r2, r2	@ _6, tmp135
 537              	@ ACE_ECF_25-ACE-ECF-V1.1-/Algorithm/user_maths/cpp_files/user_maths.cpp:119:     if (user_abs(temp
 538              		.loc 1 119 24 view .LVU110
 539 002a 07EE902A 		vmov	s15, r2	@ int	@ _6, _6
 540 002e F8EEE77A 		vcvt.f32.s32	s15, s15	@ _7, _6
 541              	@ ACE_ECF_25-ACE-ECF-V1.1-/Algorithm/user_maths/cpp_files/user_maths.cpp:119:     if (user_abs(temp
 542              		.loc 1 119 5 view .LVU111
 543 0032 F4EEC07A 		vcmpe.f32	s15, s0	@ _7, acc
 544 0036 F1EE10FA 		vmrs	APSR_nzcv, FPSCR
 545 003a 0BDD     		ble	.L44		@,
 120:ACE_ECF_25-ACE-ECF-V1.1-/Algorithm/user_maths/cpp_files/user_maths.cpp ****         *input = last_num + temp / user_abs(temp) * acc;
 546              		.loc 1 120 9 is_stmt 1 view .LVU112
 547              	@ ACE_ECF_25-ACE-ECF-V1.1-/Algorithm/user_maths/cpp_files/user_maths.cpp:120:         *input = last
 548              		.loc 1 120 34 is_stmt 0 view .LVU113
 549 003c 93FBF2F3 		sdiv	r3, r3, r2	@ _9, temp, _6
 550              	.LVL31:
 551              	@ ACE_ECF_25-ACE-ECF-V1.1-/Algorithm/user_maths/cpp_files/user_maths.cpp:120:         *input = last
ARM GAS  C:\Users\30806\AppData\Local\Temp\ccxw87g1.s 			page 13


 552              		.loc 1 120 51 view .LVU114
 553 0040 07EE903A 		vmov	s15, r3	@ int	@ _9, _9
 554 0044 F8EEE77A 		vcvt.f32.s32	s15, s15	@ tmp136, _9
 555 0048 27EE800A 		vmul.f32	s0, s15, s0	@ _11, tmp136, acc
 556              	.LVL32:
 557              	@ ACE_ECF_25-ACE-ECF-V1.1-/Algorithm/user_maths/cpp_files/user_maths.cpp:120:         *input = last
 558              		.loc 1 120 27 view .LVU115
 559 004c 37EE000A 		vadd.f32	s0, s14, s0	@ _12, _3, _11
 560              	@ ACE_ECF_25-ACE-ECF-V1.1-/Algorithm/user_maths/cpp_files/user_maths.cpp:120:         *input = last
 561              		.loc 1 120 16 view .LVU116
 562 0050 81ED000A 		vstr.32	s0, [r1]	@ _12, *input_17(D)
 563              	.LVL33:
 564              	.L44:
 121:ACE_ECF_25-ACE-ECF-V1.1-/Algorithm/user_maths/cpp_files/user_maths.cpp **** 
 122:ACE_ECF_25-ACE-ECF-V1.1-/Algorithm/user_maths/cpp_files/user_maths.cpp ****     last_num = *input;
 565              		.loc 1 122 5 is_stmt 1 view .LVU117
 566              	@ ACE_ECF_25-ACE-ECF-V1.1-/Algorithm/user_maths/cpp_files/user_maths.cpp:122:     last_num = *input
 567              		.loc 1 122 16 is_stmt 0 view .LVU118
 568 0054 D1ED007A 		vldr.32	s15, [r1]	@ _13, *input_17(D)
 569              	@ ACE_ECF_25-ACE-ECF-V1.1-/Algorithm/user_maths/cpp_files/user_maths.cpp:122:     last_num = *input
 570              		.loc 1 122 14 view .LVU119
 571 0058 FDEEE77A 		vcvt.s32.f32	s15, s15	@ tmp138, _13
 572 005c 024B     		ldr	r3, .L47	@ tmp137,
 573 005e 17EE902A 		vmov	r2, s15	@ int	@ tmp138, tmp138
 574 0062 1A80     		strh	r2, [r3]	@ movhi	@ tmp138, last_num
 575              	@ ACE_ECF_25-ACE-ECF-V1.1-/Algorithm/user_maths/cpp_files/user_maths.cpp:123: }
 123:ACE_ECF_25-ACE-ECF-V1.1-/Algorithm/user_maths/cpp_files/user_maths.cpp **** }
 576              		.loc 1 123 1 view .LVU120
 577 0064 7047     		bx	lr	@
 578              	.L48:
 579 0066 00BF     		.align	2
 580              	.L47:
 581 0068 00000000 		.word	.LANCHOR0
 582              		.cfi_endproc
 583              	.LFE380:
 584              		.size	_ZN12user_maths_c24data_accelerated_controlEPff, .-_ZN12user_maths_c24data_accelerated_contr
 585              		.section	.text._ZN12user_maths_c15limiting_filterEfff,"ax",%progbits
 586              		.align	1
 587              		.global	_ZN12user_maths_c15limiting_filterEfff
 588              		.syntax unified
 589              		.thumb
 590              		.thumb_func
 591              		.type	_ZN12user_maths_c15limiting_filterEfff, %function
 592              	_ZN12user_maths_c15limiting_filterEfff:
 593              	.LVL34:
 594              	.LFB381:
 124:ACE_ECF_25-ACE-ECF-V1.1-/Algorithm/user_maths/cpp_files/user_maths.cpp **** 
 125:ACE_ECF_25-ACE-ECF-V1.1-/Algorithm/user_maths/cpp_files/user_maths.cpp **** // 限幅滤波函数
 126:ACE_ECF_25-ACE-ECF-V1.1-/Algorithm/user_maths/cpp_files/user_maths.cpp **** float user_maths_c::limiting_filter(float new_value, float last_value, float delat_max)
 127:ACE_ECF_25-ACE-ECF-V1.1-/Algorithm/user_maths/cpp_files/user_maths.cpp **** {
 595              		.loc 1 127 1 is_stmt 1 view -0
 596              		.cfi_startproc
 597              		@ args = 0, pretend = 0, frame = 0
 598              		@ frame_needed = 0, uses_anonymous_args = 0
 599              		@ link register save eliminated.
 600              		.loc 1 127 1 is_stmt 0 view .LVU122
 601 0000 F0EE407A 		vmov.f32	s15, s0	@ new_value, tmp121
ARM GAS  C:\Users\30806\AppData\Local\Temp\ccxw87g1.s 			page 14


 602 0004 B0EE600A 		vmov.f32	s0, s1	@ last_value, tmp122
 603              	.LVL35:
 128:ACE_ECF_25-ACE-ECF-V1.1-/Algorithm/user_maths/cpp_files/user_maths.cpp ****     if ((new_value - last_value > delat_max) || (last_value - new_value > delat_max))
 604              		.loc 1 128 5 is_stmt 1 view .LVU123
 605              	@ ACE_ECF_25-ACE-ECF-V1.1-/Algorithm/user_maths/cpp_files/user_maths.cpp:128:     if ((new_value - 
 606              		.loc 1 128 20 is_stmt 0 view .LVU124
 607 0008 37EEE07A 		vsub.f32	s14, s15, s1	@ _1, new_value, last_value
 608              	@ ACE_ECF_25-ACE-ECF-V1.1-/Algorithm/user_maths/cpp_files/user_maths.cpp:128:     if ((new_value - 
 609              		.loc 1 128 5 view .LVU125
 610 000c B4EEC17A 		vcmpe.f32	s14, s2	@ _1, delat_max
 611 0010 F1EE10FA 		vmrs	APSR_nzcv, FPSCR
 612 0014 08DC     		bgt	.L50		@,
 613              	@ ACE_ECF_25-ACE-ECF-V1.1-/Algorithm/user_maths/cpp_files/user_maths.cpp:128:     if ((new_value - 
 614              		.loc 1 128 61 discriminator 1 view .LVU126
 615 0016 30EEE77A 		vsub.f32	s14, s1, s15	@ _2, last_value, new_value
 616              	@ ACE_ECF_25-ACE-ECF-V1.1-/Algorithm/user_maths/cpp_files/user_maths.cpp:128:     if ((new_value - 
 617              		.loc 1 128 46 discriminator 1 view .LVU127
 618 001a B4EEC17A 		vcmpe.f32	s14, s2	@ _2, delat_max
 619 001e F1EE10FA 		vmrs	APSR_nzcv, FPSCR
 620 0022 01DC     		bgt	.L50		@,
 621              	@ ACE_ECF_25-ACE-ECF-V1.1-/Algorithm/user_maths/cpp_files/user_maths.cpp:130:     return new_value;
 129:ACE_ECF_25-ACE-ECF-V1.1-/Algorithm/user_maths/cpp_files/user_maths.cpp ****         return last_value;
 130:ACE_ECF_25-ACE-ECF-V1.1-/Algorithm/user_maths/cpp_files/user_maths.cpp ****     return new_value;
 622              		.loc 1 130 12 view .LVU128
 623 0024 B0EE670A 		vmov.f32	s0, s15	@ last_value, new_value
 624              	.L50:
 625              	@ ACE_ECF_25-ACE-ECF-V1.1-/Algorithm/user_maths/cpp_files/user_maths.cpp:131: }
 131:ACE_ECF_25-ACE-ECF-V1.1-/Algorithm/user_maths/cpp_files/user_maths.cpp **** }
 626              		.loc 1 131 1 view .LVU129
 627 0028 7047     		bx	lr	@
 628              		.cfi_endproc
 629              	.LFE381:
 630              		.size	_ZN12user_maths_c15limiting_filterEfff, .-_ZN12user_maths_c15limiting_filterEfff
 631              		.section	.text._ZN12user_maths_c13sin_calculateEf,"ax",%progbits
 632              		.align	1
 633              		.global	_ZN12user_maths_c13sin_calculateEf
 634              		.syntax unified
 635              		.thumb
 636              		.thumb_func
 637              		.type	_ZN12user_maths_c13sin_calculateEf, %function
 638              	_ZN12user_maths_c13sin_calculateEf:
 639              	.LVL36:
 640              	.LFB382:
 132:ACE_ECF_25-ACE-ECF-V1.1-/Algorithm/user_maths/cpp_files/user_maths.cpp **** 
 133:ACE_ECF_25-ACE-ECF-V1.1-/Algorithm/user_maths/cpp_files/user_maths.cpp **** // sin函数查表法
 134:ACE_ECF_25-ACE-ECF-V1.1-/Algorithm/user_maths/cpp_files/user_maths.cpp **** float user_maths_c::sin_calculate(float angle)
 135:ACE_ECF_25-ACE-ECF-V1.1-/Algorithm/user_maths/cpp_files/user_maths.cpp **** {
 641              		.loc 1 135 1 is_stmt 1 view -0
 642              		.cfi_startproc
 643              		@ args = 0, pretend = 0, frame = 0
 644              		@ frame_needed = 0, uses_anonymous_args = 0
 645              		@ link register save eliminated.
 136:ACE_ECF_25-ACE-ECF-V1.1-/Algorithm/user_maths/cpp_files/user_maths.cpp ****     float sin_angle = 0.0f;
 646              		.loc 1 136 5 view .LVU131
 137:ACE_ECF_25-ACE-ECF-V1.1-/Algorithm/user_maths/cpp_files/user_maths.cpp **** 
 138:ACE_ECF_25-ACE-ECF-V1.1-/Algorithm/user_maths/cpp_files/user_maths.cpp ****     if (angle >= 0.0f && angle < 90.0f)
 647              		.loc 1 138 5 view .LVU132
ARM GAS  C:\Users\30806\AppData\Local\Temp\ccxw87g1.s 			page 15


 648 0000 B5EEC00A 		vcmpe.f32	s0, #0	@ angle
 649 0004 F1EE10FA 		vmrs	APSR_nzcv, FPSCR
 650 0008 20DB     		blt	.L52		@,
 651              	@ ACE_ECF_25-ACE-ECF-V1.1-/Algorithm/user_maths/cpp_files/user_maths.cpp:138:     if (angle >= 0.0f
 652              		.loc 1 138 23 is_stmt 0 discriminator 1 view .LVU133
 653 000a DFED567A 		vldr.32	s15, .L85	@ tmp135,
 654 000e B4EEE70A 		vcmpe.f32	s0, s15	@ angle, tmp135
 655 0012 F1EE10FA 		vmrs	APSR_nzcv, FPSCR
 656 0016 19D5     		bpl	.L52		@,
 139:ACE_ECF_25-ACE-ECF-V1.1-/Algorithm/user_maths/cpp_files/user_maths.cpp ****         sin_angle = (Trigonometric_Functions[(int)(user_abs(angle) * 10.0f)] / 100.0f);
 657              		.loc 1 139 9 is_stmt 1 view .LVU134
 658              	@ ACE_ECF_25-ACE-ECF-V1.1-/Algorithm/user_maths/cpp_files/user_maths.cpp:139:         sin_angle = (
 659              		.loc 1 139 52 is_stmt 0 view .LVU135
 660 0018 B5EEC00A 		vcmpe.f32	s0, #0	@ angle
 661 001c F1EE10FA 		vmrs	APSR_nzcv, FPSCR
 662 0020 11DD     		ble	.L80		@,
 663              	.LVL37:
 664              	.L55:
 665              	@ ACE_ECF_25-ACE-ECF-V1.1-/Algorithm/user_maths/cpp_files/user_maths.cpp:139:         sin_angle = (
 666              		.loc 1 139 68 discriminator 4 view .LVU136
 667 0022 F2EE047A 		vmov.f32	s15, #1.0e+1	@ tmp137,
 668 0026 20EE270A 		vmul.f32	s0, s0, s15	@ _1, angle, tmp137
 669              	@ ACE_ECF_25-ACE-ECF-V1.1-/Algorithm/user_maths/cpp_files/user_maths.cpp:139:         sin_angle = (
 670              		.loc 1 139 46 discriminator 4 view .LVU137
 671 002a BDEEC00A 		vcvt.s32.f32	s0, s0	@ _2, _1
 672              	@ ACE_ECF_25-ACE-ECF-V1.1-/Algorithm/user_maths/cpp_files/user_maths.cpp:139:         sin_angle = (
 673              		.loc 1 139 76 discriminator 4 view .LVU138
 674 002e 4E4B     		ldr	r3, .L85+4	@ tmp138,
 675 0030 10EE102A 		vmov	r2, s0	@ int	@ _2, _2
 676 0034 03EB8203 		add	r3, r3, r2, lsl #2	@ tmp140, tmp138, _2,
 677 0038 93ED007A 		vldr.32	s14, [r3]	@ _3, Trigonometric_Functions[_2]
 678              	@ ACE_ECF_25-ACE-ECF-V1.1-/Algorithm/user_maths/cpp_files/user_maths.cpp:139:         sin_angle = (
 679              		.loc 1 139 19 discriminator 4 view .LVU139
 680 003c DFED4B7A 		vldr.32	s15, .L85+8	@ tmp141,
 681 0040 87EE270A 		vdiv.f32	s0, s14, s15	@ <retval>, _3, tmp141
 682              	.LVL38:
 683              		.loc 1 139 19 discriminator 4 view .LVU140
 684 0044 7047     		bx	lr	@
 685              	.LVL39:
 686              	.L80:
 687              	@ ACE_ECF_25-ACE-ECF-V1.1-/Algorithm/user_maths/cpp_files/user_maths.cpp:139:         sin_angle = (
 688              		.loc 1 139 52 discriminator 2 view .LVU141
 689 0046 B1EE400A 		vneg.f32	s0, s0	@ angle, angle
 690              	.LVL40:
 691              		.loc 1 139 52 discriminator 2 view .LVU142
 692 004a EAE7     		b	.L55		@
 693              	.LVL41:
 694              	.L52:
 140:ACE_ECF_25-ACE-ECF-V1.1-/Algorithm/user_maths/cpp_files/user_maths.cpp ****     else if (angle >= 90.0f && angle < 180.f)
 695              		.loc 1 140 10 is_stmt 1 view .LVU143
 696 004c DFED457A 		vldr.32	s15, .L85	@ tmp142,
 697 0050 B4EEE70A 		vcmpe.f32	s0, s15	@ angle, tmp142
 698 0054 F1EE10FA 		vmrs	APSR_nzcv, FPSCR
 699 0058 22DB     		blt	.L57		@,
 700              	@ ACE_ECF_25-ACE-ECF-V1.1-/Algorithm/user_maths/cpp_files/user_maths.cpp:140:     else if (angle >=
 701              		.loc 1 140 29 is_stmt 0 discriminator 1 view .LVU144
 702 005a DFED457A 		vldr.32	s15, .L85+12	@ tmp143,
ARM GAS  C:\Users\30806\AppData\Local\Temp\ccxw87g1.s 			page 16


 703 005e B4EEE70A 		vcmpe.f32	s0, s15	@ angle, tmp143
 704 0062 F1EE10FA 		vmrs	APSR_nzcv, FPSCR
 705 0066 1BD5     		bpl	.L57		@,
 141:ACE_ECF_25-ACE-ECF-V1.1-/Algorithm/user_maths/cpp_files/user_maths.cpp ****         sin_angle = (Trigonometric_Functions[(int)(user_abs(180.0f - angle) * 10.0f)] / 100.0f);
 706              		.loc 1 141 9 is_stmt 1 view .LVU145
 707              	@ ACE_ECF_25-ACE-ECF-V1.1-/Algorithm/user_maths/cpp_files/user_maths.cpp:141:         sin_angle = (
 708              		.loc 1 141 52 is_stmt 0 view .LVU146
 709 0068 37EEC00A 		vsub.f32	s0, s15, s0	@ _4, tmp144, angle
 710              	.LVL42:
 711              		.loc 1 141 52 view .LVU147
 712 006c B5EEC00A 		vcmpe.f32	s0, #0	@ _4
 713 0070 F1EE10FA 		vmrs	APSR_nzcv, FPSCR
 714 0074 11DD     		ble	.L81		@,
 715              	.L60:
 716              	@ ACE_ECF_25-ACE-ECF-V1.1-/Algorithm/user_maths/cpp_files/user_maths.cpp:141:         sin_angle = (
 717              		.loc 1 141 77 discriminator 4 view .LVU148
 718 0076 F2EE047A 		vmov.f32	s15, #1.0e+1	@ tmp146,
 719 007a 20EE270A 		vmul.f32	s0, s0, s15	@ _5, _4, tmp146
 720              	@ ACE_ECF_25-ACE-ECF-V1.1-/Algorithm/user_maths/cpp_files/user_maths.cpp:141:         sin_angle = (
 721              		.loc 1 141 46 discriminator 4 view .LVU149
 722 007e BDEEC00A 		vcvt.s32.f32	s0, s0	@ _6, _5
 723              	@ ACE_ECF_25-ACE-ECF-V1.1-/Algorithm/user_maths/cpp_files/user_maths.cpp:141:         sin_angle = (
 724              		.loc 1 141 85 discriminator 4 view .LVU150
 725 0082 394B     		ldr	r3, .L85+4	@ tmp147,
 726 0084 10EE102A 		vmov	r2, s0	@ int	@ _6, _6
 727 0088 03EB8203 		add	r3, r3, r2, lsl #2	@ tmp149, tmp147, _6,
 728 008c 93ED007A 		vldr.32	s14, [r3]	@ _7, Trigonometric_Functions[_6]
 729              	@ ACE_ECF_25-ACE-ECF-V1.1-/Algorithm/user_maths/cpp_files/user_maths.cpp:141:         sin_angle = (
 730              		.loc 1 141 19 discriminator 4 view .LVU151
 731 0090 DFED367A 		vldr.32	s15, .L85+8	@ tmp150,
 732 0094 87EE270A 		vdiv.f32	s0, s14, s15	@ <retval>, _7, tmp150
 733              	.LVL43:
 734              		.loc 1 141 19 discriminator 4 view .LVU152
 735 0098 7047     		bx	lr	@
 736              	.LVL44:
 737              	.L81:
 738              	@ ACE_ECF_25-ACE-ECF-V1.1-/Algorithm/user_maths/cpp_files/user_maths.cpp:141:         sin_angle = (
 739              		.loc 1 141 52 discriminator 2 view .LVU153
 740 009a B1EE400A 		vneg.f32	s0, s0	@ _4, _4
 741 009e EAE7     		b	.L60		@
 742              	.LVL45:
 743              	.L57:
 142:ACE_ECF_25-ACE-ECF-V1.1-/Algorithm/user_maths/cpp_files/user_maths.cpp ****     else if (angle >= -180.0f && angle < -90.f)
 744              		.loc 1 142 10 is_stmt 1 view .LVU154
 745 00a0 DFED347A 		vldr.32	s15, .L85+16	@ tmp151,
 746 00a4 B4EEE70A 		vcmpe.f32	s0, s15	@ angle, tmp151
 747 00a8 F1EE10FA 		vmrs	APSR_nzcv, FPSCR
 748 00ac 26DB     		blt	.L61		@,
 749              	@ ACE_ECF_25-ACE-ECF-V1.1-/Algorithm/user_maths/cpp_files/user_maths.cpp:142:     else if (angle >=
 750              		.loc 1 142 31 is_stmt 0 discriminator 1 view .LVU155
 751 00ae DFED327A 		vldr.32	s15, .L85+20	@ tmp152,
 752 00b2 B4EEE70A 		vcmpe.f32	s0, s15	@ angle, tmp152
 753 00b6 F1EE10FA 		vmrs	APSR_nzcv, FPSCR
 754 00ba 1FD5     		bpl	.L61		@,
 143:ACE_ECF_25-ACE-ECF-V1.1-/Algorithm/user_maths/cpp_files/user_maths.cpp ****         sin_angle = -(Trigonometric_Functions[(int)(user_abs(180.0f + angle) * 10.0f)] / 100.0f);
 755              		.loc 1 143 9 is_stmt 1 view .LVU156
 756              	@ ACE_ECF_25-ACE-ECF-V1.1-/Algorithm/user_maths/cpp_files/user_maths.cpp:143:         sin_angle = -
ARM GAS  C:\Users\30806\AppData\Local\Temp\ccxw87g1.s 			page 17


 757              		.loc 1 143 53 is_stmt 0 view .LVU157
 758 00bc DFED2C7A 		vldr.32	s15, .L85+12	@ tmp153,
 759 00c0 30EE270A 		vadd.f32	s0, s0, s15	@ _8, angle, tmp153
 760              	.LVL46:
 761              		.loc 1 143 53 view .LVU158
 762 00c4 B5EEC00A 		vcmpe.f32	s0, #0	@ _8
 763 00c8 F1EE10FA 		vmrs	APSR_nzcv, FPSCR
 764 00cc 13DD     		ble	.L82		@,
 765              	.L64:
 766              	@ ACE_ECF_25-ACE-ECF-V1.1-/Algorithm/user_maths/cpp_files/user_maths.cpp:143:         sin_angle = -
 767              		.loc 1 143 78 discriminator 4 view .LVU159
 768 00ce F2EE047A 		vmov.f32	s15, #1.0e+1	@ tmp155,
 769 00d2 20EE270A 		vmul.f32	s0, s0, s15	@ _9, _8, tmp155
 770              	@ ACE_ECF_25-ACE-ECF-V1.1-/Algorithm/user_maths/cpp_files/user_maths.cpp:143:         sin_angle = -
 771              		.loc 1 143 47 discriminator 4 view .LVU160
 772 00d6 BDEEC00A 		vcvt.s32.f32	s0, s0	@ _10, _9
 773              	@ ACE_ECF_25-ACE-ECF-V1.1-/Algorithm/user_maths/cpp_files/user_maths.cpp:143:         sin_angle = -
 774              		.loc 1 143 86 discriminator 4 view .LVU161
 775 00da 234B     		ldr	r3, .L85+4	@ tmp156,
 776 00dc 10EE102A 		vmov	r2, s0	@ int	@ _10, _10
 777 00e0 03EB8203 		add	r3, r3, r2, lsl #2	@ tmp158, tmp156, _10,
 778 00e4 93ED007A 		vldr.32	s14, [r3]	@ _11, Trigonometric_Functions[_10]
 779              	@ ACE_ECF_25-ACE-ECF-V1.1-/Algorithm/user_maths/cpp_files/user_maths.cpp:143:         sin_angle = -
 780              		.loc 1 143 88 discriminator 4 view .LVU162
 781 00e8 DFED207A 		vldr.32	s15, .L85+8	@ tmp159,
 782 00ec 87EE270A 		vdiv.f32	s0, s14, s15	@ _12, _11, tmp159
 783              	@ ACE_ECF_25-ACE-ECF-V1.1-/Algorithm/user_maths/cpp_files/user_maths.cpp:143:         sin_angle = -
 784              		.loc 1 143 19 discriminator 4 view .LVU163
 785 00f0 B1EE400A 		vneg.f32	s0, s0	@ <retval>, _12
 786              	.LVL47:
 787              		.loc 1 143 19 discriminator 4 view .LVU164
 788 00f4 7047     		bx	lr	@
 789              	.LVL48:
 790              	.L82:
 791              	@ ACE_ECF_25-ACE-ECF-V1.1-/Algorithm/user_maths/cpp_files/user_maths.cpp:143:         sin_angle = -
 792              		.loc 1 143 53 discriminator 2 view .LVU165
 793 00f6 B1EE400A 		vneg.f32	s0, s0	@ _8, _8
 794 00fa E8E7     		b	.L64		@
 795              	.LVL49:
 796              	.L61:
 144:ACE_ECF_25-ACE-ECF-V1.1-/Algorithm/user_maths/cpp_files/user_maths.cpp ****     else if (angle >= -90.0f && angle < 0.f)
 797              		.loc 1 144 10 is_stmt 1 view .LVU166
 798 00fc DFED1E7A 		vldr.32	s15, .L85+20	@ tmp160,
 799 0100 B4EEE70A 		vcmpe.f32	s0, s15	@ angle, tmp160
 800 0104 F1EE10FA 		vmrs	APSR_nzcv, FPSCR
 801 0108 29DB     		blt	.L78		@,
 802              	@ ACE_ECF_25-ACE-ECF-V1.1-/Algorithm/user_maths/cpp_files/user_maths.cpp:144:     else if (angle >=
 803              		.loc 1 144 30 is_stmt 0 discriminator 1 view .LVU167
 804 010a B5EEC00A 		vcmpe.f32	s0, #0	@ angle
 805 010e F1EE10FA 		vmrs	APSR_nzcv, FPSCR
 806 0112 02D4     		bmi	.L83		@,
 807              	@ ACE_ECF_25-ACE-ECF-V1.1-/Algorithm/user_maths/cpp_files/user_maths.cpp:136:     float sin_angle =
 136:ACE_ECF_25-ACE-ECF-V1.1-/Algorithm/user_maths/cpp_files/user_maths.cpp **** 
 808              		.loc 1 136 11 view .LVU168
 809 0114 9FED190A 		vldr.32	s0, .L85+24	@ <retval>,
 810              	.LVL50:
 145:ACE_ECF_25-ACE-ECF-V1.1-/Algorithm/user_maths/cpp_files/user_maths.cpp ****         sin_angle = -(Trigonometric_Functions[(int)(user_abs(180.0f - (180.0f + angle)) * 10.0f)] /
ARM GAS  C:\Users\30806\AppData\Local\Temp\ccxw87g1.s 			page 18


 146:ACE_ECF_25-ACE-ECF-V1.1-/Algorithm/user_maths/cpp_files/user_maths.cpp ****     else if (angle == 180.f)
 147:ACE_ECF_25-ACE-ECF-V1.1-/Algorithm/user_maths/cpp_files/user_maths.cpp ****         sin_angle = 0.0f;
 148:ACE_ECF_25-ACE-ECF-V1.1-/Algorithm/user_maths/cpp_files/user_maths.cpp **** 
 149:ACE_ECF_25-ACE-ECF-V1.1-/Algorithm/user_maths/cpp_files/user_maths.cpp ****     return sin_angle;
 811              		.loc 1 149 5 is_stmt 1 view .LVU169
 812              	@ ACE_ECF_25-ACE-ECF-V1.1-/Algorithm/user_maths/cpp_files/user_maths.cpp:150: }
 150:ACE_ECF_25-ACE-ECF-V1.1-/Algorithm/user_maths/cpp_files/user_maths.cpp **** }
 813              		.loc 1 150 1 is_stmt 0 view .LVU170
 814 0118 7047     		bx	lr	@
 815              	.LVL51:
 816              	.L83:
 145:ACE_ECF_25-ACE-ECF-V1.1-/Algorithm/user_maths/cpp_files/user_maths.cpp ****         sin_angle = -(Trigonometric_Functions[(int)(user_abs(180.0f - (180.0f + angle)) * 10.0f)] /
 817              		.loc 1 145 9 is_stmt 1 view .LVU171
 818              	@ ACE_ECF_25-ACE-ECF-V1.1-/Algorithm/user_maths/cpp_files/user_maths.cpp:145:         sin_angle = -
 145:ACE_ECF_25-ACE-ECF-V1.1-/Algorithm/user_maths/cpp_files/user_maths.cpp ****         sin_angle = -(Trigonometric_Functions[(int)(user_abs(180.0f - (180.0f + angle)) * 10.0f)] /
 819              		.loc 1 145 53 is_stmt 0 view .LVU172
 820 011a DFED157A 		vldr.32	s15, .L85+12	@ tmp162,
 821 011e 30EE270A 		vadd.f32	s0, s0, s15	@ _13, angle, tmp162
 822              	.LVL52:
 145:ACE_ECF_25-ACE-ECF-V1.1-/Algorithm/user_maths/cpp_files/user_maths.cpp ****         sin_angle = -(Trigonometric_Functions[(int)(user_abs(180.0f - (180.0f + angle)) * 10.0f)] /
 823              		.loc 1 145 53 view .LVU173
 824 0122 37EEC00A 		vsub.f32	s0, s15, s0	@ _14, tmp162, _13
 825 0126 B5EEC00A 		vcmpe.f32	s0, #0	@ _14
 826 012a F1EE10FA 		vmrs	APSR_nzcv, FPSCR
 827 012e 13DD     		ble	.L84		@,
 828              	.L67:
 829              	@ ACE_ECF_25-ACE-ECF-V1.1-/Algorithm/user_maths/cpp_files/user_maths.cpp:145:         sin_angle = -
 145:ACE_ECF_25-ACE-ECF-V1.1-/Algorithm/user_maths/cpp_files/user_maths.cpp ****         sin_angle = -(Trigonometric_Functions[(int)(user_abs(180.0f - (180.0f + angle)) * 10.0f)] /
 830              		.loc 1 145 89 discriminator 4 view .LVU174
 831 0130 F2EE047A 		vmov.f32	s15, #1.0e+1	@ tmp165,
 832 0134 20EE270A 		vmul.f32	s0, s0, s15	@ _15, _14, tmp165
 833              	@ ACE_ECF_25-ACE-ECF-V1.1-/Algorithm/user_maths/cpp_files/user_maths.cpp:145:         sin_angle = -
 145:ACE_ECF_25-ACE-ECF-V1.1-/Algorithm/user_maths/cpp_files/user_maths.cpp ****         sin_angle = -(Trigonometric_Functions[(int)(user_abs(180.0f - (180.0f + angle)) * 10.0f)] /
 834              		.loc 1 145 47 discriminator 4 view .LVU175
 835 0138 BDEEC00A 		vcvt.s32.f32	s0, s0	@ _16, _15
 836              	@ ACE_ECF_25-ACE-ECF-V1.1-/Algorithm/user_maths/cpp_files/user_maths.cpp:145:         sin_angle = -
 145:ACE_ECF_25-ACE-ECF-V1.1-/Algorithm/user_maths/cpp_files/user_maths.cpp ****         sin_angle = -(Trigonometric_Functions[(int)(user_abs(180.0f - (180.0f + angle)) * 10.0f)] /
 837              		.loc 1 145 97 discriminator 4 view .LVU176
 838 013c 0A4B     		ldr	r3, .L85+4	@ tmp166,
 839 013e 10EE102A 		vmov	r2, s0	@ int	@ _16, _16
 840 0142 03EB8203 		add	r3, r3, r2, lsl #2	@ tmp168, tmp166, _16,
 841 0146 93ED007A 		vldr.32	s14, [r3]	@ _17, Trigonometric_Functions[_16]
 842              	@ ACE_ECF_25-ACE-ECF-V1.1-/Algorithm/user_maths/cpp_files/user_maths.cpp:145:         sin_angle = -
 145:ACE_ECF_25-ACE-ECF-V1.1-/Algorithm/user_maths/cpp_files/user_maths.cpp ****         sin_angle = -(Trigonometric_Functions[(int)(user_abs(180.0f - (180.0f + angle)) * 10.0f)] /
 843              		.loc 1 145 99 discriminator 4 view .LVU177
 844 014a DFED087A 		vldr.32	s15, .L85+8	@ tmp169,
 845 014e 87EE270A 		vdiv.f32	s0, s14, s15	@ _18, _17, tmp169
 846              	@ ACE_ECF_25-ACE-ECF-V1.1-/Algorithm/user_maths/cpp_files/user_maths.cpp:145:         sin_angle = -
 145:ACE_ECF_25-ACE-ECF-V1.1-/Algorithm/user_maths/cpp_files/user_maths.cpp ****         sin_angle = -(Trigonometric_Functions[(int)(user_abs(180.0f - (180.0f + angle)) * 10.0f)] /
 847              		.loc 1 145 19 discriminator 4 view .LVU178
 848 0152 B1EE400A 		vneg.f32	s0, s0	@ <retval>, _18
 849              	.LVL53:
 145:ACE_ECF_25-ACE-ECF-V1.1-/Algorithm/user_maths/cpp_files/user_maths.cpp ****         sin_angle = -(Trigonometric_Functions[(int)(user_abs(180.0f - (180.0f + angle)) * 10.0f)] /
 850              		.loc 1 145 19 discriminator 4 view .LVU179
 851 0156 7047     		bx	lr	@
 852              	.LVL54:
 853              	.L84:
ARM GAS  C:\Users\30806\AppData\Local\Temp\ccxw87g1.s 			page 19


 854              	@ ACE_ECF_25-ACE-ECF-V1.1-/Algorithm/user_maths/cpp_files/user_maths.cpp:145:         sin_angle = -
 145:ACE_ECF_25-ACE-ECF-V1.1-/Algorithm/user_maths/cpp_files/user_maths.cpp ****         sin_angle = -(Trigonometric_Functions[(int)(user_abs(180.0f - (180.0f + angle)) * 10.0f)] /
 855              		.loc 1 145 53 discriminator 2 view .LVU180
 856 0158 B1EE400A 		vneg.f32	s0, s0	@ _14, _14
 857 015c E8E7     		b	.L67		@
 858              	.LVL55:
 859              	.L78:
 860              	@ ACE_ECF_25-ACE-ECF-V1.1-/Algorithm/user_maths/cpp_files/user_maths.cpp:136:     float sin_angle =
 136:ACE_ECF_25-ACE-ECF-V1.1-/Algorithm/user_maths/cpp_files/user_maths.cpp **** 
 861              		.loc 1 136 11 view .LVU181
 862 015e 9FED070A 		vldr.32	s0, .L85+24	@ <retval>,
 863              	.LVL56:
 136:ACE_ECF_25-ACE-ECF-V1.1-/Algorithm/user_maths/cpp_files/user_maths.cpp **** 
 864              		.loc 1 136 11 view .LVU182
 865 0162 7047     		bx	lr	@
 866              	.L86:
 867              		.align	2
 868              	.L85:
 869 0164 0000B442 		.word	1119092736
 870 0168 00000000 		.word	.LANCHOR1
 871 016c 0000C842 		.word	1120403456
 872 0170 00003443 		.word	1127481344
 873 0174 000034C3 		.word	-1020002304
 874 0178 0000B4C2 		.word	-1028390912
 875 017c 00000000 		.word	0
 876              		.cfi_endproc
 877              	.LFE382:
 878              		.size	_ZN12user_maths_c13sin_calculateEf, .-_ZN12user_maths_c13sin_calculateEf
 879              		.section	.text._ZN12user_maths_c13cos_calculateEf,"ax",%progbits
 880              		.align	1
 881              		.global	_ZN12user_maths_c13cos_calculateEf
 882              		.syntax unified
 883              		.thumb
 884              		.thumb_func
 885              		.type	_ZN12user_maths_c13cos_calculateEf, %function
 886              	_ZN12user_maths_c13cos_calculateEf:
 887              	.LVL57:
 888              	.LFB383:
 151:ACE_ECF_25-ACE-ECF-V1.1-/Algorithm/user_maths/cpp_files/user_maths.cpp **** 
 152:ACE_ECF_25-ACE-ECF-V1.1-/Algorithm/user_maths/cpp_files/user_maths.cpp **** // cos函数查表法
 153:ACE_ECF_25-ACE-ECF-V1.1-/Algorithm/user_maths/cpp_files/user_maths.cpp **** float user_maths_c::cos_calculate(float angle)
 154:ACE_ECF_25-ACE-ECF-V1.1-/Algorithm/user_maths/cpp_files/user_maths.cpp **** {
 889              		.loc 1 154 1 is_stmt 1 view -0
 890              		.cfi_startproc
 891              		@ args = 0, pretend = 0, frame = 0
 892              		@ frame_needed = 0, uses_anonymous_args = 0
 893              		@ link register save eliminated.
 155:ACE_ECF_25-ACE-ECF-V1.1-/Algorithm/user_maths/cpp_files/user_maths.cpp ****     float cos_angle = 0.0f;
 894              		.loc 1 155 5 view .LVU184
 156:ACE_ECF_25-ACE-ECF-V1.1-/Algorithm/user_maths/cpp_files/user_maths.cpp **** 
 157:ACE_ECF_25-ACE-ECF-V1.1-/Algorithm/user_maths/cpp_files/user_maths.cpp ****     angle = user_abs(angle);
 895              		.loc 1 157 5 view .LVU185
 896              	@ ACE_ECF_25-ACE-ECF-V1.1-/Algorithm/user_maths/cpp_files/user_maths.cpp:157:     angle = user_abs(
 897              		.loc 1 157 13 is_stmt 0 view .LVU186
 898 0000 B5EEC00A 		vcmpe.f32	s0, #0	@ angle
 899 0004 F1EE10FA 		vmrs	APSR_nzcv, FPSCR
 900 0008 24DD     		ble	.L103		@,
ARM GAS  C:\Users\30806\AppData\Local\Temp\ccxw87g1.s 			page 20


 901              	.LVL58:
 902              	.L88:
 158:ACE_ECF_25-ACE-ECF-V1.1-/Algorithm/user_maths/cpp_files/user_maths.cpp **** 
 159:ACE_ECF_25-ACE-ECF-V1.1-/Algorithm/user_maths/cpp_files/user_maths.cpp ****     if (angle >= 0.0f && angle < 90.0f)
 903              		.loc 1 159 5 is_stmt 1 discriminator 4 view .LVU187
 904 000a B5EEC00A 		vcmpe.f32	s0, #0	@ angle
 905 000e F1EE10FA 		vmrs	APSR_nzcv, FPSCR
 906 0012 25DB     		blt	.L89		@,
 907              	@ ACE_ECF_25-ACE-ECF-V1.1-/Algorithm/user_maths/cpp_files/user_maths.cpp:159:     if (angle >= 0.0f
 908              		.loc 1 159 23 is_stmt 0 discriminator 1 view .LVU188
 909 0014 DFED307A 		vldr.32	s15, .L106	@ tmp127,
 910 0018 B4EEE70A 		vcmpe.f32	s0, s15	@ angle, tmp127
 911 001c F1EE10FA 		vmrs	APSR_nzcv, FPSCR
 912 0020 1ED5     		bpl	.L89		@,
 160:ACE_ECF_25-ACE-ECF-V1.1-/Algorithm/user_maths/cpp_files/user_maths.cpp ****         cos_angle = (Trigonometric_Functions[(int)(user_abs(90.0f - angle) * 10.0f)] / 100.0f);
 913              		.loc 1 160 9 is_stmt 1 view .LVU189
 914              	@ ACE_ECF_25-ACE-ECF-V1.1-/Algorithm/user_maths/cpp_files/user_maths.cpp:160:         cos_angle = (
 915              		.loc 1 160 52 is_stmt 0 view .LVU190
 916 0022 37EEC00A 		vsub.f32	s0, s15, s0	@ _1, tmp128, angle
 917              	.LVL59:
 918              		.loc 1 160 52 view .LVU191
 919 0026 B5EEC00A 		vcmpe.f32	s0, #0	@ _1
 920 002a F1EE10FA 		vmrs	APSR_nzcv, FPSCR
 921 002e 14DD     		ble	.L104		@,
 922              	.L92:
 923              	@ ACE_ECF_25-ACE-ECF-V1.1-/Algorithm/user_maths/cpp_files/user_maths.cpp:160:         cos_angle = (
 924              		.loc 1 160 76 discriminator 4 view .LVU192
 925 0030 F2EE047A 		vmov.f32	s15, #1.0e+1	@ tmp130,
 926 0034 20EE270A 		vmul.f32	s0, s0, s15	@ _2, _1, tmp130
 927              	@ ACE_ECF_25-ACE-ECF-V1.1-/Algorithm/user_maths/cpp_files/user_maths.cpp:160:         cos_angle = (
 928              		.loc 1 160 46 discriminator 4 view .LVU193
 929 0038 BDEEC00A 		vcvt.s32.f32	s0, s0	@ _3, _2
 930              	@ ACE_ECF_25-ACE-ECF-V1.1-/Algorithm/user_maths/cpp_files/user_maths.cpp:160:         cos_angle = (
 931              		.loc 1 160 84 discriminator 4 view .LVU194
 932 003c 274B     		ldr	r3, .L106+4	@ tmp131,
 933 003e 10EE102A 		vmov	r2, s0	@ int	@ _3, _3
 934 0042 03EB8203 		add	r3, r3, r2, lsl #2	@ tmp133, tmp131, _3,
 935 0046 93ED007A 		vldr.32	s14, [r3]	@ _4, Trigonometric_Functions[_3]
 936              	@ ACE_ECF_25-ACE-ECF-V1.1-/Algorithm/user_maths/cpp_files/user_maths.cpp:160:         cos_angle = (
 937              		.loc 1 160 19 discriminator 4 view .LVU195
 938 004a DFED257A 		vldr.32	s15, .L106+8	@ tmp134,
 939 004e 87EE270A 		vdiv.f32	s0, s14, s15	@ <retval>, _4, tmp134
 940              	.LVL60:
 941              		.loc 1 160 19 discriminator 4 view .LVU196
 942 0052 7047     		bx	lr	@
 943              	.LVL61:
 944              	.L103:
 945              	@ ACE_ECF_25-ACE-ECF-V1.1-/Algorithm/user_maths/cpp_files/user_maths.cpp:157:     angle = user_abs(
 157:ACE_ECF_25-ACE-ECF-V1.1-/Algorithm/user_maths/cpp_files/user_maths.cpp **** 
 946              		.loc 1 157 13 discriminator 2 view .LVU197
 947 0054 B1EE400A 		vneg.f32	s0, s0	@ angle, angle
 948              	.LVL62:
 157:ACE_ECF_25-ACE-ECF-V1.1-/Algorithm/user_maths/cpp_files/user_maths.cpp **** 
 949              		.loc 1 157 13 discriminator 2 view .LVU198
 950 0058 D7E7     		b	.L88		@
 951              	.LVL63:
 952              	.L104:
ARM GAS  C:\Users\30806\AppData\Local\Temp\ccxw87g1.s 			page 21


 953              	@ ACE_ECF_25-ACE-ECF-V1.1-/Algorithm/user_maths/cpp_files/user_maths.cpp:160:         cos_angle = (
 954              		.loc 1 160 52 discriminator 2 view .LVU199
 955 005a B1EE400A 		vneg.f32	s0, s0	@ _1, _1
 956 005e E7E7     		b	.L92		@
 957              	.LVL64:
 958              	.L89:
 161:ACE_ECF_25-ACE-ECF-V1.1-/Algorithm/user_maths/cpp_files/user_maths.cpp ****     else if (angle >= 90.0f && angle < 180.f)
 959              		.loc 1 161 10 is_stmt 1 view .LVU200
 960 0060 DFED1D7A 		vldr.32	s15, .L106	@ tmp135,
 961 0064 B4EEE70A 		vcmpe.f32	s0, s15	@ angle, tmp135
 962 0068 F1EE10FA 		vmrs	APSR_nzcv, FPSCR
 963 006c 26DB     		blt	.L94		@,
 964              	@ ACE_ECF_25-ACE-ECF-V1.1-/Algorithm/user_maths/cpp_files/user_maths.cpp:161:     else if (angle >=
 965              		.loc 1 161 29 is_stmt 0 discriminator 1 view .LVU201
 966 006e DFED1D7A 		vldr.32	s15, .L106+12	@ tmp136,
 967 0072 B4EEE70A 		vcmpe.f32	s0, s15	@ angle, tmp136
 968 0076 F1EE10FA 		vmrs	APSR_nzcv, FPSCR
 969 007a 1FD5     		bpl	.L94		@,
 162:ACE_ECF_25-ACE-ECF-V1.1-/Algorithm/user_maths/cpp_files/user_maths.cpp ****         cos_angle = -(Trigonometric_Functions[(int)(user_abs(angle - 90.0f) * 10.0f)] / 100.0f);
 970              		.loc 1 162 9 is_stmt 1 view .LVU202
 971              	@ ACE_ECF_25-ACE-ECF-V1.1-/Algorithm/user_maths/cpp_files/user_maths.cpp:162:         cos_angle = -
 972              		.loc 1 162 53 is_stmt 0 view .LVU203
 973 007c DFED167A 		vldr.32	s15, .L106	@ tmp137,
 974 0080 30EE670A 		vsub.f32	s0, s0, s15	@ _5, angle, tmp137
 975              	.LVL65:
 976              		.loc 1 162 53 view .LVU204
 977 0084 B5EEC00A 		vcmpe.f32	s0, #0	@ _5
 978 0088 F1EE10FA 		vmrs	APSR_nzcv, FPSCR
 979 008c 13DD     		ble	.L105		@,
 980              	.L97:
 981              	@ ACE_ECF_25-ACE-ECF-V1.1-/Algorithm/user_maths/cpp_files/user_maths.cpp:162:         cos_angle = -
 982              		.loc 1 162 77 discriminator 4 view .LVU205
 983 008e F2EE047A 		vmov.f32	s15, #1.0e+1	@ tmp139,
 984 0092 20EE270A 		vmul.f32	s0, s0, s15	@ _6, _5, tmp139
 985              	@ ACE_ECF_25-ACE-ECF-V1.1-/Algorithm/user_maths/cpp_files/user_maths.cpp:162:         cos_angle = -
 986              		.loc 1 162 47 discriminator 4 view .LVU206
 987 0096 BDEEC00A 		vcvt.s32.f32	s0, s0	@ _7, _6
 988              	@ ACE_ECF_25-ACE-ECF-V1.1-/Algorithm/user_maths/cpp_files/user_maths.cpp:162:         cos_angle = -
 989              		.loc 1 162 85 discriminator 4 view .LVU207
 990 009a 104B     		ldr	r3, .L106+4	@ tmp140,
 991 009c 10EE102A 		vmov	r2, s0	@ int	@ _7, _7
 992 00a0 03EB8203 		add	r3, r3, r2, lsl #2	@ tmp142, tmp140, _7,
 993 00a4 93ED007A 		vldr.32	s14, [r3]	@ _8, Trigonometric_Functions[_7]
 994              	@ ACE_ECF_25-ACE-ECF-V1.1-/Algorithm/user_maths/cpp_files/user_maths.cpp:162:         cos_angle = -
 995              		.loc 1 162 87 discriminator 4 view .LVU208
 996 00a8 DFED0D7A 		vldr.32	s15, .L106+8	@ tmp143,
 997 00ac 87EE270A 		vdiv.f32	s0, s14, s15	@ _9, _8, tmp143
 998              	@ ACE_ECF_25-ACE-ECF-V1.1-/Algorithm/user_maths/cpp_files/user_maths.cpp:162:         cos_angle = -
 999              		.loc 1 162 19 discriminator 4 view .LVU209
 1000 00b0 B1EE400A 		vneg.f32	s0, s0	@ <retval>, _9
 1001              	.LVL66:
 1002              		.loc 1 162 19 discriminator 4 view .LVU210
 1003 00b4 7047     		bx	lr	@
 1004              	.LVL67:
 1005              	.L105:
 1006              	@ ACE_ECF_25-ACE-ECF-V1.1-/Algorithm/user_maths/cpp_files/user_maths.cpp:162:         cos_angle = -
 1007              		.loc 1 162 53 discriminator 2 view .LVU211
ARM GAS  C:\Users\30806\AppData\Local\Temp\ccxw87g1.s 			page 22


 1008 00b6 B1EE400A 		vneg.f32	s0, s0	@ _5, _5
 1009 00ba E8E7     		b	.L97		@
 1010              	.LVL68:
 1011              	.L94:
 163:ACE_ECF_25-ACE-ECF-V1.1-/Algorithm/user_maths/cpp_files/user_maths.cpp ****     else if (angle == 180.f)
 1012              		.loc 1 163 10 is_stmt 1 view .LVU212
 1013 00bc DFED097A 		vldr.32	s15, .L106+12	@ tmp144,
 1014 00c0 B4EE670A 		vcmp.f32	s0, s15	@ angle, tmp144
 1015 00c4 F1EE10FA 		vmrs	APSR_nzcv, FPSCR
 1016 00c8 02D0     		beq	.L98		@,
 1017              	@ ACE_ECF_25-ACE-ECF-V1.1-/Algorithm/user_maths/cpp_files/user_maths.cpp:155:     float cos_angle =
 155:ACE_ECF_25-ACE-ECF-V1.1-/Algorithm/user_maths/cpp_files/user_maths.cpp **** 
 1018              		.loc 1 155 11 is_stmt 0 view .LVU213
 1019 00ca 9FED070A 		vldr.32	s0, .L106+16	@ <retval>,
 1020              	.LVL69:
 155:ACE_ECF_25-ACE-ECF-V1.1-/Algorithm/user_maths/cpp_files/user_maths.cpp **** 
 1021              		.loc 1 155 11 view .LVU214
 1022 00ce 7047     		bx	lr	@
 1023              	.LVL70:
 1024              	.L98:
 1025              	@ ACE_ECF_25-ACE-ECF-V1.1-/Algorithm/user_maths/cpp_files/user_maths.cpp:164:         cos_angle = -
 164:ACE_ECF_25-ACE-ECF-V1.1-/Algorithm/user_maths/cpp_files/user_maths.cpp ****         cos_angle = -1.0f;
 1026              		.loc 1 164 19 view .LVU215
 1027 00d0 BFEE000A 		vmov.f32	s0, #-1.0e+0	@ <retval>,
 1028              	.LVL71:
 165:ACE_ECF_25-ACE-ECF-V1.1-/Algorithm/user_maths/cpp_files/user_maths.cpp **** 
 166:ACE_ECF_25-ACE-ECF-V1.1-/Algorithm/user_maths/cpp_files/user_maths.cpp ****     return cos_angle;
 1029              		.loc 1 166 5 is_stmt 1 view .LVU216
 1030              	@ ACE_ECF_25-ACE-ECF-V1.1-/Algorithm/user_maths/cpp_files/user_maths.cpp:167: }
 167:ACE_ECF_25-ACE-ECF-V1.1-/Algorithm/user_maths/cpp_files/user_maths.cpp **** }
 1031              		.loc 1 167 1 is_stmt 0 view .LVU217
 1032 00d4 7047     		bx	lr	@
 1033              	.L107:
 1034 00d6 00BF     		.align	2
 1035              	.L106:
 1036 00d8 0000B442 		.word	1119092736
 1037 00dc 00000000 		.word	.LANCHOR1
 1038 00e0 0000C842 		.word	1120403456
 1039 00e4 00003443 		.word	1127481344
 1040 00e8 00000000 		.word	0
 1041              		.cfi_endproc
 1042              	.LFE383:
 1043              		.size	_ZN12user_maths_c13cos_calculateEf, .-_ZN12user_maths_c13cos_calculateEf
 1044              		.section	.text._ZN12user_maths_c18float_min_distanceEffff,"ax",%progbits
 1045              		.align	1
 1046              		.global	_ZN12user_maths_c18float_min_distanceEffff
 1047              		.syntax unified
 1048              		.thumb
 1049              		.thumb_func
 1050              		.type	_ZN12user_maths_c18float_min_distanceEffff, %function
 1051              	_ZN12user_maths_c18float_min_distanceEffff:
 1052              	.LVL72:
 1053              	.LFB384:
 168:ACE_ECF_25-ACE-ECF-V1.1-/Algorithm/user_maths/cpp_files/user_maths.cpp **** 
 169:ACE_ECF_25-ACE-ECF-V1.1-/Algorithm/user_maths/cpp_files/user_maths.cpp **** float user_maths_c::float_min_distance(float target, float actual, float minValue, float maxValue)
 170:ACE_ECF_25-ACE-ECF-V1.1-/Algorithm/user_maths/cpp_files/user_maths.cpp **** {
 1054              		.loc 1 170 1 is_stmt 1 view -0
ARM GAS  C:\Users\30806\AppData\Local\Temp\ccxw87g1.s 			page 23


 1055              		.cfi_startproc
 1056              		@ args = 0, pretend = 0, frame = 0
 1057              		@ frame_needed = 0, uses_anonymous_args = 0
 171:ACE_ECF_25-ACE-ECF-V1.1-/Algorithm/user_maths/cpp_files/user_maths.cpp **** 	if (maxValue < minValue)
 1058              		.loc 1 171 2 view .LVU219
 1059 0000 F4EEC11A 		vcmpe.f32	s3, s2	@ maxValue, minValue
 1060 0004 F1EE10FA 		vmrs	APSR_nzcv, FPSCR
 1061 0008 02D5     		bpl	.L123		@,
 1062              	@ ACE_ECF_25-ACE-ECF-V1.1-/Algorithm/user_maths/cpp_files/user_maths.cpp:173:         return 0;
 172:ACE_ECF_25-ACE-ECF-V1.1-/Algorithm/user_maths/cpp_files/user_maths.cpp ****     {
 173:ACE_ECF_25-ACE-ECF-V1.1-/Algorithm/user_maths/cpp_files/user_maths.cpp ****         return 0;
 1063              		.loc 1 173 16 is_stmt 0 view .LVU220
 1064 000a 9FED200A 		vldr.32	s0, .L125	@ <retval>,
 1065              	.LVL73:
 1066              	@ ACE_ECF_25-ACE-ECF-V1.1-/Algorithm/user_maths/cpp_files/user_maths.cpp:194: }
 174:ACE_ECF_25-ACE-ECF-V1.1-/Algorithm/user_maths/cpp_files/user_maths.cpp ****     }
 175:ACE_ECF_25-ACE-ECF-V1.1-/Algorithm/user_maths/cpp_files/user_maths.cpp **** 	
 176:ACE_ECF_25-ACE-ECF-V1.1-/Algorithm/user_maths/cpp_files/user_maths.cpp **** 	target = this->loop_fp32_constrain(target, minValue,maxValue);
 177:ACE_ECF_25-ACE-ECF-V1.1-/Algorithm/user_maths/cpp_files/user_maths.cpp **** 	
 178:ACE_ECF_25-ACE-ECF-V1.1-/Algorithm/user_maths/cpp_files/user_maths.cpp **** 	if (user_abs(target - actual) > (maxValue - minValue) / 2.0f)
 179:ACE_ECF_25-ACE-ECF-V1.1-/Algorithm/user_maths/cpp_files/user_maths.cpp **** 	{
 180:ACE_ECF_25-ACE-ECF-V1.1-/Algorithm/user_maths/cpp_files/user_maths.cpp **** 		if(maxValue - actual < (maxValue - minValue) / 2.0f)
 181:ACE_ECF_25-ACE-ECF-V1.1-/Algorithm/user_maths/cpp_files/user_maths.cpp **** 		{
 182:ACE_ECF_25-ACE-ECF-V1.1-/Algorithm/user_maths/cpp_files/user_maths.cpp **** 			return maxValue - actual + target - minValue;
 183:ACE_ECF_25-ACE-ECF-V1.1-/Algorithm/user_maths/cpp_files/user_maths.cpp **** 		}
 184:ACE_ECF_25-ACE-ECF-V1.1-/Algorithm/user_maths/cpp_files/user_maths.cpp **** 		else
 185:ACE_ECF_25-ACE-ECF-V1.1-/Algorithm/user_maths/cpp_files/user_maths.cpp **** 		{
 186:ACE_ECF_25-ACE-ECF-V1.1-/Algorithm/user_maths/cpp_files/user_maths.cpp **** 			return minValue - actual + target - maxValue;
 187:ACE_ECF_25-ACE-ECF-V1.1-/Algorithm/user_maths/cpp_files/user_maths.cpp **** 		}
 188:ACE_ECF_25-ACE-ECF-V1.1-/Algorithm/user_maths/cpp_files/user_maths.cpp **** 	}
 189:ACE_ECF_25-ACE-ECF-V1.1-/Algorithm/user_maths/cpp_files/user_maths.cpp **** 	else 
 190:ACE_ECF_25-ACE-ECF-V1.1-/Algorithm/user_maths/cpp_files/user_maths.cpp **** 	{
 191:ACE_ECF_25-ACE-ECF-V1.1-/Algorithm/user_maths/cpp_files/user_maths.cpp **** 		return target - actual;
 192:ACE_ECF_25-ACE-ECF-V1.1-/Algorithm/user_maths/cpp_files/user_maths.cpp **** 	}
 193:ACE_ECF_25-ACE-ECF-V1.1-/Algorithm/user_maths/cpp_files/user_maths.cpp **** 	
 194:ACE_ECF_25-ACE-ECF-V1.1-/Algorithm/user_maths/cpp_files/user_maths.cpp **** }
 1067              		.loc 1 194 1 view .LVU221
 1068 000e 7047     		bx	lr	@
 1069              	.LVL74:
 1070              	.L123:
 1071              	@ ACE_ECF_25-ACE-ECF-V1.1-/Algorithm/user_maths/cpp_files/user_maths.cpp:170: {
 170:ACE_ECF_25-ACE-ECF-V1.1-/Algorithm/user_maths/cpp_files/user_maths.cpp **** 	if (maxValue < minValue)
 1072              		.loc 1 170 1 view .LVU222
 1073 0010 08B5     		push	{r3, lr}	@
 1074              	.LCFI0:
 1075              		.cfi_def_cfa_offset 8
 1076              		.cfi_offset 3, -8
 1077              		.cfi_offset 14, -4
 1078 0012 2DED048B 		vpush.64	{d8, d9}	@
 1079              	.LCFI1:
 1080              		.cfi_def_cfa_offset 24
 1081              		.cfi_offset 80, -24
 1082              		.cfi_offset 81, -20
 1083              		.cfi_offset 82, -16
 1084              		.cfi_offset 83, -12
 1085 0016 B0EE609A 		vmov.f32	s18, s1	@ actual, tmp132
 1086 001a B0EE418A 		vmov.f32	s16, s2	@ minValue, tmp133
ARM GAS  C:\Users\30806\AppData\Local\Temp\ccxw87g1.s 			page 24


 1087 001e F0EE618A 		vmov.f32	s17, s3	@ maxValue, tmp134
 176:ACE_ECF_25-ACE-ECF-V1.1-/Algorithm/user_maths/cpp_files/user_maths.cpp **** 	
 1088              		.loc 1 176 2 is_stmt 1 view .LVU223
 1089              	@ ACE_ECF_25-ACE-ECF-V1.1-/Algorithm/user_maths/cpp_files/user_maths.cpp:176: 	target = this->loop_
 176:ACE_ECF_25-ACE-ECF-V1.1-/Algorithm/user_maths/cpp_files/user_maths.cpp **** 	
 1090              		.loc 1 176 36 is_stmt 0 view .LVU224
 1091 0022 B0EE611A 		vmov.f32	s2, s3	@, maxValue
 1092              	.LVL75:
 176:ACE_ECF_25-ACE-ECF-V1.1-/Algorithm/user_maths/cpp_files/user_maths.cpp **** 	
 1093              		.loc 1 176 36 view .LVU225
 1094 0026 F0EE480A 		vmov.f32	s1, s16	@, minValue
 1095              	.LVL76:
 176:ACE_ECF_25-ACE-ECF-V1.1-/Algorithm/user_maths/cpp_files/user_maths.cpp **** 	
 1096              		.loc 1 176 36 view .LVU226
 1097 002a FFF7FEFF 		bl	_ZN12user_maths_c19loop_fp32_constrainEfff		@
 1098              	.LVL77:
 176:ACE_ECF_25-ACE-ECF-V1.1-/Algorithm/user_maths/cpp_files/user_maths.cpp **** 	
 1099              		.loc 1 176 36 view .LVU227
 1100 002e B0EE407A 		vmov.f32	s14, s0	@ target, tmp135
 1101              	.LVL78:
 178:ACE_ECF_25-ACE-ECF-V1.1-/Algorithm/user_maths/cpp_files/user_maths.cpp **** 	{
 1102              		.loc 1 178 2 is_stmt 1 view .LVU228
 1103              	@ ACE_ECF_25-ACE-ECF-V1.1-/Algorithm/user_maths/cpp_files/user_maths.cpp:178: 	if (user_abs(target 
 178:ACE_ECF_25-ACE-ECF-V1.1-/Algorithm/user_maths/cpp_files/user_maths.cpp **** 	{
 1104              		.loc 1 178 6 is_stmt 0 view .LVU229
 1105 0032 30EE490A 		vsub.f32	s0, s0, s18	@ <retval>, target, actual
 1106              	.LVL79:
 178:ACE_ECF_25-ACE-ECF-V1.1-/Algorithm/user_maths/cpp_files/user_maths.cpp **** 	{
 1107              		.loc 1 178 6 view .LVU230
 1108 0036 B5EEC00A 		vcmpe.f32	s0, #0	@ <retval>
 1109 003a F1EE10FA 		vmrs	APSR_nzcv, FPSCR
 1110 003e 1ADD     		ble	.L124		@,
 178:ACE_ECF_25-ACE-ECF-V1.1-/Algorithm/user_maths/cpp_files/user_maths.cpp **** 	{
 1111              		.loc 1 178 6 view .LVU231
 1112 0040 F0EE407A 		vmov.f32	s15, s0	@ iftmp.22_9, <retval>
 1113              	.L110:
 1114              	@ ACE_ECF_25-ACE-ECF-V1.1-/Algorithm/user_maths/cpp_files/user_maths.cpp:178: 	if (user_abs(target 
 178:ACE_ECF_25-ACE-ECF-V1.1-/Algorithm/user_maths/cpp_files/user_maths.cpp **** 	{
 1115              		.loc 1 178 44 discriminator 4 view .LVU232
 1116 0044 78EEC86A 		vsub.f32	s13, s17, s16	@ _2, maxValue, minValue
 1117              	@ ACE_ECF_25-ACE-ECF-V1.1-/Algorithm/user_maths/cpp_files/user_maths.cpp:178: 	if (user_abs(target 
 178:ACE_ECF_25-ACE-ECF-V1.1-/Algorithm/user_maths/cpp_files/user_maths.cpp **** 	{
 1118              		.loc 1 178 56 discriminator 4 view .LVU233
 1119 0048 B6EE006A 		vmov.f32	s12, #5.0e-1	@ tmp128,
 1120 004c 66EE866A 		vmul.f32	s13, s13, s12	@ _3, _2, tmp128
 1121              	@ ACE_ECF_25-ACE-ECF-V1.1-/Algorithm/user_maths/cpp_files/user_maths.cpp:178: 	if (user_abs(target 
 178:ACE_ECF_25-ACE-ECF-V1.1-/Algorithm/user_maths/cpp_files/user_maths.cpp **** 	{
 1122              		.loc 1 178 2 discriminator 4 view .LVU234
 1123 0050 F4EEE76A 		vcmpe.f32	s13, s15	@ _3, iftmp.22_9
 1124 0054 F1EE10FA 		vmrs	APSR_nzcv, FPSCR
 1125 0058 0AD5     		bpl	.L108		@,
 180:ACE_ECF_25-ACE-ECF-V1.1-/Algorithm/user_maths/cpp_files/user_maths.cpp **** 		{
 1126              		.loc 1 180 3 is_stmt 1 view .LVU235
 1127              	@ ACE_ECF_25-ACE-ECF-V1.1-/Algorithm/user_maths/cpp_files/user_maths.cpp:180: 		if(maxValue - actua
 180:ACE_ECF_25-ACE-ECF-V1.1-/Algorithm/user_maths/cpp_files/user_maths.cpp **** 		{
 1128              		.loc 1 180 15 is_stmt 0 view .LVU236
 1129 005a 78EEC97A 		vsub.f32	s15, s17, s18	@ _4, maxValue, actual
ARM GAS  C:\Users\30806\AppData\Local\Temp\ccxw87g1.s 			page 25


 1130              	@ ACE_ECF_25-ACE-ECF-V1.1-/Algorithm/user_maths/cpp_files/user_maths.cpp:180: 		if(maxValue - actua
 180:ACE_ECF_25-ACE-ECF-V1.1-/Algorithm/user_maths/cpp_files/user_maths.cpp **** 		{
 1131              		.loc 1 180 3 view .LVU237
 1132 005e F4EEE76A 		vcmpe.f32	s13, s15	@ _3, _4
 1133 0062 F1EE10FA 		vmrs	APSR_nzcv, FPSCR
 1134 0066 09DD     		ble	.L118		@,
 182:ACE_ECF_25-ACE-ECF-V1.1-/Algorithm/user_maths/cpp_files/user_maths.cpp **** 		}
 1135              		.loc 1 182 4 is_stmt 1 view .LVU238
 1136              	@ ACE_ECF_25-ACE-ECF-V1.1-/Algorithm/user_maths/cpp_files/user_maths.cpp:182: 			return maxValue - 
 182:ACE_ECF_25-ACE-ECF-V1.1-/Algorithm/user_maths/cpp_files/user_maths.cpp **** 		}
 1137              		.loc 1 182 29 is_stmt 0 view .LVU239
 1138 0068 37EE870A 		vadd.f32	s0, s15, s14	@ _5, _4, target
 1139              	@ ACE_ECF_25-ACE-ECF-V1.1-/Algorithm/user_maths/cpp_files/user_maths.cpp:182: 			return maxValue - 
 182:ACE_ECF_25-ACE-ECF-V1.1-/Algorithm/user_maths/cpp_files/user_maths.cpp **** 		}
 1140              		.loc 1 182 40 view .LVU240
 1141 006c 30EE480A 		vsub.f32	s0, s0, s16	@ <retval>, _5, minValue
 1142              	.LVL80:
 1143              	.L108:
 1144              	@ ACE_ECF_25-ACE-ECF-V1.1-/Algorithm/user_maths/cpp_files/user_maths.cpp:194: }
 1145              		.loc 1 194 1 view .LVU241
 1146 0070 BDEC048B 		vldm	sp!, {d8-d9}	@,
 1147              	.LCFI2:
 1148              		.cfi_remember_state
 1149              		.cfi_restore 82
 1150              		.cfi_restore 83
 1151              		.cfi_restore 80
 1152              		.cfi_restore 81
 1153              		.cfi_def_cfa_offset 8
 1154              	.LVL81:
 1155              		.loc 1 194 1 view .LVU242
 1156 0074 08BD     		pop	{r3, pc}	@
 1157              	.LVL82:
 1158              	.L124:
 1159              	.LCFI3:
 1160              		.cfi_restore_state
 1161              	@ ACE_ECF_25-ACE-ECF-V1.1-/Algorithm/user_maths/cpp_files/user_maths.cpp:178: 	if (user_abs(target 
 178:ACE_ECF_25-ACE-ECF-V1.1-/Algorithm/user_maths/cpp_files/user_maths.cpp **** 	{
 1162              		.loc 1 178 6 discriminator 2 view .LVU243
 1163 0076 F1EE407A 		vneg.f32	s15, s0	@ iftmp.22_9, <retval>
 1164 007a E3E7     		b	.L110		@
 1165              	.L118:
 186:ACE_ECF_25-ACE-ECF-V1.1-/Algorithm/user_maths/cpp_files/user_maths.cpp **** 		}
 1166              		.loc 1 186 4 is_stmt 1 view .LVU244
 1167              	@ ACE_ECF_25-ACE-ECF-V1.1-/Algorithm/user_maths/cpp_files/user_maths.cpp:186: 			return minValue - 
 186:ACE_ECF_25-ACE-ECF-V1.1-/Algorithm/user_maths/cpp_files/user_maths.cpp **** 		}
 1168              		.loc 1 186 20 is_stmt 0 view .LVU245
 1169 007c 38EE498A 		vsub.f32	s16, s16, s18	@ _6, minValue, actual
 1170              	.LVL83:
 1171              	@ ACE_ECF_25-ACE-ECF-V1.1-/Algorithm/user_maths/cpp_files/user_maths.cpp:186: 			return minValue - 
 186:ACE_ECF_25-ACE-ECF-V1.1-/Algorithm/user_maths/cpp_files/user_maths.cpp **** 		}
 1172              		.loc 1 186 29 view .LVU246
 1173 0080 38EE070A 		vadd.f32	s0, s16, s14	@ _7, _6, target
 1174              	@ ACE_ECF_25-ACE-ECF-V1.1-/Algorithm/user_maths/cpp_files/user_maths.cpp:186: 			return minValue - 
 186:ACE_ECF_25-ACE-ECF-V1.1-/Algorithm/user_maths/cpp_files/user_maths.cpp **** 		}
 1175              		.loc 1 186 40 view .LVU247
 1176 0084 30EE680A 		vsub.f32	s0, s0, s17	@ <retval>, _7, maxValue
 1177 0088 F2E7     		b	.L108		@
ARM GAS  C:\Users\30806\AppData\Local\Temp\ccxw87g1.s 			page 26


 1178              	.L126:
 1179 008a 00BF     		.align	2
 1180              	.L125:
 1181 008c 00000000 		.word	0
 1182              		.cfi_endproc
 1183              	.LFE384:
 1184              		.size	_ZN12user_maths_c18float_min_distanceEffff, .-_ZN12user_maths_c18float_min_distanceEffff
 1185              		.section	.text._ZN12user_maths_c19CircleIncreaseLimitEfff,"ax",%progbits
 1186              		.align	1
 1187              		.global	_ZN12user_maths_c19CircleIncreaseLimitEfff
 1188              		.syntax unified
 1189              		.thumb
 1190              		.thumb_func
 1191              		.type	_ZN12user_maths_c19CircleIncreaseLimitEfff, %function
 1192              	_ZN12user_maths_c19CircleIncreaseLimitEfff:
 1193              	.LVL84:
 1194              	.LFB385:
 195:ACE_ECF_25-ACE-ECF-V1.1-/Algorithm/user_maths/cpp_files/user_maths.cpp **** /***
 196:ACE_ECF_25-ACE-ECF-V1.1-/Algorithm/user_maths/cpp_files/user_maths.cpp ****  * @brief 周期递增限制
 197:ACE_ECF_25-ACE-ECF-V1.1-/Algorithm/user_maths/cpp_files/user_maths.cpp ****  * @param current_val 当前实际值
 198:ACE_ECF_25-ACE-ECF-V1.1-/Algorithm/user_maths/cpp_files/user_maths.cpp ****  * @param set_val 设定值
 199:ACE_ECF_25-ACE-ECF-V1.1-/Algorithm/user_maths/cpp_files/user_maths.cpp ****  * @param limit 每次调用该函数最大递增的值, 为正数
 200:ACE_ECF_25-ACE-ECF-V1.1-/Algorithm/user_maths/cpp_files/user_maths.cpp ****  * @return 返回一个处理好的值
 201:ACE_ECF_25-ACE-ECF-V1.1-/Algorithm/user_maths/cpp_files/user_maths.cpp **** */
 202:ACE_ECF_25-ACE-ECF-V1.1-/Algorithm/user_maths/cpp_files/user_maths.cpp **** float user_maths_c::CircleIncreaseLimit(float current_val, float set_val, float limit)
 203:ACE_ECF_25-ACE-ECF-V1.1-/Algorithm/user_maths/cpp_files/user_maths.cpp **** {   
 1195              		.loc 1 203 1 is_stmt 1 view -0
 1196              		.cfi_startproc
 1197              		@ args = 0, pretend = 0, frame = 0
 1198              		@ frame_needed = 0, uses_anonymous_args = 0
 1199              		@ link register save eliminated.
 204:ACE_ECF_25-ACE-ECF-V1.1-/Algorithm/user_maths/cpp_files/user_maths.cpp ****     limit = user_abs(limit);
 1200              		.loc 1 204 5 view .LVU249
 1201              	@ ACE_ECF_25-ACE-ECF-V1.1-/Algorithm/user_maths/cpp_files/user_maths.cpp:204:     limit = user_abs(
 1202              		.loc 1 204 13 is_stmt 0 view .LVU250
 1203 0000 B5EEC01A 		vcmpe.f32	s2, #0	@ limit
 1204 0004 F1EE10FA 		vmrs	APSR_nzcv, FPSCR
 1205 0008 10DD     		ble	.L138		@,
 1206              	.LVL85:
 1207              	.L128:
 205:ACE_ECF_25-ACE-ECF-V1.1-/Algorithm/user_maths/cpp_files/user_maths.cpp ****     if(set_val - current_val > limit)
 1208              		.loc 1 205 5 is_stmt 1 discriminator 4 view .LVU251
 1209              	@ ACE_ECF_25-ACE-ECF-V1.1-/Algorithm/user_maths/cpp_files/user_maths.cpp:205:     if(set_val - curr
 1210              		.loc 1 205 16 is_stmt 0 discriminator 4 view .LVU252
 1211 000a 70EEC07A 		vsub.f32	s15, s1, s0	@ _1, set_val, current_val
 1212              	@ ACE_ECF_25-ACE-ECF-V1.1-/Algorithm/user_maths/cpp_files/user_maths.cpp:205:     if(set_val - curr
 1213              		.loc 1 205 5 discriminator 4 view .LVU253
 1214 000e F4EEC17A 		vcmpe.f32	s15, s2	@ _1, limit
 1215 0012 F1EE10FA 		vmrs	APSR_nzcv, FPSCR
 1216 0016 0CDC     		bgt	.L139		@,
 206:ACE_ECF_25-ACE-ECF-V1.1-/Algorithm/user_maths/cpp_files/user_maths.cpp ****     {
 207:ACE_ECF_25-ACE-ECF-V1.1-/Algorithm/user_maths/cpp_files/user_maths.cpp ****         return current_val + limit;
 208:ACE_ECF_25-ACE-ECF-V1.1-/Algorithm/user_maths/cpp_files/user_maths.cpp ****     }
 209:ACE_ECF_25-ACE-ECF-V1.1-/Algorithm/user_maths/cpp_files/user_maths.cpp ****     else if(set_val - current_val < -limit)
 1217              		.loc 1 209 10 is_stmt 1 view .LVU254
 1218              	@ ACE_ECF_25-ACE-ECF-V1.1-/Algorithm/user_maths/cpp_files/user_maths.cpp:209:     else if(set_val -
 1219              		.loc 1 209 37 is_stmt 0 view .LVU255
ARM GAS  C:\Users\30806\AppData\Local\Temp\ccxw87g1.s 			page 27


 1220 0018 B1EE417A 		vneg.f32	s14, s2	@ _2, limit
 1221              	@ ACE_ECF_25-ACE-ECF-V1.1-/Algorithm/user_maths/cpp_files/user_maths.cpp:209:     else if(set_val -
 1222              		.loc 1 209 10 view .LVU256
 1223 001c F4EEC77A 		vcmpe.f32	s15, s14	@ _1, _2
 1224 0020 F1EE10FA 		vmrs	APSR_nzcv, FPSCR
 1225 0024 08D5     		bpl	.L137		@,
 210:ACE_ECF_25-ACE-ECF-V1.1-/Algorithm/user_maths/cpp_files/user_maths.cpp ****     {
 211:ACE_ECF_25-ACE-ECF-V1.1-/Algorithm/user_maths/cpp_files/user_maths.cpp ****         return current_val - limit;
 1226              		.loc 1 211 9 is_stmt 1 view .LVU257
 1227              	@ ACE_ECF_25-ACE-ECF-V1.1-/Algorithm/user_maths/cpp_files/user_maths.cpp:211:         return curren
 1228              		.loc 1 211 30 is_stmt 0 view .LVU258
 1229 0026 30EE410A 		vsub.f32	s0, s0, s2	@ <retval>, current_val, limit
 1230              	.LVL86:
 1231              		.loc 1 211 30 view .LVU259
 1232 002a 7047     		bx	lr	@
 1233              	.LVL87:
 1234              	.L138:
 1235              	@ ACE_ECF_25-ACE-ECF-V1.1-/Algorithm/user_maths/cpp_files/user_maths.cpp:204:     limit = user_abs(
 204:ACE_ECF_25-ACE-ECF-V1.1-/Algorithm/user_maths/cpp_files/user_maths.cpp ****     if(set_val - current_val > limit)
 1236              		.loc 1 204 13 discriminator 2 view .LVU260
 1237 002c B1EE411A 		vneg.f32	s2, s2	@ limit, limit
 1238              	.LVL88:
 204:ACE_ECF_25-ACE-ECF-V1.1-/Algorithm/user_maths/cpp_files/user_maths.cpp ****     if(set_val - current_val > limit)
 1239              		.loc 1 204 13 discriminator 2 view .LVU261
 1240 0030 EBE7     		b	.L128		@
 1241              	.LVL89:
 1242              	.L139:
 207:ACE_ECF_25-ACE-ECF-V1.1-/Algorithm/user_maths/cpp_files/user_maths.cpp ****     }
 1243              		.loc 1 207 9 is_stmt 1 view .LVU262
 1244              	@ ACE_ECF_25-ACE-ECF-V1.1-/Algorithm/user_maths/cpp_files/user_maths.cpp:207:         return curren
 207:ACE_ECF_25-ACE-ECF-V1.1-/Algorithm/user_maths/cpp_files/user_maths.cpp ****     }
 1245              		.loc 1 207 30 is_stmt 0 view .LVU263
 1246 0032 31EE000A 		vadd.f32	s0, s2, s0	@ <retval>, limit, current_val
 1247              	.LVL90:
 207:ACE_ECF_25-ACE-ECF-V1.1-/Algorithm/user_maths/cpp_files/user_maths.cpp ****     }
 1248              		.loc 1 207 30 view .LVU264
 1249 0036 7047     		bx	lr	@
 1250              	.LVL91:
 1251              	.L137:
 1252              	@ ACE_ECF_25-ACE-ECF-V1.1-/Algorithm/user_maths/cpp_files/user_maths.cpp:215:         return set_va
 212:ACE_ECF_25-ACE-ECF-V1.1-/Algorithm/user_maths/cpp_files/user_maths.cpp ****     }
 213:ACE_ECF_25-ACE-ECF-V1.1-/Algorithm/user_maths/cpp_files/user_maths.cpp ****     else
 214:ACE_ECF_25-ACE-ECF-V1.1-/Algorithm/user_maths/cpp_files/user_maths.cpp ****     {
 215:ACE_ECF_25-ACE-ECF-V1.1-/Algorithm/user_maths/cpp_files/user_maths.cpp ****         return set_val;
 1253              		.loc 1 215 16 view .LVU265
 1254 0038 B0EE600A 		vmov.f32	s0, s1	@ <retval>, set_val
 1255              	.LVL92:
 1256              	@ ACE_ECF_25-ACE-ECF-V1.1-/Algorithm/user_maths/cpp_files/user_maths.cpp:217: }
 216:ACE_ECF_25-ACE-ECF-V1.1-/Algorithm/user_maths/cpp_files/user_maths.cpp ****     }
 217:ACE_ECF_25-ACE-ECF-V1.1-/Algorithm/user_maths/cpp_files/user_maths.cpp **** }
 1257              		.loc 1 217 1 view .LVU266
 1258 003c 7047     		bx	lr	@
 1259              		.cfi_endproc
 1260              	.LFE385:
 1261              		.size	_ZN12user_maths_c19CircleIncreaseLimitEfff, .-_ZN12user_maths_c19CircleIncreaseLimitEfff
 1262              		.section	.text._ZN12user_maths_c14user_val_limitEfff,"ax",%progbits
 1263              		.align	1
ARM GAS  C:\Users\30806\AppData\Local\Temp\ccxw87g1.s 			page 28


 1264              		.global	_ZN12user_maths_c14user_val_limitEfff
 1265              		.syntax unified
 1266              		.thumb
 1267              		.thumb_func
 1268              		.type	_ZN12user_maths_c14user_val_limitEfff, %function
 1269              	_ZN12user_maths_c14user_val_limitEfff:
 1270              	.LVL93:
 1271              	.LFB386:
 218:ACE_ECF_25-ACE-ECF-V1.1-/Algorithm/user_maths/cpp_files/user_maths.cpp **** 
 219:ACE_ECF_25-ACE-ECF-V1.1-/Algorithm/user_maths/cpp_files/user_maths.cpp **** float user_maths_c::user_val_limit(float val, float min, float max)
 220:ACE_ECF_25-ACE-ECF-V1.1-/Algorithm/user_maths/cpp_files/user_maths.cpp **** {
 1272              		.loc 1 220 1 is_stmt 1 view -0
 1273              		.cfi_startproc
 1274              		@ args = 0, pretend = 0, frame = 0
 1275              		@ frame_needed = 0, uses_anonymous_args = 0
 1276              		@ link register save eliminated.
 221:ACE_ECF_25-ACE-ECF-V1.1-/Algorithm/user_maths/cpp_files/user_maths.cpp ****     (val) = (val) < (min) ? (min) : (val);
 1277              		.loc 1 221 5 view .LVU268
 1278              	@ ACE_ECF_25-ACE-ECF-V1.1-/Algorithm/user_maths/cpp_files/user_maths.cpp:221:     (val) = (val) < (
 1279              		.loc 1 221 27 is_stmt 0 view .LVU269
 1280 0000 B4EEE00A 		vcmpe.f32	s0, s1	@ val, min
 1281 0004 F1EE10FA 		vmrs	APSR_nzcv, FPSCR
 1282 0008 01D5     		bpl	.L141		@,
 1283 000a B0EE600A 		vmov.f32	s0, s1	@ val, min
 1284              	.LVL94:
 1285              	.L141:
 222:ACE_ECF_25-ACE-ECF-V1.1-/Algorithm/user_maths/cpp_files/user_maths.cpp ****     (val) = (val) > (max) ? (max) : (val);
 1286              		.loc 1 222 5 is_stmt 1 discriminator 4 view .LVU270
 1287              	@ ACE_ECF_25-ACE-ECF-V1.1-/Algorithm/user_maths/cpp_files/user_maths.cpp:222:     (val) = (val) > (
 1288              		.loc 1 222 27 is_stmt 0 discriminator 4 view .LVU271
 1289 000e B4EEC10A 		vcmpe.f32	s0, s2	@ val, max
 1290 0012 F1EE10FA 		vmrs	APSR_nzcv, FPSCR
 1291 0016 01DD     		ble	.L143		@,
 1292              	@ ACE_ECF_25-ACE-ECF-V1.1-/Algorithm/user_maths/cpp_files/user_maths.cpp:222:     (val) = (val) > (
 1293              		.loc 1 222 27 view .LVU272
 1294 0018 B0EE410A 		vmov.f32	s0, s2	@ val, max
 1295              	.LVL95:
 1296              	.L143:
 223:ACE_ECF_25-ACE-ECF-V1.1-/Algorithm/user_maths/cpp_files/user_maths.cpp ****     return val;
 1297              		.loc 1 223 5 is_stmt 1 discriminator 4 view .LVU273
 1298              	@ ACE_ECF_25-ACE-ECF-V1.1-/Algorithm/user_maths/cpp_files/user_maths.cpp:224: }
 224:ACE_ECF_25-ACE-ECF-V1.1-/Algorithm/user_maths/cpp_files/user_maths.cpp **** }
 1299              		.loc 1 224 1 is_stmt 0 discriminator 4 view .LVU274
 1300 001c 7047     		bx	lr	@
 1301              		.cfi_endproc
 1302              	.LFE386:
 1303              		.size	_ZN12user_maths_c14user_val_limitEfff, .-_ZN12user_maths_c14user_val_limitEfff
 1304              		.section	.bss._ZZN12user_maths_c24data_accelerated_controlEPffE8last_num,"aw",%nobits
 1305              		.align	1
 1306              		.set	.LANCHOR0,. + 0
 1307              		.type	_ZZN12user_maths_c24data_accelerated_controlEPffE8last_num, %object
 1308              		.size	_ZZN12user_maths_c24data_accelerated_controlEPffE8last_num, 2
 1309              	_ZZN12user_maths_c24data_accelerated_controlEPffE8last_num:
 1310 0000 0000     		.space	2
 1311              		.section	.rodata._ZL23Trigonometric_Functions,"a"
 1312              		.align	2
 1313              		.set	.LANCHOR1,. + 0
ARM GAS  C:\Users\30806\AppData\Local\Temp\ccxw87g1.s 			page 29


 1314              		.type	_ZL23Trigonometric_Functions, %object
 1315              		.size	_ZL23Trigonometric_Functions, 3604
 1316              	_ZL23Trigonometric_Functions:
 1317 0000 00000000 		.word	0
 1318 0004 BCB8323E 		.word	1043511484
 1319 0008 ABB8B23E 		.word	1051900075
 1320 000c 6A0A063F 		.word	1057360490
 1321 0010 63B8323F 		.word	1060288611
 1322 0014 39665F3F 		.word	1063216697
 1323 0018 F109863F 		.word	1065748977
 1324 001c AB609C3F 		.word	1067212971
 1325 0020 46B7B23F 		.word	1068676934
 1326 0024 BD0DC93F 		.word	1070140861
 1327 0028 0C64DF3F 		.word	1071604748
 1328 002c 2EBAF53F 		.word	1073068590
 1329 0030 10080640 		.word	1074137104
 1330 0034 ED321140 		.word	1074868973
 1331 0038 AE5D1C40 		.word	1075600814
 1332 003c 50882740 		.word	1076332624
 1333 0040 D0B23240 		.word	1077064400
 1334 0044 2DDD3D40 		.word	1077796141
 1335 0048 63074940 		.word	1078527843
 1336 004c 72315440 		.word	1079259506
 1337 0050 565B5F40 		.word	1079991126
 1338 0054 0D856A40 		.word	1080722701
 1339 0058 96AE7540 		.word	1081454230
 1340 005c F76B8040 		.word	1082158071
 1341 0060 89008640 		.word	1082523785
 1342 0064 01958B40 		.word	1082889473
 1343 0068 5C299140 		.word	1083255132
 1344 006c 9BBD9640 		.word	1083620763
 1345 0070 BB519C40 		.word	1083986363
 1346 0074 BDE5A140 		.word	1084351933
 1347 0078 9E79A740 		.word	1084717470
 1348 007c 5D0DAD40 		.word	1085082973
 1349 0080 FAA0B240 		.word	1085448442
 1350 0084 7334B840 		.word	1085813875
 1351 0088 C8C7BD40 		.word	1086179272
 1352 008c F75AC340 		.word	1086544631
 1353 0090 FEEDC840 		.word	1086909950
 1354 0094 DE80CE40 		.word	1087275230
 1355 0098 9413D440 		.word	1087640468
 1356 009c 20A6D940 		.word	1088005664
 1357 00a0 8138DF40 		.word	1088370817
 1358 00a4 B5CAE440 		.word	1088735925
 1359 00a8 BB5CEA40 		.word	1089100987
 1360 00ac 93EEEF40 		.word	1089466003
 1361 00b0 3A80F540 		.word	1089830970
 1362 00b4 B111FB40 		.word	1090195889
 1363 00b8 7B510041 		.word	1090539899
 1364 00bc 031A0341 		.word	1090722307
 1365 00c0 72E20541 		.word	1090904690
 1366 00c4 C6AA0841 		.word	1091087046
 1367 00c8 FE720B41 		.word	1091269374
 1368 00cc 1B3B0E41 		.word	1091451675
 1369 00d0 1B031141 		.word	1091633947
 1370 00d4 FECA1341 		.word	1091816190
ARM GAS  C:\Users\30806\AppData\Local\Temp\ccxw87g1.s 			page 30


 1371 00d8 C4921641 		.word	1091998404
 1372 00dc 6C5A1941 		.word	1092180588
 1373 00e0 F5211C41 		.word	1092362741
 1374 00e4 5FE91E41 		.word	1092544863
 1375 00e8 A9B02141 		.word	1092726953
 1376 00ec D3772441 		.word	1092909011
 1377 00f0 DC3E2741 		.word	1093091036
 1378 00f4 C3052A41 		.word	1093273027
 1379 00f8 89CC2C41 		.word	1093454985
 1380 00fc 2C932F41 		.word	1093636908
 1381 0100 AD593241 		.word	1093818797
 1382 0104 09203541 		.word	1094000649
 1383 0108 42E63741 		.word	1094182466
 1384 010c 55AC3A41 		.word	1094364245
 1385 0110 44723D41 		.word	1094545988
 1386 0114 0D384041 		.word	1094727693
 1387 0118 AFFD4241 		.word	1094909359
 1388 011c 2AC34541 		.word	1095090986
 1389 0120 7E884841 		.word	1095272574
 1390 0124 AA4D4B41 		.word	1095454122
 1391 0128 AD124E41 		.word	1095635629
 1392 012c 87D75041 		.word	1095817095
 1393 0130 389C5341 		.word	1095998520
 1394 0134 BE605641 		.word	1096179902
 1395 0138 19255941 		.word	1096361241
 1396 013c 49E95B41 		.word	1096542537
 1397 0140 4DAD5E41 		.word	1096723789
 1398 0144 25716141 		.word	1096904997
 1399 0148 D0346441 		.word	1097086160
 1400 014c 4DF86641 		.word	1097267277
 1401 0150 9CBB6941 		.word	1097448348
 1402 0154 BC7E6C41 		.word	1097629372
 1403 0158 AD416F41 		.word	1097810349
 1404 015c 6F047241 		.word	1097991279
 1405 0160 00C77441 		.word	1098172160
 1406 0164 60897741 		.word	1098352992
 1407 0168 8F4B7A41 		.word	1098533775
 1408 016c 8B0D7D41 		.word	1098714507
 1409 0170 56CF7F41 		.word	1098895190
 1410 0174 76488141 		.word	1098991734
 1411 0178 28A98241 		.word	1099082024
 1412 017c C0098441 		.word	1099172288
 1413 0180 3D6A8541 		.word	1099262525
 1414 0184 A0CA8641 		.word	1099352736
 1415 0188 E82A8841 		.word	1099442920
 1416 018c 148B8941 		.word	1099533076
 1417 0190 26EB8A41 		.word	1099623206
 1418 0194 1B4B8C41 		.word	1099713307
 1419 0198 F4AA8D41 		.word	1099803380
 1420 019c B20A8F41 		.word	1099893426
 1421 01a0 526A9041 		.word	1099983442
 1422 01a4 D6C99141 		.word	1100073430
 1423 01a8 3D299341 		.word	1100163389
 1424 01ac 86889441 		.word	1100253318
 1425 01b0 B1E79541 		.word	1100343217
 1426 01b4 BF469741 		.word	1100433087
 1427 01b8 AFA59841 		.word	1100522927
ARM GAS  C:\Users\30806\AppData\Local\Temp\ccxw87g1.s 			page 31


 1428 01bc 80049A41 		.word	1100612736
 1429 01c0 32639B41 		.word	1100702514
 1430 01c4 C5C19C41 		.word	1100792261
 1431 01c8 39209E41 		.word	1100881977
 1432 01cc 8E7E9F41 		.word	1100971662
 1433 01d0 C2DCA041 		.word	1101061314
 1434 01d4 D73AA241 		.word	1101150935
 1435 01d8 CB98A341 		.word	1101240523
 1436 01dc 9EF6A441 		.word	1101330078
 1437 01e0 5054A641 		.word	1101419600
 1438 01e4 E2B1A741 		.word	1101509090
 1439 01e8 510FA941 		.word	1101598545
 1440 01ec A06CAA41 		.word	1101687968
 1441 01f0 CCC9AB41 		.word	1101777356
 1442 01f4 D526AD41 		.word	1101866709
 1443 01f8 BC83AE41 		.word	1101956028
 1444 01fc 81E0AF41 		.word	1102045313
 1445 0200 223DB141 		.word	1102134562
 1446 0204 A099B241 		.word	1102223776
 1447 0208 FAF5B341 		.word	1102312954
 1448 020c 3052B541 		.word	1102402096
 1449 0210 42AEB641 		.word	1102491202
 1450 0214 300AB841 		.word	1102580272
 1451 0218 F865B941 		.word	1102669304
 1452 021c 9CC1BA41 		.word	1102758300
 1453 0220 1B1DBC41 		.word	1102847259
 1454 0224 7478BD41 		.word	1102936180
 1455 0228 A7D3BE41 		.word	1103025063
 1456 022c B42EC041 		.word	1103113908
 1457 0230 9B89C141 		.word	1103202715
 1458 0234 5BE4C241 		.word	1103291483
 1459 0238 F43EC441 		.word	1103380212
 1460 023c 6699C541 		.word	1103468902
 1461 0240 B0F3C641 		.word	1103557552
 1462 0244 D34DC841 		.word	1103646163
 1463 0248 CEA7C941 		.word	1103734734
 1464 024c A101CB41 		.word	1103823265
 1465 0250 4B5BCC41 		.word	1103911755
 1466 0254 CCB4CD41 		.word	1104000204
 1467 0258 240ECF41 		.word	1104088612
 1468 025c 5367D041 		.word	1104176979
 1469 0260 58C0D141 		.word	1104265304
 1470 0264 3319D341 		.word	1104353587
 1471 0268 E571D441 		.word	1104441829
 1472 026c 6BCAD541 		.word	1104530027
 1473 0270 C722D741 		.word	1104618183
 1474 0274 F97AD841 		.word	1104706297
 1475 0278 FFD2D941 		.word	1104794367
 1476 027c D92ADB41 		.word	1104882393
 1477 0280 8882DC41 		.word	1104970376
 1478 0284 0ADADD41 		.word	1105058314
 1479 0288 6131DF41 		.word	1105146209
 1480 028c 8B88E041 		.word	1105234059
 1481 0290 88DFE141 		.word	1105321864
 1482 0294 5836E341 		.word	1105409624
 1483 0298 FA8CE441 		.word	1105497338
 1484 029c 6FE3E541 		.word	1105585007
ARM GAS  C:\Users\30806\AppData\Local\Temp\ccxw87g1.s 			page 32


 1485 02a0 B639E741 		.word	1105672630
 1486 02a4 CF8FE841 		.word	1105760207
 1487 02a8 BAE5E941 		.word	1105847738
 1488 02ac 753BEB41 		.word	1105935221
 1489 02b0 0291EC41 		.word	1106022658
 1490 02b4 60E6ED41 		.word	1106110048
 1491 02b8 8E3BEF41 		.word	1106197390
 1492 02bc 8C90F041 		.word	1106284684
 1493 02c0 5BE5F141 		.word	1106371931
 1494 02c4 F939F341 		.word	1106459129
 1495 02c8 668EF441 		.word	1106546278
 1496 02cc A3E2F541 		.word	1106633379
 1497 02d0 AE36F741 		.word	1106720430
 1498 02d4 888AF841 		.word	1106807432
 1499 02d8 31DEF941 		.word	1106894385
 1500 02dc A831FB41 		.word	1106981288
 1501 02e0 EC84FC41 		.word	1107068140
 1502 02e4 FED7FD41 		.word	1107154942
 1503 02e8 DE2AFF41 		.word	1107241694
 1504 02ec C53E0042 		.word	1107312325
 1505 02f0 02E80042 		.word	1107355650
 1506 02f4 25910142 		.word	1107398949
 1507 02f8 2E3A0242 		.word	1107442222
 1508 02fc 1DE30242 		.word	1107485469
 1509 0300 F28B0342 		.word	1107528690
 1510 0304 AC340442 		.word	1107571884
 1511 0308 4DDD0442 		.word	1107615053
 1512 030c D3850542 		.word	1107658195
 1513 0310 3E2E0642 		.word	1107701310
 1514 0314 8ED60642 		.word	1107744398
 1515 0318 C37E0742 		.word	1107787459
 1516 031c DE260842 		.word	1107830494
 1517 0320 DDCE0842 		.word	1107873501
 1518 0324 C1760942 		.word	1107916481
 1519 0328 891E0A42 		.word	1107959433
 1520 032c 36C60A42 		.word	1108002358
 1521 0330 C76D0B42 		.word	1108045255
 1522 0334 3C150C42 		.word	1108088124
 1523 0338 96BC0C42 		.word	1108130966
 1524 033c D3630D42 		.word	1108173779
 1525 0340 F40A0E42 		.word	1108216564
 1526 0344 F9B10E42 		.word	1108259321
 1527 0348 E1580F42 		.word	1108302049
 1528 034c ACFF0F42 		.word	1108344748
 1529 0350 5BA61042 		.word	1108387419
 1530 0354 ED4C1142 		.word	1108430061
 1531 0358 62F31142 		.word	1108472674
 1532 035c BA991242 		.word	1108515258
 1533 0360 F43F1342 		.word	1108557812
 1534 0364 11E61342 		.word	1108600337
 1535 0368 118C1442 		.word	1108642833
 1536 036c F3311542 		.word	1108685299
 1537 0370 B7D71542 		.word	1108727735
 1538 0374 5D7D1642 		.word	1108770141
 1539 0378 E6221742 		.word	1108812518
 1540 037c 50C81742 		.word	1108854864
 1541 0380 9B6D1842 		.word	1108897179
ARM GAS  C:\Users\30806\AppData\Local\Temp\ccxw87g1.s 			page 33


 1542 0384 C9121942 		.word	1108939465
 1543 0388 D7B71942 		.word	1108981719
 1544 038c C75C1A42 		.word	1109023943
 1545 0390 99011B42 		.word	1109066137
 1546 0394 4BA61B42 		.word	1109108299
 1547 0398 DE4A1C42 		.word	1109150430
 1548 039c 52EF1C42 		.word	1109192530
 1549 03a0 A7931D42 		.word	1109234599
 1550 03a4 DC371E42 		.word	1109276636
 1551 03a8 F2DB1E42 		.word	1109318642
 1552 03ac E87F1F42 		.word	1109360616
 1553 03b0 BE232042 		.word	1109402558
 1554 03b4 74C72042 		.word	1109444468
 1555 03b8 0A6B2142 		.word	1109486346
 1556 03bc 800E2242 		.word	1109528192
 1557 03c0 D5B12242 		.word	1109570005
 1558 03c4 0A552342 		.word	1109611786
 1559 03c8 1EF82342 		.word	1109653534
 1560 03cc 129B2442 		.word	1109695250
 1561 03d0 E53D2542 		.word	1109736933
 1562 03d4 97E02542 		.word	1109778583
 1563 03d8 27832642 		.word	1109820199
 1564 03dc 97252742 		.word	1109861783
 1565 03e0 E5C72742 		.word	1109903333
 1566 03e4 116A2842 		.word	1109944849
 1567 03e8 1C0C2942 		.word	1109986332
 1568 03ec 05AE2942 		.word	1110027781
 1569 03f0 CD4F2A42 		.word	1110069197
 1570 03f4 72F12A42 		.word	1110110578
 1571 03f8 F5922B42 		.word	1110151925
 1572 03fc 56342C42 		.word	1110193238
 1573 0400 95D52C42 		.word	1110234517
 1574 0404 B1762D42 		.word	1110275761
 1575 0408 AA172E42 		.word	1110316970
 1576 040c 81B82E42 		.word	1110358145
 1577 0410 35592F42 		.word	1110399285
 1578 0414 C5F92F42 		.word	1110440389
 1579 0418 339A3042 		.word	1110481459
 1580 041c 7D3A3142 		.word	1110522493
 1581 0420 A4DA3142 		.word	1110563492
 1582 0424 A87A3242 		.word	1110604456
 1583 0428 881A3342 		.word	1110645384
 1584 042c 44BA3342 		.word	1110686276
 1585 0430 DC593442 		.word	1110727132
 1586 0434 50F93442 		.word	1110767952
 1587 0438 A1983542 		.word	1110808737
 1588 043c CC373642 		.word	1110849484
 1589 0440 D4D63642 		.word	1110890196
 1590 0444 B7753742 		.word	1110930871
 1591 0448 75143842 		.word	1110971509
 1592 044c 0FB33842 		.word	1111012111
 1593 0450 84513942 		.word	1111052676
 1594 0454 D3EF3942 		.word	1111093203
 1595 0458 FE8D3A42 		.word	1111133694
 1596 045c 032C3B42 		.word	1111174147
 1597 0460 E3C93B42 		.word	1111214563
 1598 0464 9E673C42 		.word	1111254942
ARM GAS  C:\Users\30806\AppData\Local\Temp\ccxw87g1.s 			page 34


 1599 0468 33053D42 		.word	1111295283
 1600 046c A2A23D42 		.word	1111335586
 1601 0470 EB3F3E42 		.word	1111375851
 1602 0474 0FDD3E42 		.word	1111416079
 1603 0478 0C7A3F42 		.word	1111456268
 1604 047c E3164042 		.word	1111496419
 1605 0480 94B34042 		.word	1111536532
 1606 0484 1E504142 		.word	1111576606
 1607 0488 81EC4142 		.word	1111616641
 1608 048c BE884242 		.word	1111656638
 1609 0490 D4244342 		.word	1111696596
 1610 0494 C3C04342 		.word	1111736515
 1611 0498 8B5C4442 		.word	1111776395
 1612 049c 2CF84442 		.word	1111816236
 1613 04a0 A6934542 		.word	1111856038
 1614 04a4 F82E4642 		.word	1111895800
 1615 04a8 22CA4642 		.word	1111935522
 1616 04ac 25654742 		.word	1111975205
 1617 04b0 00004842 		.word	1112014848
 1618 04b4 B39A4842 		.word	1112054451
 1619 04b8 3E354942 		.word	1112094014
 1620 04bc A1CF4942 		.word	1112133537
 1621 04c0 DC694A42 		.word	1112173020
 1622 04c4 EE034B42 		.word	1112212462
 1623 04c8 D79D4B42 		.word	1112251863
 1624 04cc 98374C42 		.word	1112291224
 1625 04d0 30D14C42 		.word	1112330544
 1626 04d4 A06A4D42 		.word	1112369824
 1627 04d8 E6034E42 		.word	1112409062
 1628 04dc 039D4E42 		.word	1112448259
 1629 04e0 F7354F42 		.word	1112487415
 1630 04e4 C2CE4F42 		.word	1112526530
 1631 04e8 63675042 		.word	1112565603
 1632 04ec DAFF5042 		.word	1112604634
 1633 04f0 28985142 		.word	1112643624
 1634 04f4 4C305242 		.word	1112682572
 1635 04f8 46C85242 		.word	1112721478
 1636 04fc 16605342 		.word	1112760342
 1637 0500 BCF75342 		.word	1112799164
 1638 0504 378F5442 		.word	1112837943
 1639 0508 88265542 		.word	1112876680
 1640 050c AEBD5542 		.word	1112915374
 1641 0510 AA545642 		.word	1112954026
 1642 0514 7BEB5642 		.word	1112992635
 1643 0518 21825742 		.word	1113031201
 1644 051c 9C185842 		.word	1113069724
 1645 0520 ECAE5842 		.word	1113108204
 1646 0524 10455942 		.word	1113146640
 1647 0528 0ADB5942 		.word	1113185034
 1648 052c D7705A42 		.word	1113223383
 1649 0530 79065B42 		.word	1113261689
 1650 0534 F09B5B42 		.word	1113299952
 1651 0538 3A315C42 		.word	1113338170
 1652 053c 59C65C42 		.word	1113376345
 1653 0540 4B5B5D42 		.word	1113414475
 1654 0544 12F05D42 		.word	1113452562
 1655 0548 AC845E42 		.word	1113490604
ARM GAS  C:\Users\30806\AppData\Local\Temp\ccxw87g1.s 			page 35


 1656 054c 19195F42 		.word	1113528601
 1657 0550 5AAD5F42 		.word	1113566554
 1658 0554 6F416042 		.word	1113604463
 1659 0558 57D56042 		.word	1113642327
 1660 055c 11696142 		.word	1113680145
 1661 0560 9FFC6142 		.word	1113717919
 1662 0564 00906242 		.word	1113755648
 1663 0568 33236342 		.word	1113793331
 1664 056c 39B66342 		.word	1113830969
 1665 0570 12496442 		.word	1113868562
 1666 0574 BDDB6442 		.word	1113906109
 1667 0578 3A6E6542 		.word	1113943610
 1668 057c 8A006642 		.word	1113981066
 1669 0580 AB926642 		.word	1114018475
 1670 0584 9F246742 		.word	1114055839
 1671 0588 64B66742 		.word	1114093156
 1672 058c FC476842 		.word	1114130428
 1673 0590 64D96842 		.word	1114167652
 1674 0594 9F6A6942 		.word	1114204831
 1675 0598 AAFB6942 		.word	1114241962
 1676 059c 888C6A42 		.word	1114279048
 1677 05a0 361D6B42 		.word	1114316086
 1678 05a4 B5AD6B42 		.word	1114353077
 1679 05a8 053E6C42 		.word	1114390021
 1680 05ac 26CE6C42 		.word	1114426918
 1681 05b0 185E6D42 		.word	1114463768
 1682 05b4 DAED6D42 		.word	1114500570
 1683 05b8 6D7D6E42 		.word	1114537325
 1684 05bc D10C6F42 		.word	1114574033
 1685 05c0 049C6F42 		.word	1114610692
 1686 05c4 082B7042 		.word	1114647304
 1687 05c8 DCB97042 		.word	1114683868
 1688 05cc 7F487142 		.word	1114720383
 1689 05d0 F3D67142 		.word	1114756851
 1690 05d4 36657242 		.word	1114793270
 1691 05d8 49F37242 		.word	1114829641
 1692 05dc 2C817342 		.word	1114865964
 1693 05e0 DD0E7442 		.word	1114902237
 1694 05e4 5E9C7442 		.word	1114938462
 1695 05e8 AF297542 		.word	1114974639
 1696 05ec CEB67542 		.word	1115010766
 1697 05f0 BC437642 		.word	1115046844
 1698 05f4 79D07642 		.word	1115082873
 1699 05f8 055D7742 		.word	1115118853
 1700 05fc 5FE97742 		.word	1115154783
 1701 0600 88757842 		.word	1115190664
 1702 0604 80017942 		.word	1115226496
 1703 0608 458D7942 		.word	1115262277
 1704 060c D9187A42 		.word	1115298009
 1705 0610 3BA47A42 		.word	1115333691
 1706 0614 6B2F7B42 		.word	1115369323
 1707 0618 68BA7B42 		.word	1115404904
 1708 061c 34457C42 		.word	1115440436
 1709 0620 CDCF7C42 		.word	1115475917
 1710 0624 345A7D42 		.word	1115511348
 1711 0628 68E47D42 		.word	1115546728
 1712 062c 696E7E42 		.word	1115582057
ARM GAS  C:\Users\30806\AppData\Local\Temp\ccxw87g1.s 			page 36


 1713 0630 37F87E42 		.word	1115617335
 1714 0634 D3817F42 		.word	1115652563
 1715 0638 9E058042 		.word	1115686302
 1716 063c 394A8042 		.word	1115703865
 1717 0640 BA8E8042 		.word	1115721402
 1718 0644 21D38042 		.word	1115738913
 1719 0648 6F178142 		.word	1115756399
 1720 064c A35B8142 		.word	1115773859
 1721 0650 BD9F8142 		.word	1115791293
 1722 0654 BDE38142 		.word	1115808701
 1723 0658 A4278242 		.word	1115826084
 1724 065c 706B8242 		.word	1115843440
 1725 0660 23AF8242 		.word	1115860771
 1726 0664 BBF28242 		.word	1115878075
 1727 0668 39368342 		.word	1115895353
 1728 066c 9D798342 		.word	1115912605
 1729 0670 E6BC8342 		.word	1115929830
 1730 0674 16008442 		.word	1115947030
 1731 0678 2B438442 		.word	1115964203
 1732 067c 25868442 		.word	1115981349
 1733 0680 06C98442 		.word	1115998470
 1734 0684 CB0B8542 		.word	1116015563
 1735 0688 764E8542 		.word	1116032630
 1736 068c 07918542 		.word	1116049671
 1737 0690 7DD38542 		.word	1116066685
 1738 0694 D8158642 		.word	1116083672
 1739 0698 18588642 		.word	1116100632
 1740 069c 3E9A8642 		.word	1116117566
 1741 06a0 48DC8642 		.word	1116134472
 1742 06a4 381E8742 		.word	1116151352
 1743 06a8 0D608742 		.word	1116168205
 1744 06ac C6A18742 		.word	1116185030
 1745 06b0 65E38742 		.word	1116201829
 1746 06b4 E9248842 		.word	1116218601
 1747 06b8 51668842 		.word	1116235345
 1748 06bc 9EA78842 		.word	1116252062
 1749 06c0 D0E88842 		.word	1116268752
 1750 06c4 E6298942 		.word	1116285414
 1751 06c8 E16A8942 		.word	1116302049
 1752 06cc C1AB8942 		.word	1116318657
 1753 06d0 85EC8942 		.word	1116335237
 1754 06d4 2E2D8A42 		.word	1116351790
 1755 06d8 BB6D8A42 		.word	1116368315
 1756 06dc 2CAE8A42 		.word	1116384812
 1757 06e0 82EE8A42 		.word	1116401282
 1758 06e4 BC2E8B42 		.word	1116417724
 1759 06e8 DA6E8B42 		.word	1116434138
 1760 06ec DDAE8B42 		.word	1116450525
 1761 06f0 C3EE8B42 		.word	1116466883
 1762 06f4 8E2E8C42 		.word	1116483214
 1763 06f8 3C6E8C42 		.word	1116499516
 1764 06fc CFAD8C42 		.word	1116515791
 1765 0700 46ED8C42 		.word	1116532038
 1766 0704 A02C8D42 		.word	1116548256
 1767 0708 DE6B8D42 		.word	1116564446
 1768 070c 00AB8D42 		.word	1116580608
 1769 0710 06EA8D42 		.word	1116596742
ARM GAS  C:\Users\30806\AppData\Local\Temp\ccxw87g1.s 			page 37


 1770 0714 EF288E42 		.word	1116612847
 1771 0718 BC678E42 		.word	1116628924
 1772 071c 6CA68E42 		.word	1116644972
 1773 0720 00E58E42 		.word	1116660992
 1774 0724 78238F42 		.word	1116676984
 1775 0728 D3618F42 		.word	1116692947
 1776 072c 11A08F42 		.word	1116708881
 1777 0730 33DE8F42 		.word	1116724787
 1778 0734 381C9042 		.word	1116740664
 1779 0738 205A9042 		.word	1116756512
 1780 073c EB979042 		.word	1116772331
 1781 0740 99D59042 		.word	1116788121
 1782 0744 2B139142 		.word	1116803883
 1783 0748 A0509142 		.word	1116819616
 1784 074c F78D9142 		.word	1116835319
 1785 0750 32CB9142 		.word	1116850994
 1786 0754 4F089242 		.word	1116866639
 1787 0758 4F459242 		.word	1116882255
 1788 075c 32829242 		.word	1116897842
 1789 0760 F8BE9242 		.word	1116913400
 1790 0764 A1FB9242 		.word	1116928929
 1791 0768 2C389342 		.word	1116944428
 1792 076c 9A749342 		.word	1116959898
 1793 0770 EAB09342 		.word	1116975338
 1794 0774 1DED9342 		.word	1116990749
 1795 0778 32299442 		.word	1117006130
 1796 077c 2A659442 		.word	1117021482
 1797 0780 04A19442 		.word	1117036804
 1798 0784 C0DC9442 		.word	1117052096
 1799 0788 5F189542 		.word	1117067359
 1800 078c E0539542 		.word	1117082592
 1801 0790 438F9542 		.word	1117097795
 1802 0794 88CA9542 		.word	1117112968
 1803 0798 B0059642 		.word	1117128112
 1804 079c B9409642 		.word	1117143225
 1805 07a0 A57B9642 		.word	1117158309
 1806 07a4 72B69642 		.word	1117173362
 1807 07a8 21F19642 		.word	1117188385
 1808 07ac B32B9742 		.word	1117203379
 1809 07b0 26669742 		.word	1117218342
 1810 07b4 7AA09742 		.word	1117233274
 1811 07b8 B1DA9742 		.word	1117248177
 1812 07bc C9149842 		.word	1117263049
 1813 07c0 C34E9842 		.word	1117277891
 1814 07c4 9E889842 		.word	1117292702
 1815 07c8 5BC29842 		.word	1117307483
 1816 07cc FAFB9842 		.word	1117322234
 1817 07d0 7A359942 		.word	1117336954
 1818 07d4 DB6E9942 		.word	1117351643
 1819 07d8 1EA89942 		.word	1117366302
 1820 07dc 42E19942 		.word	1117380930
 1821 07e0 471A9A42 		.word	1117395527
 1822 07e4 2E539A42 		.word	1117410094
 1823 07e8 F58B9A42 		.word	1117424629
 1824 07ec 9EC49A42 		.word	1117439134
 1825 07f0 28FD9A42 		.word	1117453608
 1826 07f4 93359B42 		.word	1117468051
ARM GAS  C:\Users\30806\AppData\Local\Temp\ccxw87g1.s 			page 38


 1827 07f8 E06D9B42 		.word	1117482464
 1828 07fc 0DA69B42 		.word	1117496845
 1829 0800 1BDE9B42 		.word	1117511195
 1830 0804 09169C42 		.word	1117525513
 1831 0808 D94D9C42 		.word	1117539801
 1832 080c 8A859C42 		.word	1117554058
 1833 0810 1BBD9C42 		.word	1117568283
 1834 0814 8DF49C42 		.word	1117582477
 1835 0818 DF2B9D42 		.word	1117596639
 1836 081c 13639D42 		.word	1117610771
 1837 0820 279A9D42 		.word	1117624871
 1838 0824 1BD19D42 		.word	1117638939
 1839 0828 F0079E42 		.word	1117652976
 1840 082c A53E9E42 		.word	1117666981
 1841 0830 3B759E42 		.word	1117680955
 1842 0834 B1AB9E42 		.word	1117694897
 1843 0838 07E29E42 		.word	1117708807
 1844 083c 3E189F42 		.word	1117722686
 1845 0840 554E9F42 		.word	1117736533
 1846 0844 4C849F42 		.word	1117750348
 1847 0848 23BA9F42 		.word	1117764131
 1848 084c DBEF9F42 		.word	1117777883
 1849 0850 7225A042 		.word	1117791602
 1850 0854 EA5AA042 		.word	1117805290
 1851 0858 4190A042 		.word	1117818945
 1852 085c 79C5A042 		.word	1117832569
 1853 0860 90FAA042 		.word	1117846160
 1854 0864 872FA142 		.word	1117859719
 1855 0868 5E64A142 		.word	1117873246
 1856 086c 1599A142 		.word	1117886741
 1857 0870 ACCDA142 		.word	1117900204
 1858 0874 2202A242 		.word	1117913634
 1859 0878 7836A242 		.word	1117927032
 1860 087c AD6AA242 		.word	1117940397
 1861 0880 C29EA242 		.word	1117953730
 1862 0884 B7D2A242 		.word	1117967031
 1863 0888 8B06A342 		.word	1117980299
 1864 088c 3F3AA342 		.word	1117993535
 1865 0890 D26DA342 		.word	1118006738
 1866 0894 44A1A342 		.word	1118019908
 1867 0898 96D4A342 		.word	1118033046
 1868 089c C707A442 		.word	1118046151
 1869 08a0 D73AA442 		.word	1118059223
 1870 08a4 C66DA442 		.word	1118072262
 1871 08a8 95A0A442 		.word	1118085269
 1872 08ac 43D3A442 		.word	1118098243
 1873 08b0 D005A542 		.word	1118111184
 1874 08b4 3C38A542 		.word	1118124092
 1875 08b8 876AA542 		.word	1118136967
 1876 08bc B09CA542 		.word	1118149808
 1877 08c0 B9CEA542 		.word	1118162617
 1878 08c4 A100A642 		.word	1118175393
 1879 08c8 6832A642 		.word	1118188136
 1880 08cc 0D64A642 		.word	1118200845
 1881 08d0 9195A642 		.word	1118213521
 1882 08d4 F4C6A642 		.word	1118226164
 1883 08d8 36F8A642 		.word	1118238774
ARM GAS  C:\Users\30806\AppData\Local\Temp\ccxw87g1.s 			page 39


 1884 08dc 5629A742 		.word	1118251350
 1885 08e0 555AA742 		.word	1118263893
 1886 08e4 338BA742 		.word	1118276403
 1887 08e8 EFBBA742 		.word	1118288879
 1888 08ec 89ECA742 		.word	1118301321
 1889 08f0 031DA842 		.word	1118313731
 1890 08f4 5A4DA842 		.word	1118326106
 1891 08f8 907DA842 		.word	1118338448
 1892 08fc A4ADA842 		.word	1118350756
 1893 0900 97DDA842 		.word	1118363031
 1894 0904 680DA942 		.word	1118375272
 1895 0908 173DA942 		.word	1118387479
 1896 090c A46CA942 		.word	1118399652
 1897 0910 109CA942 		.word	1118411792
 1898 0914 5ACBA942 		.word	1118423898
 1899 0918 82FAA942 		.word	1118435970
 1900 091c 8729AA42 		.word	1118448007
 1901 0920 6B58AA42 		.word	1118460011
 1902 0924 2D87AA42 		.word	1118471981
 1903 0928 CDB5AA42 		.word	1118483917
 1904 092c 4BE4AA42 		.word	1118495819
 1905 0930 A612AB42 		.word	1118507686
 1906 0934 E040AB42 		.word	1118519520
 1907 0938 F76EAB42 		.word	1118531319
 1908 093c EC9CAB42 		.word	1118543084
 1909 0940 BFCAAB42 		.word	1118554815
 1910 0944 70F8AB42 		.word	1118566512
 1911 0948 FE25AC42 		.word	1118578174
 1912 094c 6A53AC42 		.word	1118589802
 1913 0950 B380AC42 		.word	1118601395
 1914 0954 DAADAC42 		.word	1118612954
 1915 0958 DFDAAC42 		.word	1118624479
 1916 095c C107AD42 		.word	1118635969
 1917 0960 8034AD42 		.word	1118647424
 1918 0964 1D61AD42 		.word	1118658845
 1919 0968 978DAD42 		.word	1118670231
 1920 096c EFB9AD42 		.word	1118681583
 1921 0970 24E6AD42 		.word	1118692900
 1922 0974 3612AE42 		.word	1118704182
 1923 0978 263EAE42 		.word	1118715430
 1924 097c F269AE42 		.word	1118726642
 1925 0980 9C95AE42 		.word	1118737820
 1926 0984 23C1AE42 		.word	1118748963
 1927 0988 87ECAE42 		.word	1118760071
 1928 098c C917AF42 		.word	1118771145
 1929 0990 E742AF42 		.word	1118782183
 1930 0994 E26DAF42 		.word	1118793186
 1931 0998 BA98AF42 		.word	1118804154
 1932 099c 70C3AF42 		.word	1118815088
 1933 09a0 02EEAF42 		.word	1118825986
 1934 09a4 7118B042 		.word	1118836849
 1935 09a8 BD42B042 		.word	1118847677
 1936 09ac E56CB042 		.word	1118858469
 1937 09b0 EB96B042 		.word	1118869227
 1938 09b4 CDC0B042 		.word	1118879949
 1939 09b8 8CEAB042 		.word	1118890636
 1940 09bc 2714B142 		.word	1118901287
ARM GAS  C:\Users\30806\AppData\Local\Temp\ccxw87g1.s 			page 40


 1941 09c0 A03DB142 		.word	1118911904
 1942 09c4 F466B142 		.word	1118922484
 1943 09c8 2690B142 		.word	1118933030
 1944 09cc 34B9B142 		.word	1118943540
 1945 09d0 1EE2B142 		.word	1118954014
 1946 09d4 E50AB242 		.word	1118964453
 1947 09d8 8933B242 		.word	1118974857
 1948 09dc 095CB242 		.word	1118985225
 1949 09e0 6584B242 		.word	1118995557
 1950 09e4 9DACB242 		.word	1119005853
 1951 09e8 B2D4B242 		.word	1119016114
 1952 09ec A4FCB242 		.word	1119026340
 1953 09f0 7124B342 		.word	1119036529
 1954 09f4 1B4CB342 		.word	1119046683
 1955 09f8 A173B342 		.word	1119056801
 1956 09fc 039BB342 		.word	1119066883
 1957 0a00 41C2B342 		.word	1119076929
 1958 0a04 5CE9B342 		.word	1119086940
 1959 0a08 5210B442 		.word	1119096914
 1960 0a0c 2537B442 		.word	1119106853
 1961 0a10 D35DB442 		.word	1119116755
 1962 0a14 5E84B442 		.word	1119126622
 1963 0a18 C4AAB442 		.word	1119136452
 1964 0a1c 07D1B442 		.word	1119146247
 1965 0a20 25F7B442 		.word	1119156005
 1966 0a24 1F1DB542 		.word	1119165727
 1967 0a28 F542B542 		.word	1119175413
 1968 0a2c A768B542 		.word	1119185063
 1969 0a30 358EB542 		.word	1119194677
 1970 0a34 9EB3B542 		.word	1119204254
 1971 0a38 E4D8B542 		.word	1119213796
 1972 0a3c 04FEB542 		.word	1119223300
 1973 0a40 0123B642 		.word	1119232769
 1974 0a44 D947B642 		.word	1119242201
 1975 0a48 8D6CB642 		.word	1119251597
 1976 0a4c 1C91B642 		.word	1119260956
 1977 0a50 87B5B642 		.word	1119270279
 1978 0a54 CDD9B642 		.word	1119279565
 1979 0a58 EFFDB642 		.word	1119288815
 1980 0a5c ED21B742 		.word	1119298029
 1981 0a60 C645B742 		.word	1119307206
 1982 0a64 7A69B742 		.word	1119316346
 1983 0a68 098DB742 		.word	1119325449
 1984 0a6c 74B0B742 		.word	1119334516
 1985 0a70 BBD3B742 		.word	1119343547
 1986 0a74 DCF6B742 		.word	1119352540
 1987 0a78 D919B842 		.word	1119361497
 1988 0a7c B13CB842 		.word	1119370417
 1989 0a80 655FB842 		.word	1119379301
 1990 0a84 F381B842 		.word	1119388147
 1991 0a88 5DA4B842 		.word	1119396957
 1992 0a8c A2C6B842 		.word	1119405730
 1993 0a90 C2E8B842 		.word	1119414466
 1994 0a94 BD0AB942 		.word	1119423165
 1995 0a98 932CB942 		.word	1119431827
 1996 0a9c 444EB942 		.word	1119440452
 1997 0aa0 D06FB942 		.word	1119449040
ARM GAS  C:\Users\30806\AppData\Local\Temp\ccxw87g1.s 			page 41


 1998 0aa4 3791B942 		.word	1119457591
 1999 0aa8 79B2B942 		.word	1119466105
 2000 0aac 96D3B942 		.word	1119474582
 2001 0ab0 8EF4B942 		.word	1119483022
 2002 0ab4 6115BA42 		.word	1119491425
 2003 0ab8 0F36BA42 		.word	1119499791
 2004 0abc 9756BA42 		.word	1119508119
 2005 0ac0 FB76BA42 		.word	1119516411
 2006 0ac4 3997BA42 		.word	1119524665
 2007 0ac8 51B7BA42 		.word	1119532881
 2008 0acc 45D7BA42 		.word	1119541061
 2009 0ad0 13F7BA42 		.word	1119549203
 2010 0ad4 BC16BB42 		.word	1119557308
 2011 0ad8 4036BB42 		.word	1119565376
 2012 0adc 9E55BB42 		.word	1119573406
 2013 0ae0 D674BB42 		.word	1119581398
 2014 0ae4 EA93BB42 		.word	1119589354
 2015 0ae8 D8B2BB42 		.word	1119597272
 2016 0aec A0D1BB42 		.word	1119605152
 2017 0af0 43F0BB42 		.word	1119612995
 2018 0af4 C10EBC42 		.word	1119620801
 2019 0af8 182DBC42 		.word	1119628568
 2020 0afc 4B4BBC42 		.word	1119636299
 2021 0b00 5769BC42 		.word	1119643991
 2022 0b04 3F87BC42 		.word	1119651647
 2023 0b08 00A5BC42 		.word	1119659264
 2024 0b0c 9CC2BC42 		.word	1119666844
 2025 0b10 12E0BC42 		.word	1119674386
 2026 0b14 62FDBC42 		.word	1119681890
 2027 0b18 8D1ABD42 		.word	1119689357
 2028 0b1c 9237BD42 		.word	1119696786
 2029 0b20 7154BD42 		.word	1119704177
 2030 0b24 2B71BD42 		.word	1119711531
 2031 0b28 BE8DBD42 		.word	1119718846
 2032 0b2c 2CAABD42 		.word	1119726124
 2033 0b30 74C6BD42 		.word	1119733364
 2034 0b34 96E2BD42 		.word	1119740566
 2035 0b38 92FEBD42 		.word	1119747730
 2036 0b3c 681ABE42 		.word	1119754856
 2037 0b40 1836BE42 		.word	1119761944
 2038 0b44 A251BE42 		.word	1119768994
 2039 0b48 066DBE42 		.word	1119776006
 2040 0b4c 4588BE42 		.word	1119782981
 2041 0b50 5DA3BE42 		.word	1119789917
 2042 0b54 4FBEBE42 		.word	1119796815
 2043 0b58 1BD9BE42 		.word	1119803675
 2044 0b5c C1F3BE42 		.word	1119810497
 2045 0b60 410EBF42 		.word	1119817281
 2046 0b64 9A28BF42 		.word	1119824026
 2047 0b68 CE42BF42 		.word	1119830734
 2048 0b6c DB5CBF42 		.word	1119837403
 2049 0b70 C276BF42 		.word	1119844034
 2050 0b74 8390BF42 		.word	1119850627
 2051 0b78 1EAABF42 		.word	1119857182
 2052 0b7c 92C3BF42 		.word	1119863698
 2053 0b80 E0DCBF42 		.word	1119870176
 2054 0b84 08F6BF42 		.word	1119876616
ARM GAS  C:\Users\30806\AppData\Local\Temp\ccxw87g1.s 			page 42


 2055 0b88 090FC042 		.word	1119883017
 2056 0b8c E527C042 		.word	1119889381
 2057 0b90 9940C042 		.word	1119895705
 2058 0b94 2859C042 		.word	1119901992
 2059 0b98 9071C042 		.word	1119908240
 2060 0b9c D189C042 		.word	1119914449
 2061 0ba0 ECA1C042 		.word	1119920620
 2062 0ba4 E1B9C042 		.word	1119926753
 2063 0ba8 AFD1C042 		.word	1119932847
 2064 0bac 57E9C042 		.word	1119938903
 2065 0bb0 D800C142 		.word	1119944920
 2066 0bb4 3318C142 		.word	1119950899
 2067 0bb8 672FC142 		.word	1119956839
 2068 0bbc 7546C142 		.word	1119962741
 2069 0bc0 5C5DC142 		.word	1119968604
 2070 0bc4 1C74C142 		.word	1119974428
 2071 0bc8 B68AC142 		.word	1119980214
 2072 0bcc 29A1C142 		.word	1119985961
 2073 0bd0 75B7C142 		.word	1119991669
 2074 0bd4 9BCDC142 		.word	1119997339
 2075 0bd8 9AE3C142 		.word	1120002970
 2076 0bdc 72F9C142 		.word	1120008562
 2077 0be0 240FC242 		.word	1120014116
 2078 0be4 AF24C242 		.word	1120019631
 2079 0be8 133AC242 		.word	1120025107
 2080 0bec 514FC242 		.word	1120030545
 2081 0bf0 6764C242 		.word	1120035943
 2082 0bf4 5779C242 		.word	1120041303
 2083 0bf8 208EC242 		.word	1120046624
 2084 0bfc C2A2C242 		.word	1120051906
 2085 0c00 3DB7C242 		.word	1120057149
 2086 0c04 92CBC242 		.word	1120062354
 2087 0c08 BFDFC242 		.word	1120067519
 2088 0c0c C6F3C242 		.word	1120072646
 2089 0c10 A607C342 		.word	1120077734
 2090 0c14 5E1BC342 		.word	1120082782
 2091 0c18 F02EC342 		.word	1120087792
 2092 0c1c 5B42C342 		.word	1120092763
 2093 0c20 9F55C342 		.word	1120097695
 2094 0c24 BC68C342 		.word	1120102588
 2095 0c28 B27BC342 		.word	1120107442
 2096 0c2c 808EC342 		.word	1120112256
 2097 0c30 28A1C342 		.word	1120117032
 2098 0c34 A9B3C342 		.word	1120121769
 2099 0c38 03C6C342 		.word	1120126467
 2100 0c3c 35D8C342 		.word	1120131125
 2101 0c40 41EAC342 		.word	1120135745
 2102 0c44 25FCC342 		.word	1120140325
 2103 0c48 E20DC442 		.word	1120144866
 2104 0c4c 781FC442 		.word	1120149368
 2105 0c50 E730C442 		.word	1120153831
 2106 0c54 2F42C442 		.word	1120158255
 2107 0c58 5053C442 		.word	1120162640
 2108 0c5c 4964C442 		.word	1120166985
 2109 0c60 1B75C442 		.word	1120171291
 2110 0c64 C685C442 		.word	1120175558
 2111 0c68 4A96C442 		.word	1120179786
ARM GAS  C:\Users\30806\AppData\Local\Temp\ccxw87g1.s 			page 43


 2112 0c6c A7A6C442 		.word	1120183975
 2113 0c70 DCB6C442 		.word	1120188124
 2114 0c74 EAC6C442 		.word	1120192234
 2115 0c78 D1D6C442 		.word	1120196305
 2116 0c7c 90E6C442 		.word	1120200336
 2117 0c80 28F6C442 		.word	1120204328
 2118 0c84 9905C542 		.word	1120208281
 2119 0c88 E214C542 		.word	1120212194
 2120 0c8c 0524C542 		.word	1120216069
 2121 0c90 FF32C542 		.word	1120219903
 2122 0c94 D341C542 		.word	1120223699
 2123 0c98 7F50C542 		.word	1120227455
 2124 0c9c 035FC542 		.word	1120231171
 2125 0ca0 606DC542 		.word	1120234848
 2126 0ca4 967BC542 		.word	1120238486
 2127 0ca8 A589C542 		.word	1120242085
 2128 0cac 8C97C542 		.word	1120245644
 2129 0cb0 4BA5C542 		.word	1120249163
 2130 0cb4 E3B2C542 		.word	1120252643
 2131 0cb8 54C0C542 		.word	1120256084
 2132 0cbc 9DCDC542 		.word	1120259485
 2133 0cc0 BEDAC542 		.word	1120262846
 2134 0cc4 B8E7C542 		.word	1120266168
 2135 0cc8 8BF4C542 		.word	1120269451
 2136 0ccc 3601C642 		.word	1120272694
 2137 0cd0 BA0DC642 		.word	1120275898
 2138 0cd4 161AC642 		.word	1120279062
 2139 0cd8 4A26C642 		.word	1120282186
 2140 0cdc 5732C642 		.word	1120285271
 2141 0ce0 3C3EC642 		.word	1120288316
 2142 0ce4 FA49C642 		.word	1120291322
 2143 0ce8 9055C642 		.word	1120294288
 2144 0cec FF60C642 		.word	1120297215
 2145 0cf0 466CC642 		.word	1120300102
 2146 0cf4 6577C642 		.word	1120302949
 2147 0cf8 5D82C642 		.word	1120305757
 2148 0cfc 2D8DC642 		.word	1120308525
 2149 0d00 D697C642 		.word	1120311254
 2150 0d04 56A2C642 		.word	1120313942
 2151 0d08 B0ACC642 		.word	1120316592
 2152 0d0c E1B6C642 		.word	1120319201
 2153 0d10 EBC0C642 		.word	1120321771
 2154 0d14 CDCAC642 		.word	1120324301
 2155 0d18 88D4C642 		.word	1120326792
 2156 0d1c 1ADEC642 		.word	1120329242
 2157 0d20 85E7C642 		.word	1120331653
 2158 0d24 C9F0C642 		.word	1120334025
 2159 0d28 E4F9C642 		.word	1120336356
 2160 0d2c D802C742 		.word	1120338648
 2161 0d30 A50BC742 		.word	1120340901
 2162 0d34 4914C742 		.word	1120343113
 2163 0d38 C61CC742 		.word	1120345286
 2164 0d3c 1B25C742 		.word	1120347419
 2165 0d40 482DC742 		.word	1120349512
 2166 0d44 4D35C742 		.word	1120351565
 2167 0d48 2B3DC742 		.word	1120353579
 2168 0d4c E144C742 		.word	1120355553
ARM GAS  C:\Users\30806\AppData\Local\Temp\ccxw87g1.s 			page 44


 2169 0d50 6F4CC742 		.word	1120357487
 2170 0d54 D653C742 		.word	1120359382
 2171 0d58 145BC742 		.word	1120361236
 2172 0d5c 2B62C742 		.word	1120363051
 2173 0d60 1A69C742 		.word	1120364826
 2174 0d64 E16FC742 		.word	1120366561
 2175 0d68 8076C742 		.word	1120368256
 2176 0d6c F87CC742 		.word	1120369912
 2177 0d70 4883C742 		.word	1120371528
 2178 0d74 6F89C742 		.word	1120373103
 2179 0d78 6F8FC742 		.word	1120374639
 2180 0d7c 4895C742 		.word	1120376136
 2181 0d80 F89AC742 		.word	1120377592
 2182 0d84 80A0C742 		.word	1120379008
 2183 0d88 E1A5C742 		.word	1120380385
 2184 0d8c 1AABC742 		.word	1120381722
 2185 0d90 2BB0C742 		.word	1120383019
 2186 0d94 14B5C742 		.word	1120384276
 2187 0d98 D5B9C742 		.word	1120385493
 2188 0d9c 6EBEC742 		.word	1120386670
 2189 0da0 E0C2C742 		.word	1120387808
 2190 0da4 29C7C742 		.word	1120388905
 2191 0da8 4BCBC742 		.word	1120389963
 2192 0dac 45CFC742 		.word	1120390981
 2193 0db0 17D3C742 		.word	1120391959
 2194 0db4 C1D6C742 		.word	1120392897
 2195 0db8 43DAC742 		.word	1120393795
 2196 0dbc 9DDDC742 		.word	1120394653
 2197 0dc0 CFE0C742 		.word	1120395471
 2198 0dc4 DAE3C742 		.word	1120396250
 2199 0dc8 BCE6C742 		.word	1120396988
 2200 0dcc 77E9C742 		.word	1120397687
 2201 0dd0 0AECC742 		.word	1120398346
 2202 0dd4 74EEC742 		.word	1120398964
 2203 0dd8 B7F0C742 		.word	1120399543
 2204 0ddc D2F2C742 		.word	1120400082
 2205 0de0 C5F4C742 		.word	1120400581
 2206 0de4 91F6C742 		.word	1120401041
 2207 0de8 34F8C742 		.word	1120401460
 2208 0dec AFF9C742 		.word	1120401839
 2209 0df0 02FBC742 		.word	1120402178
 2210 0df4 2EFCC742 		.word	1120402478
 2211 0df8 31FDC742 		.word	1120402737
 2212 0dfc 0DFEC742 		.word	1120402957
 2213 0e00 C1FEC742 		.word	1120403137
 2214 0e04 4CFFC742 		.word	1120403276
 2215 0e08 B0FFC742 		.word	1120403376
 2216 0e0c ECFFC742 		.word	1120403436
 2217 0e10 0000C842 		.word	1120403456
 2218              		.text
 2219              	.Letext0:
 2220              		.file 2 "d:\\stm_for_vs\\gcc-arm-none-eabi-10.3-2021.10\\arm-none-eabi\\include\\machine\\_default
 2221              		.file 3 "d:\\stm_for_vs\\gcc-arm-none-eabi-10.3-2021.10\\arm-none-eabi\\include\\sys\\_stdint.h"
 2222              		.file 4 "ACE_ECF_25-ACE-ECF-V1.1-/Algorithm/user_maths/cpp_files/user_maths.hpp"
 2223              		.file 5 "d:\\stm_for_vs\\gcc-arm-none-eabi-10.3-2021.10\\arm-none-eabi\\include\\c++\\10.3.1\\bits
 2224              		.file 6 "d:\\stm_for_vs\\gcc-arm-none-eabi-10.3-2021.10\\arm-none-eabi\\include\\c++\\10.3.1\\cmat
 2225              		.file 7 "d:\\stm_for_vs\\gcc-arm-none-eabi-10.3-2021.10\\arm-none-eabi\\include\\c++\\10.3.1\\bits
ARM GAS  C:\Users\30806\AppData\Local\Temp\ccxw87g1.s 			page 45


 2226              		.file 8 "d:\\stm_for_vs\\gcc-arm-none-eabi-10.3-2021.10\\arm-none-eabi\\include\\c++\\10.3.1\\arm-
 2227              		.file 9 "d:\\stm_for_vs\\gcc-arm-none-eabi-10.3-2021.10\\arm-none-eabi\\include\\math.h"
 2228              		.file 10 "d:\\stm_for_vs\\gcc-arm-none-eabi-10.3-2021.10\\arm-none-eabi\\include\\c++\\10.3.1\\mat
 2229              		.file 11 "ACE_ECF_25-ACE-ECF-V1.1-/Algorithm/user_maths/list_of_trigfunction.h"
 2230              		.file 12 "<built-in>"