ARM GAS  C:\Users\30806\AppData\Local\Temp\ccYcD1nI.s 			page 1


   1              		.cpu cortex-m4
   2              		.arch armv7e-m
   3              		.fpu fpv4-sp-d16
   4              		.eabi_attribute 27, 1	@ Tag_ABI_HardFP_use
   5              		.eabi_attribute 28, 1	@ Tag_ABI_VFP_args
   6              		.eabi_attribute 20, 1	@ Tag_ABI_FP_denormal
   7              		.eabi_attribute 21, 1	@ Tag_ABI_FP_exceptions
   8              		.eabi_attribute 23, 3	@ Tag_ABI_FP_number_model
   9              		.eabi_attribute 24, 1	@ Tag_ABI_align8_needed
  10              		.eabi_attribute 25, 1	@ Tag_ABI_align8_preserved
  11              		.eabi_attribute 26, 1	@ Tag_ABI_enum_size
  12              		.eabi_attribute 30, 6	@ Tag_ABI_optimization_goals
  13              		.eabi_attribute 34, 1	@ Tag_CPU_unaligned_access
  14              		.eabi_attribute 18, 4	@ Tag_ABI_PCS_wchar_t
  15              		.file	"user_maths.cpp"
  16              	@ GNU C++14 (GNU Arm Embedded Toolchain 10.3-2021.10) version 10.3.1 20210824 (release) (arm-none-e
  17              	@	compiled by GNU C version 7.3-win32 20180312, GMP version 6.1.0, MPFR version 3.1.4, MPC version 
  18              	
  19              	@ GGC heuristics: --param ggc-min-expand=100 --param ggc-min-heapsize=131072
  20              	@ options passed:  -I Core/Inc -I USB_DEVICE/App -I USB_DEVICE/Target
  21              	@ -I Drivers/STM32F4xx_HAL_Driver/Inc
  22              	@ -I Drivers/STM32F4xx_HAL_Driver/Inc/Legacy
  23              	@ -I Middlewares/Third_Party/FreeRTOS/Source/include
  24              	@ -I Middlewares/Third_Party/FreeRTOS/Source/CMSIS_RTOS
  25              	@ -I Middlewares/Third_Party/FreeRTOS/Source/portable/GCC/ARM_CM4F
  26              	@ -I Drivers/CMSIS/Device/ST/STM32F4xx/Include -I Drivers/CMSIS/Include
  27              	@ -I Middlewares/ST/ARM/DSP/Inc
  28              	@ -I Middlewares/ST/STM32_USB_Device_Library/Core/Inc
  29              	@ -I Middlewares/ST/STM32_USB_Device_Library/Class/CDC/Inc
  30              	@ -I ACE_ECF_25-ACE-ECF-CPP-V1.2/Algorithm/user_maths -I App/C_virtual
  31              	@ -I ACE_ECF_25-ACE-ECF-CPP-V1.2/Algorithm
  32              	@ -I ACE_ECF_25-ACE-ECF-CPP-V1.2/Algorithm/filter_alg
  33              	@ -I ACE_ECF_25-ACE-ECF-CPP-V1.2/Algorithm/kalman_filter
  34              	@ -I ACE_ECF_25-ACE-ECF-CPP-V1.2/Algorithm/lqr
  35              	@ -I ACE_ECF_25-ACE-ECF-CPP-V1.2/Algorithm/PID
  36              	@ -I ACE_ECF_25-ACE-ECF-CPP-V1.2/Algorithm/quaternion_kalman
  37              	@ -I ACE_ECF_25-ACE-ECF-CPP-V1.2/Algorithm/user_maths
  38              	@ -I ACE_ECF_25-ACE-ECF-CPP-V1.2/Algorithm/user_maths/cpp_files
  39              	@ -I ACE_ECF_25-ACE-ECF-CPP-V1.2/Bsp
  40              	@ -I ACE_ECF_25-ACE-ECF-CPP-V1.2/Bsp/bsp_usart
  41              	@ -I ACE_ECF_25-ACE-ECF-CPP-V1.2/Bsp/bsp_usart/F4
  42              	@ -I ACE_ECF_25-ACE-ECF-CPP-V1.2/Bsp/can_part
  43              	@ -I ACE_ECF_25-ACE-ECF-CPP-V1.2/Bsp/can_part/can
  44              	@ -I ACE_ECF_25-ACE-ECF-CPP-V1.2/Bsp/dwt
  45              	@ -I ACE_ECF_25-ACE-ECF-CPP-V1.2/module
  46              	@ -I ACE_ECF_25-ACE-ECF-CPP-V1.2/module/dr16
  47              	@ -I ACE_ECF_25-ACE-ECF-CPP-V1.2/module/motor
  48              	@ -I ACE_ECF_25-ACE-ECF-CPP-V1.2/module/motor/DJImotor
  49              	@ -I ACE_ECF_25-ACE-ECF-CPP-V1.2/module/motor/LK_motor
  50              	@ -I ACE_ECF_25-ACE-ECF-CPP-V1.2/module/motor/DMmotor
  51              	@ -I ACE_ECF_25-ACE-ECF-CPP-V1.2/module/motor/DMmotor/dm_mit_mode
  52              	@ -I ACE_ECF_25-ACE-ECF-CPP-V1.2/module/motor/Cybergear
  53              	@ -I ACE_ECF_25-ACE-ECF-CPP-V1.2/module/imu
  54              	@ -I ACE_ECF_25-ACE-ECF-CPP-V1.2/App/safe_task -I App -I Main -I Task
  55              	@ -imultilib thumb/v7e-m+fp/hard
  56              	@ -iprefix d:\stm_for_vs\gcc-arm-none-eabi-10.3-2021.10\bin\../lib/gcc/arm-none-eabi/10.3.1/
  57              	@ -isysroot d:\stm_for_vs\gcc-arm-none-eabi-10.3-2021.10\bin\../arm-none-eabi
ARM GAS  C:\Users\30806\AppData\Local\Temp\ccYcD1nI.s 			page 2


  58              	@ -MMD build/user_maths.d -MF build/user_maths.d -MP -MQ build/user_maths.o
  59              	@ -D__USES_INITFINI__ -D USE_HAL_DRIVER -D STM32F405xx
  60              	@ ACE_ECF_25-ACE-ECF-CPP-V1.2/Algorithm/user_maths/cpp_files/user_maths.cpp
  61              	@ -mcpu=cortex-m4 -mthumb -mfpu=fpv4-sp-d16 -mfloat-abi=hard
  62              	@ -mlibarch=armv7e-m+fp -march=armv7e-m+fp
  63              	@ -auxbase-strip build/user_maths.o -g -gdwarf-2 -g -ggdb3 -O0 -Wall
  64              	@ -fno-rtti -fno-exceptions -fverbose-asm -fdata-sections
  65              	@ -ffunction-sections -fpermissive
  66              	@ options enabled:  -faggressive-loop-optimizations -fallocation-dce
  67              	@ -fauto-inc-dec -fdata-sections -fdelete-null-pointer-checks
  68              	@ -fdwarf2-cfi-asm -fearly-inlining -feliminate-unused-debug-symbols
  69              	@ -feliminate-unused-debug-types -ffp-int-builtin-inexact -ffunction-cse
  70              	@ -ffunction-sections -fgcse-lm -fgnu-unique -fident -finline-atomics
  71              	@ -fipa-stack-alignment -fira-hoist-pressure -fira-share-save-slots
  72              	@ -fira-share-spill-slots -fivopts -fkeep-static-consts
  73              	@ -fleading-underscore -flifetime-dse -fmath-errno -fmerge-debug-strings
  74              	@ -fpeephole -fplt -fprefetch-loop-arrays -freg-struct-return
  75              	@ -fsched-critical-path-heuristic -fsched-dep-count-heuristic
  76              	@ -fsched-group-heuristic -fsched-interblock -fsched-last-insn-heuristic
  77              	@ -fsched-rank-heuristic -fsched-spec -fsched-spec-insn-heuristic
  78              	@ -fsched-stalled-insns-dep -fsemantic-interposition -fshow-column
  79              	@ -fshrink-wrap-separate -fsigned-zeros -fsplit-ivs-in-unroller
  80              	@ -fssa-backprop -fstdarg-opt -fstrict-volatile-bitfields -fsync-libcalls
  81              	@ -ftrapping-math -ftree-cselim -ftree-forwprop -ftree-loop-if-convert
  82              	@ -ftree-loop-im -ftree-loop-ivcanon -ftree-loop-optimize
  83              	@ -ftree-parallelize-loops= -ftree-phiprop -ftree-reassoc -ftree-scev-cprop
  84              	@ -funit-at-a-time -fverbose-asm -fzero-initialized-in-bss
  85              	@ -masm-syntax-unified -mbe32 -mlittle-endian -mpic-data-is-text-relative
  86              	@ -msched-prolog -mthumb -munaligned-access -mvectorize-with-neon-quad
  87              	
  88              		.text
  89              	.Ltext0:
  90              		.cfi_sections	.debug_frame
  91              		.section	.rodata._ZL23Trigonometric_Functions,"a"
  92              		.align	2
  93              		.type	_ZL23Trigonometric_Functions, %object
  94              		.size	_ZL23Trigonometric_Functions, 3604
  95              	_ZL23Trigonometric_Functions:
  96 0000 00000000 		.word	0
  97 0004 BCB8323E 		.word	1043511484
  98 0008 ABB8B23E 		.word	1051900075
  99 000c 6A0A063F 		.word	1057360490
 100 0010 63B8323F 		.word	1060288611
 101 0014 39665F3F 		.word	1063216697
 102 0018 F109863F 		.word	1065748977
 103 001c AB609C3F 		.word	1067212971
 104 0020 46B7B23F 		.word	1068676934
 105 0024 BD0DC93F 		.word	1070140861
 106 0028 0C64DF3F 		.word	1071604748
 107 002c 2EBAF53F 		.word	1073068590
 108 0030 10080640 		.word	1074137104
 109 0034 ED321140 		.word	1074868973
 110 0038 AE5D1C40 		.word	1075600814
 111 003c 50882740 		.word	1076332624
 112 0040 D0B23240 		.word	1077064400
 113 0044 2DDD3D40 		.word	1077796141
 114 0048 63074940 		.word	1078527843
ARM GAS  C:\Users\30806\AppData\Local\Temp\ccYcD1nI.s 			page 3


 115 004c 72315440 		.word	1079259506
 116 0050 565B5F40 		.word	1079991126
 117 0054 0D856A40 		.word	1080722701
 118 0058 96AE7540 		.word	1081454230
 119 005c F76B8040 		.word	1082158071
 120 0060 89008640 		.word	1082523785
 121 0064 01958B40 		.word	1082889473
 122 0068 5C299140 		.word	1083255132
 123 006c 9BBD9640 		.word	1083620763
 124 0070 BB519C40 		.word	1083986363
 125 0074 BDE5A140 		.word	1084351933
 126 0078 9E79A740 		.word	1084717470
 127 007c 5D0DAD40 		.word	1085082973
 128 0080 FAA0B240 		.word	1085448442
 129 0084 7334B840 		.word	1085813875
 130 0088 C8C7BD40 		.word	1086179272
 131 008c F75AC340 		.word	1086544631
 132 0090 FEEDC840 		.word	1086909950
 133 0094 DE80CE40 		.word	1087275230
 134 0098 9413D440 		.word	1087640468
 135 009c 20A6D940 		.word	1088005664
 136 00a0 8138DF40 		.word	1088370817
 137 00a4 B5CAE440 		.word	1088735925
 138 00a8 BB5CEA40 		.word	1089100987
 139 00ac 93EEEF40 		.word	1089466003
 140 00b0 3A80F540 		.word	1089830970
 141 00b4 B111FB40 		.word	1090195889
 142 00b8 7B510041 		.word	1090539899
 143 00bc 031A0341 		.word	1090722307
 144 00c0 72E20541 		.word	1090904690
 145 00c4 C6AA0841 		.word	1091087046
 146 00c8 FE720B41 		.word	1091269374
 147 00cc 1B3B0E41 		.word	1091451675
 148 00d0 1B031141 		.word	1091633947
 149 00d4 FECA1341 		.word	1091816190
 150 00d8 C4921641 		.word	1091998404
 151 00dc 6C5A1941 		.word	1092180588
 152 00e0 F5211C41 		.word	1092362741
 153 00e4 5FE91E41 		.word	1092544863
 154 00e8 A9B02141 		.word	1092726953
 155 00ec D3772441 		.word	1092909011
 156 00f0 DC3E2741 		.word	1093091036
 157 00f4 C3052A41 		.word	1093273027
 158 00f8 89CC2C41 		.word	1093454985
 159 00fc 2C932F41 		.word	1093636908
 160 0100 AD593241 		.word	1093818797
 161 0104 09203541 		.word	1094000649
 162 0108 42E63741 		.word	1094182466
 163 010c 55AC3A41 		.word	1094364245
 164 0110 44723D41 		.word	1094545988
 165 0114 0D384041 		.word	1094727693
 166 0118 AFFD4241 		.word	1094909359
 167 011c 2AC34541 		.word	1095090986
 168 0120 7E884841 		.word	1095272574
 169 0124 AA4D4B41 		.word	1095454122
 170 0128 AD124E41 		.word	1095635629
 171 012c 87D75041 		.word	1095817095
ARM GAS  C:\Users\30806\AppData\Local\Temp\ccYcD1nI.s 			page 4


 172 0130 389C5341 		.word	1095998520
 173 0134 BE605641 		.word	1096179902
 174 0138 19255941 		.word	1096361241
 175 013c 49E95B41 		.word	1096542537
 176 0140 4DAD5E41 		.word	1096723789
 177 0144 25716141 		.word	1096904997
 178 0148 D0346441 		.word	1097086160
 179 014c 4DF86641 		.word	1097267277
 180 0150 9CBB6941 		.word	1097448348
 181 0154 BC7E6C41 		.word	1097629372
 182 0158 AD416F41 		.word	1097810349
 183 015c 6F047241 		.word	1097991279
 184 0160 00C77441 		.word	1098172160
 185 0164 60897741 		.word	1098352992
 186 0168 8F4B7A41 		.word	1098533775
 187 016c 8B0D7D41 		.word	1098714507
 188 0170 56CF7F41 		.word	1098895190
 189 0174 76488141 		.word	1098991734
 190 0178 28A98241 		.word	1099082024
 191 017c C0098441 		.word	1099172288
 192 0180 3D6A8541 		.word	1099262525
 193 0184 A0CA8641 		.word	1099352736
 194 0188 E82A8841 		.word	1099442920
 195 018c 148B8941 		.word	1099533076
 196 0190 26EB8A41 		.word	1099623206
 197 0194 1B4B8C41 		.word	1099713307
 198 0198 F4AA8D41 		.word	1099803380
 199 019c B20A8F41 		.word	1099893426
 200 01a0 526A9041 		.word	1099983442
 201 01a4 D6C99141 		.word	1100073430
 202 01a8 3D299341 		.word	1100163389
 203 01ac 86889441 		.word	1100253318
 204 01b0 B1E79541 		.word	1100343217
 205 01b4 BF469741 		.word	1100433087
 206 01b8 AFA59841 		.word	1100522927
 207 01bc 80049A41 		.word	1100612736
 208 01c0 32639B41 		.word	1100702514
 209 01c4 C5C19C41 		.word	1100792261
 210 01c8 39209E41 		.word	1100881977
 211 01cc 8E7E9F41 		.word	1100971662
 212 01d0 C2DCA041 		.word	1101061314
 213 01d4 D73AA241 		.word	1101150935
 214 01d8 CB98A341 		.word	1101240523
 215 01dc 9EF6A441 		.word	1101330078
 216 01e0 5054A641 		.word	1101419600
 217 01e4 E2B1A741 		.word	1101509090
 218 01e8 510FA941 		.word	1101598545
 219 01ec A06CAA41 		.word	1101687968
 220 01f0 CCC9AB41 		.word	1101777356
 221 01f4 D526AD41 		.word	1101866709
 222 01f8 BC83AE41 		.word	1101956028
 223 01fc 81E0AF41 		.word	1102045313
 224 0200 223DB141 		.word	1102134562
 225 0204 A099B241 		.word	1102223776
 226 0208 FAF5B341 		.word	1102312954
 227 020c 3052B541 		.word	1102402096
 228 0210 42AEB641 		.word	1102491202
ARM GAS  C:\Users\30806\AppData\Local\Temp\ccYcD1nI.s 			page 5


 229 0214 300AB841 		.word	1102580272
 230 0218 F865B941 		.word	1102669304
 231 021c 9CC1BA41 		.word	1102758300
 232 0220 1B1DBC41 		.word	1102847259
 233 0224 7478BD41 		.word	1102936180
 234 0228 A7D3BE41 		.word	1103025063
 235 022c B42EC041 		.word	1103113908
 236 0230 9B89C141 		.word	1103202715
 237 0234 5BE4C241 		.word	1103291483
 238 0238 F43EC441 		.word	1103380212
 239 023c 6699C541 		.word	1103468902
 240 0240 B0F3C641 		.word	1103557552
 241 0244 D34DC841 		.word	1103646163
 242 0248 CEA7C941 		.word	1103734734
 243 024c A101CB41 		.word	1103823265
 244 0250 4B5BCC41 		.word	1103911755
 245 0254 CCB4CD41 		.word	1104000204
 246 0258 240ECF41 		.word	1104088612
 247 025c 5367D041 		.word	1104176979
 248 0260 58C0D141 		.word	1104265304
 249 0264 3319D341 		.word	1104353587
 250 0268 E571D441 		.word	1104441829
 251 026c 6BCAD541 		.word	1104530027
 252 0270 C722D741 		.word	1104618183
 253 0274 F97AD841 		.word	1104706297
 254 0278 FFD2D941 		.word	1104794367
 255 027c D92ADB41 		.word	1104882393
 256 0280 8882DC41 		.word	1104970376
 257 0284 0ADADD41 		.word	1105058314
 258 0288 6131DF41 		.word	1105146209
 259 028c 8B88E041 		.word	1105234059
 260 0290 88DFE141 		.word	1105321864
 261 0294 5836E341 		.word	1105409624
 262 0298 FA8CE441 		.word	1105497338
 263 029c 6FE3E541 		.word	1105585007
 264 02a0 B639E741 		.word	1105672630
 265 02a4 CF8FE841 		.word	1105760207
 266 02a8 BAE5E941 		.word	1105847738
 267 02ac 753BEB41 		.word	1105935221
 268 02b0 0291EC41 		.word	1106022658
 269 02b4 60E6ED41 		.word	1106110048
 270 02b8 8E3BEF41 		.word	1106197390
 271 02bc 8C90F041 		.word	1106284684
 272 02c0 5BE5F141 		.word	1106371931
 273 02c4 F939F341 		.word	1106459129
 274 02c8 668EF441 		.word	1106546278
 275 02cc A3E2F541 		.word	1106633379
 276 02d0 AE36F741 		.word	1106720430
 277 02d4 888AF841 		.word	1106807432
 278 02d8 31DEF941 		.word	1106894385
 279 02dc A831FB41 		.word	1106981288
 280 02e0 EC84FC41 		.word	1107068140
 281 02e4 FED7FD41 		.word	1107154942
 282 02e8 DE2AFF41 		.word	1107241694
 283 02ec C53E0042 		.word	1107312325
 284 02f0 02E80042 		.word	1107355650
 285 02f4 25910142 		.word	1107398949
ARM GAS  C:\Users\30806\AppData\Local\Temp\ccYcD1nI.s 			page 6


 286 02f8 2E3A0242 		.word	1107442222
 287 02fc 1DE30242 		.word	1107485469
 288 0300 F28B0342 		.word	1107528690
 289 0304 AC340442 		.word	1107571884
 290 0308 4DDD0442 		.word	1107615053
 291 030c D3850542 		.word	1107658195
 292 0310 3E2E0642 		.word	1107701310
 293 0314 8ED60642 		.word	1107744398
 294 0318 C37E0742 		.word	1107787459
 295 031c DE260842 		.word	1107830494
 296 0320 DDCE0842 		.word	1107873501
 297 0324 C1760942 		.word	1107916481
 298 0328 891E0A42 		.word	1107959433
 299 032c 36C60A42 		.word	1108002358
 300 0330 C76D0B42 		.word	1108045255
 301 0334 3C150C42 		.word	1108088124
 302 0338 96BC0C42 		.word	1108130966
 303 033c D3630D42 		.word	1108173779
 304 0340 F40A0E42 		.word	1108216564
 305 0344 F9B10E42 		.word	1108259321
 306 0348 E1580F42 		.word	1108302049
 307 034c ACFF0F42 		.word	1108344748
 308 0350 5BA61042 		.word	1108387419
 309 0354 ED4C1142 		.word	1108430061
 310 0358 62F31142 		.word	1108472674
 311 035c BA991242 		.word	1108515258
 312 0360 F43F1342 		.word	1108557812
 313 0364 11E61342 		.word	1108600337
 314 0368 118C1442 		.word	1108642833
 315 036c F3311542 		.word	1108685299
 316 0370 B7D71542 		.word	1108727735
 317 0374 5D7D1642 		.word	1108770141
 318 0378 E6221742 		.word	1108812518
 319 037c 50C81742 		.word	1108854864
 320 0380 9B6D1842 		.word	1108897179
 321 0384 C9121942 		.word	1108939465
 322 0388 D7B71942 		.word	1108981719
 323 038c C75C1A42 		.word	1109023943
 324 0390 99011B42 		.word	1109066137
 325 0394 4BA61B42 		.word	1109108299
 326 0398 DE4A1C42 		.word	1109150430
 327 039c 52EF1C42 		.word	1109192530
 328 03a0 A7931D42 		.word	1109234599
 329 03a4 DC371E42 		.word	1109276636
 330 03a8 F2DB1E42 		.word	1109318642
 331 03ac E87F1F42 		.word	1109360616
 332 03b0 BE232042 		.word	1109402558
 333 03b4 74C72042 		.word	1109444468
 334 03b8 0A6B2142 		.word	1109486346
 335 03bc 800E2242 		.word	1109528192
 336 03c0 D5B12242 		.word	1109570005
 337 03c4 0A552342 		.word	1109611786
 338 03c8 1EF82342 		.word	1109653534
 339 03cc 129B2442 		.word	1109695250
 340 03d0 E53D2542 		.word	1109736933
 341 03d4 97E02542 		.word	1109778583
 342 03d8 27832642 		.word	1109820199
ARM GAS  C:\Users\30806\AppData\Local\Temp\ccYcD1nI.s 			page 7


 343 03dc 97252742 		.word	1109861783
 344 03e0 E5C72742 		.word	1109903333
 345 03e4 116A2842 		.word	1109944849
 346 03e8 1C0C2942 		.word	1109986332
 347 03ec 05AE2942 		.word	1110027781
 348 03f0 CD4F2A42 		.word	1110069197
 349 03f4 72F12A42 		.word	1110110578
 350 03f8 F5922B42 		.word	1110151925
 351 03fc 56342C42 		.word	1110193238
 352 0400 95D52C42 		.word	1110234517
 353 0404 B1762D42 		.word	1110275761
 354 0408 AA172E42 		.word	1110316970
 355 040c 81B82E42 		.word	1110358145
 356 0410 35592F42 		.word	1110399285
 357 0414 C5F92F42 		.word	1110440389
 358 0418 339A3042 		.word	1110481459
 359 041c 7D3A3142 		.word	1110522493
 360 0420 A4DA3142 		.word	1110563492
 361 0424 A87A3242 		.word	1110604456
 362 0428 881A3342 		.word	1110645384
 363 042c 44BA3342 		.word	1110686276
 364 0430 DC593442 		.word	1110727132
 365 0434 50F93442 		.word	1110767952
 366 0438 A1983542 		.word	1110808737
 367 043c CC373642 		.word	1110849484
 368 0440 D4D63642 		.word	1110890196
 369 0444 B7753742 		.word	1110930871
 370 0448 75143842 		.word	1110971509
 371 044c 0FB33842 		.word	1111012111
 372 0450 84513942 		.word	1111052676
 373 0454 D3EF3942 		.word	1111093203
 374 0458 FE8D3A42 		.word	1111133694
 375 045c 032C3B42 		.word	1111174147
 376 0460 E3C93B42 		.word	1111214563
 377 0464 9E673C42 		.word	1111254942
 378 0468 33053D42 		.word	1111295283
 379 046c A2A23D42 		.word	1111335586
 380 0470 EB3F3E42 		.word	1111375851
 381 0474 0FDD3E42 		.word	1111416079
 382 0478 0C7A3F42 		.word	1111456268
 383 047c E3164042 		.word	1111496419
 384 0480 94B34042 		.word	1111536532
 385 0484 1E504142 		.word	1111576606
 386 0488 81EC4142 		.word	1111616641
 387 048c BE884242 		.word	1111656638
 388 0490 D4244342 		.word	1111696596
 389 0494 C3C04342 		.word	1111736515
 390 0498 8B5C4442 		.word	1111776395
 391 049c 2CF84442 		.word	1111816236
 392 04a0 A6934542 		.word	1111856038
 393 04a4 F82E4642 		.word	1111895800
 394 04a8 22CA4642 		.word	1111935522
 395 04ac 25654742 		.word	1111975205
 396 04b0 00004842 		.word	1112014848
 397 04b4 B39A4842 		.word	1112054451
 398 04b8 3E354942 		.word	1112094014
 399 04bc A1CF4942 		.word	1112133537
ARM GAS  C:\Users\30806\AppData\Local\Temp\ccYcD1nI.s 			page 8


 400 04c0 DC694A42 		.word	1112173020
 401 04c4 EE034B42 		.word	1112212462
 402 04c8 D79D4B42 		.word	1112251863
 403 04cc 98374C42 		.word	1112291224
 404 04d0 30D14C42 		.word	1112330544
 405 04d4 A06A4D42 		.word	1112369824
 406 04d8 E6034E42 		.word	1112409062
 407 04dc 039D4E42 		.word	1112448259
 408 04e0 F7354F42 		.word	1112487415
 409 04e4 C2CE4F42 		.word	1112526530
 410 04e8 63675042 		.word	1112565603
 411 04ec DAFF5042 		.word	1112604634
 412 04f0 28985142 		.word	1112643624
 413 04f4 4C305242 		.word	1112682572
 414 04f8 46C85242 		.word	1112721478
 415 04fc 16605342 		.word	1112760342
 416 0500 BCF75342 		.word	1112799164
 417 0504 378F5442 		.word	1112837943
 418 0508 88265542 		.word	1112876680
 419 050c AEBD5542 		.word	1112915374
 420 0510 AA545642 		.word	1112954026
 421 0514 7BEB5642 		.word	1112992635
 422 0518 21825742 		.word	1113031201
 423 051c 9C185842 		.word	1113069724
 424 0520 ECAE5842 		.word	1113108204
 425 0524 10455942 		.word	1113146640
 426 0528 0ADB5942 		.word	1113185034
 427 052c D7705A42 		.word	1113223383
 428 0530 79065B42 		.word	1113261689
 429 0534 F09B5B42 		.word	1113299952
 430 0538 3A315C42 		.word	1113338170
 431 053c 59C65C42 		.word	1113376345
 432 0540 4B5B5D42 		.word	1113414475
 433 0544 12F05D42 		.word	1113452562
 434 0548 AC845E42 		.word	1113490604
 435 054c 19195F42 		.word	1113528601
 436 0550 5AAD5F42 		.word	1113566554
 437 0554 6F416042 		.word	1113604463
 438 0558 57D56042 		.word	1113642327
 439 055c 11696142 		.word	1113680145
 440 0560 9FFC6142 		.word	1113717919
 441 0564 00906242 		.word	1113755648
 442 0568 33236342 		.word	1113793331
 443 056c 39B66342 		.word	1113830969
 444 0570 12496442 		.word	1113868562
 445 0574 BDDB6442 		.word	1113906109
 446 0578 3A6E6542 		.word	1113943610
 447 057c 8A006642 		.word	1113981066
 448 0580 AB926642 		.word	1114018475
 449 0584 9F246742 		.word	1114055839
 450 0588 64B66742 		.word	1114093156
 451 058c FC476842 		.word	1114130428
 452 0590 64D96842 		.word	1114167652
 453 0594 9F6A6942 		.word	1114204831
 454 0598 AAFB6942 		.word	1114241962
 455 059c 888C6A42 		.word	1114279048
 456 05a0 361D6B42 		.word	1114316086
ARM GAS  C:\Users\30806\AppData\Local\Temp\ccYcD1nI.s 			page 9


 457 05a4 B5AD6B42 		.word	1114353077
 458 05a8 053E6C42 		.word	1114390021
 459 05ac 26CE6C42 		.word	1114426918
 460 05b0 185E6D42 		.word	1114463768
 461 05b4 DAED6D42 		.word	1114500570
 462 05b8 6D7D6E42 		.word	1114537325
 463 05bc D10C6F42 		.word	1114574033
 464 05c0 049C6F42 		.word	1114610692
 465 05c4 082B7042 		.word	1114647304
 466 05c8 DCB97042 		.word	1114683868
 467 05cc 7F487142 		.word	1114720383
 468 05d0 F3D67142 		.word	1114756851
 469 05d4 36657242 		.word	1114793270
 470 05d8 49F37242 		.word	1114829641
 471 05dc 2C817342 		.word	1114865964
 472 05e0 DD0E7442 		.word	1114902237
 473 05e4 5E9C7442 		.word	1114938462
 474 05e8 AF297542 		.word	1114974639
 475 05ec CEB67542 		.word	1115010766
 476 05f0 BC437642 		.word	1115046844
 477 05f4 79D07642 		.word	1115082873
 478 05f8 055D7742 		.word	1115118853
 479 05fc 5FE97742 		.word	1115154783
 480 0600 88757842 		.word	1115190664
 481 0604 80017942 		.word	1115226496
 482 0608 458D7942 		.word	1115262277
 483 060c D9187A42 		.word	1115298009
 484 0610 3BA47A42 		.word	1115333691
 485 0614 6B2F7B42 		.word	1115369323
 486 0618 68BA7B42 		.word	1115404904
 487 061c 34457C42 		.word	1115440436
 488 0620 CDCF7C42 		.word	1115475917
 489 0624 345A7D42 		.word	1115511348
 490 0628 68E47D42 		.word	1115546728
 491 062c 696E7E42 		.word	1115582057
 492 0630 37F87E42 		.word	1115617335
 493 0634 D3817F42 		.word	1115652563
 494 0638 9E058042 		.word	1115686302
 495 063c 394A8042 		.word	1115703865
 496 0640 BA8E8042 		.word	1115721402
 497 0644 21D38042 		.word	1115738913
 498 0648 6F178142 		.word	1115756399
 499 064c A35B8142 		.word	1115773859
 500 0650 BD9F8142 		.word	1115791293
 501 0654 BDE38142 		.word	1115808701
 502 0658 A4278242 		.word	1115826084
 503 065c 706B8242 		.word	1115843440
 504 0660 23AF8242 		.word	1115860771
 505 0664 BBF28242 		.word	1115878075
 506 0668 39368342 		.word	1115895353
 507 066c 9D798342 		.word	1115912605
 508 0670 E6BC8342 		.word	1115929830
 509 0674 16008442 		.word	1115947030
 510 0678 2B438442 		.word	1115964203
 511 067c 25868442 		.word	1115981349
 512 0680 06C98442 		.word	1115998470
 513 0684 CB0B8542 		.word	1116015563
ARM GAS  C:\Users\30806\AppData\Local\Temp\ccYcD1nI.s 			page 10


 514 0688 764E8542 		.word	1116032630
 515 068c 07918542 		.word	1116049671
 516 0690 7DD38542 		.word	1116066685
 517 0694 D8158642 		.word	1116083672
 518 0698 18588642 		.word	1116100632
 519 069c 3E9A8642 		.word	1116117566
 520 06a0 48DC8642 		.word	1116134472
 521 06a4 381E8742 		.word	1116151352
 522 06a8 0D608742 		.word	1116168205
 523 06ac C6A18742 		.word	1116185030
 524 06b0 65E38742 		.word	1116201829
 525 06b4 E9248842 		.word	1116218601
 526 06b8 51668842 		.word	1116235345
 527 06bc 9EA78842 		.word	1116252062
 528 06c0 D0E88842 		.word	1116268752
 529 06c4 E6298942 		.word	1116285414
 530 06c8 E16A8942 		.word	1116302049
 531 06cc C1AB8942 		.word	1116318657
 532 06d0 85EC8942 		.word	1116335237
 533 06d4 2E2D8A42 		.word	1116351790
 534 06d8 BB6D8A42 		.word	1116368315
 535 06dc 2CAE8A42 		.word	1116384812
 536 06e0 82EE8A42 		.word	1116401282
 537 06e4 BC2E8B42 		.word	1116417724
 538 06e8 DA6E8B42 		.word	1116434138
 539 06ec DDAE8B42 		.word	1116450525
 540 06f0 C3EE8B42 		.word	1116466883
 541 06f4 8E2E8C42 		.word	1116483214
 542 06f8 3C6E8C42 		.word	1116499516
 543 06fc CFAD8C42 		.word	1116515791
 544 0700 46ED8C42 		.word	1116532038
 545 0704 A02C8D42 		.word	1116548256
 546 0708 DE6B8D42 		.word	1116564446
 547 070c 00AB8D42 		.word	1116580608
 548 0710 06EA8D42 		.word	1116596742
 549 0714 EF288E42 		.word	1116612847
 550 0718 BC678E42 		.word	1116628924
 551 071c 6CA68E42 		.word	1116644972
 552 0720 00E58E42 		.word	1116660992
 553 0724 78238F42 		.word	1116676984
 554 0728 D3618F42 		.word	1116692947
 555 072c 11A08F42 		.word	1116708881
 556 0730 33DE8F42 		.word	1116724787
 557 0734 381C9042 		.word	1116740664
 558 0738 205A9042 		.word	1116756512
 559 073c EB979042 		.word	1116772331
 560 0740 99D59042 		.word	1116788121
 561 0744 2B139142 		.word	1116803883
 562 0748 A0509142 		.word	1116819616
 563 074c F78D9142 		.word	1116835319
 564 0750 32CB9142 		.word	1116850994
 565 0754 4F089242 		.word	1116866639
 566 0758 4F459242 		.word	1116882255
 567 075c 32829242 		.word	1116897842
 568 0760 F8BE9242 		.word	1116913400
 569 0764 A1FB9242 		.word	1116928929
 570 0768 2C389342 		.word	1116944428
ARM GAS  C:\Users\30806\AppData\Local\Temp\ccYcD1nI.s 			page 11


 571 076c 9A749342 		.word	1116959898
 572 0770 EAB09342 		.word	1116975338
 573 0774 1DED9342 		.word	1116990749
 574 0778 32299442 		.word	1117006130
 575 077c 2A659442 		.word	1117021482
 576 0780 04A19442 		.word	1117036804
 577 0784 C0DC9442 		.word	1117052096
 578 0788 5F189542 		.word	1117067359
 579 078c E0539542 		.word	1117082592
 580 0790 438F9542 		.word	1117097795
 581 0794 88CA9542 		.word	1117112968
 582 0798 B0059642 		.word	1117128112
 583 079c B9409642 		.word	1117143225
 584 07a0 A57B9642 		.word	1117158309
 585 07a4 72B69642 		.word	1117173362
 586 07a8 21F19642 		.word	1117188385
 587 07ac B32B9742 		.word	1117203379
 588 07b0 26669742 		.word	1117218342
 589 07b4 7AA09742 		.word	1117233274
 590 07b8 B1DA9742 		.word	1117248177
 591 07bc C9149842 		.word	1117263049
 592 07c0 C34E9842 		.word	1117277891
 593 07c4 9E889842 		.word	1117292702
 594 07c8 5BC29842 		.word	1117307483
 595 07cc FAFB9842 		.word	1117322234
 596 07d0 7A359942 		.word	1117336954
 597 07d4 DB6E9942 		.word	1117351643
 598 07d8 1EA89942 		.word	1117366302
 599 07dc 42E19942 		.word	1117380930
 600 07e0 471A9A42 		.word	1117395527
 601 07e4 2E539A42 		.word	1117410094
 602 07e8 F58B9A42 		.word	1117424629
 603 07ec 9EC49A42 		.word	1117439134
 604 07f0 28FD9A42 		.word	1117453608
 605 07f4 93359B42 		.word	1117468051
 606 07f8 E06D9B42 		.word	1117482464
 607 07fc 0DA69B42 		.word	1117496845
 608 0800 1BDE9B42 		.word	1117511195
 609 0804 09169C42 		.word	1117525513
 610 0808 D94D9C42 		.word	1117539801
 611 080c 8A859C42 		.word	1117554058
 612 0810 1BBD9C42 		.word	1117568283
 613 0814 8DF49C42 		.word	1117582477
 614 0818 DF2B9D42 		.word	1117596639
 615 081c 13639D42 		.word	1117610771
 616 0820 279A9D42 		.word	1117624871
 617 0824 1BD19D42 		.word	1117638939
 618 0828 F0079E42 		.word	1117652976
 619 082c A53E9E42 		.word	1117666981
 620 0830 3B759E42 		.word	1117680955
 621 0834 B1AB9E42 		.word	1117694897
 622 0838 07E29E42 		.word	1117708807
 623 083c 3E189F42 		.word	1117722686
 624 0840 554E9F42 		.word	1117736533
 625 0844 4C849F42 		.word	1117750348
 626 0848 23BA9F42 		.word	1117764131
 627 084c DBEF9F42 		.word	1117777883
ARM GAS  C:\Users\30806\AppData\Local\Temp\ccYcD1nI.s 			page 12


 628 0850 7225A042 		.word	1117791602
 629 0854 EA5AA042 		.word	1117805290
 630 0858 4190A042 		.word	1117818945
 631 085c 79C5A042 		.word	1117832569
 632 0860 90FAA042 		.word	1117846160
 633 0864 872FA142 		.word	1117859719
 634 0868 5E64A142 		.word	1117873246
 635 086c 1599A142 		.word	1117886741
 636 0870 ACCDA142 		.word	1117900204
 637 0874 2202A242 		.word	1117913634
 638 0878 7836A242 		.word	1117927032
 639 087c AD6AA242 		.word	1117940397
 640 0880 C29EA242 		.word	1117953730
 641 0884 B7D2A242 		.word	1117967031
 642 0888 8B06A342 		.word	1117980299
 643 088c 3F3AA342 		.word	1117993535
 644 0890 D26DA342 		.word	1118006738
 645 0894 44A1A342 		.word	1118019908
 646 0898 96D4A342 		.word	1118033046
 647 089c C707A442 		.word	1118046151
 648 08a0 D73AA442 		.word	1118059223
 649 08a4 C66DA442 		.word	1118072262
 650 08a8 95A0A442 		.word	1118085269
 651 08ac 43D3A442 		.word	1118098243
 652 08b0 D005A542 		.word	1118111184
 653 08b4 3C38A542 		.word	1118124092
 654 08b8 876AA542 		.word	1118136967
 655 08bc B09CA542 		.word	1118149808
 656 08c0 B9CEA542 		.word	1118162617
 657 08c4 A100A642 		.word	1118175393
 658 08c8 6832A642 		.word	1118188136
 659 08cc 0D64A642 		.word	1118200845
 660 08d0 9195A642 		.word	1118213521
 661 08d4 F4C6A642 		.word	1118226164
 662 08d8 36F8A642 		.word	1118238774
 663 08dc 5629A742 		.word	1118251350
 664 08e0 555AA742 		.word	1118263893
 665 08e4 338BA742 		.word	1118276403
 666 08e8 EFBBA742 		.word	1118288879
 667 08ec 89ECA742 		.word	1118301321
 668 08f0 031DA842 		.word	1118313731
 669 08f4 5A4DA842 		.word	1118326106
 670 08f8 907DA842 		.word	1118338448
 671 08fc A4ADA842 		.word	1118350756
 672 0900 97DDA842 		.word	1118363031
 673 0904 680DA942 		.word	1118375272
 674 0908 173DA942 		.word	1118387479
 675 090c A46CA942 		.word	1118399652
 676 0910 109CA942 		.word	1118411792
 677 0914 5ACBA942 		.word	1118423898
 678 0918 82FAA942 		.word	1118435970
 679 091c 8729AA42 		.word	1118448007
 680 0920 6B58AA42 		.word	1118460011
 681 0924 2D87AA42 		.word	1118471981
 682 0928 CDB5AA42 		.word	1118483917
 683 092c 4BE4AA42 		.word	1118495819
 684 0930 A612AB42 		.word	1118507686
ARM GAS  C:\Users\30806\AppData\Local\Temp\ccYcD1nI.s 			page 13


 685 0934 E040AB42 		.word	1118519520
 686 0938 F76EAB42 		.word	1118531319
 687 093c EC9CAB42 		.word	1118543084
 688 0940 BFCAAB42 		.word	1118554815
 689 0944 70F8AB42 		.word	1118566512
 690 0948 FE25AC42 		.word	1118578174
 691 094c 6A53AC42 		.word	1118589802
 692 0950 B380AC42 		.word	1118601395
 693 0954 DAADAC42 		.word	1118612954
 694 0958 DFDAAC42 		.word	1118624479
 695 095c C107AD42 		.word	1118635969
 696 0960 8034AD42 		.word	1118647424
 697 0964 1D61AD42 		.word	1118658845
 698 0968 978DAD42 		.word	1118670231
 699 096c EFB9AD42 		.word	1118681583
 700 0970 24E6AD42 		.word	1118692900
 701 0974 3612AE42 		.word	1118704182
 702 0978 263EAE42 		.word	1118715430
 703 097c F269AE42 		.word	1118726642
 704 0980 9C95AE42 		.word	1118737820
 705 0984 23C1AE42 		.word	1118748963
 706 0988 87ECAE42 		.word	1118760071
 707 098c C917AF42 		.word	1118771145
 708 0990 E742AF42 		.word	1118782183
 709 0994 E26DAF42 		.word	1118793186
 710 0998 BA98AF42 		.word	1118804154
 711 099c 70C3AF42 		.word	1118815088
 712 09a0 02EEAF42 		.word	1118825986
 713 09a4 7118B042 		.word	1118836849
 714 09a8 BD42B042 		.word	1118847677
 715 09ac E56CB042 		.word	1118858469
 716 09b0 EB96B042 		.word	1118869227
 717 09b4 CDC0B042 		.word	1118879949
 718 09b8 8CEAB042 		.word	1118890636
 719 09bc 2714B142 		.word	1118901287
 720 09c0 A03DB142 		.word	1118911904
 721 09c4 F466B142 		.word	1118922484
 722 09c8 2690B142 		.word	1118933030
 723 09cc 34B9B142 		.word	1118943540
 724 09d0 1EE2B142 		.word	1118954014
 725 09d4 E50AB242 		.word	1118964453
 726 09d8 8933B242 		.word	1118974857
 727 09dc 095CB242 		.word	1118985225
 728 09e0 6584B242 		.word	1118995557
 729 09e4 9DACB242 		.word	1119005853
 730 09e8 B2D4B242 		.word	1119016114
 731 09ec A4FCB242 		.word	1119026340
 732 09f0 7124B342 		.word	1119036529
 733 09f4 1B4CB342 		.word	1119046683
 734 09f8 A173B342 		.word	1119056801
 735 09fc 039BB342 		.word	1119066883
 736 0a00 41C2B342 		.word	1119076929
 737 0a04 5CE9B342 		.word	1119086940
 738 0a08 5210B442 		.word	1119096914
 739 0a0c 2537B442 		.word	1119106853
 740 0a10 D35DB442 		.word	1119116755
 741 0a14 5E84B442 		.word	1119126622
ARM GAS  C:\Users\30806\AppData\Local\Temp\ccYcD1nI.s 			page 14


 742 0a18 C4AAB442 		.word	1119136452
 743 0a1c 07D1B442 		.word	1119146247
 744 0a20 25F7B442 		.word	1119156005
 745 0a24 1F1DB542 		.word	1119165727
 746 0a28 F542B542 		.word	1119175413
 747 0a2c A768B542 		.word	1119185063
 748 0a30 358EB542 		.word	1119194677
 749 0a34 9EB3B542 		.word	1119204254
 750 0a38 E4D8B542 		.word	1119213796
 751 0a3c 04FEB542 		.word	1119223300
 752 0a40 0123B642 		.word	1119232769
 753 0a44 D947B642 		.word	1119242201
 754 0a48 8D6CB642 		.word	1119251597
 755 0a4c 1C91B642 		.word	1119260956
 756 0a50 87B5B642 		.word	1119270279
 757 0a54 CDD9B642 		.word	1119279565
 758 0a58 EFFDB642 		.word	1119288815
 759 0a5c ED21B742 		.word	1119298029
 760 0a60 C645B742 		.word	1119307206
 761 0a64 7A69B742 		.word	1119316346
 762 0a68 098DB742 		.word	1119325449
 763 0a6c 74B0B742 		.word	1119334516
 764 0a70 BBD3B742 		.word	1119343547
 765 0a74 DCF6B742 		.word	1119352540
 766 0a78 D919B842 		.word	1119361497
 767 0a7c B13CB842 		.word	1119370417
 768 0a80 655FB842 		.word	1119379301
 769 0a84 F381B842 		.word	1119388147
 770 0a88 5DA4B842 		.word	1119396957
 771 0a8c A2C6B842 		.word	1119405730
 772 0a90 C2E8B842 		.word	1119414466
 773 0a94 BD0AB942 		.word	1119423165
 774 0a98 932CB942 		.word	1119431827
 775 0a9c 444EB942 		.word	1119440452
 776 0aa0 D06FB942 		.word	1119449040
 777 0aa4 3791B942 		.word	1119457591
 778 0aa8 79B2B942 		.word	1119466105
 779 0aac 96D3B942 		.word	1119474582
 780 0ab0 8EF4B942 		.word	1119483022
 781 0ab4 6115BA42 		.word	1119491425
 782 0ab8 0F36BA42 		.word	1119499791
 783 0abc 9756BA42 		.word	1119508119
 784 0ac0 FB76BA42 		.word	1119516411
 785 0ac4 3997BA42 		.word	1119524665
 786 0ac8 51B7BA42 		.word	1119532881
 787 0acc 45D7BA42 		.word	1119541061
 788 0ad0 13F7BA42 		.word	1119549203
 789 0ad4 BC16BB42 		.word	1119557308
 790 0ad8 4036BB42 		.word	1119565376
 791 0adc 9E55BB42 		.word	1119573406
 792 0ae0 D674BB42 		.word	1119581398
 793 0ae4 EA93BB42 		.word	1119589354
 794 0ae8 D8B2BB42 		.word	1119597272
 795 0aec A0D1BB42 		.word	1119605152
 796 0af0 43F0BB42 		.word	1119612995
 797 0af4 C10EBC42 		.word	1119620801
 798 0af8 182DBC42 		.word	1119628568
ARM GAS  C:\Users\30806\AppData\Local\Temp\ccYcD1nI.s 			page 15


 799 0afc 4B4BBC42 		.word	1119636299
 800 0b00 5769BC42 		.word	1119643991
 801 0b04 3F87BC42 		.word	1119651647
 802 0b08 00A5BC42 		.word	1119659264
 803 0b0c 9CC2BC42 		.word	1119666844
 804 0b10 12E0BC42 		.word	1119674386
 805 0b14 62FDBC42 		.word	1119681890
 806 0b18 8D1ABD42 		.word	1119689357
 807 0b1c 9237BD42 		.word	1119696786
 808 0b20 7154BD42 		.word	1119704177
 809 0b24 2B71BD42 		.word	1119711531
 810 0b28 BE8DBD42 		.word	1119718846
 811 0b2c 2CAABD42 		.word	1119726124
 812 0b30 74C6BD42 		.word	1119733364
 813 0b34 96E2BD42 		.word	1119740566
 814 0b38 92FEBD42 		.word	1119747730
 815 0b3c 681ABE42 		.word	1119754856
 816 0b40 1836BE42 		.word	1119761944
 817 0b44 A251BE42 		.word	1119768994
 818 0b48 066DBE42 		.word	1119776006
 819 0b4c 4588BE42 		.word	1119782981
 820 0b50 5DA3BE42 		.word	1119789917
 821 0b54 4FBEBE42 		.word	1119796815
 822 0b58 1BD9BE42 		.word	1119803675
 823 0b5c C1F3BE42 		.word	1119810497
 824 0b60 410EBF42 		.word	1119817281
 825 0b64 9A28BF42 		.word	1119824026
 826 0b68 CE42BF42 		.word	1119830734
 827 0b6c DB5CBF42 		.word	1119837403
 828 0b70 C276BF42 		.word	1119844034
 829 0b74 8390BF42 		.word	1119850627
 830 0b78 1EAABF42 		.word	1119857182
 831 0b7c 92C3BF42 		.word	1119863698
 832 0b80 E0DCBF42 		.word	1119870176
 833 0b84 08F6BF42 		.word	1119876616
 834 0b88 090FC042 		.word	1119883017
 835 0b8c E527C042 		.word	1119889381
 836 0b90 9940C042 		.word	1119895705
 837 0b94 2859C042 		.word	1119901992
 838 0b98 9071C042 		.word	1119908240
 839 0b9c D189C042 		.word	1119914449
 840 0ba0 ECA1C042 		.word	1119920620
 841 0ba4 E1B9C042 		.word	1119926753
 842 0ba8 AFD1C042 		.word	1119932847
 843 0bac 57E9C042 		.word	1119938903
 844 0bb0 D800C142 		.word	1119944920
 845 0bb4 3318C142 		.word	1119950899
 846 0bb8 672FC142 		.word	1119956839
 847 0bbc 7546C142 		.word	1119962741
 848 0bc0 5C5DC142 		.word	1119968604
 849 0bc4 1C74C142 		.word	1119974428
 850 0bc8 B68AC142 		.word	1119980214
 851 0bcc 29A1C142 		.word	1119985961
 852 0bd0 75B7C142 		.word	1119991669
 853 0bd4 9BCDC142 		.word	1119997339
 854 0bd8 9AE3C142 		.word	1120002970
 855 0bdc 72F9C142 		.word	1120008562
ARM GAS  C:\Users\30806\AppData\Local\Temp\ccYcD1nI.s 			page 16


 856 0be0 240FC242 		.word	1120014116
 857 0be4 AF24C242 		.word	1120019631
 858 0be8 133AC242 		.word	1120025107
 859 0bec 514FC242 		.word	1120030545
 860 0bf0 6764C242 		.word	1120035943
 861 0bf4 5779C242 		.word	1120041303
 862 0bf8 208EC242 		.word	1120046624
 863 0bfc C2A2C242 		.word	1120051906
 864 0c00 3DB7C242 		.word	1120057149
 865 0c04 92CBC242 		.word	1120062354
 866 0c08 BFDFC242 		.word	1120067519
 867 0c0c C6F3C242 		.word	1120072646
 868 0c10 A607C342 		.word	1120077734
 869 0c14 5E1BC342 		.word	1120082782
 870 0c18 F02EC342 		.word	1120087792
 871 0c1c 5B42C342 		.word	1120092763
 872 0c20 9F55C342 		.word	1120097695
 873 0c24 BC68C342 		.word	1120102588
 874 0c28 B27BC342 		.word	1120107442
 875 0c2c 808EC342 		.word	1120112256
 876 0c30 28A1C342 		.word	1120117032
 877 0c34 A9B3C342 		.word	1120121769
 878 0c38 03C6C342 		.word	1120126467
 879 0c3c 35D8C342 		.word	1120131125
 880 0c40 41EAC342 		.word	1120135745
 881 0c44 25FCC342 		.word	1120140325
 882 0c48 E20DC442 		.word	1120144866
 883 0c4c 781FC442 		.word	1120149368
 884 0c50 E730C442 		.word	1120153831
 885 0c54 2F42C442 		.word	1120158255
 886 0c58 5053C442 		.word	1120162640
 887 0c5c 4964C442 		.word	1120166985
 888 0c60 1B75C442 		.word	1120171291
 889 0c64 C685C442 		.word	1120175558
 890 0c68 4A96C442 		.word	1120179786
 891 0c6c A7A6C442 		.word	1120183975
 892 0c70 DCB6C442 		.word	1120188124
 893 0c74 EAC6C442 		.word	1120192234
 894 0c78 D1D6C442 		.word	1120196305
 895 0c7c 90E6C442 		.word	1120200336
 896 0c80 28F6C442 		.word	1120204328
 897 0c84 9905C542 		.word	1120208281
 898 0c88 E214C542 		.word	1120212194
 899 0c8c 0524C542 		.word	1120216069
 900 0c90 FF32C542 		.word	1120219903
 901 0c94 D341C542 		.word	1120223699
 902 0c98 7F50C542 		.word	1120227455
 903 0c9c 035FC542 		.word	1120231171
 904 0ca0 606DC542 		.word	1120234848
 905 0ca4 967BC542 		.word	1120238486
 906 0ca8 A589C542 		.word	1120242085
 907 0cac 8C97C542 		.word	1120245644
 908 0cb0 4BA5C542 		.word	1120249163
 909 0cb4 E3B2C542 		.word	1120252643
 910 0cb8 54C0C542 		.word	1120256084
 911 0cbc 9DCDC542 		.word	1120259485
 912 0cc0 BEDAC542 		.word	1120262846
ARM GAS  C:\Users\30806\AppData\Local\Temp\ccYcD1nI.s 			page 17


 913 0cc4 B8E7C542 		.word	1120266168
 914 0cc8 8BF4C542 		.word	1120269451
 915 0ccc 3601C642 		.word	1120272694
 916 0cd0 BA0DC642 		.word	1120275898
 917 0cd4 161AC642 		.word	1120279062
 918 0cd8 4A26C642 		.word	1120282186
 919 0cdc 5732C642 		.word	1120285271
 920 0ce0 3C3EC642 		.word	1120288316
 921 0ce4 FA49C642 		.word	1120291322
 922 0ce8 9055C642 		.word	1120294288
 923 0cec FF60C642 		.word	1120297215
 924 0cf0 466CC642 		.word	1120300102
 925 0cf4 6577C642 		.word	1120302949
 926 0cf8 5D82C642 		.word	1120305757
 927 0cfc 2D8DC642 		.word	1120308525
 928 0d00 D697C642 		.word	1120311254
 929 0d04 56A2C642 		.word	1120313942
 930 0d08 B0ACC642 		.word	1120316592
 931 0d0c E1B6C642 		.word	1120319201
 932 0d10 EBC0C642 		.word	1120321771
 933 0d14 CDCAC642 		.word	1120324301
 934 0d18 88D4C642 		.word	1120326792
 935 0d1c 1ADEC642 		.word	1120329242
 936 0d20 85E7C642 		.word	1120331653
 937 0d24 C9F0C642 		.word	1120334025
 938 0d28 E4F9C642 		.word	1120336356
 939 0d2c D802C742 		.word	1120338648
 940 0d30 A50BC742 		.word	1120340901
 941 0d34 4914C742 		.word	1120343113
 942 0d38 C61CC742 		.word	1120345286
 943 0d3c 1B25C742 		.word	1120347419
 944 0d40 482DC742 		.word	1120349512
 945 0d44 4D35C742 		.word	1120351565
 946 0d48 2B3DC742 		.word	1120353579
 947 0d4c E144C742 		.word	1120355553
 948 0d50 6F4CC742 		.word	1120357487
 949 0d54 D653C742 		.word	1120359382
 950 0d58 145BC742 		.word	1120361236
 951 0d5c 2B62C742 		.word	1120363051
 952 0d60 1A69C742 		.word	1120364826
 953 0d64 E16FC742 		.word	1120366561
 954 0d68 8076C742 		.word	1120368256
 955 0d6c F87CC742 		.word	1120369912
 956 0d70 4883C742 		.word	1120371528
 957 0d74 6F89C742 		.word	1120373103
 958 0d78 6F8FC742 		.word	1120374639
 959 0d7c 4895C742 		.word	1120376136
 960 0d80 F89AC742 		.word	1120377592
 961 0d84 80A0C742 		.word	1120379008
 962 0d88 E1A5C742 		.word	1120380385
 963 0d8c 1AABC742 		.word	1120381722
 964 0d90 2BB0C742 		.word	1120383019
 965 0d94 14B5C742 		.word	1120384276
 966 0d98 D5B9C742 		.word	1120385493
 967 0d9c 6EBEC742 		.word	1120386670
 968 0da0 E0C2C742 		.word	1120387808
 969 0da4 29C7C742 		.word	1120388905
ARM GAS  C:\Users\30806\AppData\Local\Temp\ccYcD1nI.s 			page 18


 970 0da8 4BCBC742 		.word	1120389963
 971 0dac 45CFC742 		.word	1120390981
 972 0db0 17D3C742 		.word	1120391959
 973 0db4 C1D6C742 		.word	1120392897
 974 0db8 43DAC742 		.word	1120393795
 975 0dbc 9DDDC742 		.word	1120394653
 976 0dc0 CFE0C742 		.word	1120395471
 977 0dc4 DAE3C742 		.word	1120396250
 978 0dc8 BCE6C742 		.word	1120396988
 979 0dcc 77E9C742 		.word	1120397687
 980 0dd0 0AECC742 		.word	1120398346
 981 0dd4 74EEC742 		.word	1120398964
 982 0dd8 B7F0C742 		.word	1120399543
 983 0ddc D2F2C742 		.word	1120400082
 984 0de0 C5F4C742 		.word	1120400581
 985 0de4 91F6C742 		.word	1120401041
 986 0de8 34F8C742 		.word	1120401460
 987 0dec AFF9C742 		.word	1120401839
 988 0df0 02FBC742 		.word	1120402178
 989 0df4 2EFCC742 		.word	1120402478
 990 0df8 31FDC742 		.word	1120402737
 991 0dfc 0DFEC742 		.word	1120402957
 992 0e00 C1FEC742 		.word	1120403137
 993 0e04 4CFFC742 		.word	1120403276
 994 0e08 B0FFC742 		.word	1120403376
 995 0e0c ECFFC742 		.word	1120403436
 996 0e10 0000C842 		.word	1120403456
 997              		.section	.text._ZN12user_maths_c7invSqrtEf,"ax",%progbits
 998              		.align	1
 999              		.global	_ZN12user_maths_c7invSqrtEf
 1000              		.syntax unified
 1001              		.thumb
 1002              		.thumb_func
 1003              		.type	_ZN12user_maths_c7invSqrtEf, %function
 1004              	_ZN12user_maths_c7invSqrtEf:
 1005              	.LFB374:
 1006              		.file 1 "ACE_ECF_25-ACE-ECF-CPP-V1.2/Algorithm/user_maths/cpp_files/user_maths.cpp"
   1:ACE_ECF_25-ACE-ECF-CPP-V1.2/Algorithm/user_maths/cpp_files/user_maths.cpp **** #include "user_maths.hpp"
   2:ACE_ECF_25-ACE-ECF-CPP-V1.2/Algorithm/user_maths/cpp_files/user_maths.cpp **** #include <stddef.h>
   3:ACE_ECF_25-ACE-ECF-CPP-V1.2/Algorithm/user_maths/cpp_files/user_maths.cpp **** #include "arm_math.h"
   4:ACE_ECF_25-ACE-ECF-CPP-V1.2/Algorithm/user_maths/cpp_files/user_maths.cpp **** #include "list_of_trigfunction.h"
   5:ACE_ECF_25-ACE-ECF-CPP-V1.2/Algorithm/user_maths/cpp_files/user_maths.cpp **** 
   6:ACE_ECF_25-ACE-ECF-CPP-V1.2/Algorithm/user_maths/cpp_files/user_maths.cpp **** float user_maths_c::invSqrt(float x) //平方根倒数速算法
   7:ACE_ECF_25-ACE-ECF-CPP-V1.2/Algorithm/user_maths/cpp_files/user_maths.cpp **** {
 1007              		.loc 1 7 1
 1008              		.cfi_startproc
 1009              		@ args = 0, pretend = 0, frame = 24
 1010              		@ frame_needed = 1, uses_anonymous_args = 0
 1011              		@ link register save eliminated.
 1012 0000 80B4     		push	{r7}	@
 1013              	.LCFI0:
 1014              		.cfi_def_cfa_offset 4
 1015              		.cfi_offset 7, -4
 1016 0002 87B0     		sub	sp, sp, #28	@,,
 1017              	.LCFI1:
 1018              		.cfi_def_cfa_offset 32
 1019 0004 00AF     		add	r7, sp, #0	@,,
ARM GAS  C:\Users\30806\AppData\Local\Temp\ccYcD1nI.s 			page 19


 1020              	.LCFI2:
 1021              		.cfi_def_cfa_register 7
 1022 0006 7860     		str	r0, [r7, #4]	@ this, this
 1023 0008 87ED000A 		vstr.32	s0, [r7]	@ x, x
 1024              	@ ACE_ECF_25-ACE-ECF-CPP-V1.2/Algorithm/user_maths/cpp_files/user_maths.cpp:8:     float halfx = 0.
   8:ACE_ECF_25-ACE-ECF-CPP-V1.2/Algorithm/user_maths/cpp_files/user_maths.cpp ****     float halfx = 0.5f * x;
 1025              		.loc 1 8 11
 1026 000c D7ED007A 		vldr.32	s15, [r7]	@ tmp130, x
 1027 0010 B6EE007A 		vmov.f32	s14, #5.0e-1	@ tmp131,
 1028 0014 67EE877A 		vmul.f32	s15, s15, s14	@ tmp129, tmp130, tmp131
 1029 0018 C7ED057A 		vstr.32	s15, [r7, #20]	@ tmp129, halfx
 1030              	@ ACE_ECF_25-ACE-ECF-CPP-V1.2/Algorithm/user_maths/cpp_files/user_maths.cpp:9:     float y = x;
   9:ACE_ECF_25-ACE-ECF-CPP-V1.2/Algorithm/user_maths/cpp_files/user_maths.cpp ****     float y = x;
 1031              		.loc 1 9 11
 1032 001c 3B68     		ldr	r3, [r7]	@ float	@ tmp132, x
 1033 001e 3B61     		str	r3, [r7, #16]	@ float	@ tmp132, y
 1034              	@ ACE_ECF_25-ACE-ECF-CPP-V1.2/Algorithm/user_maths/cpp_files/user_maths.cpp:10:     long i = *(long
  10:ACE_ECF_25-ACE-ECF-CPP-V1.2/Algorithm/user_maths/cpp_files/user_maths.cpp ****     long i = *(long *)&y;
 1035              		.loc 1 10 23
 1036 0020 07F11003 		add	r3, r7, #16	@ y.0_1,,
 1037              	@ ACE_ECF_25-ACE-ECF-CPP-V1.2/Algorithm/user_maths/cpp_files/user_maths.cpp:10:     long i = *(long
 1038              		.loc 1 10 14
 1039 0024 1B68     		ldr	r3, [r3]	@ _2, MEM[(long int *)y.0_1]
 1040              	@ ACE_ECF_25-ACE-ECF-CPP-V1.2/Algorithm/user_maths/cpp_files/user_maths.cpp:10:     long i = *(long
 1041              		.loc 1 10 10
 1042 0026 FB60     		str	r3, [r7, #12]	@ _2, i
 1043              	@ ACE_ECF_25-ACE-ECF-CPP-V1.2/Algorithm/user_maths/cpp_files/user_maths.cpp:11:     i = 0x5f3759df 
  11:ACE_ECF_25-ACE-ECF-CPP-V1.2/Algorithm/user_maths/cpp_files/user_maths.cpp ****     i = 0x5f3759df - (i >> 1);
 1044              		.loc 1 11 25
 1045 0028 FB68     		ldr	r3, [r7, #12]	@ i.1_3, i
 1046 002a 5A10     		asrs	r2, r3, #1	@ _4, i.1_3,
 1047              	@ ACE_ECF_25-ACE-ECF-CPP-V1.2/Algorithm/user_maths/cpp_files/user_maths.cpp:11:     i = 0x5f3759df 
 1048              		.loc 1 11 20
 1049 002c 124B     		ldr	r3, .L3	@ _5,
 1050 002e 9B1A     		subs	r3, r3, r2	@ _5, _5, _4
 1051              	@ ACE_ECF_25-ACE-ECF-CPP-V1.2/Algorithm/user_maths/cpp_files/user_maths.cpp:11:     i = 0x5f3759df 
 1052              		.loc 1 11 7
 1053 0030 FB60     		str	r3, [r7, #12]	@ _5, i
 1054              	@ ACE_ECF_25-ACE-ECF-CPP-V1.2/Algorithm/user_maths/cpp_files/user_maths.cpp:12:     y = *(float *)&
  12:ACE_ECF_25-ACE-ECF-CPP-V1.2/Algorithm/user_maths/cpp_files/user_maths.cpp ****     y = *(float *)&i;
 1055              		.loc 1 12 19
 1056 0032 07F10C03 		add	r3, r7, #12	@ i.2_6,,
 1057              	@ ACE_ECF_25-ACE-ECF-CPP-V1.2/Algorithm/user_maths/cpp_files/user_maths.cpp:12:     y = *(float *)&
 1058              		.loc 1 12 9
 1059 0036 1B68     		ldr	r3, [r3]	@ float	@ _7, MEM[(float *)i.2_6]
 1060              	@ ACE_ECF_25-ACE-ECF-CPP-V1.2/Algorithm/user_maths/cpp_files/user_maths.cpp:12:     y = *(float *)&
 1061              		.loc 1 12 7
 1062 0038 3B61     		str	r3, [r7, #16]	@ float	@ _7, y
 1063              	@ ACE_ECF_25-ACE-ECF-CPP-V1.2/Algorithm/user_maths/cpp_files/user_maths.cpp:13:     y = y * (1.5f -
  13:ACE_ECF_25-ACE-ECF-CPP-V1.2/Algorithm/user_maths/cpp_files/user_maths.cpp ****     y = y * (1.5f - (halfx * y * y));
 1064              		.loc 1 13 28
 1065 003a 97ED047A 		vldr.32	s14, [r7, #16]	@ y.3_8, y
 1066 003e D7ED057A 		vldr.32	s15, [r7, #20]	@ tmp133, halfx
 1067 0042 27EE277A 		vmul.f32	s14, s14, s15	@ _9, y.3_8, tmp133
 1068              	@ ACE_ECF_25-ACE-ECF-CPP-V1.2/Algorithm/user_maths/cpp_files/user_maths.cpp:13:     y = y * (1.5f -
 1069              		.loc 1 13 32
 1070 0046 D7ED047A 		vldr.32	s15, [r7, #16]	@ y.4_10, y
ARM GAS  C:\Users\30806\AppData\Local\Temp\ccYcD1nI.s 			page 20


 1071 004a 67EE277A 		vmul.f32	s15, s14, s15	@ _11, _9, y.4_10
 1072              	@ ACE_ECF_25-ACE-ECF-CPP-V1.2/Algorithm/user_maths/cpp_files/user_maths.cpp:13:     y = y * (1.5f -
 1073              		.loc 1 13 19
 1074 004e B7EE087A 		vmov.f32	s14, #1.5e+0	@ tmp134,
 1075 0052 37EE677A 		vsub.f32	s14, s14, s15	@ _12, tmp134, _11
 1076              	@ ACE_ECF_25-ACE-ECF-CPP-V1.2/Algorithm/user_maths/cpp_files/user_maths.cpp:13:     y = y * (1.5f -
 1077              		.loc 1 13 11
 1078 0056 D7ED047A 		vldr.32	s15, [r7, #16]	@ y.5_13, y
 1079 005a 67EE277A 		vmul.f32	s15, s14, s15	@ _14, _12, y.5_13
 1080              	@ ACE_ECF_25-ACE-ECF-CPP-V1.2/Algorithm/user_maths/cpp_files/user_maths.cpp:13:     y = y * (1.5f -
 1081              		.loc 1 13 7
 1082 005e C7ED047A 		vstr.32	s15, [r7, #16]	@ _14, y
 1083              	@ ACE_ECF_25-ACE-ECF-CPP-V1.2/Algorithm/user_maths/cpp_files/user_maths.cpp:14:     return y;
  14:ACE_ECF_25-ACE-ECF-CPP-V1.2/Algorithm/user_maths/cpp_files/user_maths.cpp ****     return y;
 1084              		.loc 1 14 12
 1085 0062 3B69     		ldr	r3, [r7, #16]	@ float	@ _23, y
 1086 0064 07EE903A 		vmov	s15, r3	@ <retval>, _23
 1087              	@ ACE_ECF_25-ACE-ECF-CPP-V1.2/Algorithm/user_maths/cpp_files/user_maths.cpp:15: }
  15:ACE_ECF_25-ACE-ECF-CPP-V1.2/Algorithm/user_maths/cpp_files/user_maths.cpp **** }
 1088              		.loc 1 15 1
 1089 0068 B0EE670A 		vmov.f32	s0, s15	@, <retval>
 1090 006c 1C37     		adds	r7, r7, #28	@,,
 1091              	.LCFI3:
 1092              		.cfi_def_cfa_offset 4
 1093 006e BD46     		mov	sp, r7	@,
 1094              	.LCFI4:
 1095              		.cfi_def_cfa_register 13
 1096              		@ sp needed	@
 1097 0070 5DF8047B 		ldr	r7, [sp], #4	@,
 1098              	.LCFI5:
 1099              		.cfi_restore 7
 1100              		.cfi_def_cfa_offset 0
 1101 0074 7047     		bx	lr	@
 1102              	.L4:
 1103 0076 00BF     		.align	2
 1104              	.L3:
 1105 0078 DF59375F 		.word	1597463007
 1106              		.cfi_endproc
 1107              	.LFE374:
 1108              		.size	_ZN12user_maths_c7invSqrtEf, .-_ZN12user_maths_c7invSqrtEf
 1109              		.section	.text._ZN12user_maths_c7max_absEss,"ax",%progbits
 1110              		.align	1
 1111              		.global	_ZN12user_maths_c7max_absEss
 1112              		.syntax unified
 1113              		.thumb
 1114              		.thumb_func
 1115              		.type	_ZN12user_maths_c7max_absEss, %function
 1116              	_ZN12user_maths_c7max_absEss:
 1117              	.LFB375:
  16:ACE_ECF_25-ACE-ECF-CPP-V1.2/Algorithm/user_maths/cpp_files/user_maths.cpp **** 
  17:ACE_ECF_25-ACE-ECF-CPP-V1.2/Algorithm/user_maths/cpp_files/user_maths.cpp **** /*取两个数最大值的绝对值*/
  18:ACE_ECF_25-ACE-ECF-CPP-V1.2/Algorithm/user_maths/cpp_files/user_maths.cpp **** int16_t user_maths_c::max_abs(int16_t x, int16_t y)
  19:ACE_ECF_25-ACE-ECF-CPP-V1.2/Algorithm/user_maths/cpp_files/user_maths.cpp **** {
 1118              		.loc 1 19 1
 1119              		.cfi_startproc
 1120              		@ args = 0, pretend = 0, frame = 8
 1121              		@ frame_needed = 1, uses_anonymous_args = 0
ARM GAS  C:\Users\30806\AppData\Local\Temp\ccYcD1nI.s 			page 21


 1122              		@ link register save eliminated.
 1123 0000 80B4     		push	{r7}	@
 1124              	.LCFI6:
 1125              		.cfi_def_cfa_offset 4
 1126              		.cfi_offset 7, -4
 1127 0002 83B0     		sub	sp, sp, #12	@,,
 1128              	.LCFI7:
 1129              		.cfi_def_cfa_offset 16
 1130 0004 00AF     		add	r7, sp, #0	@,,
 1131              	.LCFI8:
 1132              		.cfi_def_cfa_register 7
 1133 0006 7860     		str	r0, [r7, #4]	@ this, this
 1134 0008 0B46     		mov	r3, r1	@ tmp119, x
 1135 000a 7B80     		strh	r3, [r7, #2]	@ movhi	@ tmp120, x
 1136 000c 1346     		mov	r3, r2	@ movhi	@ tmp122, tmp121
 1137 000e 3B80     		strh	r3, [r7]	@ movhi	@ tmp122, y
 1138              	@ ACE_ECF_25-ACE-ECF-CPP-V1.2/Algorithm/user_maths/cpp_files/user_maths.cpp:20:     if (user_abs(x)
  20:ACE_ECF_25-ACE-ECF-CPP-V1.2/Algorithm/user_maths/cpp_files/user_maths.cpp ****     if (user_abs(x) >= user_abs(y))
 1139              		.loc 1 20 9
 1140 0010 B7F90230 		ldrsh	r3, [r7, #2]	@ tmp123, x
 1141 0014 002B     		cmp	r3, #0	@ tmp124,
 1142 0016 B8BF     		it	lt
 1143 0018 5B42     		rsblt	r3, r3, #0	@ tmp124, tmp123,
 1144 001a 9AB2     		uxth	r2, r3	@ _1, tmp124
 1145              	@ ACE_ECF_25-ACE-ECF-CPP-V1.2/Algorithm/user_maths/cpp_files/user_maths.cpp:20:     if (user_abs(x)
 1146              		.loc 1 20 24
 1147 001c B7F90030 		ldrsh	r3, [r7]	@ tmp125, y
 1148 0020 002B     		cmp	r3, #0	@ tmp126,
 1149 0022 B8BF     		it	lt
 1150 0024 5B42     		rsblt	r3, r3, #0	@ tmp126, tmp125,
 1151 0026 9BB2     		uxth	r3, r3	@ _2, tmp126
 1152              	@ ACE_ECF_25-ACE-ECF-CPP-V1.2/Algorithm/user_maths/cpp_files/user_maths.cpp:20:     if (user_abs(x)
 1153              		.loc 1 20 5
 1154 0028 9A42     		cmp	r2, r3	@ _1, _2
 1155 002a 07D3     		bcc	.L6		@,
 1156              	@ ACE_ECF_25-ACE-ECF-CPP-V1.2/Algorithm/user_maths/cpp_files/user_maths.cpp:21:         return user
  21:ACE_ECF_25-ACE-ECF-CPP-V1.2/Algorithm/user_maths/cpp_files/user_maths.cpp ****         return user_abs(x);
 1157              		.loc 1 21 16
 1158 002c B7F90230 		ldrsh	r3, [r7, #2]	@ tmp127, x
 1159 0030 002B     		cmp	r3, #0	@ tmp128,
 1160 0032 B8BF     		it	lt
 1161 0034 5B42     		rsblt	r3, r3, #0	@ tmp128, tmp127,
 1162 0036 9BB2     		uxth	r3, r3	@ _3, tmp128
 1163 0038 1BB2     		sxth	r3, r3	@ _5, _3
 1164 003a 06E0     		b	.L7		@
 1165              	.L6:
 1166              	@ ACE_ECF_25-ACE-ECF-CPP-V1.2/Algorithm/user_maths/cpp_files/user_maths.cpp:23:         return user
  22:ACE_ECF_25-ACE-ECF-CPP-V1.2/Algorithm/user_maths/cpp_files/user_maths.cpp ****     else
  23:ACE_ECF_25-ACE-ECF-CPP-V1.2/Algorithm/user_maths/cpp_files/user_maths.cpp ****         return user_abs(y);
 1167              		.loc 1 23 16
 1168 003c B7F90030 		ldrsh	r3, [r7]	@ tmp129, y
 1169 0040 002B     		cmp	r3, #0	@ tmp130,
 1170 0042 B8BF     		it	lt
 1171 0044 5B42     		rsblt	r3, r3, #0	@ tmp130, tmp129,
 1172 0046 9BB2     		uxth	r3, r3	@ _4, tmp130
 1173 0048 1BB2     		sxth	r3, r3	@ _5, _4
 1174              	.L7:
ARM GAS  C:\Users\30806\AppData\Local\Temp\ccYcD1nI.s 			page 22


 1175              	@ ACE_ECF_25-ACE-ECF-CPP-V1.2/Algorithm/user_maths/cpp_files/user_maths.cpp:24: }
  24:ACE_ECF_25-ACE-ECF-CPP-V1.2/Algorithm/user_maths/cpp_files/user_maths.cpp **** }
 1176              		.loc 1 24 1
 1177 004a 1846     		mov	r0, r3	@, <retval>
 1178 004c 0C37     		adds	r7, r7, #12	@,,
 1179              	.LCFI9:
 1180              		.cfi_def_cfa_offset 4
 1181 004e BD46     		mov	sp, r7	@,
 1182              	.LCFI10:
 1183              		.cfi_def_cfa_register 13
 1184              		@ sp needed	@
 1185 0050 5DF8047B 		ldr	r7, [sp], #4	@,
 1186              	.LCFI11:
 1187              		.cfi_restore 7
 1188              		.cfi_def_cfa_offset 0
 1189 0054 7047     		bx	lr	@
 1190              		.cfi_endproc
 1191              	.LFE375:
 1192              		.size	_ZN12user_maths_c7max_absEss, .-_ZN12user_maths_c7max_absEss
 1193              		.section	.text._ZN12user_maths_c27motion_acceleration_controlEss,"ax",%progbits
 1194              		.align	1
 1195              		.global	_ZN12user_maths_c27motion_acceleration_controlEss
 1196              		.syntax unified
 1197              		.thumb
 1198              		.thumb_func
 1199              		.type	_ZN12user_maths_c27motion_acceleration_controlEss, %function
 1200              	_ZN12user_maths_c27motion_acceleration_controlEss:
 1201              	.LFB376:
  25:ACE_ECF_25-ACE-ECF-CPP-V1.2/Algorithm/user_maths/cpp_files/user_maths.cpp **** 
  26:ACE_ECF_25-ACE-ECF-CPP-V1.2/Algorithm/user_maths/cpp_files/user_maths.cpp **** /*
  27:ACE_ECF_25-ACE-ECF-CPP-V1.2/Algorithm/user_maths/cpp_files/user_maths.cpp ****  *功能：运动控制斜坡函数（加速度限制）
  28:ACE_ECF_25-ACE-ECF-CPP-V1.2/Algorithm/user_maths/cpp_files/user_maths.cpp ****  *传入：1.加速度限制对应结构体  2.控制量 3.限制加速度
  29:ACE_ECF_25-ACE-ECF-CPP-V1.2/Algorithm/user_maths/cpp_files/user_maths.cpp ****  *传出：处理量
  30:ACE_ECF_25-ACE-ECF-CPP-V1.2/Algorithm/user_maths/cpp_files/user_maths.cpp ****  *类型：16位整形
  31:ACE_ECF_25-ACE-ECF-CPP-V1.2/Algorithm/user_maths/cpp_files/user_maths.cpp ****  */
  32:ACE_ECF_25-ACE-ECF-CPP-V1.2/Algorithm/user_maths/cpp_files/user_maths.cpp **** int16_t user_maths_c::motion_acceleration_control( int16_t Input, int16_t Limit)
  33:ACE_ECF_25-ACE-ECF-CPP-V1.2/Algorithm/user_maths/cpp_files/user_maths.cpp **** {
 1202              		.loc 1 33 1
 1203              		.cfi_startproc
 1204              		@ args = 0, pretend = 0, frame = 8
 1205              		@ frame_needed = 1, uses_anonymous_args = 0
 1206              		@ link register save eliminated.
 1207 0000 80B4     		push	{r7}	@
 1208              	.LCFI12:
 1209              		.cfi_def_cfa_offset 4
 1210              		.cfi_offset 7, -4
 1211 0002 83B0     		sub	sp, sp, #12	@,,
 1212              	.LCFI13:
 1213              		.cfi_def_cfa_offset 16
 1214 0004 00AF     		add	r7, sp, #0	@,,
 1215              	.LCFI14:
 1216              		.cfi_def_cfa_register 7
 1217 0006 7860     		str	r0, [r7, #4]	@ this, this
 1218 0008 0B46     		mov	r3, r1	@ tmp135, Input
 1219 000a 7B80     		strh	r3, [r7, #2]	@ movhi	@ tmp136, Input
 1220 000c 1346     		mov	r3, r2	@ movhi	@ tmp138, tmp137
 1221 000e 3B80     		strh	r3, [r7]	@ movhi	@ tmp138, Limit
ARM GAS  C:\Users\30806\AppData\Local\Temp\ccYcD1nI.s 			page 23


 1222              	@ ACE_ECF_25-ACE-ECF-CPP-V1.2/Algorithm/user_maths/cpp_files/user_maths.cpp:34:     this->accelerat
  34:ACE_ECF_25-ACE-ECF-CPP-V1.2/Algorithm/user_maths/cpp_files/user_maths.cpp ****     this->acceleration_control.Input = Input;
 1223              		.loc 1 34 38
 1224 0010 B7F90230 		ldrsh	r3, [r7, #2]	@ tmp139, Input
 1225 0014 07EE903A 		vmov	s15, r3	@ int	@ tmp139, tmp139
 1226 0018 F8EEE77A 		vcvt.f32.s32	s15, s15	@ _1, tmp139
 1227 001c 7B68     		ldr	r3, [r7, #4]	@ tmp140, this
 1228 001e C3ED007A 		vstr.32	s15, [r3]	@ _1, this_24(D)->acceleration_control.Input
 1229              	@ ACE_ECF_25-ACE-ECF-CPP-V1.2/Algorithm/user_maths/cpp_files/user_maths.cpp:35:     this->accelerat
  35:ACE_ECF_25-ACE-ECF-CPP-V1.2/Algorithm/user_maths/cpp_files/user_maths.cpp ****     this->acceleration_control.acc_limit = Limit;
 1230              		.loc 1 35 42
 1231 0022 B7F90030 		ldrsh	r3, [r7]	@ tmp141, Limit
 1232 0026 07EE903A 		vmov	s15, r3	@ int	@ tmp141, tmp141
 1233 002a F8EEE77A 		vcvt.f32.s32	s15, s15	@ _2, tmp141
 1234 002e 7B68     		ldr	r3, [r7, #4]	@ tmp142, this
 1235 0030 C3ED047A 		vstr.32	s15, [r3, #16]	@ _2, this_24(D)->acceleration_control.acc_limit
 1236              	@ ACE_ECF_25-ACE-ECF-CPP-V1.2/Algorithm/user_maths/cpp_files/user_maths.cpp:37:     this->accelerat
  36:ACE_ECF_25-ACE-ECF-CPP-V1.2/Algorithm/user_maths/cpp_files/user_maths.cpp **** 
  37:ACE_ECF_25-ACE-ECF-CPP-V1.2/Algorithm/user_maths/cpp_files/user_maths.cpp ****     this->acceleration_control.acc_now = this->acceleration_control.Input - this->acceleration_cont
 1237              		.loc 1 37 69
 1238 0034 7B68     		ldr	r3, [r7, #4]	@ tmp143, this
 1239 0036 93ED007A 		vldr.32	s14, [r3]	@ _3, this_24(D)->acceleration_control.Input
 1240              	@ ACE_ECF_25-ACE-ECF-CPP-V1.2/Algorithm/user_maths/cpp_files/user_maths.cpp:37:     this->accelerat
 1241              		.loc 1 37 104
 1242 003a 7B68     		ldr	r3, [r7, #4]	@ tmp144, this
 1243 003c D3ED017A 		vldr.32	s15, [r3, #4]	@ _4, this_24(D)->acceleration_control.Last_Input
 1244              	@ ACE_ECF_25-ACE-ECF-CPP-V1.2/Algorithm/user_maths/cpp_files/user_maths.cpp:37:     this->accelerat
 1245              		.loc 1 37 75
 1246 0040 77EE677A 		vsub.f32	s15, s14, s15	@ _5, _3, _4
 1247              	@ ACE_ECF_25-ACE-ECF-CPP-V1.2/Algorithm/user_maths/cpp_files/user_maths.cpp:37:     this->accelerat
 1248              		.loc 1 37 40
 1249 0044 7B68     		ldr	r3, [r7, #4]	@ tmp145, this
 1250 0046 C3ED037A 		vstr.32	s15, [r3, #12]	@ _5, this_24(D)->acceleration_control.acc_now
 1251              	@ ACE_ECF_25-ACE-ECF-CPP-V1.2/Algorithm/user_maths/cpp_files/user_maths.cpp:39:     if (user_abs(th
  38:ACE_ECF_25-ACE-ECF-CPP-V1.2/Algorithm/user_maths/cpp_files/user_maths.cpp **** 
  39:ACE_ECF_25-ACE-ECF-CPP-V1.2/Algorithm/user_maths/cpp_files/user_maths.cpp ****     if (user_abs(this->acceleration_control.acc_now) > this->acceleration_control.acc_limit)
 1252              		.loc 1 39 9
 1253 004a 7B68     		ldr	r3, [r7, #4]	@ tmp146, this
 1254 004c D3ED037A 		vldr.32	s15, [r3, #12]	@ _6, this_24(D)->acceleration_control.acc_now
 1255 0050 F5EEC07A 		vcmpe.f32	s15, #0	@ _6
 1256 0054 F1EE10FA 		vmrs	APSR_nzcv, FPSCR
 1257 0058 03DD     		ble	.L21		@,
 1258              	@ ACE_ECF_25-ACE-ECF-CPP-V1.2/Algorithm/user_maths/cpp_files/user_maths.cpp:39:     if (user_abs(th
 1259              		.loc 1 39 9 is_stmt 0 discriminator 1
 1260 005a 7B68     		ldr	r3, [r7, #4]	@ tmp147, this
 1261 005c D3ED037A 		vldr.32	s15, [r3, #12]	@ iftmp.6_19, this_24(D)->acceleration_control.acc_now
 1262 0060 04E0     		b	.L11		@
 1263              	.L21:
 1264              	@ ACE_ECF_25-ACE-ECF-CPP-V1.2/Algorithm/user_maths/cpp_files/user_maths.cpp:39:     if (user_abs(th
 1265              		.loc 1 39 9 discriminator 2
 1266 0062 7B68     		ldr	r3, [r7, #4]	@ tmp148, this
 1267 0064 D3ED037A 		vldr.32	s15, [r3, #12]	@ _7, this_24(D)->acceleration_control.acc_now
 1268 0068 F1EE677A 		vneg.f32	s15, s15	@ iftmp.6_19, _7
 1269              	.L11:
 1270              	@ ACE_ECF_25-ACE-ECF-CPP-V1.2/Algorithm/user_maths/cpp_files/user_maths.cpp:39:     if (user_abs(th
 1271              		.loc 1 39 83 is_stmt 1 discriminator 4
 1272 006c 7B68     		ldr	r3, [r7, #4]	@ tmp149, this
ARM GAS  C:\Users\30806\AppData\Local\Temp\ccYcD1nI.s 			page 24


 1273 006e 93ED047A 		vldr.32	s14, [r3, #16]	@ _8, this_24(D)->acceleration_control.acc_limit
 1274              	@ ACE_ECF_25-ACE-ECF-CPP-V1.2/Algorithm/user_maths/cpp_files/user_maths.cpp:39:     if (user_abs(th
 1275              		.loc 1 39 5 discriminator 4
 1276 0072 F4EEC77A 		vcmpe.f32	s15, s14	@ iftmp.6_19, _8
 1277 0076 F1EE10FA 		vmrs	APSR_nzcv, FPSCR
 1278 007a 22DD     		ble	.L12		@,
 1279              	@ ACE_ECF_25-ACE-ECF-CPP-V1.2/Algorithm/user_maths/cpp_files/user_maths.cpp:41:         this->accel
  40:ACE_ECF_25-ACE-ECF-CPP-V1.2/Algorithm/user_maths/cpp_files/user_maths.cpp ****     {
  41:ACE_ECF_25-ACE-ECF-CPP-V1.2/Algorithm/user_maths/cpp_files/user_maths.cpp ****         this->acceleration_control.Output = this->acceleration_control.Last_Input + this->accelerat
 1280              		.loc 1 41 72
 1281 007c 7B68     		ldr	r3, [r7, #4]	@ tmp150, this
 1282 007e 93ED017A 		vldr.32	s14, [r3, #4]	@ _9, this_24(D)->acceleration_control.Last_Input
 1283              	@ ACE_ECF_25-ACE-ECF-CPP-V1.2/Algorithm/user_maths/cpp_files/user_maths.cpp:41:         this->accel
 1284              		.loc 1 41 112
 1285 0082 7B68     		ldr	r3, [r7, #4]	@ tmp151, this
 1286 0084 93ED036A 		vldr.32	s12, [r3, #12]	@ _10, this_24(D)->acceleration_control.acc_now
 1287              	@ ACE_ECF_25-ACE-ECF-CPP-V1.2/Algorithm/user_maths/cpp_files/user_maths.cpp:41:         this->accel
 1288              		.loc 1 41 122
 1289 0088 7B68     		ldr	r3, [r7, #4]	@ tmp152, this
 1290 008a D3ED037A 		vldr.32	s15, [r3, #12]	@ _11, this_24(D)->acceleration_control.acc_now
 1291 008e F5EEC07A 		vcmpe.f32	s15, #0	@ _11
 1292 0092 F1EE10FA 		vmrs	APSR_nzcv, FPSCR
 1293 0096 03DD     		ble	.L22		@,
 1294              	@ ACE_ECF_25-ACE-ECF-CPP-V1.2/Algorithm/user_maths/cpp_files/user_maths.cpp:41:         this->accel
 1295              		.loc 1 41 122 is_stmt 0 discriminator 1
 1296 0098 7B68     		ldr	r3, [r7, #4]	@ tmp153, this
 1297 009a D3ED037A 		vldr.32	s15, [r3, #12]	@ iftmp.7_20, this_24(D)->acceleration_control.acc_now
 1298 009e 04E0     		b	.L16		@
 1299              	.L22:
 1300              	@ ACE_ECF_25-ACE-ECF-CPP-V1.2/Algorithm/user_maths/cpp_files/user_maths.cpp:41:         this->accel
 1301              		.loc 1 41 122 discriminator 2
 1302 00a0 7B68     		ldr	r3, [r7, #4]	@ tmp154, this
 1303 00a2 D3ED037A 		vldr.32	s15, [r3, #12]	@ _12, this_24(D)->acceleration_control.acc_now
 1304 00a6 F1EE677A 		vneg.f32	s15, s15	@ iftmp.7_20, _12
 1305              	.L16:
 1306              	@ ACE_ECF_25-ACE-ECF-CPP-V1.2/Algorithm/user_maths/cpp_files/user_maths.cpp:41:         this->accel
 1307              		.loc 1 41 120 is_stmt 1 discriminator 4
 1308 00aa C6EE276A 		vdiv.f32	s13, s12, s15	@ _13, _10, iftmp.7_20
 1309              	@ ACE_ECF_25-ACE-ECF-CPP-V1.2/Algorithm/user_maths/cpp_files/user_maths.cpp:41:         this->accel
 1310              		.loc 1 41 196 discriminator 4
 1311 00ae 7B68     		ldr	r3, [r7, #4]	@ tmp155, this
 1312 00b0 D3ED047A 		vldr.32	s15, [r3, #16]	@ _14, this_24(D)->acceleration_control.acc_limit
 1313              	@ ACE_ECF_25-ACE-ECF-CPP-V1.2/Algorithm/user_maths/cpp_files/user_maths.cpp:41:         this->accel
 1314              		.loc 1 41 167 discriminator 4
 1315 00b4 66EEA77A 		vmul.f32	s15, s13, s15	@ _15, _13, _14
 1316              	@ ACE_ECF_25-ACE-ECF-CPP-V1.2/Algorithm/user_maths/cpp_files/user_maths.cpp:41:         this->accel
 1317              		.loc 1 41 83 discriminator 4
 1318 00b8 77EE277A 		vadd.f32	s15, s14, s15	@ _16, _9, _15
 1319              	@ ACE_ECF_25-ACE-ECF-CPP-V1.2/Algorithm/user_maths/cpp_files/user_maths.cpp:41:         this->accel
 1320              		.loc 1 41 43 discriminator 4
 1321 00bc 7B68     		ldr	r3, [r7, #4]	@ tmp156, this
 1322 00be C3ED027A 		vstr.32	s15, [r3, #8]	@ _16, this_24(D)->acceleration_control.Output
 1323              	.L12:
 1324              	@ ACE_ECF_25-ACE-ECF-CPP-V1.2/Algorithm/user_maths/cpp_files/user_maths.cpp:44:     this->accelerat
  42:ACE_ECF_25-ACE-ECF-CPP-V1.2/Algorithm/user_maths/cpp_files/user_maths.cpp ****     }
  43:ACE_ECF_25-ACE-ECF-CPP-V1.2/Algorithm/user_maths/cpp_files/user_maths.cpp **** 
  44:ACE_ECF_25-ACE-ECF-CPP-V1.2/Algorithm/user_maths/cpp_files/user_maths.cpp ****     this->acceleration_control.Last_Input = this->acceleration_control.Output;
ARM GAS  C:\Users\30806\AppData\Local\Temp\ccYcD1nI.s 			page 25


 1325              		.loc 1 44 72
 1326 00c2 7B68     		ldr	r3, [r7, #4]	@ tmp157, this
 1327 00c4 9A68     		ldr	r2, [r3, #8]	@ float	@ _17, this_24(D)->acceleration_control.Output
 1328              	@ ACE_ECF_25-ACE-ECF-CPP-V1.2/Algorithm/user_maths/cpp_files/user_maths.cpp:44:     this->accelerat
 1329              		.loc 1 44 43
 1330 00c6 7B68     		ldr	r3, [r7, #4]	@ tmp158, this
 1331 00c8 5A60     		str	r2, [r3, #4]	@ float	@ _17, this_24(D)->acceleration_control.Last_Input
 1332              	@ ACE_ECF_25-ACE-ECF-CPP-V1.2/Algorithm/user_maths/cpp_files/user_maths.cpp:46:     return this->ac
  45:ACE_ECF_25-ACE-ECF-CPP-V1.2/Algorithm/user_maths/cpp_files/user_maths.cpp **** 
  46:ACE_ECF_25-ACE-ECF-CPP-V1.2/Algorithm/user_maths/cpp_files/user_maths.cpp ****     return this->acceleration_control.Output;
 1333              		.loc 1 46 39
 1334 00ca 7B68     		ldr	r3, [r7, #4]	@ tmp159, this
 1335 00cc D3ED027A 		vldr.32	s15, [r3, #8]	@ _18, this_24(D)->acceleration_control.Output
 1336 00d0 FDEEE77A 		vcvt.s32.f32	s15, s15	@ tmp161, _18
 1337 00d4 17EE903A 		vmov	r3, s15	@ int	@ tmp160, tmp161
 1338 00d8 1BB2     		sxth	r3, r3	@ _35, tmp160
 1339              	@ ACE_ECF_25-ACE-ECF-CPP-V1.2/Algorithm/user_maths/cpp_files/user_maths.cpp:47: }
  47:ACE_ECF_25-ACE-ECF-CPP-V1.2/Algorithm/user_maths/cpp_files/user_maths.cpp **** }
 1340              		.loc 1 47 1
 1341 00da 1846     		mov	r0, r3	@, <retval>
 1342 00dc 0C37     		adds	r7, r7, #12	@,,
 1343              	.LCFI15:
 1344              		.cfi_def_cfa_offset 4
 1345 00de BD46     		mov	sp, r7	@,
 1346              	.LCFI16:
 1347              		.cfi_def_cfa_register 13
 1348              		@ sp needed	@
 1349 00e0 5DF8047B 		ldr	r7, [sp], #4	@,
 1350              	.LCFI17:
 1351              		.cfi_restore 7
 1352              		.cfi_def_cfa_offset 0
 1353 00e4 7047     		bx	lr	@
 1354              		.cfi_endproc
 1355              	.LFE376:
 1356              		.size	_ZN12user_maths_c27motion_acceleration_controlEss, .-_ZN12user_maths_c27motion_acceleration_
 1357              		.section	.text._ZN12user_maths_c22loop_restriction_int16Ess,"ax",%progbits
 1358              		.align	1
 1359              		.global	_ZN12user_maths_c22loop_restriction_int16Ess
 1360              		.syntax unified
 1361              		.thumb
 1362              		.thumb_func
 1363              		.type	_ZN12user_maths_c22loop_restriction_int16Ess, %function
 1364              	_ZN12user_maths_c22loop_restriction_int16Ess:
 1365              	.LFB377:
  48:ACE_ECF_25-ACE-ECF-CPP-V1.2/Algorithm/user_maths/cpp_files/user_maths.cpp **** 
  49:ACE_ECF_25-ACE-ECF-CPP-V1.2/Algorithm/user_maths/cpp_files/user_maths.cpp **** /*
  50:ACE_ECF_25-ACE-ECF-CPP-V1.2/Algorithm/user_maths/cpp_files/user_maths.cpp ****  *功能：正负循环限制（16位）
  51:ACE_ECF_25-ACE-ECF-CPP-V1.2/Algorithm/user_maths/cpp_files/user_maths.cpp ****  *传入：1.输入值  2.限制幅度(正数)
  52:ACE_ECF_25-ACE-ECF-CPP-V1.2/Algorithm/user_maths/cpp_files/user_maths.cpp ****  *传出：限幅输出值
  53:ACE_ECF_25-ACE-ECF-CPP-V1.2/Algorithm/user_maths/cpp_files/user_maths.cpp ****  *描述：将输入值限制在 +-限制幅度 的范围内
  54:ACE_ECF_25-ACE-ECF-CPP-V1.2/Algorithm/user_maths/cpp_files/user_maths.cpp ****  */
  55:ACE_ECF_25-ACE-ECF-CPP-V1.2/Algorithm/user_maths/cpp_files/user_maths.cpp **** int16_t user_maths_c::loop_restriction_int16(int16_t num, int16_t limit_num)
  56:ACE_ECF_25-ACE-ECF-CPP-V1.2/Algorithm/user_maths/cpp_files/user_maths.cpp **** {
 1366              		.loc 1 56 1
 1367              		.cfi_startproc
 1368              		@ args = 0, pretend = 0, frame = 8
 1369              		@ frame_needed = 1, uses_anonymous_args = 0
ARM GAS  C:\Users\30806\AppData\Local\Temp\ccYcD1nI.s 			page 26


 1370              		@ link register save eliminated.
 1371 0000 80B4     		push	{r7}	@
 1372              	.LCFI18:
 1373              		.cfi_def_cfa_offset 4
 1374              		.cfi_offset 7, -4
 1375 0002 83B0     		sub	sp, sp, #12	@,,
 1376              	.LCFI19:
 1377              		.cfi_def_cfa_offset 16
 1378 0004 00AF     		add	r7, sp, #0	@,,
 1379              	.LCFI20:
 1380              		.cfi_def_cfa_register 7
 1381 0006 7860     		str	r0, [r7, #4]	@ this, this
 1382 0008 0B46     		mov	r3, r1	@ tmp124, num
 1383 000a 7B80     		strh	r3, [r7, #2]	@ movhi	@ tmp125, num
 1384 000c 1346     		mov	r3, r2	@ movhi	@ tmp127, tmp126
 1385 000e 3B80     		strh	r3, [r7]	@ movhi	@ tmp127, limit_num
 1386              	@ ACE_ECF_25-ACE-ECF-CPP-V1.2/Algorithm/user_maths/cpp_files/user_maths.cpp:57:     if (user_abs(nu
  57:ACE_ECF_25-ACE-ECF-CPP-V1.2/Algorithm/user_maths/cpp_files/user_maths.cpp ****     if (user_abs(num) > limit_num)
 1387              		.loc 1 57 9
 1388 0010 B7F90230 		ldrsh	r3, [r7, #2]	@ tmp128, num
 1389 0014 002B     		cmp	r3, #0	@ tmp129,
 1390 0016 B8BF     		it	lt
 1391 0018 5B42     		rsblt	r3, r3, #0	@ tmp129, tmp128,
 1392 001a 9BB2     		uxth	r3, r3	@ _1, tmp129
 1393 001c 1A46     		mov	r2, r3	@ _2, _1
 1394              	@ ACE_ECF_25-ACE-ECF-CPP-V1.2/Algorithm/user_maths/cpp_files/user_maths.cpp:57:     if (user_abs(nu
 1395              		.loc 1 57 25
 1396 001e B7F90030 		ldrsh	r3, [r7]	@ _3, limit_num
 1397              	@ ACE_ECF_25-ACE-ECF-CPP-V1.2/Algorithm/user_maths/cpp_files/user_maths.cpp:57:     if (user_abs(nu
 1398              		.loc 1 57 5
 1399 0022 9A42     		cmp	r2, r3	@ _2, _3
 1400 0024 0EDD     		ble	.L24		@,
 1401              	@ ACE_ECF_25-ACE-ECF-CPP-V1.2/Algorithm/user_maths/cpp_files/user_maths.cpp:59:         if (num >= 
  58:ACE_ECF_25-ACE-ECF-CPP-V1.2/Algorithm/user_maths/cpp_files/user_maths.cpp ****     {
  59:ACE_ECF_25-ACE-ECF-CPP-V1.2/Algorithm/user_maths/cpp_files/user_maths.cpp ****         if (num >= 0)
 1402              		.loc 1 59 9
 1403 0026 B7F90230 		ldrsh	r3, [r7, #2]	@ tmp132, num
 1404 002a 002B     		cmp	r3, #0	@ tmp132,
 1405 002c 05DB     		blt	.L25		@,
 1406              	@ ACE_ECF_25-ACE-ECF-CPP-V1.2/Algorithm/user_maths/cpp_files/user_maths.cpp:60:             num -= 
  60:ACE_ECF_25-ACE-ECF-CPP-V1.2/Algorithm/user_maths/cpp_files/user_maths.cpp ****             num -= limit_num;
 1407              		.loc 1 60 17
 1408 002e 7A88     		ldrh	r2, [r7, #2]	@ num.8_4, num
 1409 0030 3B88     		ldrh	r3, [r7]	@ limit_num.9_5, limit_num
 1410 0032 D31A     		subs	r3, r2, r3	@ tmp133, num.8_4, limit_num.9_5
 1411 0034 9BB2     		uxth	r3, r3	@ _6, tmp133
 1412 0036 7B80     		strh	r3, [r7, #2]	@ movhi	@ tmp134, num
 1413 0038 04E0     		b	.L24		@
 1414              	.L25:
 1415              	@ ACE_ECF_25-ACE-ECF-CPP-V1.2/Algorithm/user_maths/cpp_files/user_maths.cpp:62:             num += 
  61:ACE_ECF_25-ACE-ECF-CPP-V1.2/Algorithm/user_maths/cpp_files/user_maths.cpp ****         else
  62:ACE_ECF_25-ACE-ECF-CPP-V1.2/Algorithm/user_maths/cpp_files/user_maths.cpp ****             num += limit_num;
 1416              		.loc 1 62 17
 1417 003a 7A88     		ldrh	r2, [r7, #2]	@ num.10_7, num
 1418 003c 3B88     		ldrh	r3, [r7]	@ limit_num.11_8, limit_num
 1419 003e 1344     		add	r3, r3, r2	@ tmp135, num.10_7
 1420 0040 9BB2     		uxth	r3, r3	@ _9, tmp135
ARM GAS  C:\Users\30806\AppData\Local\Temp\ccYcD1nI.s 			page 27


 1421 0042 7B80     		strh	r3, [r7, #2]	@ movhi	@ tmp136, num
 1422              	.L24:
 1423              	@ ACE_ECF_25-ACE-ECF-CPP-V1.2/Algorithm/user_maths/cpp_files/user_maths.cpp:64:     return num;
  63:ACE_ECF_25-ACE-ECF-CPP-V1.2/Algorithm/user_maths/cpp_files/user_maths.cpp ****     }
  64:ACE_ECF_25-ACE-ECF-CPP-V1.2/Algorithm/user_maths/cpp_files/user_maths.cpp ****     return num;
 1424              		.loc 1 64 12
 1425 0044 B7F90230 		ldrsh	r3, [r7, #2]	@ _15, num
 1426              	@ ACE_ECF_25-ACE-ECF-CPP-V1.2/Algorithm/user_maths/cpp_files/user_maths.cpp:65: }
  65:ACE_ECF_25-ACE-ECF-CPP-V1.2/Algorithm/user_maths/cpp_files/user_maths.cpp **** }
 1427              		.loc 1 65 1
 1428 0048 1846     		mov	r0, r3	@, <retval>
 1429 004a 0C37     		adds	r7, r7, #12	@,,
 1430              	.LCFI21:
 1431              		.cfi_def_cfa_offset 4
 1432 004c BD46     		mov	sp, r7	@,
 1433              	.LCFI22:
 1434              		.cfi_def_cfa_register 13
 1435              		@ sp needed	@
 1436 004e 5DF8047B 		ldr	r7, [sp], #4	@,
 1437              	.LCFI23:
 1438              		.cfi_restore 7
 1439              		.cfi_def_cfa_offset 0
 1440 0052 7047     		bx	lr	@
 1441              		.cfi_endproc
 1442              	.LFE377:
 1443              		.size	_ZN12user_maths_c22loop_restriction_int16Ess, .-_ZN12user_maths_c22loop_restriction_int16Ess
 1444              		.section	.text._ZN12user_maths_c22loop_restriction_floatEff,"ax",%progbits
 1445              		.align	1
 1446              		.global	_ZN12user_maths_c22loop_restriction_floatEff
 1447              		.syntax unified
 1448              		.thumb
 1449              		.thumb_func
 1450              		.type	_ZN12user_maths_c22loop_restriction_floatEff, %function
 1451              	_ZN12user_maths_c22loop_restriction_floatEff:
 1452              	.LFB378:
  66:ACE_ECF_25-ACE-ECF-CPP-V1.2/Algorithm/user_maths/cpp_files/user_maths.cpp **** 
  67:ACE_ECF_25-ACE-ECF-CPP-V1.2/Algorithm/user_maths/cpp_files/user_maths.cpp **** /*
  68:ACE_ECF_25-ACE-ECF-CPP-V1.2/Algorithm/user_maths/cpp_files/user_maths.cpp ****  *功能：正负循环限制（float）
  69:ACE_ECF_25-ACE-ECF-CPP-V1.2/Algorithm/user_maths/cpp_files/user_maths.cpp ****  *传入：1.输入值  2.限制幅度(正数)
  70:ACE_ECF_25-ACE-ECF-CPP-V1.2/Algorithm/user_maths/cpp_files/user_maths.cpp ****  *传出：限幅输出值
  71:ACE_ECF_25-ACE-ECF-CPP-V1.2/Algorithm/user_maths/cpp_files/user_maths.cpp ****  *描述：将输入值限制在 +-限制幅度 的范围内
  72:ACE_ECF_25-ACE-ECF-CPP-V1.2/Algorithm/user_maths/cpp_files/user_maths.cpp ****  */
  73:ACE_ECF_25-ACE-ECF-CPP-V1.2/Algorithm/user_maths/cpp_files/user_maths.cpp **** float user_maths_c::loop_restriction_float(float num, float limit_num)
  74:ACE_ECF_25-ACE-ECF-CPP-V1.2/Algorithm/user_maths/cpp_files/user_maths.cpp **** {
 1453              		.loc 1 74 1
 1454              		.cfi_startproc
 1455              		@ args = 0, pretend = 0, frame = 16
 1456              		@ frame_needed = 1, uses_anonymous_args = 0
 1457              		@ link register save eliminated.
 1458 0000 80B4     		push	{r7}	@
 1459              	.LCFI24:
 1460              		.cfi_def_cfa_offset 4
 1461              		.cfi_offset 7, -4
 1462 0002 85B0     		sub	sp, sp, #20	@,,
 1463              	.LCFI25:
 1464              		.cfi_def_cfa_offset 24
 1465 0004 00AF     		add	r7, sp, #0	@,,
ARM GAS  C:\Users\30806\AppData\Local\Temp\ccYcD1nI.s 			page 28


 1466              	.LCFI26:
 1467              		.cfi_def_cfa_register 7
 1468 0006 F860     		str	r0, [r7, #12]	@ this, this
 1469 0008 87ED020A 		vstr.32	s0, [r7, #8]	@ num, num
 1470 000c C7ED010A 		vstr.32	s1, [r7, #4]	@ limit_num, limit_num
 1471              	@ ACE_ECF_25-ACE-ECF-CPP-V1.2/Algorithm/user_maths/cpp_files/user_maths.cpp:75:     if (user_abs(nu
  75:ACE_ECF_25-ACE-ECF-CPP-V1.2/Algorithm/user_maths/cpp_files/user_maths.cpp ****     if (user_abs(num) > limit_num)
 1472              		.loc 1 75 9
 1473 0010 D7ED027A 		vldr.32	s15, [r7, #8]	@ tmp116, num
 1474 0014 F5EEC07A 		vcmpe.f32	s15, #0	@ tmp116
 1475 0018 F1EE10FA 		vmrs	APSR_nzcv, FPSCR
 1476 001c 02DD     		ble	.L39		@,
 1477              	@ ACE_ECF_25-ACE-ECF-CPP-V1.2/Algorithm/user_maths/cpp_files/user_maths.cpp:75:     if (user_abs(nu
 1478              		.loc 1 75 9 is_stmt 0 discriminator 1
 1479 001e D7ED027A 		vldr.32	s15, [r7, #8]	@ iftmp.12_2, num
 1480 0022 03E0     		b	.L30		@
 1481              	.L39:
 1482              	@ ACE_ECF_25-ACE-ECF-CPP-V1.2/Algorithm/user_maths/cpp_files/user_maths.cpp:75:     if (user_abs(nu
 1483              		.loc 1 75 9 discriminator 2
 1484 0024 D7ED027A 		vldr.32	s15, [r7, #8]	@ tmp117, num
 1485 0028 F1EE677A 		vneg.f32	s15, s15	@ iftmp.12_2, tmp117
 1486              	.L30:
 1487              	@ ACE_ECF_25-ACE-ECF-CPP-V1.2/Algorithm/user_maths/cpp_files/user_maths.cpp:75:     if (user_abs(nu
 1488              		.loc 1 75 5 is_stmt 1 discriminator 4
 1489 002c 97ED017A 		vldr.32	s14, [r7, #4]	@ tmp118, limit_num
 1490 0030 F4EEC77A 		vcmpe.f32	s15, s14	@ iftmp.12_2, tmp118
 1491 0034 F1EE10FA 		vmrs	APSR_nzcv, FPSCR
 1492 0038 17DD     		ble	.L31		@,
 1493              	@ ACE_ECF_25-ACE-ECF-CPP-V1.2/Algorithm/user_maths/cpp_files/user_maths.cpp:77:         if (num >= 
  76:ACE_ECF_25-ACE-ECF-CPP-V1.2/Algorithm/user_maths/cpp_files/user_maths.cpp ****     {
  77:ACE_ECF_25-ACE-ECF-CPP-V1.2/Algorithm/user_maths/cpp_files/user_maths.cpp ****         if (num >= 0)
 1494              		.loc 1 77 9
 1495 003a D7ED027A 		vldr.32	s15, [r7, #8]	@ tmp119, num
 1496 003e F5EEC07A 		vcmpe.f32	s15, #0	@ tmp119
 1497 0042 F1EE10FA 		vmrs	APSR_nzcv, FPSCR
 1498 0046 08DB     		blt	.L40		@,
 1499              	@ ACE_ECF_25-ACE-ECF-CPP-V1.2/Algorithm/user_maths/cpp_files/user_maths.cpp:78:             num -= 
  78:ACE_ECF_25-ACE-ECF-CPP-V1.2/Algorithm/user_maths/cpp_files/user_maths.cpp ****             num -= limit_num;
 1500              		.loc 1 78 17
 1501 0048 97ED027A 		vldr.32	s14, [r7, #8]	@ tmp121, num
 1502 004c D7ED017A 		vldr.32	s15, [r7, #4]	@ tmp122, limit_num
 1503 0050 77EE677A 		vsub.f32	s15, s14, s15	@ tmp120, tmp121, tmp122
 1504 0054 C7ED027A 		vstr.32	s15, [r7, #8]	@ tmp120, num
 1505 0058 07E0     		b	.L31		@
 1506              	.L40:
 1507              	@ ACE_ECF_25-ACE-ECF-CPP-V1.2/Algorithm/user_maths/cpp_files/user_maths.cpp:80:             num += 
  79:ACE_ECF_25-ACE-ECF-CPP-V1.2/Algorithm/user_maths/cpp_files/user_maths.cpp ****         else
  80:ACE_ECF_25-ACE-ECF-CPP-V1.2/Algorithm/user_maths/cpp_files/user_maths.cpp ****             num += limit_num;
 1508              		.loc 1 80 17
 1509 005a 97ED027A 		vldr.32	s14, [r7, #8]	@ tmp124, num
 1510 005e D7ED017A 		vldr.32	s15, [r7, #4]	@ tmp125, limit_num
 1511 0062 77EE277A 		vadd.f32	s15, s14, s15	@ tmp123, tmp124, tmp125
 1512 0066 C7ED027A 		vstr.32	s15, [r7, #8]	@ tmp123, num
 1513              	.L31:
 1514              	@ ACE_ECF_25-ACE-ECF-CPP-V1.2/Algorithm/user_maths/cpp_files/user_maths.cpp:82:     return num;
  81:ACE_ECF_25-ACE-ECF-CPP-V1.2/Algorithm/user_maths/cpp_files/user_maths.cpp ****     }
  82:ACE_ECF_25-ACE-ECF-CPP-V1.2/Algorithm/user_maths/cpp_files/user_maths.cpp ****     return num;
ARM GAS  C:\Users\30806\AppData\Local\Temp\ccYcD1nI.s 			page 29


 1515              		.loc 1 82 12
 1516 006a BB68     		ldr	r3, [r7, #8]	@ float	@ _9, num
 1517 006c 07EE903A 		vmov	s15, r3	@ <retval>, _9
 1518              	@ ACE_ECF_25-ACE-ECF-CPP-V1.2/Algorithm/user_maths/cpp_files/user_maths.cpp:83: }
  83:ACE_ECF_25-ACE-ECF-CPP-V1.2/Algorithm/user_maths/cpp_files/user_maths.cpp **** }
 1519              		.loc 1 83 1
 1520 0070 B0EE670A 		vmov.f32	s0, s15	@, <retval>
 1521 0074 1437     		adds	r7, r7, #20	@,,
 1522              	.LCFI27:
 1523              		.cfi_def_cfa_offset 4
 1524 0076 BD46     		mov	sp, r7	@,
 1525              	.LCFI28:
 1526              		.cfi_def_cfa_register 13
 1527              		@ sp needed	@
 1528 0078 5DF8047B 		ldr	r7, [sp], #4	@,
 1529              	.LCFI29:
 1530              		.cfi_restore 7
 1531              		.cfi_def_cfa_offset 0
 1532 007c 7047     		bx	lr	@
 1533              		.cfi_endproc
 1534              	.LFE378:
 1535              		.size	_ZN12user_maths_c22loop_restriction_floatEff, .-_ZN12user_maths_c22loop_restriction_floatEff
 1536              		.section	.text._ZN12user_maths_c19loop_fp32_constrainEfff,"ax",%progbits
 1537              		.align	1
 1538              		.global	_ZN12user_maths_c19loop_fp32_constrainEfff
 1539              		.syntax unified
 1540              		.thumb
 1541              		.thumb_func
 1542              		.type	_ZN12user_maths_c19loop_fp32_constrainEfff, %function
 1543              	_ZN12user_maths_c19loop_fp32_constrainEfff:
 1544              	.LFB379:
  84:ACE_ECF_25-ACE-ECF-CPP-V1.2/Algorithm/user_maths/cpp_files/user_maths.cpp **** 
  85:ACE_ECF_25-ACE-ECF-CPP-V1.2/Algorithm/user_maths/cpp_files/user_maths.cpp **** /*循环限幅32*/
  86:ACE_ECF_25-ACE-ECF-CPP-V1.2/Algorithm/user_maths/cpp_files/user_maths.cpp **** float user_maths_c::loop_fp32_constrain(float Input, float minValue, float maxValue)
  87:ACE_ECF_25-ACE-ECF-CPP-V1.2/Algorithm/user_maths/cpp_files/user_maths.cpp **** {
 1545              		.loc 1 87 1
 1546              		.cfi_startproc
 1547              		@ args = 0, pretend = 0, frame = 24
 1548              		@ frame_needed = 1, uses_anonymous_args = 0
 1549              		@ link register save eliminated.
 1550 0000 80B4     		push	{r7}	@
 1551              	.LCFI30:
 1552              		.cfi_def_cfa_offset 4
 1553              		.cfi_offset 7, -4
 1554 0002 87B0     		sub	sp, sp, #28	@,,
 1555              	.LCFI31:
 1556              		.cfi_def_cfa_offset 32
 1557 0004 00AF     		add	r7, sp, #0	@,,
 1558              	.LCFI32:
 1559              		.cfi_def_cfa_register 7
 1560 0006 F860     		str	r0, [r7, #12]	@ this, this
 1561 0008 87ED020A 		vstr.32	s0, [r7, #8]	@ Input, Input
 1562 000c C7ED010A 		vstr.32	s1, [r7, #4]	@ minValue, minValue
 1563 0010 87ED001A 		vstr.32	s2, [r7]	@ maxValue, maxValue
 1564              	@ ACE_ECF_25-ACE-ECF-CPP-V1.2/Algorithm/user_maths/cpp_files/user_maths.cpp:88:     if (maxValue < 
  88:ACE_ECF_25-ACE-ECF-CPP-V1.2/Algorithm/user_maths/cpp_files/user_maths.cpp ****     if (maxValue < minValue)
 1565              		.loc 1 88 5
ARM GAS  C:\Users\30806\AppData\Local\Temp\ccYcD1nI.s 			page 30


 1566 0014 97ED007A 		vldr.32	s14, [r7]	@ tmp115, maxValue
 1567 0018 D7ED017A 		vldr.32	s15, [r7, #4]	@ tmp116, minValue
 1568 001c B4EEE77A 		vcmpe.f32	s14, s15	@ tmp115, tmp116
 1569 0020 F1EE10FA 		vmrs	APSR_nzcv, FPSCR
 1570 0024 01D5     		bpl	.L58		@,
 1571              	@ ACE_ECF_25-ACE-ECF-CPP-V1.2/Algorithm/user_maths/cpp_files/user_maths.cpp:90:         return Inpu
  89:ACE_ECF_25-ACE-ECF-CPP-V1.2/Algorithm/user_maths/cpp_files/user_maths.cpp ****     {
  90:ACE_ECF_25-ACE-ECF-CPP-V1.2/Algorithm/user_maths/cpp_files/user_maths.cpp ****         return Input;
 1572              		.loc 1 90 16
 1573 0026 BB68     		ldr	r3, [r7, #8]	@ float	@ _4, Input
 1574 0028 46E0     		b	.L44		@
 1575              	.L58:
 1576              	.LBB2:
 1577              	@ ACE_ECF_25-ACE-ECF-CPP-V1.2/Algorithm/user_maths/cpp_files/user_maths.cpp:93:     if (Input > max
  91:ACE_ECF_25-ACE-ECF-CPP-V1.2/Algorithm/user_maths/cpp_files/user_maths.cpp ****     }
  92:ACE_ECF_25-ACE-ECF-CPP-V1.2/Algorithm/user_maths/cpp_files/user_maths.cpp **** 
  93:ACE_ECF_25-ACE-ECF-CPP-V1.2/Algorithm/user_maths/cpp_files/user_maths.cpp ****     if (Input > maxValue)
 1578              		.loc 1 93 5
 1579 002a 97ED027A 		vldr.32	s14, [r7, #8]	@ tmp117, Input
 1580 002e D7ED007A 		vldr.32	s15, [r7]	@ tmp118, maxValue
 1581 0032 B4EEE77A 		vcmpe.f32	s14, s15	@ tmp117, tmp118
 1582 0036 F1EE10FA 		vmrs	APSR_nzcv, FPSCR
 1583 003a 19DD     		ble	.L59		@,
 1584              	.LBB3:
 1585              	@ ACE_ECF_25-ACE-ECF-CPP-V1.2/Algorithm/user_maths/cpp_files/user_maths.cpp:95:         float len =
  94:ACE_ECF_25-ACE-ECF-CPP-V1.2/Algorithm/user_maths/cpp_files/user_maths.cpp ****     {
  95:ACE_ECF_25-ACE-ECF-CPP-V1.2/Algorithm/user_maths/cpp_files/user_maths.cpp ****         float len = maxValue - minValue;
 1586              		.loc 1 95 15
 1587 003c 97ED007A 		vldr.32	s14, [r7]	@ tmp120, maxValue
 1588 0040 D7ED017A 		vldr.32	s15, [r7, #4]	@ tmp121, minValue
 1589 0044 77EE677A 		vsub.f32	s15, s14, s15	@ tmp119, tmp120, tmp121
 1590 0048 C7ED047A 		vstr.32	s15, [r7, #16]	@ tmp119, len
 1591              	.L49:
 1592              	@ ACE_ECF_25-ACE-ECF-CPP-V1.2/Algorithm/user_maths/cpp_files/user_maths.cpp:96:         while (Inpu
  96:ACE_ECF_25-ACE-ECF-CPP-V1.2/Algorithm/user_maths/cpp_files/user_maths.cpp ****         while (Input > maxValue)
 1593              		.loc 1 96 22
 1594 004c 97ED027A 		vldr.32	s14, [r7, #8]	@ tmp122, Input
 1595 0050 D7ED007A 		vldr.32	s15, [r7]	@ tmp123, maxValue
 1596 0054 B4EEE77A 		vcmpe.f32	s14, s15	@ tmp122, tmp123
 1597 0058 F1EE10FA 		vmrs	APSR_nzcv, FPSCR
 1598 005c 2BDD     		ble	.L47		@,
 1599              	@ ACE_ECF_25-ACE-ECF-CPP-V1.2/Algorithm/user_maths/cpp_files/user_maths.cpp:98:             Input -
  97:ACE_ECF_25-ACE-ECF-CPP-V1.2/Algorithm/user_maths/cpp_files/user_maths.cpp ****         {
  98:ACE_ECF_25-ACE-ECF-CPP-V1.2/Algorithm/user_maths/cpp_files/user_maths.cpp ****             Input -= len;
 1600              		.loc 1 98 19
 1601 005e 97ED027A 		vldr.32	s14, [r7, #8]	@ tmp125, Input
 1602 0062 D7ED047A 		vldr.32	s15, [r7, #16]	@ tmp126, len
 1603 0066 77EE677A 		vsub.f32	s15, s14, s15	@ tmp124, tmp125, tmp126
 1604 006a C7ED027A 		vstr.32	s15, [r7, #8]	@ tmp124, Input
 1605              	@ ACE_ECF_25-ACE-ECF-CPP-V1.2/Algorithm/user_maths/cpp_files/user_maths.cpp:96:         while (Inpu
  96:ACE_ECF_25-ACE-ECF-CPP-V1.2/Algorithm/user_maths/cpp_files/user_maths.cpp ****         while (Input > maxValue)
 1606              		.loc 1 96 9
 1607 006e EDE7     		b	.L49		@
 1608              	.L59:
 1609              	.LBE3:
 1610              	.LBB4:
 1611              	.LBB5:
ARM GAS  C:\Users\30806\AppData\Local\Temp\ccYcD1nI.s 			page 31


 1612              	@ ACE_ECF_25-ACE-ECF-CPP-V1.2/Algorithm/user_maths/cpp_files/user_maths.cpp:101:     else if (Input
  99:ACE_ECF_25-ACE-ECF-CPP-V1.2/Algorithm/user_maths/cpp_files/user_maths.cpp ****         }
 100:ACE_ECF_25-ACE-ECF-CPP-V1.2/Algorithm/user_maths/cpp_files/user_maths.cpp ****     }
 101:ACE_ECF_25-ACE-ECF-CPP-V1.2/Algorithm/user_maths/cpp_files/user_maths.cpp ****     else if (Input < minValue)
 1613              		.loc 1 101 10
 1614 0070 97ED027A 		vldr.32	s14, [r7, #8]	@ tmp127, Input
 1615 0074 D7ED017A 		vldr.32	s15, [r7, #4]	@ tmp128, minValue
 1616 0078 B4EEE77A 		vcmpe.f32	s14, s15	@ tmp127, tmp128
 1617 007c F1EE10FA 		vmrs	APSR_nzcv, FPSCR
 1618 0080 19D5     		bpl	.L47		@,
 1619              	.LBB6:
 1620              	@ ACE_ECF_25-ACE-ECF-CPP-V1.2/Algorithm/user_maths/cpp_files/user_maths.cpp:103:         float len 
 102:ACE_ECF_25-ACE-ECF-CPP-V1.2/Algorithm/user_maths/cpp_files/user_maths.cpp ****     {
 103:ACE_ECF_25-ACE-ECF-CPP-V1.2/Algorithm/user_maths/cpp_files/user_maths.cpp ****         float len = maxValue - minValue;
 1621              		.loc 1 103 15
 1622 0082 97ED007A 		vldr.32	s14, [r7]	@ tmp130, maxValue
 1623 0086 D7ED017A 		vldr.32	s15, [r7, #4]	@ tmp131, minValue
 1624 008a 77EE677A 		vsub.f32	s15, s14, s15	@ tmp129, tmp130, tmp131
 1625 008e C7ED057A 		vstr.32	s15, [r7, #20]	@ tmp129, len
 1626              	.L52:
 1627              	@ ACE_ECF_25-ACE-ECF-CPP-V1.2/Algorithm/user_maths/cpp_files/user_maths.cpp:104:         while (Inp
 104:ACE_ECF_25-ACE-ECF-CPP-V1.2/Algorithm/user_maths/cpp_files/user_maths.cpp ****         while (Input < minValue)
 1628              		.loc 1 104 22
 1629 0092 97ED027A 		vldr.32	s14, [r7, #8]	@ tmp132, Input
 1630 0096 D7ED017A 		vldr.32	s15, [r7, #4]	@ tmp133, minValue
 1631 009a B4EEE77A 		vcmpe.f32	s14, s15	@ tmp132, tmp133
 1632 009e F1EE10FA 		vmrs	APSR_nzcv, FPSCR
 1633 00a2 08D5     		bpl	.L47		@,
 1634              	@ ACE_ECF_25-ACE-ECF-CPP-V1.2/Algorithm/user_maths/cpp_files/user_maths.cpp:106:             Input 
 105:ACE_ECF_25-ACE-ECF-CPP-V1.2/Algorithm/user_maths/cpp_files/user_maths.cpp ****         {
 106:ACE_ECF_25-ACE-ECF-CPP-V1.2/Algorithm/user_maths/cpp_files/user_maths.cpp ****             Input += len;
 1635              		.loc 1 106 19
 1636 00a4 97ED027A 		vldr.32	s14, [r7, #8]	@ tmp135, Input
 1637 00a8 D7ED057A 		vldr.32	s15, [r7, #20]	@ tmp136, len
 1638 00ac 77EE277A 		vadd.f32	s15, s14, s15	@ tmp134, tmp135, tmp136
 1639 00b0 C7ED027A 		vstr.32	s15, [r7, #8]	@ tmp134, Input
 1640              	@ ACE_ECF_25-ACE-ECF-CPP-V1.2/Algorithm/user_maths/cpp_files/user_maths.cpp:104:         while (Inp
 104:ACE_ECF_25-ACE-ECF-CPP-V1.2/Algorithm/user_maths/cpp_files/user_maths.cpp ****         while (Input < minValue)
 1641              		.loc 1 104 9
 1642 00b4 EDE7     		b	.L52		@
 1643              	.L47:
 1644              	.LBE6:
 1645              	.LBE5:
 1646              	.LBE4:
 1647              	.LBE2:
 1648              	@ ACE_ECF_25-ACE-ECF-CPP-V1.2/Algorithm/user_maths/cpp_files/user_maths.cpp:109:     return Input;
 107:ACE_ECF_25-ACE-ECF-CPP-V1.2/Algorithm/user_maths/cpp_files/user_maths.cpp ****         }
 108:ACE_ECF_25-ACE-ECF-CPP-V1.2/Algorithm/user_maths/cpp_files/user_maths.cpp ****     }
 109:ACE_ECF_25-ACE-ECF-CPP-V1.2/Algorithm/user_maths/cpp_files/user_maths.cpp ****     return Input;
 1649              		.loc 1 109 12
 1650 00b6 BB68     		ldr	r3, [r7, #8]	@ float	@ _4, Input
 1651              	.L44:
 1652              	@ ACE_ECF_25-ACE-ECF-CPP-V1.2/Algorithm/user_maths/cpp_files/user_maths.cpp:110: }
 110:ACE_ECF_25-ACE-ECF-CPP-V1.2/Algorithm/user_maths/cpp_files/user_maths.cpp **** }
 1653              		.loc 1 110 1
 1654 00b8 07EE903A 		vmov	s15, r3	@ <retval>, _4
 1655 00bc B0EE670A 		vmov.f32	s0, s15	@, <retval>
ARM GAS  C:\Users\30806\AppData\Local\Temp\ccYcD1nI.s 			page 32


 1656 00c0 1C37     		adds	r7, r7, #28	@,,
 1657              	.LCFI33:
 1658              		.cfi_def_cfa_offset 4
 1659 00c2 BD46     		mov	sp, r7	@,
 1660              	.LCFI34:
 1661              		.cfi_def_cfa_register 13
 1662              		@ sp needed	@
 1663 00c4 5DF8047B 		ldr	r7, [sp], #4	@,
 1664              	.LCFI35:
 1665              		.cfi_restore 7
 1666              		.cfi_def_cfa_offset 0
 1667 00c8 7047     		bx	lr	@
 1668              		.cfi_endproc
 1669              	.LFE379:
 1670              		.size	_ZN12user_maths_c19loop_fp32_constrainEfff, .-_ZN12user_maths_c19loop_fp32_constrainEfff
 1671              		.section	.bss._ZZN12user_maths_c24data_accelerated_controlEPffE8last_num,"aw",%nobits
 1672              		.align	1
 1673              		.type	_ZZN12user_maths_c24data_accelerated_controlEPffE8last_num, %object
 1674              		.size	_ZZN12user_maths_c24data_accelerated_controlEPffE8last_num, 2
 1675              	_ZZN12user_maths_c24data_accelerated_controlEPffE8last_num:
 1676 0000 0000     		.space	2
 1677              		.section	.text._ZN12user_maths_c24data_accelerated_controlEPff,"ax",%progbits
 1678              		.align	1
 1679              		.global	_ZN12user_maths_c24data_accelerated_controlEPff
 1680              		.syntax unified
 1681              		.thumb
 1682              		.thumb_func
 1683              		.type	_ZN12user_maths_c24data_accelerated_controlEPff, %function
 1684              	_ZN12user_maths_c24data_accelerated_controlEPff:
 1685              	.LFB380:
 111:ACE_ECF_25-ACE-ECF-CPP-V1.2/Algorithm/user_maths/cpp_files/user_maths.cpp **** 
 112:ACE_ECF_25-ACE-ECF-CPP-V1.2/Algorithm/user_maths/cpp_files/user_maths.cpp **** //斜坡函数(加速度限制)
 113:ACE_ECF_25-ACE-ECF-CPP-V1.2/Algorithm/user_maths/cpp_files/user_maths.cpp **** void user_maths_c::data_accelerated_control(float *input, float acc)
 114:ACE_ECF_25-ACE-ECF-CPP-V1.2/Algorithm/user_maths/cpp_files/user_maths.cpp **** {
 1686              		.loc 1 114 1
 1687              		.cfi_startproc
 1688              		@ args = 0, pretend = 0, frame = 24
 1689              		@ frame_needed = 1, uses_anonymous_args = 0
 1690              		@ link register save eliminated.
 1691 0000 80B4     		push	{r7}	@
 1692              	.LCFI36:
 1693              		.cfi_def_cfa_offset 4
 1694              		.cfi_offset 7, -4
 1695 0002 87B0     		sub	sp, sp, #28	@,,
 1696              	.LCFI37:
 1697              		.cfi_def_cfa_offset 32
 1698 0004 00AF     		add	r7, sp, #0	@,,
 1699              	.LCFI38:
 1700              		.cfi_def_cfa_register 7
 1701 0006 F860     		str	r0, [r7, #12]	@ this, this
 1702 0008 B960     		str	r1, [r7, #8]	@ input, input
 1703 000a 87ED010A 		vstr.32	s0, [r7, #4]	@ acc, acc
 1704              	@ ACE_ECF_25-ACE-ECF-CPP-V1.2/Algorithm/user_maths/cpp_files/user_maths.cpp:117:     temp = *input 
 115:ACE_ECF_25-ACE-ECF-CPP-V1.2/Algorithm/user_maths/cpp_files/user_maths.cpp ****     static int16_t last_num = 0;
 116:ACE_ECF_25-ACE-ECF-CPP-V1.2/Algorithm/user_maths/cpp_files/user_maths.cpp ****     int16_t temp;
 117:ACE_ECF_25-ACE-ECF-CPP-V1.2/Algorithm/user_maths/cpp_files/user_maths.cpp ****     temp = *input - last_num;
 1705              		.loc 1 117 12
ARM GAS  C:\Users\30806\AppData\Local\Temp\ccYcD1nI.s 			page 33


 1706 000e BB68     		ldr	r3, [r7, #8]	@ tmp131, input
 1707 0010 93ED007A 		vldr.32	s14, [r3]	@ _1, *input_21(D)
 1708              	@ ACE_ECF_25-ACE-ECF-CPP-V1.2/Algorithm/user_maths/cpp_files/user_maths.cpp:117:     temp = *input 
 1709              		.loc 1 117 19
 1710 0014 264B     		ldr	r3, .L64	@ tmp132,
 1711 0016 B3F90030 		ldrsh	r3, [r3]	@ last_num.13_2, last_num
 1712 001a 07EE903A 		vmov	s15, r3	@ int	@ last_num.13_2, last_num.13_2
 1713 001e F8EEE77A 		vcvt.f32.s32	s15, s15	@ _3, last_num.13_2
 1714 0022 77EE677A 		vsub.f32	s15, s14, s15	@ _4, _1, _3
 1715              	@ ACE_ECF_25-ACE-ECF-CPP-V1.2/Algorithm/user_maths/cpp_files/user_maths.cpp:117:     temp = *input 
 1716              		.loc 1 117 10
 1717 0026 FDEEE77A 		vcvt.s32.f32	s15, s15	@ tmp133, _4
 1718 002a 17EE903A 		vmov	r3, s15	@ int	@ tmp134, tmp133
 1719 002e FB82     		strh	r3, [r7, #22]	@ movhi	@ tmp134, temp
 1720              	@ ACE_ECF_25-ACE-ECF-CPP-V1.2/Algorithm/user_maths/cpp_files/user_maths.cpp:119:     if (user_abs(t
 118:ACE_ECF_25-ACE-ECF-CPP-V1.2/Algorithm/user_maths/cpp_files/user_maths.cpp **** 
 119:ACE_ECF_25-ACE-ECF-CPP-V1.2/Algorithm/user_maths/cpp_files/user_maths.cpp ****     if (user_abs(temp) > acc)
 1721              		.loc 1 119 9
 1722 0030 B7F91630 		ldrsh	r3, [r7, #22]	@ tmp135, temp
 1723 0034 002B     		cmp	r3, #0	@ tmp136,
 1724 0036 B8BF     		it	lt
 1725 0038 5B42     		rsblt	r3, r3, #0	@ tmp136, tmp135,
 1726 003a 9BB2     		uxth	r3, r3	@ _5, tmp136
 1727 003c 07EE903A 		vmov	s15, r3	@ int	@ _6, _5
 1728              	@ ACE_ECF_25-ACE-ECF-CPP-V1.2/Algorithm/user_maths/cpp_files/user_maths.cpp:119:     if (user_abs(t
 1729              		.loc 1 119 24
 1730 0040 F8EEE77A 		vcvt.f32.s32	s15, s15	@ _7, _6
 1731              	@ ACE_ECF_25-ACE-ECF-CPP-V1.2/Algorithm/user_maths/cpp_files/user_maths.cpp:119:     if (user_abs(t
 1732              		.loc 1 119 5
 1733 0044 97ED017A 		vldr.32	s14, [r7, #4]	@ tmp137, acc
 1734 0048 B4EEE77A 		vcmpe.f32	s14, s15	@ tmp137, _7
 1735 004c F1EE10FA 		vmrs	APSR_nzcv, FPSCR
 1736 0050 1DD5     		bpl	.L61		@,
 1737              	@ ACE_ECF_25-ACE-ECF-CPP-V1.2/Algorithm/user_maths/cpp_files/user_maths.cpp:120:         *input = l
 120:ACE_ECF_25-ACE-ECF-CPP-V1.2/Algorithm/user_maths/cpp_files/user_maths.cpp ****         *input = last_num + temp / user_abs(temp) * acc;
 1738              		.loc 1 120 27
 1739 0052 174B     		ldr	r3, .L64	@ tmp138,
 1740 0054 B3F90030 		ldrsh	r3, [r3]	@ last_num.14_8, last_num
 1741 0058 07EE903A 		vmov	s15, r3	@ int	@ last_num.14_8, last_num.14_8
 1742 005c B8EEE77A 		vcvt.f32.s32	s14, s15	@ _9, last_num.14_8
 1743              	@ ACE_ECF_25-ACE-ECF-CPP-V1.2/Algorithm/user_maths/cpp_files/user_maths.cpp:120:         *input = l
 1744              		.loc 1 120 29
 1745 0060 B7F91630 		ldrsh	r3, [r7, #22]	@ _10, temp
 1746              	@ ACE_ECF_25-ACE-ECF-CPP-V1.2/Algorithm/user_maths/cpp_files/user_maths.cpp:120:         *input = l
 1747              		.loc 1 120 36
 1748 0064 B7F91620 		ldrsh	r2, [r7, #22]	@ tmp139, temp
 1749 0068 002A     		cmp	r2, #0	@ tmp140,
 1750 006a B8BF     		it	lt
 1751 006c 5242     		rsblt	r2, r2, #0	@ tmp140, tmp139,
 1752 006e 92B2     		uxth	r2, r2	@ _11, tmp140
 1753              	@ ACE_ECF_25-ACE-ECF-CPP-V1.2/Algorithm/user_maths/cpp_files/user_maths.cpp:120:         *input = l
 1754              		.loc 1 120 34
 1755 0070 93FBF2F3 		sdiv	r3, r3, r2	@ _13, _10, _12
 1756              	@ ACE_ECF_25-ACE-ECF-CPP-V1.2/Algorithm/user_maths/cpp_files/user_maths.cpp:120:         *input = l
 1757              		.loc 1 120 51
 1758 0074 07EE903A 		vmov	s15, r3	@ int	@ _13, _13
 1759 0078 F8EEE76A 		vcvt.f32.s32	s13, s15	@ _14, _13
ARM GAS  C:\Users\30806\AppData\Local\Temp\ccYcD1nI.s 			page 34


 1760 007c D7ED017A 		vldr.32	s15, [r7, #4]	@ tmp141, acc
 1761 0080 66EEA77A 		vmul.f32	s15, s13, s15	@ _15, _14, tmp141
 1762              	@ ACE_ECF_25-ACE-ECF-CPP-V1.2/Algorithm/user_maths/cpp_files/user_maths.cpp:120:         *input = l
 1763              		.loc 1 120 27
 1764 0084 77EE277A 		vadd.f32	s15, s14, s15	@ _16, _9, _15
 1765              	@ ACE_ECF_25-ACE-ECF-CPP-V1.2/Algorithm/user_maths/cpp_files/user_maths.cpp:120:         *input = l
 1766              		.loc 1 120 16
 1767 0088 BB68     		ldr	r3, [r7, #8]	@ tmp142, input
 1768 008a C3ED007A 		vstr.32	s15, [r3]	@ _16, *input_21(D)
 1769              	.L61:
 1770              	@ ACE_ECF_25-ACE-ECF-CPP-V1.2/Algorithm/user_maths/cpp_files/user_maths.cpp:122:     last_num = *in
 121:ACE_ECF_25-ACE-ECF-CPP-V1.2/Algorithm/user_maths/cpp_files/user_maths.cpp **** 
 122:ACE_ECF_25-ACE-ECF-CPP-V1.2/Algorithm/user_maths/cpp_files/user_maths.cpp ****     last_num = *input;
 1771              		.loc 1 122 16
 1772 008e BB68     		ldr	r3, [r7, #8]	@ tmp143, input
 1773 0090 D3ED007A 		vldr.32	s15, [r3]	@ _17, *input_21(D)
 1774              	@ ACE_ECF_25-ACE-ECF-CPP-V1.2/Algorithm/user_maths/cpp_files/user_maths.cpp:122:     last_num = *in
 1775              		.loc 1 122 14
 1776 0094 FDEEE77A 		vcvt.s32.f32	s15, s15	@ tmp145, _17
 1777 0098 17EE903A 		vmov	r3, s15	@ int	@ tmp144, tmp145
 1778 009c 1AB2     		sxth	r2, r3	@ _18, tmp144
 1779 009e 044B     		ldr	r3, .L64	@ tmp146,
 1780 00a0 1A80     		strh	r2, [r3]	@ movhi	@ tmp147, last_num
 1781              	@ ACE_ECF_25-ACE-ECF-CPP-V1.2/Algorithm/user_maths/cpp_files/user_maths.cpp:123: }
 123:ACE_ECF_25-ACE-ECF-CPP-V1.2/Algorithm/user_maths/cpp_files/user_maths.cpp **** }
 1782              		.loc 1 123 1
 1783 00a2 00BF     		nop	
 1784 00a4 1C37     		adds	r7, r7, #28	@,,
 1785              	.LCFI39:
 1786              		.cfi_def_cfa_offset 4
 1787 00a6 BD46     		mov	sp, r7	@,
 1788              	.LCFI40:
 1789              		.cfi_def_cfa_register 13
 1790              		@ sp needed	@
 1791 00a8 5DF8047B 		ldr	r7, [sp], #4	@,
 1792              	.LCFI41:
 1793              		.cfi_restore 7
 1794              		.cfi_def_cfa_offset 0
 1795 00ac 7047     		bx	lr	@
 1796              	.L65:
 1797 00ae 00BF     		.align	2
 1798              	.L64:
 1799 00b0 00000000 		.word	_ZZN12user_maths_c24data_accelerated_controlEPffE8last_num
 1800              		.cfi_endproc
 1801              	.LFE380:
 1802              		.size	_ZN12user_maths_c24data_accelerated_controlEPff, .-_ZN12user_maths_c24data_accelerated_contr
 1803              		.section	.text._ZN12user_maths_c15limiting_filterEfff,"ax",%progbits
 1804              		.align	1
 1805              		.global	_ZN12user_maths_c15limiting_filterEfff
 1806              		.syntax unified
 1807              		.thumb
 1808              		.thumb_func
 1809              		.type	_ZN12user_maths_c15limiting_filterEfff, %function
 1810              	_ZN12user_maths_c15limiting_filterEfff:
 1811              	.LFB381:
 124:ACE_ECF_25-ACE-ECF-CPP-V1.2/Algorithm/user_maths/cpp_files/user_maths.cpp **** 
 125:ACE_ECF_25-ACE-ECF-CPP-V1.2/Algorithm/user_maths/cpp_files/user_maths.cpp **** // 限幅滤波函数
ARM GAS  C:\Users\30806\AppData\Local\Temp\ccYcD1nI.s 			page 35


 126:ACE_ECF_25-ACE-ECF-CPP-V1.2/Algorithm/user_maths/cpp_files/user_maths.cpp **** float user_maths_c::limiting_filter(float new_value, float last_value, float delat_max)
 127:ACE_ECF_25-ACE-ECF-CPP-V1.2/Algorithm/user_maths/cpp_files/user_maths.cpp **** {
 1812              		.loc 1 127 1
 1813              		.cfi_startproc
 1814              		@ args = 0, pretend = 0, frame = 16
 1815              		@ frame_needed = 1, uses_anonymous_args = 0
 1816              		@ link register save eliminated.
 1817 0000 80B4     		push	{r7}	@
 1818              	.LCFI42:
 1819              		.cfi_def_cfa_offset 4
 1820              		.cfi_offset 7, -4
 1821 0002 85B0     		sub	sp, sp, #20	@,,
 1822              	.LCFI43:
 1823              		.cfi_def_cfa_offset 24
 1824 0004 00AF     		add	r7, sp, #0	@,,
 1825              	.LCFI44:
 1826              		.cfi_def_cfa_register 7
 1827 0006 F860     		str	r0, [r7, #12]	@ this, this
 1828 0008 87ED020A 		vstr.32	s0, [r7, #8]	@ new_value, new_value
 1829 000c C7ED010A 		vstr.32	s1, [r7, #4]	@ last_value, last_value
 1830 0010 87ED001A 		vstr.32	s2, [r7]	@ delat_max, delat_max
 1831              	@ ACE_ECF_25-ACE-ECF-CPP-V1.2/Algorithm/user_maths/cpp_files/user_maths.cpp:128:     if ((new_value
 128:ACE_ECF_25-ACE-ECF-CPP-V1.2/Algorithm/user_maths/cpp_files/user_maths.cpp ****     if ((new_value - last_value > delat_max) || (last_value - new_value > delat_max))
 1832              		.loc 1 128 20
 1833 0014 97ED027A 		vldr.32	s14, [r7, #8]	@ tmp117, new_value
 1834 0018 D7ED017A 		vldr.32	s15, [r7, #4]	@ tmp118, last_value
 1835 001c 77EE677A 		vsub.f32	s15, s14, s15	@ _1, tmp117, tmp118
 1836              	@ ACE_ECF_25-ACE-ECF-CPP-V1.2/Algorithm/user_maths/cpp_files/user_maths.cpp:128:     if ((new_value
 1837              		.loc 1 128 5
 1838 0020 97ED007A 		vldr.32	s14, [r7]	@ tmp119, delat_max
 1839 0024 B4EEE77A 		vcmpe.f32	s14, s15	@ tmp119, _1
 1840 0028 F1EE10FA 		vmrs	APSR_nzcv, FPSCR
 1841 002c 0CD4     		bmi	.L67		@,
 1842              	@ ACE_ECF_25-ACE-ECF-CPP-V1.2/Algorithm/user_maths/cpp_files/user_maths.cpp:128:     if ((new_value
 1843              		.loc 1 128 61 discriminator 1
 1844 002e 97ED017A 		vldr.32	s14, [r7, #4]	@ tmp120, last_value
 1845 0032 D7ED027A 		vldr.32	s15, [r7, #8]	@ tmp121, new_value
 1846 0036 77EE677A 		vsub.f32	s15, s14, s15	@ _2, tmp120, tmp121
 1847              	@ ACE_ECF_25-ACE-ECF-CPP-V1.2/Algorithm/user_maths/cpp_files/user_maths.cpp:128:     if ((new_value
 1848              		.loc 1 128 46 discriminator 1
 1849 003a 97ED007A 		vldr.32	s14, [r7]	@ tmp122, delat_max
 1850 003e B4EEE77A 		vcmpe.f32	s14, s15	@ tmp122, _2
 1851 0042 F1EE10FA 		vmrs	APSR_nzcv, FPSCR
 1852 0046 01D5     		bpl	.L71		@,
 1853              	.L67:
 1854              	@ ACE_ECF_25-ACE-ECF-CPP-V1.2/Algorithm/user_maths/cpp_files/user_maths.cpp:129:         return las
 129:ACE_ECF_25-ACE-ECF-CPP-V1.2/Algorithm/user_maths/cpp_files/user_maths.cpp ****         return last_value;
 1855              		.loc 1 129 16
 1856 0048 7B68     		ldr	r3, [r7, #4]	@ float	@ _3, last_value
 1857 004a 00E0     		b	.L70		@
 1858              	.L71:
 1859              	@ ACE_ECF_25-ACE-ECF-CPP-V1.2/Algorithm/user_maths/cpp_files/user_maths.cpp:130:     return new_val
 130:ACE_ECF_25-ACE-ECF-CPP-V1.2/Algorithm/user_maths/cpp_files/user_maths.cpp ****     return new_value;
 1860              		.loc 1 130 12
 1861 004c BB68     		ldr	r3, [r7, #8]	@ float	@ _3, new_value
 1862              	.L70:
 1863              	@ ACE_ECF_25-ACE-ECF-CPP-V1.2/Algorithm/user_maths/cpp_files/user_maths.cpp:131: }
ARM GAS  C:\Users\30806\AppData\Local\Temp\ccYcD1nI.s 			page 36


 131:ACE_ECF_25-ACE-ECF-CPP-V1.2/Algorithm/user_maths/cpp_files/user_maths.cpp **** }
 1864              		.loc 1 131 1
 1865 004e 07EE903A 		vmov	s15, r3	@ <retval>, _3
 1866 0052 B0EE670A 		vmov.f32	s0, s15	@, <retval>
 1867 0056 1437     		adds	r7, r7, #20	@,,
 1868              	.LCFI45:
 1869              		.cfi_def_cfa_offset 4
 1870 0058 BD46     		mov	sp, r7	@,
 1871              	.LCFI46:
 1872              		.cfi_def_cfa_register 13
 1873              		@ sp needed	@
 1874 005a 5DF8047B 		ldr	r7, [sp], #4	@,
 1875              	.LCFI47:
 1876              		.cfi_restore 7
 1877              		.cfi_def_cfa_offset 0
 1878 005e 7047     		bx	lr	@
 1879              		.cfi_endproc
 1880              	.LFE381:
 1881              		.size	_ZN12user_maths_c15limiting_filterEfff, .-_ZN12user_maths_c15limiting_filterEfff
 1882              		.section	.text._ZN12user_maths_c13sin_calculateEf,"ax",%progbits
 1883              		.align	1
 1884              		.global	_ZN12user_maths_c13sin_calculateEf
 1885              		.syntax unified
 1886              		.thumb
 1887              		.thumb_func
 1888              		.type	_ZN12user_maths_c13sin_calculateEf, %function
 1889              	_ZN12user_maths_c13sin_calculateEf:
 1890              	.LFB382:
 132:ACE_ECF_25-ACE-ECF-CPP-V1.2/Algorithm/user_maths/cpp_files/user_maths.cpp **** 
 133:ACE_ECF_25-ACE-ECF-CPP-V1.2/Algorithm/user_maths/cpp_files/user_maths.cpp **** // sin函数查表法
 134:ACE_ECF_25-ACE-ECF-CPP-V1.2/Algorithm/user_maths/cpp_files/user_maths.cpp **** float user_maths_c::sin_calculate(float angle)
 135:ACE_ECF_25-ACE-ECF-CPP-V1.2/Algorithm/user_maths/cpp_files/user_maths.cpp **** {
 1891              		.loc 1 135 1
 1892              		.cfi_startproc
 1893              		@ args = 0, pretend = 0, frame = 16
 1894              		@ frame_needed = 1, uses_anonymous_args = 0
 1895              		@ link register save eliminated.
 1896 0000 80B4     		push	{r7}	@
 1897              	.LCFI48:
 1898              		.cfi_def_cfa_offset 4
 1899              		.cfi_offset 7, -4
 1900 0002 85B0     		sub	sp, sp, #20	@,,
 1901              	.LCFI49:
 1902              		.cfi_def_cfa_offset 24
 1903 0004 00AF     		add	r7, sp, #0	@,,
 1904              	.LCFI50:
 1905              		.cfi_def_cfa_register 7
 1906 0006 7860     		str	r0, [r7, #4]	@ this, this
 1907 0008 87ED000A 		vstr.32	s0, [r7]	@ angle, angle
 1908              	@ ACE_ECF_25-ACE-ECF-CPP-V1.2/Algorithm/user_maths/cpp_files/user_maths.cpp:136:     float sin_angl
 136:ACE_ECF_25-ACE-ECF-CPP-V1.2/Algorithm/user_maths/cpp_files/user_maths.cpp ****     float sin_angle = 0.0f;
 1909              		.loc 1 136 11
 1910 000c 4FF00003 		mov	r3, #0	@ tmp142,
 1911 0010 FB60     		str	r3, [r7, #12]	@ float	@ tmp142, sin_angle
 1912              	@ ACE_ECF_25-ACE-ECF-CPP-V1.2/Algorithm/user_maths/cpp_files/user_maths.cpp:138:     if (angle >= 0
 137:ACE_ECF_25-ACE-ECF-CPP-V1.2/Algorithm/user_maths/cpp_files/user_maths.cpp **** 
 138:ACE_ECF_25-ACE-ECF-CPP-V1.2/Algorithm/user_maths/cpp_files/user_maths.cpp ****     if (angle >= 0.0f && angle < 90.0f)
ARM GAS  C:\Users\30806\AppData\Local\Temp\ccYcD1nI.s 			page 37


 1913              		.loc 1 138 5
 1914 0012 D7ED007A 		vldr.32	s15, [r7]	@ tmp143, angle
 1915 0016 F5EEC07A 		vcmpe.f32	s15, #0	@ tmp143
 1916 001a F1EE10FA 		vmrs	APSR_nzcv, FPSCR
 1917 001e 2ADB     		blt	.L73		@,
 1918              	@ ACE_ECF_25-ACE-ECF-CPP-V1.2/Algorithm/user_maths/cpp_files/user_maths.cpp:138:     if (angle >= 0
 1919              		.loc 1 138 23 discriminator 1
 1920 0020 D7ED007A 		vldr.32	s15, [r7]	@ tmp144, angle
 1921 0024 9FED867A 		vldr.32	s14, .L115	@ tmp145,
 1922 0028 F4EEC77A 		vcmpe.f32	s15, s14	@ tmp144, tmp145
 1923 002c F1EE10FA 		vmrs	APSR_nzcv, FPSCR
 1924 0030 21D5     		bpl	.L73		@,
 1925              	@ ACE_ECF_25-ACE-ECF-CPP-V1.2/Algorithm/user_maths/cpp_files/user_maths.cpp:139:         sin_angle 
 139:ACE_ECF_25-ACE-ECF-CPP-V1.2/Algorithm/user_maths/cpp_files/user_maths.cpp ****         sin_angle = (Trigonometric_Functions[(int)(user_abs(angle) * 10.0f)] / 100.0f);
 1926              		.loc 1 139 52
 1927 0032 D7ED007A 		vldr.32	s15, [r7]	@ tmp146, angle
 1928 0036 F5EEC07A 		vcmpe.f32	s15, #0	@ tmp146
 1929 003a F1EE10FA 		vmrs	APSR_nzcv, FPSCR
 1930 003e 02DD     		ble	.L111		@,
 1931              	@ ACE_ECF_25-ACE-ECF-CPP-V1.2/Algorithm/user_maths/cpp_files/user_maths.cpp:139:         sin_angle 
 1932              		.loc 1 139 52 is_stmt 0 discriminator 1
 1933 0040 D7ED007A 		vldr.32	s15, [r7]	@ iftmp.15_25, angle
 1934 0044 03E0     		b	.L78		@
 1935              	.L111:
 1936              	@ ACE_ECF_25-ACE-ECF-CPP-V1.2/Algorithm/user_maths/cpp_files/user_maths.cpp:139:         sin_angle 
 1937              		.loc 1 139 52 discriminator 2
 1938 0046 D7ED007A 		vldr.32	s15, [r7]	@ tmp147, angle
 1939 004a F1EE677A 		vneg.f32	s15, s15	@ iftmp.15_25, tmp147
 1940              	.L78:
 1941              	@ ACE_ECF_25-ACE-ECF-CPP-V1.2/Algorithm/user_maths/cpp_files/user_maths.cpp:139:         sin_angle 
 1942              		.loc 1 139 68 is_stmt 1 discriminator 4
 1943 004e B2EE047A 		vmov.f32	s14, #1.0e+1	@ tmp148,
 1944 0052 67EE877A 		vmul.f32	s15, s15, s14	@ _1, iftmp.15_25, tmp148
 1945              	@ ACE_ECF_25-ACE-ECF-CPP-V1.2/Algorithm/user_maths/cpp_files/user_maths.cpp:139:         sin_angle 
 1946              		.loc 1 139 46 discriminator 4
 1947 0056 FDEEE77A 		vcvt.s32.f32	s15, s15	@ _2, _1
 1948 005a 17EE903A 		vmov	r3, s15	@ int	@ _2, _2
 1949              	@ ACE_ECF_25-ACE-ECF-CPP-V1.2/Algorithm/user_maths/cpp_files/user_maths.cpp:139:         sin_angle 
 1950              		.loc 1 139 76 discriminator 4
 1951 005e 794A     		ldr	r2, .L115+4	@ tmp149,
 1952 0060 9B00     		lsls	r3, r3, #2	@ tmp150, _2,
 1953 0062 1344     		add	r3, r3, r2	@ tmp151, tmp149
 1954 0064 93ED007A 		vldr.32	s14, [r3]	@ _3, Trigonometric_Functions[_2]
 1955              	@ ACE_ECF_25-ACE-ECF-CPP-V1.2/Algorithm/user_maths/cpp_files/user_maths.cpp:139:         sin_angle 
 1956              		.loc 1 139 19 discriminator 4
 1957 0068 DFED776A 		vldr.32	s13, .L115+8	@ tmp153,
 1958 006c C7EE267A 		vdiv.f32	s15, s14, s13	@ tmp152, _3, tmp153
 1959 0070 C7ED037A 		vstr.32	s15, [r7, #12]	@ tmp152, sin_angle
 1960 0074 D9E0     		b	.L79		@
 1961              	.L73:
 1962              	@ ACE_ECF_25-ACE-ECF-CPP-V1.2/Algorithm/user_maths/cpp_files/user_maths.cpp:140:     else if (angle
 140:ACE_ECF_25-ACE-ECF-CPP-V1.2/Algorithm/user_maths/cpp_files/user_maths.cpp ****     else if (angle >= 90.0f && angle < 180.f)
 1963              		.loc 1 140 10
 1964 0076 D7ED007A 		vldr.32	s15, [r7]	@ tmp154, angle
 1965 007a 9FED717A 		vldr.32	s14, .L115	@ tmp155,
 1966 007e F4EEC77A 		vcmpe.f32	s15, s14	@ tmp154, tmp155
 1967 0082 F1EE10FA 		vmrs	APSR_nzcv, FPSCR
ARM GAS  C:\Users\30806\AppData\Local\Temp\ccYcD1nI.s 			page 38


 1968 0086 36DB     		blt	.L80		@,
 1969              	@ ACE_ECF_25-ACE-ECF-CPP-V1.2/Algorithm/user_maths/cpp_files/user_maths.cpp:140:     else if (angle
 1970              		.loc 1 140 29 discriminator 1
 1971 0088 D7ED007A 		vldr.32	s15, [r7]	@ tmp156, angle
 1972 008c 9FED6F7A 		vldr.32	s14, .L115+12	@ tmp157,
 1973 0090 F4EEC77A 		vcmpe.f32	s15, s14	@ tmp156, tmp157
 1974 0094 F1EE10FA 		vmrs	APSR_nzcv, FPSCR
 1975 0098 2DD5     		bpl	.L80		@,
 1976              	@ ACE_ECF_25-ACE-ECF-CPP-V1.2/Algorithm/user_maths/cpp_files/user_maths.cpp:141:         sin_angle 
 141:ACE_ECF_25-ACE-ECF-CPP-V1.2/Algorithm/user_maths/cpp_files/user_maths.cpp ****         sin_angle = (Trigonometric_Functions[(int)(user_abs(180.0f - angle) * 10.0f)] / 100.0f);
 1977              		.loc 1 141 52
 1978 009a 9FED6C7A 		vldr.32	s14, .L115+12	@ tmp158,
 1979 009e D7ED007A 		vldr.32	s15, [r7]	@ tmp159, angle
 1980 00a2 77EE677A 		vsub.f32	s15, s14, s15	@ _4, tmp158, tmp159
 1981 00a6 F5EEC07A 		vcmpe.f32	s15, #0	@ _4
 1982 00aa F1EE10FA 		vmrs	APSR_nzcv, FPSCR
 1983 00ae 06DD     		ble	.L112		@,
 1984              	@ ACE_ECF_25-ACE-ECF-CPP-V1.2/Algorithm/user_maths/cpp_files/user_maths.cpp:141:         sin_angle 
 1985              		.loc 1 141 52 is_stmt 0 discriminator 1
 1986 00b0 9FED667A 		vldr.32	s14, .L115+12	@ tmp160,
 1987 00b4 D7ED007A 		vldr.32	s15, [r7]	@ tmp161, angle
 1988 00b8 77EE677A 		vsub.f32	s15, s14, s15	@ iftmp.16_26, tmp160, tmp161
 1989 00bc 07E0     		b	.L85		@
 1990              	.L112:
 1991              	@ ACE_ECF_25-ACE-ECF-CPP-V1.2/Algorithm/user_maths/cpp_files/user_maths.cpp:141:         sin_angle 
 1992              		.loc 1 141 52 discriminator 2
 1993 00be 9FED637A 		vldr.32	s14, .L115+12	@ tmp162,
 1994 00c2 D7ED007A 		vldr.32	s15, [r7]	@ tmp163, angle
 1995 00c6 77EE677A 		vsub.f32	s15, s14, s15	@ _5, tmp162, tmp163
 1996 00ca F1EE677A 		vneg.f32	s15, s15	@ iftmp.16_26, _5
 1997              	.L85:
 1998              	@ ACE_ECF_25-ACE-ECF-CPP-V1.2/Algorithm/user_maths/cpp_files/user_maths.cpp:141:         sin_angle 
 1999              		.loc 1 141 77 is_stmt 1 discriminator 4
 2000 00ce B2EE047A 		vmov.f32	s14, #1.0e+1	@ tmp164,
 2001 00d2 67EE877A 		vmul.f32	s15, s15, s14	@ _6, iftmp.16_26, tmp164
 2002              	@ ACE_ECF_25-ACE-ECF-CPP-V1.2/Algorithm/user_maths/cpp_files/user_maths.cpp:141:         sin_angle 
 2003              		.loc 1 141 46 discriminator 4
 2004 00d6 FDEEE77A 		vcvt.s32.f32	s15, s15	@ _7, _6
 2005 00da 17EE903A 		vmov	r3, s15	@ int	@ _7, _7
 2006              	@ ACE_ECF_25-ACE-ECF-CPP-V1.2/Algorithm/user_maths/cpp_files/user_maths.cpp:141:         sin_angle 
 2007              		.loc 1 141 85 discriminator 4
 2008 00de 594A     		ldr	r2, .L115+4	@ tmp165,
 2009 00e0 9B00     		lsls	r3, r3, #2	@ tmp166, _7,
 2010 00e2 1344     		add	r3, r3, r2	@ tmp167, tmp165
 2011 00e4 93ED007A 		vldr.32	s14, [r3]	@ _8, Trigonometric_Functions[_7]
 2012              	@ ACE_ECF_25-ACE-ECF-CPP-V1.2/Algorithm/user_maths/cpp_files/user_maths.cpp:141:         sin_angle 
 2013              		.loc 1 141 19 discriminator 4
 2014 00e8 DFED576A 		vldr.32	s13, .L115+8	@ tmp169,
 2015 00ec C7EE267A 		vdiv.f32	s15, s14, s13	@ tmp168, _8, tmp169
 2016 00f0 C7ED037A 		vstr.32	s15, [r7, #12]	@ tmp168, sin_angle
 2017 00f4 99E0     		b	.L79		@
 2018              	.L80:
 2019              	@ ACE_ECF_25-ACE-ECF-CPP-V1.2/Algorithm/user_maths/cpp_files/user_maths.cpp:142:     else if (angle
 142:ACE_ECF_25-ACE-ECF-CPP-V1.2/Algorithm/user_maths/cpp_files/user_maths.cpp ****     else if (angle >= -180.0f && angle < -90.f)
 2020              		.loc 1 142 10
 2021 00f6 D7ED007A 		vldr.32	s15, [r7]	@ tmp170, angle
 2022 00fa 9FED557A 		vldr.32	s14, .L115+16	@ tmp171,
ARM GAS  C:\Users\30806\AppData\Local\Temp\ccYcD1nI.s 			page 39


 2023 00fe F4EEC77A 		vcmpe.f32	s15, s14	@ tmp170, tmp171
 2024 0102 F1EE10FA 		vmrs	APSR_nzcv, FPSCR
 2025 0106 38DB     		blt	.L86		@,
 2026              	@ ACE_ECF_25-ACE-ECF-CPP-V1.2/Algorithm/user_maths/cpp_files/user_maths.cpp:142:     else if (angle
 2027              		.loc 1 142 31 discriminator 1
 2028 0108 D7ED007A 		vldr.32	s15, [r7]	@ tmp172, angle
 2029 010c 9FED517A 		vldr.32	s14, .L115+20	@ tmp173,
 2030 0110 F4EEC77A 		vcmpe.f32	s15, s14	@ tmp172, tmp173
 2031 0114 F1EE10FA 		vmrs	APSR_nzcv, FPSCR
 2032 0118 2FD5     		bpl	.L86		@,
 2033              	@ ACE_ECF_25-ACE-ECF-CPP-V1.2/Algorithm/user_maths/cpp_files/user_maths.cpp:143:         sin_angle 
 143:ACE_ECF_25-ACE-ECF-CPP-V1.2/Algorithm/user_maths/cpp_files/user_maths.cpp ****         sin_angle = -(Trigonometric_Functions[(int)(user_abs(180.0f + angle) * 10.0f)] / 100.0f);
 2034              		.loc 1 143 53
 2035 011a D7ED007A 		vldr.32	s15, [r7]	@ tmp174, angle
 2036 011e 9FED4B7A 		vldr.32	s14, .L115+12	@ tmp175,
 2037 0122 77EE877A 		vadd.f32	s15, s15, s14	@ _9, tmp174, tmp175
 2038 0126 F5EEC07A 		vcmpe.f32	s15, #0	@ _9
 2039 012a F1EE10FA 		vmrs	APSR_nzcv, FPSCR
 2040 012e 06DD     		ble	.L113		@,
 2041              	@ ACE_ECF_25-ACE-ECF-CPP-V1.2/Algorithm/user_maths/cpp_files/user_maths.cpp:143:         sin_angle 
 2042              		.loc 1 143 53 is_stmt 0 discriminator 1
 2043 0130 D7ED007A 		vldr.32	s15, [r7]	@ tmp176, angle
 2044 0134 9FED457A 		vldr.32	s14, .L115+12	@ tmp177,
 2045 0138 77EE877A 		vadd.f32	s15, s15, s14	@ iftmp.17_27, tmp176, tmp177
 2046 013c 07E0     		b	.L91		@
 2047              	.L113:
 2048              	@ ACE_ECF_25-ACE-ECF-CPP-V1.2/Algorithm/user_maths/cpp_files/user_maths.cpp:143:         sin_angle 
 2049              		.loc 1 143 53 discriminator 2
 2050 013e D7ED007A 		vldr.32	s15, [r7]	@ tmp178, angle
 2051 0142 9FED427A 		vldr.32	s14, .L115+12	@ tmp179,
 2052 0146 77EE877A 		vadd.f32	s15, s15, s14	@ _10, tmp178, tmp179
 2053 014a F1EE677A 		vneg.f32	s15, s15	@ iftmp.17_27, _10
 2054              	.L91:
 2055              	@ ACE_ECF_25-ACE-ECF-CPP-V1.2/Algorithm/user_maths/cpp_files/user_maths.cpp:143:         sin_angle 
 2056              		.loc 1 143 78 is_stmt 1 discriminator 4
 2057 014e B2EE047A 		vmov.f32	s14, #1.0e+1	@ tmp180,
 2058 0152 67EE877A 		vmul.f32	s15, s15, s14	@ _11, iftmp.17_27, tmp180
 2059              	@ ACE_ECF_25-ACE-ECF-CPP-V1.2/Algorithm/user_maths/cpp_files/user_maths.cpp:143:         sin_angle 
 2060              		.loc 1 143 47 discriminator 4
 2061 0156 FDEEE77A 		vcvt.s32.f32	s15, s15	@ _12, _11
 2062 015a 17EE903A 		vmov	r3, s15	@ int	@ _12, _12
 2063              	@ ACE_ECF_25-ACE-ECF-CPP-V1.2/Algorithm/user_maths/cpp_files/user_maths.cpp:143:         sin_angle 
 2064              		.loc 1 143 86 discriminator 4
 2065 015e 394A     		ldr	r2, .L115+4	@ tmp181,
 2066 0160 9B00     		lsls	r3, r3, #2	@ tmp182, _12,
 2067 0162 1344     		add	r3, r3, r2	@ tmp183, tmp181
 2068 0164 93ED007A 		vldr.32	s14, [r3]	@ _13, Trigonometric_Functions[_12]
 2069              	@ ACE_ECF_25-ACE-ECF-CPP-V1.2/Algorithm/user_maths/cpp_files/user_maths.cpp:143:         sin_angle 
 2070              		.loc 1 143 88 discriminator 4
 2071 0168 DFED376A 		vldr.32	s13, .L115+8	@ tmp184,
 2072 016c C7EE267A 		vdiv.f32	s15, s14, s13	@ _14, _13, tmp184
 2073              	@ ACE_ECF_25-ACE-ECF-CPP-V1.2/Algorithm/user_maths/cpp_files/user_maths.cpp:143:         sin_angle 
 2074              		.loc 1 143 19 discriminator 4
 2075 0170 F1EE677A 		vneg.f32	s15, s15	@ tmp185, _14
 2076 0174 C7ED037A 		vstr.32	s15, [r7, #12]	@ tmp185, sin_angle
 2077 0178 57E0     		b	.L79		@
 2078              	.L86:
ARM GAS  C:\Users\30806\AppData\Local\Temp\ccYcD1nI.s 			page 40


 2079              	@ ACE_ECF_25-ACE-ECF-CPP-V1.2/Algorithm/user_maths/cpp_files/user_maths.cpp:144:     else if (angle
 144:ACE_ECF_25-ACE-ECF-CPP-V1.2/Algorithm/user_maths/cpp_files/user_maths.cpp ****     else if (angle >= -90.0f && angle < 0.f)
 2080              		.loc 1 144 10
 2081 017a D7ED007A 		vldr.32	s15, [r7]	@ tmp186, angle
 2082 017e 9FED357A 		vldr.32	s14, .L115+20	@ tmp187,
 2083 0182 F4EEC77A 		vcmpe.f32	s15, s14	@ tmp186, tmp187
 2084 0186 F1EE10FA 		vmrs	APSR_nzcv, FPSCR
 2085 018a 42DB     		blt	.L92		@,
 2086              	@ ACE_ECF_25-ACE-ECF-CPP-V1.2/Algorithm/user_maths/cpp_files/user_maths.cpp:144:     else if (angle
 2087              		.loc 1 144 30 discriminator 1
 2088 018c D7ED007A 		vldr.32	s15, [r7]	@ tmp188, angle
 2089 0190 F5EEC07A 		vcmpe.f32	s15, #0	@ tmp188
 2090 0194 F1EE10FA 		vmrs	APSR_nzcv, FPSCR
 2091 0198 3BD5     		bpl	.L92		@,
 2092              	@ ACE_ECF_25-ACE-ECF-CPP-V1.2/Algorithm/user_maths/cpp_files/user_maths.cpp:145:         sin_angle 
 145:ACE_ECF_25-ACE-ECF-CPP-V1.2/Algorithm/user_maths/cpp_files/user_maths.cpp ****         sin_angle = -(Trigonometric_Functions[(int)(user_abs(180.0f - (180.0f + angle)) * 10.0f)] /
 2093              		.loc 1 145 53
 2094 019a D7ED007A 		vldr.32	s15, [r7]	@ tmp189, angle
 2095 019e 9FED2B7A 		vldr.32	s14, .L115+12	@ tmp190,
 2096 01a2 77EE877A 		vadd.f32	s15, s15, s14	@ _15, tmp189, tmp190
 2097 01a6 9FED297A 		vldr.32	s14, .L115+12	@ tmp191,
 2098 01aa 77EE677A 		vsub.f32	s15, s14, s15	@ _16, tmp191, _15
 2099 01ae F5EEC07A 		vcmpe.f32	s15, #0	@ _16
 2100 01b2 F1EE10FA 		vmrs	APSR_nzcv, FPSCR
 2101 01b6 0ADD     		ble	.L114		@,
 2102              	@ ACE_ECF_25-ACE-ECF-CPP-V1.2/Algorithm/user_maths/cpp_files/user_maths.cpp:145:         sin_angle 
 2103              		.loc 1 145 53 is_stmt 0 discriminator 1
 2104 01b8 D7ED007A 		vldr.32	s15, [r7]	@ tmp192, angle
 2105 01bc 9FED237A 		vldr.32	s14, .L115+12	@ tmp193,
 2106 01c0 77EE877A 		vadd.f32	s15, s15, s14	@ _17, tmp192, tmp193
 2107 01c4 9FED217A 		vldr.32	s14, .L115+12	@ tmp194,
 2108 01c8 77EE677A 		vsub.f32	s15, s14, s15	@ iftmp.18_28, tmp194, _17
 2109 01cc 0BE0     		b	.L97		@
 2110              	.L114:
 2111              	@ ACE_ECF_25-ACE-ECF-CPP-V1.2/Algorithm/user_maths/cpp_files/user_maths.cpp:145:         sin_angle 
 2112              		.loc 1 145 53 discriminator 2
 2113 01ce D7ED007A 		vldr.32	s15, [r7]	@ tmp195, angle
 2114 01d2 9FED1E7A 		vldr.32	s14, .L115+12	@ tmp196,
 2115 01d6 77EE877A 		vadd.f32	s15, s15, s14	@ _18, tmp195, tmp196
 2116 01da 9FED1C7A 		vldr.32	s14, .L115+12	@ tmp197,
 2117 01de 77EE677A 		vsub.f32	s15, s14, s15	@ _19, tmp197, _18
 2118 01e2 F1EE677A 		vneg.f32	s15, s15	@ iftmp.18_28, _19
 2119              	.L97:
 2120              	@ ACE_ECF_25-ACE-ECF-CPP-V1.2/Algorithm/user_maths/cpp_files/user_maths.cpp:145:         sin_angle 
 2121              		.loc 1 145 89 is_stmt 1 discriminator 4
 2122 01e6 B2EE047A 		vmov.f32	s14, #1.0e+1	@ tmp198,
 2123 01ea 67EE877A 		vmul.f32	s15, s15, s14	@ _20, iftmp.18_28, tmp198
 2124              	@ ACE_ECF_25-ACE-ECF-CPP-V1.2/Algorithm/user_maths/cpp_files/user_maths.cpp:145:         sin_angle 
 2125              		.loc 1 145 47 discriminator 4
 2126 01ee FDEEE77A 		vcvt.s32.f32	s15, s15	@ _21, _20
 2127 01f2 17EE903A 		vmov	r3, s15	@ int	@ _21, _21
 2128              	@ ACE_ECF_25-ACE-ECF-CPP-V1.2/Algorithm/user_maths/cpp_files/user_maths.cpp:145:         sin_angle 
 2129              		.loc 1 145 97 discriminator 4
 2130 01f6 134A     		ldr	r2, .L115+4	@ tmp199,
 2131 01f8 9B00     		lsls	r3, r3, #2	@ tmp200, _21,
 2132 01fa 1344     		add	r3, r3, r2	@ tmp201, tmp199
 2133 01fc 93ED007A 		vldr.32	s14, [r3]	@ _22, Trigonometric_Functions[_21]
ARM GAS  C:\Users\30806\AppData\Local\Temp\ccYcD1nI.s 			page 41


 2134              	@ ACE_ECF_25-ACE-ECF-CPP-V1.2/Algorithm/user_maths/cpp_files/user_maths.cpp:145:         sin_angle 
 2135              		.loc 1 145 99 discriminator 4
 2136 0200 DFED116A 		vldr.32	s13, .L115+8	@ tmp202,
 2137 0204 C7EE267A 		vdiv.f32	s15, s14, s13	@ _23, _22, tmp202
 2138              	@ ACE_ECF_25-ACE-ECF-CPP-V1.2/Algorithm/user_maths/cpp_files/user_maths.cpp:145:         sin_angle 
 2139              		.loc 1 145 19 discriminator 4
 2140 0208 F1EE677A 		vneg.f32	s15, s15	@ tmp203, _23
 2141 020c C7ED037A 		vstr.32	s15, [r7, #12]	@ tmp203, sin_angle
 2142 0210 0BE0     		b	.L79		@
 2143              	.L92:
 2144              	@ ACE_ECF_25-ACE-ECF-CPP-V1.2/Algorithm/user_maths/cpp_files/user_maths.cpp:146:     else if (angle
 146:ACE_ECF_25-ACE-ECF-CPP-V1.2/Algorithm/user_maths/cpp_files/user_maths.cpp ****     else if (angle == 180.f)
 2145              		.loc 1 146 10
 2146 0212 D7ED007A 		vldr.32	s15, [r7]	@ tmp204, angle
 2147 0216 9FED0D7A 		vldr.32	s14, .L115+12	@ tmp205,
 2148 021a F4EE477A 		vcmp.f32	s15, s14	@ tmp204, tmp205
 2149 021e F1EE10FA 		vmrs	APSR_nzcv, FPSCR
 2150 0222 02D1     		bne	.L79		@,
 2151              	@ ACE_ECF_25-ACE-ECF-CPP-V1.2/Algorithm/user_maths/cpp_files/user_maths.cpp:147:         sin_angle 
 147:ACE_ECF_25-ACE-ECF-CPP-V1.2/Algorithm/user_maths/cpp_files/user_maths.cpp ****         sin_angle = 0.0f;
 2152              		.loc 1 147 19
 2153 0224 4FF00003 		mov	r3, #0	@ tmp206,
 2154 0228 FB60     		str	r3, [r7, #12]	@ float	@ tmp206, sin_angle
 2155              	.L79:
 2156              	@ ACE_ECF_25-ACE-ECF-CPP-V1.2/Algorithm/user_maths/cpp_files/user_maths.cpp:149:     return sin_ang
 148:ACE_ECF_25-ACE-ECF-CPP-V1.2/Algorithm/user_maths/cpp_files/user_maths.cpp **** 
 149:ACE_ECF_25-ACE-ECF-CPP-V1.2/Algorithm/user_maths/cpp_files/user_maths.cpp ****     return sin_angle;
 2157              		.loc 1 149 12
 2158 022a FB68     		ldr	r3, [r7, #12]	@ float	@ _45, sin_angle
 2159 022c 07EE903A 		vmov	s15, r3	@ <retval>, _45
 2160              	@ ACE_ECF_25-ACE-ECF-CPP-V1.2/Algorithm/user_maths/cpp_files/user_maths.cpp:150: }
 150:ACE_ECF_25-ACE-ECF-CPP-V1.2/Algorithm/user_maths/cpp_files/user_maths.cpp **** }
 2161              		.loc 1 150 1
 2162 0230 B0EE670A 		vmov.f32	s0, s15	@, <retval>
 2163 0234 1437     		adds	r7, r7, #20	@,,
 2164              	.LCFI51:
 2165              		.cfi_def_cfa_offset 4
 2166 0236 BD46     		mov	sp, r7	@,
 2167              	.LCFI52:
 2168              		.cfi_def_cfa_register 13
 2169              		@ sp needed	@
 2170 0238 5DF8047B 		ldr	r7, [sp], #4	@,
 2171              	.LCFI53:
 2172              		.cfi_restore 7
 2173              		.cfi_def_cfa_offset 0
 2174 023c 7047     		bx	lr	@
 2175              	.L116:
 2176 023e 00BF     		.align	2
 2177              	.L115:
 2178 0240 0000B442 		.word	1119092736
 2179 0244 00000000 		.word	_ZL23Trigonometric_Functions
 2180 0248 0000C842 		.word	1120403456
 2181 024c 00003443 		.word	1127481344
 2182 0250 000034C3 		.word	-1020002304
 2183 0254 0000B4C2 		.word	-1028390912
 2184              		.cfi_endproc
 2185              	.LFE382:
ARM GAS  C:\Users\30806\AppData\Local\Temp\ccYcD1nI.s 			page 42


 2186              		.size	_ZN12user_maths_c13sin_calculateEf, .-_ZN12user_maths_c13sin_calculateEf
 2187              		.section	.text._ZN12user_maths_c13cos_calculateEf,"ax",%progbits
 2188              		.align	1
 2189              		.global	_ZN12user_maths_c13cos_calculateEf
 2190              		.syntax unified
 2191              		.thumb
 2192              		.thumb_func
 2193              		.type	_ZN12user_maths_c13cos_calculateEf, %function
 2194              	_ZN12user_maths_c13cos_calculateEf:
 2195              	.LFB383:
 151:ACE_ECF_25-ACE-ECF-CPP-V1.2/Algorithm/user_maths/cpp_files/user_maths.cpp **** 
 152:ACE_ECF_25-ACE-ECF-CPP-V1.2/Algorithm/user_maths/cpp_files/user_maths.cpp **** // cos函数查表法
 153:ACE_ECF_25-ACE-ECF-CPP-V1.2/Algorithm/user_maths/cpp_files/user_maths.cpp **** float user_maths_c::cos_calculate(float angle)
 154:ACE_ECF_25-ACE-ECF-CPP-V1.2/Algorithm/user_maths/cpp_files/user_maths.cpp **** {
 2196              		.loc 1 154 1
 2197              		.cfi_startproc
 2198              		@ args = 0, pretend = 0, frame = 16
 2199              		@ frame_needed = 1, uses_anonymous_args = 0
 2200              		@ link register save eliminated.
 2201 0000 80B4     		push	{r7}	@
 2202              	.LCFI54:
 2203              		.cfi_def_cfa_offset 4
 2204              		.cfi_offset 7, -4
 2205 0002 85B0     		sub	sp, sp, #20	@,,
 2206              	.LCFI55:
 2207              		.cfi_def_cfa_offset 24
 2208 0004 00AF     		add	r7, sp, #0	@,,
 2209              	.LCFI56:
 2210              		.cfi_def_cfa_register 7
 2211 0006 7860     		str	r0, [r7, #4]	@ this, this
 2212 0008 87ED000A 		vstr.32	s0, [r7]	@ angle, angle
 2213              	@ ACE_ECF_25-ACE-ECF-CPP-V1.2/Algorithm/user_maths/cpp_files/user_maths.cpp:155:     float cos_angl
 155:ACE_ECF_25-ACE-ECF-CPP-V1.2/Algorithm/user_maths/cpp_files/user_maths.cpp ****     float cos_angle = 0.0f;
 2214              		.loc 1 155 11
 2215 000c 4FF00003 		mov	r3, #0	@ tmp129,
 2216 0010 FB60     		str	r3, [r7, #12]	@ float	@ tmp129, cos_angle
 2217              	@ ACE_ECF_25-ACE-ECF-CPP-V1.2/Algorithm/user_maths/cpp_files/user_maths.cpp:157:     angle = user_a
 156:ACE_ECF_25-ACE-ECF-CPP-V1.2/Algorithm/user_maths/cpp_files/user_maths.cpp **** 
 157:ACE_ECF_25-ACE-ECF-CPP-V1.2/Algorithm/user_maths/cpp_files/user_maths.cpp ****     angle = user_abs(angle);
 2218              		.loc 1 157 13
 2219 0012 D7ED007A 		vldr.32	s15, [r7]	@ tmp130, angle
 2220 0016 F5EEC07A 		vcmpe.f32	s15, #0	@ tmp130
 2221 001a F1EE10FA 		vmrs	APSR_nzcv, FPSCR
 2222 001e 02DD     		ble	.L142		@,
 2223              	@ ACE_ECF_25-ACE-ECF-CPP-V1.2/Algorithm/user_maths/cpp_files/user_maths.cpp:157:     angle = user_a
 2224              		.loc 1 157 13 is_stmt 0 discriminator 1
 2225 0020 D7ED007A 		vldr.32	s15, [r7]	@ iftmp.19_13, angle
 2226 0024 03E0     		b	.L120		@
 2227              	.L142:
 2228              	@ ACE_ECF_25-ACE-ECF-CPP-V1.2/Algorithm/user_maths/cpp_files/user_maths.cpp:157:     angle = user_a
 2229              		.loc 1 157 13 discriminator 2
 2230 0026 D7ED007A 		vldr.32	s15, [r7]	@ tmp131, angle
 2231 002a F1EE677A 		vneg.f32	s15, s15	@ iftmp.19_13, tmp131
 2232              	.L120:
 2233              	@ ACE_ECF_25-ACE-ECF-CPP-V1.2/Algorithm/user_maths/cpp_files/user_maths.cpp:157:     angle = user_a
 2234              		.loc 1 157 11 is_stmt 1 discriminator 4
 2235 002e C7ED007A 		vstr.32	s15, [r7]	@ iftmp.19_13, angle
ARM GAS  C:\Users\30806\AppData\Local\Temp\ccYcD1nI.s 			page 43


 2236              	@ ACE_ECF_25-ACE-ECF-CPP-V1.2/Algorithm/user_maths/cpp_files/user_maths.cpp:159:     if (angle >= 0
 158:ACE_ECF_25-ACE-ECF-CPP-V1.2/Algorithm/user_maths/cpp_files/user_maths.cpp **** 
 159:ACE_ECF_25-ACE-ECF-CPP-V1.2/Algorithm/user_maths/cpp_files/user_maths.cpp ****     if (angle >= 0.0f && angle < 90.0f)
 2237              		.loc 1 159 5 discriminator 4
 2238 0032 D7ED007A 		vldr.32	s15, [r7]	@ tmp132, angle
 2239 0036 F5EEC07A 		vcmpe.f32	s15, #0	@ tmp132
 2240 003a F1EE10FA 		vmrs	APSR_nzcv, FPSCR
 2241 003e 36DB     		blt	.L121		@,
 2242              	@ ACE_ECF_25-ACE-ECF-CPP-V1.2/Algorithm/user_maths/cpp_files/user_maths.cpp:159:     if (angle >= 0
 2243              		.loc 1 159 23 discriminator 1
 2244 0040 D7ED007A 		vldr.32	s15, [r7]	@ tmp133, angle
 2245 0044 9FED457A 		vldr.32	s14, .L145	@ tmp134,
 2246 0048 F4EEC77A 		vcmpe.f32	s15, s14	@ tmp133, tmp134
 2247 004c F1EE10FA 		vmrs	APSR_nzcv, FPSCR
 2248 0050 2DD5     		bpl	.L121		@,
 2249              	@ ACE_ECF_25-ACE-ECF-CPP-V1.2/Algorithm/user_maths/cpp_files/user_maths.cpp:160:         cos_angle 
 160:ACE_ECF_25-ACE-ECF-CPP-V1.2/Algorithm/user_maths/cpp_files/user_maths.cpp ****         cos_angle = (Trigonometric_Functions[(int)(user_abs(90.0f - angle) * 10.0f)] / 100.0f);
 2250              		.loc 1 160 52
 2251 0052 9FED427A 		vldr.32	s14, .L145	@ tmp135,
 2252 0056 D7ED007A 		vldr.32	s15, [r7]	@ tmp136, angle
 2253 005a 77EE677A 		vsub.f32	s15, s14, s15	@ _1, tmp135, tmp136
 2254 005e F5EEC07A 		vcmpe.f32	s15, #0	@ _1
 2255 0062 F1EE10FA 		vmrs	APSR_nzcv, FPSCR
 2256 0066 06DD     		ble	.L143		@,
 2257              	@ ACE_ECF_25-ACE-ECF-CPP-V1.2/Algorithm/user_maths/cpp_files/user_maths.cpp:160:         cos_angle 
 2258              		.loc 1 160 52 is_stmt 0 discriminator 1
 2259 0068 9FED3C7A 		vldr.32	s14, .L145	@ tmp137,
 2260 006c D7ED007A 		vldr.32	s15, [r7]	@ tmp138, angle
 2261 0070 77EE677A 		vsub.f32	s15, s14, s15	@ iftmp.20_14, tmp137, tmp138
 2262 0074 07E0     		b	.L126		@
 2263              	.L143:
 2264              	@ ACE_ECF_25-ACE-ECF-CPP-V1.2/Algorithm/user_maths/cpp_files/user_maths.cpp:160:         cos_angle 
 2265              		.loc 1 160 52 discriminator 2
 2266 0076 9FED397A 		vldr.32	s14, .L145	@ tmp139,
 2267 007a D7ED007A 		vldr.32	s15, [r7]	@ tmp140, angle
 2268 007e 77EE677A 		vsub.f32	s15, s14, s15	@ _2, tmp139, tmp140
 2269 0082 F1EE677A 		vneg.f32	s15, s15	@ iftmp.20_14, _2
 2270              	.L126:
 2271              	@ ACE_ECF_25-ACE-ECF-CPP-V1.2/Algorithm/user_maths/cpp_files/user_maths.cpp:160:         cos_angle 
 2272              		.loc 1 160 76 is_stmt 1 discriminator 4
 2273 0086 B2EE047A 		vmov.f32	s14, #1.0e+1	@ tmp141,
 2274 008a 67EE877A 		vmul.f32	s15, s15, s14	@ _3, iftmp.20_14, tmp141
 2275              	@ ACE_ECF_25-ACE-ECF-CPP-V1.2/Algorithm/user_maths/cpp_files/user_maths.cpp:160:         cos_angle 
 2276              		.loc 1 160 46 discriminator 4
 2277 008e FDEEE77A 		vcvt.s32.f32	s15, s15	@ _4, _3
 2278 0092 17EE903A 		vmov	r3, s15	@ int	@ _4, _4
 2279              	@ ACE_ECF_25-ACE-ECF-CPP-V1.2/Algorithm/user_maths/cpp_files/user_maths.cpp:160:         cos_angle 
 2280              		.loc 1 160 84 discriminator 4
 2281 0096 324A     		ldr	r2, .L145+4	@ tmp142,
 2282 0098 9B00     		lsls	r3, r3, #2	@ tmp143, _4,
 2283 009a 1344     		add	r3, r3, r2	@ tmp144, tmp142
 2284 009c 93ED007A 		vldr.32	s14, [r3]	@ _5, Trigonometric_Functions[_4]
 2285              	@ ACE_ECF_25-ACE-ECF-CPP-V1.2/Algorithm/user_maths/cpp_files/user_maths.cpp:160:         cos_angle 
 2286              		.loc 1 160 19 discriminator 4
 2287 00a0 DFED306A 		vldr.32	s13, .L145+8	@ tmp146,
 2288 00a4 C7EE267A 		vdiv.f32	s15, s14, s13	@ tmp145, _5, tmp146
 2289 00a8 C7ED037A 		vstr.32	s15, [r7, #12]	@ tmp145, cos_angle
ARM GAS  C:\Users\30806\AppData\Local\Temp\ccYcD1nI.s 			page 44


 2290 00ac 4CE0     		b	.L127		@
 2291              	.L121:
 2292              	@ ACE_ECF_25-ACE-ECF-CPP-V1.2/Algorithm/user_maths/cpp_files/user_maths.cpp:161:     else if (angle
 161:ACE_ECF_25-ACE-ECF-CPP-V1.2/Algorithm/user_maths/cpp_files/user_maths.cpp ****     else if (angle >= 90.0f && angle < 180.f)
 2293              		.loc 1 161 10
 2294 00ae D7ED007A 		vldr.32	s15, [r7]	@ tmp147, angle
 2295 00b2 9FED2A7A 		vldr.32	s14, .L145	@ tmp148,
 2296 00b6 F4EEC77A 		vcmpe.f32	s15, s14	@ tmp147, tmp148
 2297 00ba F1EE10FA 		vmrs	APSR_nzcv, FPSCR
 2298 00be 38DB     		blt	.L128		@,
 2299              	@ ACE_ECF_25-ACE-ECF-CPP-V1.2/Algorithm/user_maths/cpp_files/user_maths.cpp:161:     else if (angle
 2300              		.loc 1 161 29 discriminator 1
 2301 00c0 D7ED007A 		vldr.32	s15, [r7]	@ tmp149, angle
 2302 00c4 9FED287A 		vldr.32	s14, .L145+12	@ tmp150,
 2303 00c8 F4EEC77A 		vcmpe.f32	s15, s14	@ tmp149, tmp150
 2304 00cc F1EE10FA 		vmrs	APSR_nzcv, FPSCR
 2305 00d0 2FD5     		bpl	.L128		@,
 2306              	@ ACE_ECF_25-ACE-ECF-CPP-V1.2/Algorithm/user_maths/cpp_files/user_maths.cpp:162:         cos_angle 
 162:ACE_ECF_25-ACE-ECF-CPP-V1.2/Algorithm/user_maths/cpp_files/user_maths.cpp ****         cos_angle = -(Trigonometric_Functions[(int)(user_abs(angle - 90.0f) * 10.0f)] / 100.0f);
 2307              		.loc 1 162 53
 2308 00d2 D7ED007A 		vldr.32	s15, [r7]	@ tmp151, angle
 2309 00d6 9FED217A 		vldr.32	s14, .L145	@ tmp152,
 2310 00da 77EEC77A 		vsub.f32	s15, s15, s14	@ _6, tmp151, tmp152
 2311 00de F5EEC07A 		vcmpe.f32	s15, #0	@ _6
 2312 00e2 F1EE10FA 		vmrs	APSR_nzcv, FPSCR
 2313 00e6 06DD     		ble	.L144		@,
 2314              	@ ACE_ECF_25-ACE-ECF-CPP-V1.2/Algorithm/user_maths/cpp_files/user_maths.cpp:162:         cos_angle 
 2315              		.loc 1 162 53 is_stmt 0 discriminator 1
 2316 00e8 D7ED007A 		vldr.32	s15, [r7]	@ tmp153, angle
 2317 00ec 9FED1B7A 		vldr.32	s14, .L145	@ tmp154,
 2318 00f0 77EEC77A 		vsub.f32	s15, s15, s14	@ iftmp.21_15, tmp153, tmp154
 2319 00f4 07E0     		b	.L133		@
 2320              	.L144:
 2321              	@ ACE_ECF_25-ACE-ECF-CPP-V1.2/Algorithm/user_maths/cpp_files/user_maths.cpp:162:         cos_angle 
 2322              		.loc 1 162 53 discriminator 2
 2323 00f6 D7ED007A 		vldr.32	s15, [r7]	@ tmp155, angle
 2324 00fa 9FED187A 		vldr.32	s14, .L145	@ tmp156,
 2325 00fe 77EEC77A 		vsub.f32	s15, s15, s14	@ _7, tmp155, tmp156
 2326 0102 F1EE677A 		vneg.f32	s15, s15	@ iftmp.21_15, _7
 2327              	.L133:
 2328              	@ ACE_ECF_25-ACE-ECF-CPP-V1.2/Algorithm/user_maths/cpp_files/user_maths.cpp:162:         cos_angle 
 2329              		.loc 1 162 77 is_stmt 1 discriminator 4
 2330 0106 B2EE047A 		vmov.f32	s14, #1.0e+1	@ tmp157,
 2331 010a 67EE877A 		vmul.f32	s15, s15, s14	@ _8, iftmp.21_15, tmp157
 2332              	@ ACE_ECF_25-ACE-ECF-CPP-V1.2/Algorithm/user_maths/cpp_files/user_maths.cpp:162:         cos_angle 
 2333              		.loc 1 162 47 discriminator 4
 2334 010e FDEEE77A 		vcvt.s32.f32	s15, s15	@ _9, _8
 2335 0112 17EE903A 		vmov	r3, s15	@ int	@ _9, _9
 2336              	@ ACE_ECF_25-ACE-ECF-CPP-V1.2/Algorithm/user_maths/cpp_files/user_maths.cpp:162:         cos_angle 
 2337              		.loc 1 162 85 discriminator 4
 2338 0116 124A     		ldr	r2, .L145+4	@ tmp158,
 2339 0118 9B00     		lsls	r3, r3, #2	@ tmp159, _9,
 2340 011a 1344     		add	r3, r3, r2	@ tmp160, tmp158
 2341 011c 93ED007A 		vldr.32	s14, [r3]	@ _10, Trigonometric_Functions[_9]
 2342              	@ ACE_ECF_25-ACE-ECF-CPP-V1.2/Algorithm/user_maths/cpp_files/user_maths.cpp:162:         cos_angle 
 2343              		.loc 1 162 87 discriminator 4
 2344 0120 DFED106A 		vldr.32	s13, .L145+8	@ tmp161,
ARM GAS  C:\Users\30806\AppData\Local\Temp\ccYcD1nI.s 			page 45


 2345 0124 C7EE267A 		vdiv.f32	s15, s14, s13	@ _11, _10, tmp161
 2346              	@ ACE_ECF_25-ACE-ECF-CPP-V1.2/Algorithm/user_maths/cpp_files/user_maths.cpp:162:         cos_angle 
 2347              		.loc 1 162 19 discriminator 4
 2348 0128 F1EE677A 		vneg.f32	s15, s15	@ tmp162, _11
 2349 012c C7ED037A 		vstr.32	s15, [r7, #12]	@ tmp162, cos_angle
 2350 0130 0AE0     		b	.L127		@
 2351              	.L128:
 2352              	@ ACE_ECF_25-ACE-ECF-CPP-V1.2/Algorithm/user_maths/cpp_files/user_maths.cpp:163:     else if (angle
 163:ACE_ECF_25-ACE-ECF-CPP-V1.2/Algorithm/user_maths/cpp_files/user_maths.cpp ****     else if (angle == 180.f)
 2353              		.loc 1 163 10
 2354 0132 D7ED007A 		vldr.32	s15, [r7]	@ tmp163, angle
 2355 0136 9FED0C7A 		vldr.32	s14, .L145+12	@ tmp164,
 2356 013a F4EE477A 		vcmp.f32	s15, s14	@ tmp163, tmp164
 2357 013e F1EE10FA 		vmrs	APSR_nzcv, FPSCR
 2358 0142 01D1     		bne	.L127		@,
 2359              	@ ACE_ECF_25-ACE-ECF-CPP-V1.2/Algorithm/user_maths/cpp_files/user_maths.cpp:164:         cos_angle 
 164:ACE_ECF_25-ACE-ECF-CPP-V1.2/Algorithm/user_maths/cpp_files/user_maths.cpp ****         cos_angle = -1.0f;
 2360              		.loc 1 164 19
 2361 0144 094B     		ldr	r3, .L145+16	@ tmp165,
 2362 0146 FB60     		str	r3, [r7, #12]	@ float	@ tmp165, cos_angle
 2363              	.L127:
 2364              	@ ACE_ECF_25-ACE-ECF-CPP-V1.2/Algorithm/user_maths/cpp_files/user_maths.cpp:166:     return cos_ang
 165:ACE_ECF_25-ACE-ECF-CPP-V1.2/Algorithm/user_maths/cpp_files/user_maths.cpp **** 
 166:ACE_ECF_25-ACE-ECF-CPP-V1.2/Algorithm/user_maths/cpp_files/user_maths.cpp ****     return cos_angle;
 2365              		.loc 1 166 12
 2366 0148 FB68     		ldr	r3, [r7, #12]	@ float	@ _29, cos_angle
 2367 014a 07EE903A 		vmov	s15, r3	@ <retval>, _29
 2368              	@ ACE_ECF_25-ACE-ECF-CPP-V1.2/Algorithm/user_maths/cpp_files/user_maths.cpp:167: }
 167:ACE_ECF_25-ACE-ECF-CPP-V1.2/Algorithm/user_maths/cpp_files/user_maths.cpp **** }
 2369              		.loc 1 167 1
 2370 014e B0EE670A 		vmov.f32	s0, s15	@, <retval>
 2371 0152 1437     		adds	r7, r7, #20	@,,
 2372              	.LCFI57:
 2373              		.cfi_def_cfa_offset 4
 2374 0154 BD46     		mov	sp, r7	@,
 2375              	.LCFI58:
 2376              		.cfi_def_cfa_register 13
 2377              		@ sp needed	@
 2378 0156 5DF8047B 		ldr	r7, [sp], #4	@,
 2379              	.LCFI59:
 2380              		.cfi_restore 7
 2381              		.cfi_def_cfa_offset 0
 2382 015a 7047     		bx	lr	@
 2383              	.L146:
 2384              		.align	2
 2385              	.L145:
 2386 015c 0000B442 		.word	1119092736
 2387 0160 00000000 		.word	_ZL23Trigonometric_Functions
 2388 0164 0000C842 		.word	1120403456
 2389 0168 00003443 		.word	1127481344
 2390 016c 000080BF 		.word	-1082130432
 2391              		.cfi_endproc
 2392              	.LFE383:
 2393              		.size	_ZN12user_maths_c13cos_calculateEf, .-_ZN12user_maths_c13cos_calculateEf
 2394              		.section	.text._ZN12user_maths_c18float_min_distanceEffff,"ax",%progbits
 2395              		.align	1
 2396              		.global	_ZN12user_maths_c18float_min_distanceEffff
ARM GAS  C:\Users\30806\AppData\Local\Temp\ccYcD1nI.s 			page 46


 2397              		.syntax unified
 2398              		.thumb
 2399              		.thumb_func
 2400              		.type	_ZN12user_maths_c18float_min_distanceEffff, %function
 2401              	_ZN12user_maths_c18float_min_distanceEffff:
 2402              	.LFB384:
 168:ACE_ECF_25-ACE-ECF-CPP-V1.2/Algorithm/user_maths/cpp_files/user_maths.cpp **** 
 169:ACE_ECF_25-ACE-ECF-CPP-V1.2/Algorithm/user_maths/cpp_files/user_maths.cpp **** float user_maths_c::float_min_distance(float target, float actual, float minValue, float maxValue)
 170:ACE_ECF_25-ACE-ECF-CPP-V1.2/Algorithm/user_maths/cpp_files/user_maths.cpp **** {
 2403              		.loc 1 170 1
 2404              		.cfi_startproc
 2405              		@ args = 0, pretend = 0, frame = 24
 2406              		@ frame_needed = 1, uses_anonymous_args = 0
 2407 0000 80B5     		push	{r7, lr}	@
 2408              	.LCFI60:
 2409              		.cfi_def_cfa_offset 8
 2410              		.cfi_offset 7, -8
 2411              		.cfi_offset 14, -4
 2412 0002 86B0     		sub	sp, sp, #24	@,,
 2413              	.LCFI61:
 2414              		.cfi_def_cfa_offset 32
 2415 0004 00AF     		add	r7, sp, #0	@,,
 2416              	.LCFI62:
 2417              		.cfi_def_cfa_register 7
 2418 0006 7861     		str	r0, [r7, #20]	@ this, this
 2419 0008 87ED040A 		vstr.32	s0, [r7, #16]	@ target, target
 2420 000c C7ED030A 		vstr.32	s1, [r7, #12]	@ actual, actual
 2421 0010 87ED021A 		vstr.32	s2, [r7, #8]	@ minValue, minValue
 2422 0014 C7ED011A 		vstr.32	s3, [r7, #4]	@ maxValue, maxValue
 2423              	@ ACE_ECF_25-ACE-ECF-CPP-V1.2/Algorithm/user_maths/cpp_files/user_maths.cpp:171: 	if (maxValue < mi
 171:ACE_ECF_25-ACE-ECF-CPP-V1.2/Algorithm/user_maths/cpp_files/user_maths.cpp **** 	if (maxValue < minValue)
 2424              		.loc 1 171 2
 2425 0018 97ED017A 		vldr.32	s14, [r7, #4]	@ tmp127, maxValue
 2426 001c D7ED027A 		vldr.32	s15, [r7, #8]	@ tmp128, minValue
 2427 0020 B4EEE77A 		vcmpe.f32	s14, s15	@ tmp127, tmp128
 2428 0024 F1EE10FA 		vmrs	APSR_nzcv, FPSCR
 2429 0028 02D5     		bpl	.L162		@,
 2430              	@ ACE_ECF_25-ACE-ECF-CPP-V1.2/Algorithm/user_maths/cpp_files/user_maths.cpp:173:         return 0;
 172:ACE_ECF_25-ACE-ECF-CPP-V1.2/Algorithm/user_maths/cpp_files/user_maths.cpp ****     {
 173:ACE_ECF_25-ACE-ECF-CPP-V1.2/Algorithm/user_maths/cpp_files/user_maths.cpp ****         return 0;
 2431              		.loc 1 173 16
 2432 002a DFED3A7A 		vldr.32	s15, .L166	@ _12,
 2433 002e 6CE0     		b	.L150		@
 2434              	.L162:
 2435              	@ ACE_ECF_25-ACE-ECF-CPP-V1.2/Algorithm/user_maths/cpp_files/user_maths.cpp:176: 	target = this->lo
 174:ACE_ECF_25-ACE-ECF-CPP-V1.2/Algorithm/user_maths/cpp_files/user_maths.cpp ****     }
 175:ACE_ECF_25-ACE-ECF-CPP-V1.2/Algorithm/user_maths/cpp_files/user_maths.cpp **** 	
 176:ACE_ECF_25-ACE-ECF-CPP-V1.2/Algorithm/user_maths/cpp_files/user_maths.cpp **** 	target = this->loop_fp32_constrain(target, minValue,maxValue);
 2436              		.loc 1 176 36
 2437 0030 97ED011A 		vldr.32	s2, [r7, #4]	@, maxValue
 2438 0034 D7ED020A 		vldr.32	s1, [r7, #8]	@, minValue
 2439 0038 97ED040A 		vldr.32	s0, [r7, #16]	@, target
 2440 003c 7869     		ldr	r0, [r7, #20]	@, this
 2441 003e FFF7FEFF 		bl	_ZN12user_maths_c19loop_fp32_constrainEfff		@
 2442 0042 87ED040A 		vstr.32	s0, [r7, #16]	@, target
 2443              	@ ACE_ECF_25-ACE-ECF-CPP-V1.2/Algorithm/user_maths/cpp_files/user_maths.cpp:178: 	if (user_abs(targ
 177:ACE_ECF_25-ACE-ECF-CPP-V1.2/Algorithm/user_maths/cpp_files/user_maths.cpp **** 	
ARM GAS  C:\Users\30806\AppData\Local\Temp\ccYcD1nI.s 			page 47


 178:ACE_ECF_25-ACE-ECF-CPP-V1.2/Algorithm/user_maths/cpp_files/user_maths.cpp **** 	if (user_abs(target - actual) > (maxValue - minValue) / 2.0f)
 2444              		.loc 1 178 6
 2445 0046 97ED047A 		vldr.32	s14, [r7, #16]	@ tmp129, target
 2446 004a D7ED037A 		vldr.32	s15, [r7, #12]	@ tmp130, actual
 2447 004e 77EE677A 		vsub.f32	s15, s14, s15	@ _1, tmp129, tmp130
 2448 0052 F5EEC07A 		vcmpe.f32	s15, #0	@ _1
 2449 0056 F1EE10FA 		vmrs	APSR_nzcv, FPSCR
 2450 005a 06DD     		ble	.L163		@,
 2451              	@ ACE_ECF_25-ACE-ECF-CPP-V1.2/Algorithm/user_maths/cpp_files/user_maths.cpp:178: 	if (user_abs(targ
 2452              		.loc 1 178 6 is_stmt 0 discriminator 1
 2453 005c 97ED047A 		vldr.32	s14, [r7, #16]	@ tmp131, target
 2454 0060 D7ED037A 		vldr.32	s15, [r7, #12]	@ tmp132, actual
 2455 0064 77EE677A 		vsub.f32	s15, s14, s15	@ iftmp.22_13, tmp131, tmp132
 2456 0068 07E0     		b	.L153		@
 2457              	.L163:
 2458              	@ ACE_ECF_25-ACE-ECF-CPP-V1.2/Algorithm/user_maths/cpp_files/user_maths.cpp:178: 	if (user_abs(targ
 2459              		.loc 1 178 6 discriminator 2
 2460 006a 97ED047A 		vldr.32	s14, [r7, #16]	@ tmp133, target
 2461 006e D7ED037A 		vldr.32	s15, [r7, #12]	@ tmp134, actual
 2462 0072 77EE677A 		vsub.f32	s15, s14, s15	@ _2, tmp133, tmp134
 2463 0076 F1EE677A 		vneg.f32	s15, s15	@ iftmp.22_13, _2
 2464              	.L153:
 2465              	@ ACE_ECF_25-ACE-ECF-CPP-V1.2/Algorithm/user_maths/cpp_files/user_maths.cpp:178: 	if (user_abs(targ
 2466              		.loc 1 178 44 is_stmt 1 discriminator 4
 2467 007a D7ED016A 		vldr.32	s13, [r7, #4]	@ tmp135, maxValue
 2468 007e 97ED027A 		vldr.32	s14, [r7, #8]	@ tmp136, minValue
 2469 0082 76EEC76A 		vsub.f32	s13, s13, s14	@ _3, tmp135, tmp136
 2470              	@ ACE_ECF_25-ACE-ECF-CPP-V1.2/Algorithm/user_maths/cpp_files/user_maths.cpp:178: 	if (user_abs(targ
 2471              		.loc 1 178 56 discriminator 4
 2472 0086 B0EE006A 		vmov.f32	s12, #2.0e+0	@ tmp137,
 2473 008a 86EE867A 		vdiv.f32	s14, s13, s12	@ _4, _3, tmp137
 2474              	@ ACE_ECF_25-ACE-ECF-CPP-V1.2/Algorithm/user_maths/cpp_files/user_maths.cpp:178: 	if (user_abs(targ
 2475              		.loc 1 178 2 discriminator 4
 2476 008e F4EEC77A 		vcmpe.f32	s15, s14	@ iftmp.22_13, _4
 2477 0092 F1EE10FA 		vmrs	APSR_nzcv, FPSCR
 2478 0096 32DD     		ble	.L164		@,
 2479              	@ ACE_ECF_25-ACE-ECF-CPP-V1.2/Algorithm/user_maths/cpp_files/user_maths.cpp:180: 		if(maxValue - ac
 179:ACE_ECF_25-ACE-ECF-CPP-V1.2/Algorithm/user_maths/cpp_files/user_maths.cpp **** 	{
 180:ACE_ECF_25-ACE-ECF-CPP-V1.2/Algorithm/user_maths/cpp_files/user_maths.cpp **** 		if(maxValue - actual < (maxValue - minValue) / 2.0f)
 2480              		.loc 1 180 15
 2481 0098 97ED017A 		vldr.32	s14, [r7, #4]	@ tmp138, maxValue
 2482 009c D7ED037A 		vldr.32	s15, [r7, #12]	@ tmp139, actual
 2483 00a0 37EE677A 		vsub.f32	s14, s14, s15	@ _5, tmp138, tmp139
 2484              	@ ACE_ECF_25-ACE-ECF-CPP-V1.2/Algorithm/user_maths/cpp_files/user_maths.cpp:180: 		if(maxValue - ac
 2485              		.loc 1 180 36
 2486 00a4 D7ED016A 		vldr.32	s13, [r7, #4]	@ tmp140, maxValue
 2487 00a8 D7ED027A 		vldr.32	s15, [r7, #8]	@ tmp141, minValue
 2488 00ac 76EEE76A 		vsub.f32	s13, s13, s15	@ _6, tmp140, tmp141
 2489              	@ ACE_ECF_25-ACE-ECF-CPP-V1.2/Algorithm/user_maths/cpp_files/user_maths.cpp:180: 		if(maxValue - ac
 2490              		.loc 1 180 48
 2491 00b0 B0EE006A 		vmov.f32	s12, #2.0e+0	@ tmp142,
 2492 00b4 C6EE867A 		vdiv.f32	s15, s13, s12	@ _7, _6, tmp142
 2493              	@ ACE_ECF_25-ACE-ECF-CPP-V1.2/Algorithm/user_maths/cpp_files/user_maths.cpp:180: 		if(maxValue - ac
 2494              		.loc 1 180 3
 2495 00b8 B4EEE77A 		vcmpe.f32	s14, s15	@ _5, _7
 2496 00bc F1EE10FA 		vmrs	APSR_nzcv, FPSCR
 2497 00c0 0ED5     		bpl	.L165		@,
ARM GAS  C:\Users\30806\AppData\Local\Temp\ccYcD1nI.s 			page 48


 2498              	@ ACE_ECF_25-ACE-ECF-CPP-V1.2/Algorithm/user_maths/cpp_files/user_maths.cpp:182: 			return maxValue
 181:ACE_ECF_25-ACE-ECF-CPP-V1.2/Algorithm/user_maths/cpp_files/user_maths.cpp **** 		{
 182:ACE_ECF_25-ACE-ECF-CPP-V1.2/Algorithm/user_maths/cpp_files/user_maths.cpp **** 			return maxValue - actual + target - minValue;
 2499              		.loc 1 182 20
 2500 00c2 97ED017A 		vldr.32	s14, [r7, #4]	@ tmp143, maxValue
 2501 00c6 D7ED037A 		vldr.32	s15, [r7, #12]	@ tmp144, actual
 2502 00ca 37EE677A 		vsub.f32	s14, s14, s15	@ _8, tmp143, tmp144
 2503              	@ ACE_ECF_25-ACE-ECF-CPP-V1.2/Algorithm/user_maths/cpp_files/user_maths.cpp:182: 			return maxValue
 2504              		.loc 1 182 29
 2505 00ce D7ED047A 		vldr.32	s15, [r7, #16]	@ tmp145, target
 2506 00d2 37EE277A 		vadd.f32	s14, s14, s15	@ _9, _8, tmp145
 2507              	@ ACE_ECF_25-ACE-ECF-CPP-V1.2/Algorithm/user_maths/cpp_files/user_maths.cpp:182: 			return maxValue
 2508              		.loc 1 182 40
 2509 00d6 D7ED027A 		vldr.32	s15, [r7, #8]	@ tmp146, minValue
 2510 00da 77EE677A 		vsub.f32	s15, s14, s15	@ _12, _9, tmp146
 2511 00de 14E0     		b	.L150		@
 2512              	.L165:
 2513              	@ ACE_ECF_25-ACE-ECF-CPP-V1.2/Algorithm/user_maths/cpp_files/user_maths.cpp:186: 			return minValue
 183:ACE_ECF_25-ACE-ECF-CPP-V1.2/Algorithm/user_maths/cpp_files/user_maths.cpp **** 		}
 184:ACE_ECF_25-ACE-ECF-CPP-V1.2/Algorithm/user_maths/cpp_files/user_maths.cpp **** 		else
 185:ACE_ECF_25-ACE-ECF-CPP-V1.2/Algorithm/user_maths/cpp_files/user_maths.cpp **** 		{
 186:ACE_ECF_25-ACE-ECF-CPP-V1.2/Algorithm/user_maths/cpp_files/user_maths.cpp **** 			return minValue - actual + target - maxValue;
 2514              		.loc 1 186 20
 2515 00e0 97ED027A 		vldr.32	s14, [r7, #8]	@ tmp147, minValue
 2516 00e4 D7ED037A 		vldr.32	s15, [r7, #12]	@ tmp148, actual
 2517 00e8 37EE677A 		vsub.f32	s14, s14, s15	@ _10, tmp147, tmp148
 2518              	@ ACE_ECF_25-ACE-ECF-CPP-V1.2/Algorithm/user_maths/cpp_files/user_maths.cpp:186: 			return minValue
 2519              		.loc 1 186 29
 2520 00ec D7ED047A 		vldr.32	s15, [r7, #16]	@ tmp149, target
 2521 00f0 37EE277A 		vadd.f32	s14, s14, s15	@ _11, _10, tmp149
 2522              	@ ACE_ECF_25-ACE-ECF-CPP-V1.2/Algorithm/user_maths/cpp_files/user_maths.cpp:186: 			return minValue
 2523              		.loc 1 186 40
 2524 00f4 D7ED017A 		vldr.32	s15, [r7, #4]	@ tmp150, maxValue
 2525 00f8 77EE677A 		vsub.f32	s15, s14, s15	@ _12, _11, tmp150
 2526 00fc 05E0     		b	.L150		@
 2527              	.L164:
 2528              	@ ACE_ECF_25-ACE-ECF-CPP-V1.2/Algorithm/user_maths/cpp_files/user_maths.cpp:191: 		return target - 
 187:ACE_ECF_25-ACE-ECF-CPP-V1.2/Algorithm/user_maths/cpp_files/user_maths.cpp **** 		}
 188:ACE_ECF_25-ACE-ECF-CPP-V1.2/Algorithm/user_maths/cpp_files/user_maths.cpp **** 	}
 189:ACE_ECF_25-ACE-ECF-CPP-V1.2/Algorithm/user_maths/cpp_files/user_maths.cpp **** 	else 
 190:ACE_ECF_25-ACE-ECF-CPP-V1.2/Algorithm/user_maths/cpp_files/user_maths.cpp **** 	{
 191:ACE_ECF_25-ACE-ECF-CPP-V1.2/Algorithm/user_maths/cpp_files/user_maths.cpp **** 		return target - actual;
 2529              		.loc 1 191 19
 2530 00fe 97ED047A 		vldr.32	s14, [r7, #16]	@ tmp151, target
 2531 0102 D7ED037A 		vldr.32	s15, [r7, #12]	@ tmp152, actual
 2532 0106 77EE677A 		vsub.f32	s15, s14, s15	@ _12, tmp151, tmp152
 2533              	.L150:
 2534              	@ ACE_ECF_25-ACE-ECF-CPP-V1.2/Algorithm/user_maths/cpp_files/user_maths.cpp:194: }
 192:ACE_ECF_25-ACE-ECF-CPP-V1.2/Algorithm/user_maths/cpp_files/user_maths.cpp **** 	}
 193:ACE_ECF_25-ACE-ECF-CPP-V1.2/Algorithm/user_maths/cpp_files/user_maths.cpp **** 	
 194:ACE_ECF_25-ACE-ECF-CPP-V1.2/Algorithm/user_maths/cpp_files/user_maths.cpp **** }
 2535              		.loc 1 194 1
 2536 010a B0EE670A 		vmov.f32	s0, s15	@, <retval>
 2537 010e 1837     		adds	r7, r7, #24	@,,
 2538              	.LCFI63:
 2539              		.cfi_def_cfa_offset 8
 2540 0110 BD46     		mov	sp, r7	@,
ARM GAS  C:\Users\30806\AppData\Local\Temp\ccYcD1nI.s 			page 49


 2541              	.LCFI64:
 2542              		.cfi_def_cfa_register 13
 2543              		@ sp needed	@
 2544 0112 80BD     		pop	{r7, pc}	@
 2545              	.L167:
 2546              		.align	2
 2547              	.L166:
 2548 0114 00000000 		.word	0
 2549              		.cfi_endproc
 2550              	.LFE384:
 2551              		.size	_ZN12user_maths_c18float_min_distanceEffff, .-_ZN12user_maths_c18float_min_distanceEffff
 2552              		.section	.text._ZN12user_maths_c19CircleIncreaseLimitEfff,"ax",%progbits
 2553              		.align	1
 2554              		.global	_ZN12user_maths_c19CircleIncreaseLimitEfff
 2555              		.syntax unified
 2556              		.thumb
 2557              		.thumb_func
 2558              		.type	_ZN12user_maths_c19CircleIncreaseLimitEfff, %function
 2559              	_ZN12user_maths_c19CircleIncreaseLimitEfff:
 2560              	.LFB385:
 195:ACE_ECF_25-ACE-ECF-CPP-V1.2/Algorithm/user_maths/cpp_files/user_maths.cpp **** /***
 196:ACE_ECF_25-ACE-ECF-CPP-V1.2/Algorithm/user_maths/cpp_files/user_maths.cpp ****  * @brief 周期递增限制
 197:ACE_ECF_25-ACE-ECF-CPP-V1.2/Algorithm/user_maths/cpp_files/user_maths.cpp ****  * @param current_val 当前实际值
 198:ACE_ECF_25-ACE-ECF-CPP-V1.2/Algorithm/user_maths/cpp_files/user_maths.cpp ****  * @param set_val 设定值
 199:ACE_ECF_25-ACE-ECF-CPP-V1.2/Algorithm/user_maths/cpp_files/user_maths.cpp ****  * @param limit 每次调用该函数最大递增的值, 为正数
 200:ACE_ECF_25-ACE-ECF-CPP-V1.2/Algorithm/user_maths/cpp_files/user_maths.cpp ****  * @return 返回一个处理好的值
 201:ACE_ECF_25-ACE-ECF-CPP-V1.2/Algorithm/user_maths/cpp_files/user_maths.cpp **** */
 202:ACE_ECF_25-ACE-ECF-CPP-V1.2/Algorithm/user_maths/cpp_files/user_maths.cpp **** float user_maths_c::CircleIncreaseLimit(float current_val, float set_val, float limit)
 203:ACE_ECF_25-ACE-ECF-CPP-V1.2/Algorithm/user_maths/cpp_files/user_maths.cpp **** {   
 2561              		.loc 1 203 1
 2562              		.cfi_startproc
 2563              		@ args = 0, pretend = 0, frame = 16
 2564              		@ frame_needed = 1, uses_anonymous_args = 0
 2565              		@ link register save eliminated.
 2566 0000 80B4     		push	{r7}	@
 2567              	.LCFI65:
 2568              		.cfi_def_cfa_offset 4
 2569              		.cfi_offset 7, -4
 2570 0002 85B0     		sub	sp, sp, #20	@,,
 2571              	.LCFI66:
 2572              		.cfi_def_cfa_offset 24
 2573 0004 00AF     		add	r7, sp, #0	@,,
 2574              	.LCFI67:
 2575              		.cfi_def_cfa_register 7
 2576 0006 F860     		str	r0, [r7, #12]	@ this, this
 2577 0008 87ED020A 		vstr.32	s0, [r7, #8]	@ current_val, current_val
 2578 000c C7ED010A 		vstr.32	s1, [r7, #4]	@ set_val, set_val
 2579 0010 87ED001A 		vstr.32	s2, [r7]	@ limit, limit
 2580              	@ ACE_ECF_25-ACE-ECF-CPP-V1.2/Algorithm/user_maths/cpp_files/user_maths.cpp:204:     limit = user_a
 204:ACE_ECF_25-ACE-ECF-CPP-V1.2/Algorithm/user_maths/cpp_files/user_maths.cpp ****     limit = user_abs(limit);
 2581              		.loc 1 204 13
 2582 0014 D7ED007A 		vldr.32	s15, [r7]	@ tmp119, limit
 2583 0018 F5EEC07A 		vcmpe.f32	s15, #0	@ tmp119
 2584 001c F1EE10FA 		vmrs	APSR_nzcv, FPSCR
 2585 0020 02DD     		ble	.L180		@,
 2586              	@ ACE_ECF_25-ACE-ECF-CPP-V1.2/Algorithm/user_maths/cpp_files/user_maths.cpp:204:     limit = user_a
 2587              		.loc 1 204 13 is_stmt 0 discriminator 1
ARM GAS  C:\Users\30806\AppData\Local\Temp\ccYcD1nI.s 			page 50


 2588 0022 D7ED007A 		vldr.32	s15, [r7]	@ iftmp.23_4, limit
 2589 0026 03E0     		b	.L171		@
 2590              	.L180:
 2591              	@ ACE_ECF_25-ACE-ECF-CPP-V1.2/Algorithm/user_maths/cpp_files/user_maths.cpp:204:     limit = user_a
 2592              		.loc 1 204 13 discriminator 2
 2593 0028 D7ED007A 		vldr.32	s15, [r7]	@ tmp120, limit
 2594 002c F1EE677A 		vneg.f32	s15, s15	@ iftmp.23_4, tmp120
 2595              	.L171:
 2596              	@ ACE_ECF_25-ACE-ECF-CPP-V1.2/Algorithm/user_maths/cpp_files/user_maths.cpp:204:     limit = user_a
 2597              		.loc 1 204 11 is_stmt 1 discriminator 4
 2598 0030 C7ED007A 		vstr.32	s15, [r7]	@ iftmp.23_4, limit
 2599              	@ ACE_ECF_25-ACE-ECF-CPP-V1.2/Algorithm/user_maths/cpp_files/user_maths.cpp:205:     if(set_val - c
 205:ACE_ECF_25-ACE-ECF-CPP-V1.2/Algorithm/user_maths/cpp_files/user_maths.cpp ****     if(set_val - current_val > limit)
 2600              		.loc 1 205 16 discriminator 4
 2601 0034 97ED017A 		vldr.32	s14, [r7, #4]	@ tmp121, set_val
 2602 0038 D7ED027A 		vldr.32	s15, [r7, #8]	@ tmp122, current_val
 2603 003c 77EE677A 		vsub.f32	s15, s14, s15	@ _1, tmp121, tmp122
 2604              	@ ACE_ECF_25-ACE-ECF-CPP-V1.2/Algorithm/user_maths/cpp_files/user_maths.cpp:205:     if(set_val - c
 2605              		.loc 1 205 5 discriminator 4
 2606 0040 97ED007A 		vldr.32	s14, [r7]	@ tmp123, limit
 2607 0044 B4EEE77A 		vcmpe.f32	s14, s15	@ tmp123, _1
 2608 0048 F1EE10FA 		vmrs	APSR_nzcv, FPSCR
 2609 004c 06D5     		bpl	.L181		@,
 2610              	@ ACE_ECF_25-ACE-ECF-CPP-V1.2/Algorithm/user_maths/cpp_files/user_maths.cpp:207:         return cur
 206:ACE_ECF_25-ACE-ECF-CPP-V1.2/Algorithm/user_maths/cpp_files/user_maths.cpp ****     {
 207:ACE_ECF_25-ACE-ECF-CPP-V1.2/Algorithm/user_maths/cpp_files/user_maths.cpp ****         return current_val + limit;
 2611              		.loc 1 207 30
 2612 004e 97ED027A 		vldr.32	s14, [r7, #8]	@ tmp124, current_val
 2613 0052 D7ED007A 		vldr.32	s15, [r7]	@ tmp125, limit
 2614 0056 77EE277A 		vadd.f32	s15, s14, s15	@ _5, tmp124, tmp125
 2615 005a 17E0     		b	.L174		@
 2616              	.L181:
 2617              	@ ACE_ECF_25-ACE-ECF-CPP-V1.2/Algorithm/user_maths/cpp_files/user_maths.cpp:209:     else if(set_va
 208:ACE_ECF_25-ACE-ECF-CPP-V1.2/Algorithm/user_maths/cpp_files/user_maths.cpp ****     }
 209:ACE_ECF_25-ACE-ECF-CPP-V1.2/Algorithm/user_maths/cpp_files/user_maths.cpp ****     else if(set_val - current_val < -limit)
 2618              		.loc 1 209 21
 2619 005c 97ED017A 		vldr.32	s14, [r7, #4]	@ tmp126, set_val
 2620 0060 D7ED027A 		vldr.32	s15, [r7, #8]	@ tmp127, current_val
 2621 0064 37EE677A 		vsub.f32	s14, s14, s15	@ _2, tmp126, tmp127
 2622              	@ ACE_ECF_25-ACE-ECF-CPP-V1.2/Algorithm/user_maths/cpp_files/user_maths.cpp:209:     else if(set_va
 2623              		.loc 1 209 37
 2624 0068 D7ED007A 		vldr.32	s15, [r7]	@ tmp128, limit
 2625 006c F1EE677A 		vneg.f32	s15, s15	@ _3, tmp128
 2626              	@ ACE_ECF_25-ACE-ECF-CPP-V1.2/Algorithm/user_maths/cpp_files/user_maths.cpp:209:     else if(set_va
 2627              		.loc 1 209 10
 2628 0070 B4EEE77A 		vcmpe.f32	s14, s15	@ _2, _3
 2629 0074 F1EE10FA 		vmrs	APSR_nzcv, FPSCR
 2630 0078 06D5     		bpl	.L182		@,
 2631              	@ ACE_ECF_25-ACE-ECF-CPP-V1.2/Algorithm/user_maths/cpp_files/user_maths.cpp:211:         return cur
 210:ACE_ECF_25-ACE-ECF-CPP-V1.2/Algorithm/user_maths/cpp_files/user_maths.cpp ****     {
 211:ACE_ECF_25-ACE-ECF-CPP-V1.2/Algorithm/user_maths/cpp_files/user_maths.cpp ****         return current_val - limit;
 2632              		.loc 1 211 30
 2633 007a 97ED027A 		vldr.32	s14, [r7, #8]	@ tmp129, current_val
 2634 007e D7ED007A 		vldr.32	s15, [r7]	@ tmp130, limit
 2635 0082 77EE677A 		vsub.f32	s15, s14, s15	@ _5, tmp129, tmp130
 2636 0086 01E0     		b	.L174		@
 2637              	.L182:
ARM GAS  C:\Users\30806\AppData\Local\Temp\ccYcD1nI.s 			page 51


 2638              	@ ACE_ECF_25-ACE-ECF-CPP-V1.2/Algorithm/user_maths/cpp_files/user_maths.cpp:215:         return set
 212:ACE_ECF_25-ACE-ECF-CPP-V1.2/Algorithm/user_maths/cpp_files/user_maths.cpp ****     }
 213:ACE_ECF_25-ACE-ECF-CPP-V1.2/Algorithm/user_maths/cpp_files/user_maths.cpp ****     else
 214:ACE_ECF_25-ACE-ECF-CPP-V1.2/Algorithm/user_maths/cpp_files/user_maths.cpp ****     {
 215:ACE_ECF_25-ACE-ECF-CPP-V1.2/Algorithm/user_maths/cpp_files/user_maths.cpp ****         return set_val;
 2639              		.loc 1 215 16
 2640 0088 D7ED017A 		vldr.32	s15, [r7, #4]	@ _5, set_val
 2641              	.L174:
 2642              	@ ACE_ECF_25-ACE-ECF-CPP-V1.2/Algorithm/user_maths/cpp_files/user_maths.cpp:217: }
 216:ACE_ECF_25-ACE-ECF-CPP-V1.2/Algorithm/user_maths/cpp_files/user_maths.cpp ****     }
 217:ACE_ECF_25-ACE-ECF-CPP-V1.2/Algorithm/user_maths/cpp_files/user_maths.cpp **** }
 2643              		.loc 1 217 1
 2644 008c B0EE670A 		vmov.f32	s0, s15	@, <retval>
 2645 0090 1437     		adds	r7, r7, #20	@,,
 2646              	.LCFI68:
 2647              		.cfi_def_cfa_offset 4
 2648 0092 BD46     		mov	sp, r7	@,
 2649              	.LCFI69:
 2650              		.cfi_def_cfa_register 13
 2651              		@ sp needed	@
 2652 0094 5DF8047B 		ldr	r7, [sp], #4	@,
 2653              	.LCFI70:
 2654              		.cfi_restore 7
 2655              		.cfi_def_cfa_offset 0
 2656 0098 7047     		bx	lr	@
 2657              		.cfi_endproc
 2658              	.LFE385:
 2659              		.size	_ZN12user_maths_c19CircleIncreaseLimitEfff, .-_ZN12user_maths_c19CircleIncreaseLimitEfff
 2660              		.section	.text._ZN12user_maths_c14user_val_limitEfff,"ax",%progbits
 2661              		.align	1
 2662              		.global	_ZN12user_maths_c14user_val_limitEfff
 2663              		.syntax unified
 2664              		.thumb
 2665              		.thumb_func
 2666              		.type	_ZN12user_maths_c14user_val_limitEfff, %function
 2667              	_ZN12user_maths_c14user_val_limitEfff:
 2668              	.LFB386:
 218:ACE_ECF_25-ACE-ECF-CPP-V1.2/Algorithm/user_maths/cpp_files/user_maths.cpp **** 
 219:ACE_ECF_25-ACE-ECF-CPP-V1.2/Algorithm/user_maths/cpp_files/user_maths.cpp **** float user_maths_c::user_val_limit(float val, float min, float max)
 220:ACE_ECF_25-ACE-ECF-CPP-V1.2/Algorithm/user_maths/cpp_files/user_maths.cpp **** {
 2669              		.loc 1 220 1
 2670              		.cfi_startproc
 2671              		@ args = 0, pretend = 0, frame = 16
 2672              		@ frame_needed = 1, uses_anonymous_args = 0
 2673              		@ link register save eliminated.
 2674 0000 80B4     		push	{r7}	@
 2675              	.LCFI71:
 2676              		.cfi_def_cfa_offset 4
 2677              		.cfi_offset 7, -4
 2678 0002 85B0     		sub	sp, sp, #20	@,,
 2679              	.LCFI72:
 2680              		.cfi_def_cfa_offset 24
 2681 0004 00AF     		add	r7, sp, #0	@,,
 2682              	.LCFI73:
 2683              		.cfi_def_cfa_register 7
 2684 0006 F860     		str	r0, [r7, #12]	@ this, this
 2685 0008 87ED020A 		vstr.32	s0, [r7, #8]	@ val, val
ARM GAS  C:\Users\30806\AppData\Local\Temp\ccYcD1nI.s 			page 52


 2686 000c C7ED010A 		vstr.32	s1, [r7, #4]	@ min, min
 2687 0010 87ED001A 		vstr.32	s2, [r7]	@ max, max
 2688              	@ ACE_ECF_25-ACE-ECF-CPP-V1.2/Algorithm/user_maths/cpp_files/user_maths.cpp:221:     (val) = (val) 
 221:ACE_ECF_25-ACE-ECF-CPP-V1.2/Algorithm/user_maths/cpp_files/user_maths.cpp ****     (val) = (val) < (min) ? (min) : (val);
 2689              		.loc 1 221 27
 2690 0014 97ED027A 		vldr.32	s14, [r7, #8]	@ tmp117, val
 2691 0018 D7ED017A 		vldr.32	s15, [r7, #4]	@ tmp118, min
 2692 001c B4EEE77A 		vcmpe.f32	s14, s15	@ tmp117, tmp118
 2693 0020 F1EE10FA 		vmrs	APSR_nzcv, FPSCR
 2694 0024 01D5     		bpl	.L193		@,
 2695              	@ ACE_ECF_25-ACE-ECF-CPP-V1.2/Algorithm/user_maths/cpp_files/user_maths.cpp:221:     (val) = (val) 
 2696              		.loc 1 221 27 is_stmt 0 discriminator 1
 2697 0026 7B68     		ldr	r3, [r7, #4]	@ float	@ iftmp.24_1, min
 2698 0028 00E0     		b	.L186		@
 2699              	.L193:
 2700              	@ ACE_ECF_25-ACE-ECF-CPP-V1.2/Algorithm/user_maths/cpp_files/user_maths.cpp:221:     (val) = (val) 
 2701              		.loc 1 221 27 discriminator 2
 2702 002a BB68     		ldr	r3, [r7, #8]	@ float	@ iftmp.24_1, val
 2703              	.L186:
 2704              	@ ACE_ECF_25-ACE-ECF-CPP-V1.2/Algorithm/user_maths/cpp_files/user_maths.cpp:221:     (val) = (val) 
 2705              		.loc 1 221 11 is_stmt 1 discriminator 4
 2706 002c BB60     		str	r3, [r7, #8]	@ float	@ iftmp.24_1, val
 2707              	@ ACE_ECF_25-ACE-ECF-CPP-V1.2/Algorithm/user_maths/cpp_files/user_maths.cpp:222:     (val) = (val) 
 222:ACE_ECF_25-ACE-ECF-CPP-V1.2/Algorithm/user_maths/cpp_files/user_maths.cpp ****     (val) = (val) > (max) ? (max) : (val);
 2708              		.loc 1 222 27 discriminator 4
 2709 002e 97ED027A 		vldr.32	s14, [r7, #8]	@ tmp119, val
 2710 0032 D7ED007A 		vldr.32	s15, [r7]	@ tmp120, max
 2711 0036 B4EEE77A 		vcmpe.f32	s14, s15	@ tmp119, tmp120
 2712 003a F1EE10FA 		vmrs	APSR_nzcv, FPSCR
 2713 003e 01DD     		ble	.L194		@,
 2714              	@ ACE_ECF_25-ACE-ECF-CPP-V1.2/Algorithm/user_maths/cpp_files/user_maths.cpp:222:     (val) = (val) 
 2715              		.loc 1 222 27 is_stmt 0 discriminator 1
 2716 0040 3B68     		ldr	r3, [r7]	@ float	@ iftmp.25_2, max
 2717 0042 00E0     		b	.L189		@
 2718              	.L194:
 2719              	@ ACE_ECF_25-ACE-ECF-CPP-V1.2/Algorithm/user_maths/cpp_files/user_maths.cpp:222:     (val) = (val) 
 2720              		.loc 1 222 27 discriminator 2
 2721 0044 BB68     		ldr	r3, [r7, #8]	@ float	@ iftmp.25_2, val
 2722              	.L189:
 2723              	@ ACE_ECF_25-ACE-ECF-CPP-V1.2/Algorithm/user_maths/cpp_files/user_maths.cpp:222:     (val) = (val) 
 2724              		.loc 1 222 11 is_stmt 1 discriminator 4
 2725 0046 BB60     		str	r3, [r7, #8]	@ float	@ iftmp.25_2, val
 2726              	@ ACE_ECF_25-ACE-ECF-CPP-V1.2/Algorithm/user_maths/cpp_files/user_maths.cpp:223:     return val;
 223:ACE_ECF_25-ACE-ECF-CPP-V1.2/Algorithm/user_maths/cpp_files/user_maths.cpp ****     return val;
 2727              		.loc 1 223 12 discriminator 4
 2728 0048 BB68     		ldr	r3, [r7, #8]	@ float	@ _12, val
 2729 004a 07EE903A 		vmov	s15, r3	@ <retval>, _12
 2730              	@ ACE_ECF_25-ACE-ECF-CPP-V1.2/Algorithm/user_maths/cpp_files/user_maths.cpp:224: }
 224:ACE_ECF_25-ACE-ECF-CPP-V1.2/Algorithm/user_maths/cpp_files/user_maths.cpp **** }
 2731              		.loc 1 224 1 discriminator 4
 2732 004e B0EE670A 		vmov.f32	s0, s15	@, <retval>
 2733 0052 1437     		adds	r7, r7, #20	@,,
 2734              	.LCFI74:
 2735              		.cfi_def_cfa_offset 4
 2736 0054 BD46     		mov	sp, r7	@,
 2737              	.LCFI75:
 2738              		.cfi_def_cfa_register 13
ARM GAS  C:\Users\30806\AppData\Local\Temp\ccYcD1nI.s 			page 53


 2739              		@ sp needed	@
 2740 0056 5DF8047B 		ldr	r7, [sp], #4	@,
 2741              	.LCFI76:
 2742              		.cfi_restore 7
 2743              		.cfi_def_cfa_offset 0
 2744 005a 7047     		bx	lr	@
 2745              		.cfi_endproc
 2746              	.LFE386:
 2747              		.size	_ZN12user_maths_c14user_val_limitEfff, .-_ZN12user_maths_c14user_val_limitEfff
 2748              		.text
 2749              	.Letext0:
 2750              		.file 2 "d:\\stm_for_vs\\gcc-arm-none-eabi-10.3-2021.10\\arm-none-eabi\\include\\machine\\_default
 2751              		.file 3 "d:\\stm_for_vs\\gcc-arm-none-eabi-10.3-2021.10\\arm-none-eabi\\include\\sys\\_stdint.h"
 2752              		.file 4 "ACE_ECF_25-ACE-ECF-CPP-V1.2/Algorithm/user_maths/cpp_files/user_maths.hpp"
 2753              		.file 5 "d:\\stm_for_vs\\gcc-arm-none-eabi-10.3-2021.10\\arm-none-eabi\\include\\c++\\10.3.1\\bits
 2754              		.file 6 "d:\\stm_for_vs\\gcc-arm-none-eabi-10.3-2021.10\\arm-none-eabi\\include\\c++\\10.3.1\\cmat
 2755              		.file 7 "d:\\stm_for_vs\\gcc-arm-none-eabi-10.3-2021.10\\arm-none-eabi\\include\\c++\\10.3.1\\bits
 2756              		.file 8 "d:\\stm_for_vs\\gcc-arm-none-eabi-10.3-2021.10\\arm-none-eabi\\include\\c++\\10.3.1\\arm-
 2757              		.file 9 "d:\\stm_for_vs\\gcc-arm-none-eabi-10.3-2021.10\\arm-none-eabi\\include\\math.h"
 2758              		.file 10 "d:\\stm_for_vs\\gcc-arm-none-eabi-10.3-2021.10\\arm-none-eabi\\include\\c++\\10.3.1\\mat
 2759              		.file 11 "ACE_ECF_25-ACE-ECF-CPP-V1.2/Algorithm/user_maths/list_of_trigfunction.h"
 2760              		.file 12 "<built-in>"