ARM GAS  C:\Users\30806\AppData\Local\Temp\ccYcD1nI.s 			page 1


   1              		.cpu cortex-m4
   2              		.arch armv7e-m
   3              		.fpu fpv4-sp-d16
   4              		.eabi_attribute 27, 1	@ Tag_ABI_HardFP_use
   5              		.eabi_attribute 28, 1	@ Tag_ABI_VFP_args
   6              		.eabi_attribute 20, 1	@ Tag_ABI_FP_denormal
   7              		.eabi_attribute 21, 1	@ Tag_ABI_FP_exceptions
   8              		.eabi_attribute 23, 3	@ Tag_ABI_FP_number_model
   9              		.eabi_attribute 24, 1	@ Tag_ABI_align8_needed
  10              		.eabi_attribute 25, 1	@ Tag_ABI_align8_preserved
  11              		.eabi_attribute 26, 1	@ Tag_ABI_enum_size
  12              		.eabi_attribute 30, 6	@ Tag_ABI_optimization_goals
  13              		.eabi_attribute 34, 1	@ Tag_CPU_unaligned_access
  14              		.eabi_attribute 18, 4	@ Tag_ABI_PCS_wchar_t
  15              		.file	"user_maths.cpp"
  16              	@ GNU C++14 (GNU Arm Embedded Toolchain 10.3-2021.10) version 10.3.1 20210824 (release) (arm-none-e
  17              	@	compiled by GNU C version 7.3-win32 20180312, GMP version 6.1.0, MPFR version 3.1.4, MPC version 
  18              	
  19              	@ GGC heuristics: --param ggc-min-expand=100 --param ggc-min-heapsize=131072
  20              	@ options passed:  -I Core/Inc -I USB_DEVICE/App -I USB_DEVICE/Target
  21              	@ -I Drivers/STM32F4xx_HAL_Driver/Inc
  22              	@ -I Drivers/STM32F4xx_HAL_Driver/Inc/Legacy
  23              	@ -I Middlewares/Third_Party/FreeRTOS/Source/include
  24              	@ -I Middlewares/Third_Party/FreeRTOS/Source/CMSIS_RTOS
  25              	@ -I Middlewares/Third_Party/FreeRTOS/Source/portable/GCC/ARM_CM4F
  26              	@ -I Drivers/CMSIS/Device/ST/STM32F4xx/Include -I Drivers/CMSIS/Include
  27              	@ -I Middlewares/ST/ARM/DSP/Inc
  28              	@ -I Middlewares/ST/STM32_USB_Device_Library/Core/Inc
  29              	@ -I Middlewares/ST/STM32_USB_Device_Library/Class/CDC/Inc
  30              	@ -I ACE_ECF_25-ACE-ECF-CPP-V1.2/Algorithm/user_maths -I App/C_virtual
  31              	@ -I ACE_ECF_25-ACE-ECF-CPP-V1.2/Algorithm
  32              	@ -I ACE_ECF_25-ACE-ECF-CPP-V1.2/Algorithm/filter_alg
  33              	@ -I ACE_ECF_25-ACE-ECF-CPP-V1.2/Algorithm/kalman_filter
  34              	@ -I ACE_ECF_25-ACE-ECF-CPP-V1.2/Algorithm/lqr
  35              	@ -I ACE_ECF_25-ACE-ECF-CPP-V1.2/Algorithm/PID
  36              	@ -I ACE_ECF_25-ACE-ECF-CPP-V1.2/Algorithm/quaternion_kalman
  37              	@ -I ACE_ECF_25-ACE-ECF-CPP-V1.2/Algorithm/user_maths
  38              	@ -I ACE_ECF_25-ACE-ECF-CPP-V1.2/Algorithm/user_maths/cpp_files
  39              	@ -I ACE_ECF_25-ACE-ECF-CPP-V1.2/Bsp
  40              	@ -I ACE_ECF_25-ACE-ECF-CPP-V1.2/Bsp/bsp_usart
  41              	@ -I ACE_ECF_25-ACE-ECF-CPP-V1.2/Bsp/bsp_usart/F4
  42              	@ -I ACE_ECF_25-ACE-ECF-CPP-V1.2/Bsp/can_part
  43              	@ -I ACE_ECF_25-ACE-ECF-CPP-V1.2/Bsp/can_part/can
  44              	@ -I ACE_ECF_25-ACE-ECF-CPP-V1.2/Bsp/dwt
  45              	@ -I ACE_ECF_25-ACE-ECF-CPP-V1.2/module
  46              	@ -I ACE_ECF_25-ACE-ECF-CPP-V1.2/module/dr16
  47              	@ -I ACE_ECF_25-ACE-ECF-CPP-V1.2/module/motor
  48              	@ -I ACE_ECF_25-ACE-ECF-CPP-V1.2/module/motor/DJImotor
  49              	@ -I ACE_ECF_25-ACE-ECF-CPP-V1.2/module/motor/LK_motor
  50              	@ -I ACE_ECF_25-ACE-ECF-CPP-V1.2/module/motor/DMmotor
  51              	@ -I ACE_ECF_25-ACE-ECF-CPP-V1.2/module/motor/DMmotor/dm_mit_mode
  52              	@ -I ACE_ECF_25-ACE-ECF-CPP-V1.2/module/motor/Cybergear
  53              	@ -I ACE_ECF_25-ACE-ECF-CPP-V1.2/module/imu
  54              	@ -I ACE_ECF_25-ACE-ECF-CPP-V1.2/App/safe_task -I App -I Main -I Task
  55              	@ -imultilib thumb/v7e-m+fp/hard
  56              	@ -iprefix d:\stm_for_vs\gcc-arm-none-eabi-10.3-2021.10\bin\../lib/gcc/arm-none-eabi/10.3.1/
  57              	@ -isysroot d:\stm_for_vs\gcc-arm-none-eabi-10.3-2021.10\bin\../arm-none-eabi
ARM GAS  C:\Users\30806\AppData\Local\Temp\ccYcD1nI.s 			page 2


  58              	@ -MMD build/user_maths.d -MF build/user_maths.d -MP -MQ build/user_maths.o
  59              	@ -D__USES_INITFINI__ -D USE_HAL_DRIVER -D STM32F405xx
  60              	@ ACE_ECF_25-ACE-ECF-CPP-V1.2/Algorithm/user_maths/cpp_files/user_maths.cpp
  61              	@ -mcpu=cortex-m4 -mthumb -mfpu=fpv4-sp-d16 -mfloat-abi=hard
  62              	@ -mlibarch=armv7e-m+fp -march=armv7e-m+fp
  63              	@ -auxbase-strip build/user_maths.o -g -gdwarf-2 -g -ggdb3 -O0 -Wall
  64              	@ -fno-rtti -fno-exceptions -fverbose-asm -fdata-sections
  65              	@ -ffunction-sections -fpermissive
  66              	@ options enabled:  -faggressive-loop-optimizations -fallocation-dce
  67              	@ -fauto-inc-dec -fdata-sections -fdelete-null-pointer-checks
  68              	@ -fdwarf2-cfi-asm -fearly-inlining -feliminate-unused-debug-symbols
  69              	@ -feliminate-unused-debug-types -ffp-int-builtin-inexact -ffunction-cse
  70              	@ -ffunction-sections -fgcse-lm -fgnu-unique -fident -finline-atomics
  71              	@ -fipa-stack-alignment -fira-hoist-pressure -fira-share-save-slots
  72              	@ -fira-share-spill-slots -fivopts -fkeep-static-consts
  73              	@ -fleading-underscore -flifetime-dse -fmath-errno -fmerge-debug-strings
  74              	@ -fpeephole -fplt -fprefetch-loop-arrays -freg-struct-return
  75              	@ -fsched-critical-path-heuristic -fsched-dep-count-heuristic
  76              	@ -fsched-group-heuristic -fsched-interblock -fsched-last-insn-heuristic
  77              	@ -fsched-rank-heuristic -fsched-spec -fsched-spec-insn-heuristic
  78              	@ -fsched-stalled-insns-dep -fsemantic-interposition -fshow-column
  79              	@ -fshrink-wrap-separate -fsigned-zeros -fsplit-ivs-in-unroller
  80              	@ -fssa-backprop -fstdarg-opt -fstrict-volatile-bitfields -fsync-libcalls
  81              	@ -ftrapping-math -ftree-cselim -ftree-forwprop -ftree-loop-if-convert
  82              	@ -ftree-loop-im -ftree-loop-ivcanon -ftree-loop-optimize
  83              	@ -ftree-parallelize-loops= -ftree-phiprop -ftree-reassoc -ftree-scev-cprop
  84              	@ -funit-at-a-time -fverbose-asm -fzero-initialized-in-bss
  85              	@ -masm-syntax-unified -mbe32 -mlittle-endian -mpic-data-is-text-relative
  86              	@ -msched-prolog -mthumb -munaligned-access -mvectorize-with-neon-quad
  87              	
  88              		.text
  89              	.Ltext0:
  90              		.cfi_sections	.debug_frame
  91              		.section	.rodata._ZL23Trigonometric_Functions,"a"
  92              		.align	2
  93              		.type	_ZL23Trigonometric_Functions, %object
  94              		.size	_ZL23Trigonometric_Functions, 3604
  95              	_ZL23Trigonometric_Functions:
  96 0000 00000000 		.word	0
  97 0004 BCB8323E 		.word	1043511484
  98 0008 ABB8B23E 		.word	1051900075
  99 000c 6A0A063F 		.word	1057360490
 100 0010 63B8323F 		.word	1060288611
 101 0014 39665F3F 		.word	1063216697
 102 0018 F109863F 		.word	1065748977
 103 001c AB609C3F 		.word	1067212971
 104 0020 46B7B23F 		.word	1068676934
 105 0024 BD0DC93F 		.word	1070140861
 106 0028 0C64DF3F 		.word	1071604748
 107 002c 2EBAF53F 		.word	1073068590
 108 0030 10080640 		.word	1074137104
 109 0034 ED321140 		.word	1074868973
 110 0038 AE5D1C40 		.word	1075600814
 111 003c 50882740 		.word	1076332624
 112 0040 D0B23240 		.word	1077064400
 113 0044 2DDD3D40 		.word	1077796141
 114 0048 63074940 		.word	1078527843
ARM GAS  C:\Users\30806\AppData\Local\Temp\ccYcD1nI.s 			page 3


 115 004c 72315440 		.word	1079259506
 116 0050 565B5F40 		.word	1079991126
 117 0054 0D856A40 		.word	1080722701
 118 0058 96AE7540 		.word	1081454230
 119 005c F76B8040 		.word	1082158071
 120 0060 89008640 		.word	1082523785
 121 0064 01958B40 		.word	1082889473
 122 0068 5C299140 		.word	1083255132
 123 006c 9BBD9640 		.word	1083620763
 124 0070 BB519C40 		.word	1083986363
 125 0074 BDE5A140 		.word	1084351933
 126 0078 9E79A740 		.word	1084717470
 127 007c 5D0DAD40 		.word	1085082973
 128 0080 FAA0B240 		.word	1085448442
 129 0084 7334B840 		.word	1085813875
 130 0088 C8C7BD40 		.word	1086179272
 131 008c F75AC340 		.word	1086544631
 132 0090 FEEDC840 		.word	1086909950
 133 0094 DE80CE40 		.word	1087275230
 134 0098 9413D440 		.word	1087640468
 135 009c 20A6D940 		.word	1088005664
 136 00a0 8138DF40 		.word	1088370817
 137 00a4 B5CAE440 		.word	1088735925
 138 00a8 BB5CEA40 		.word	1089100987
 139 00ac 93EEEF40 		.word	1089466003
 140 00b0 3A80F540 		.word	1089830970
 141 00b4 B111FB40 		.word	1090195889
 142 00b8 7B510041 		.word	1090539899
 143 00bc 031A0341 		.word	1090722307
 144 00c0 72E20541 		.word	1090904690
 145 00c4 C6AA0841 		.word	1091087046
 146 00c8 FE720B41 		.word	1091269374
 147 00cc 1B3B0E41 		.word	1091451675
 148 00d0 1B031141 		.word	1091633947
 149 00d4 FECA1341 		.word	1091816190
 150 00d8 C4921641 		.word	1091998404
 151 00dc 6C5A1941 		.word	1092180588
 152 00e0 F5211C41 		.word	1092362741
 153 00e4 5FE91E41 		.word	1092544863
 154 00e8 A9B02141 		.word	1092726953
 155 00ec D3772441 		.word	1092909011
 156 00f0 DC3E2741 		.word	1093091036
 157 00f4 C3052A41 		.word	1093273027
 158 00f8 89CC2C41 		.word	1093454985
 159 00fc 2C932F41 		.word	1093636908
 160 0100 AD593241 		.word	1093818797
 161 0104 09203541 		.word	1094000649
 162 0108 42E63741 		.word	1094182466
 163 010c 55AC3A41 		.word	1094364245
 164 0110 44723D41 		.word	1094545988
 165 0114 0D384041 		.word	1094727693
 166 0118 AFFD4241 		.word	1094909359
 167 011c 2AC34541 		.word	1095090986
 168 0120 7E884841 		.word	1095272574
 169 0124 AA4D4B41 		.word	1095454122
 170 0128 AD124E41 		.word	1095635629
 171 012c 87D75041 		.word	1095817095
ARM GAS  C:\Users\30806\AppData\Local\Temp\ccYcD1nI.s 			page 4


 172 0130 389C5341 		.word	1095998520
 173 0134 BE605641 		.word	1096179902
 174 0138 19255941 		.word	1096361241
 175 013c 49E95B41 		.word	1096542537
 176 0140 4DAD5E41 		.word	1096723789
 177 0144 25716141 		.word	1096904997
 178 0148 D0346441 		.word	1097086160
 179 014c 4DF86641 		.word	1097267277
 180 0150 9CBB6941 		.word	1097448348
 181 0154 BC7E6C41 		.word	1097629372
 182 0158 AD416F41 		.word	1097810349
 183 015c 6F047241 		.word	1097991279
 184 0160 00C77441 		.word	1098172160
 185 0164 60897741 		.word	1098352992
 186 0168 8F4B7A41 		.word	1098533775
 187 016c 8B0D7D41 		.word	1098714507
 188 0170 56CF7F41 		.word	1098895190
 189 0174 76488141 		.word	1098991734
 190 0178 28A98241 		.word	1099082024
 191 017c C0098441 		.word	1099172288
 192 0180 3D6A8541 		.word	1099262525
 193 0184 A0CA8641 		.word	1099352736
 194 0188 E82A8841 		.word	1099442920
 195 018c 148B8941 		.word	1099533076
 196 0190 26EB8A41 		.word	1099623206
 197 0194 1B4B8C41 		.word	1099713307
 198 0198 F4AA8D41 		.word	1099803380
 199 019c B20A8F41 		.word	1099893426
 200 01a0 526A9041 		.word	1099983442
 201 01a4 D6C99141 		.word	1100073430
 202 01a8 3D299341 		.word	1100163389
 203 01ac 86889441 		.word	1100253318
 204 01b0 B1E79541 		.word	1100343217
 205 01b4 BF469741 		.word	1100433087
 206 01b8 AFA59841 		.word	1100522927
 207 01bc 80049A41 		.word	1100612736
 208 01c0 32639B41 		.word	1100702514
 209 01c4 C5C19C41 		.word	1100792261
 210 01c8 39209E41 		.word	1100881977
 211 01cc 8E7E9F41 		.word	1100971662
 212 01d0 C2DCA041 		.word	1101061314
 213 01d4 D73AA241 		.word	1101150935
 214 01d8 CB98A341 		.word	1101240523
 215 01dc 9EF6A441 		.word	1101330078
 216 01e0 5054A641 		.word	1101419600
 217 01e4 E2B1A741 		.word	1101509090
 218 01e8 510FA941 		.word	1101598545
 219 01ec A06CAA41 		.word	1101687968
 220 01f0 CCC9AB41 		.word	1101777356
 221 01f4 D526AD41 		.word	1101866709
 222 01f8 BC83AE41 		.word	1101956028
 223 01fc 81E0AF41 		.word	1102045313
 224 0200 223DB141 		.word	1102134562
 225 0204 A099B241 		.word	1102223776
 226 0208 FAF5B341 		.word	1102312954
 227 020c 3052B541 		.word	1102402096
 228 0210 42AEB641 		.word	1102491202
ARM GAS  C:\Users\30806\AppData\Local\Temp\ccYcD1nI.s 			page 5


 229 0214 300AB841 		.word	1102580272
 230 0218 F865B941 		.word	1102669304
 231 021c 9CC1BA41 		.word	1102758300
 232 0220 1B1DBC41 		.word	1102847259
 233 0224 7478BD41 		.word	1102936180
 234 0228 A7D3BE41 		.word	1103025063
 235 022c B42EC041 		.word	1103113908
 236 0230 9B89C141 		.word	1103202715
 237 0234 5BE4C241 		.word	1103291483
 238 0238 F43EC441 		.word	1103380212
 239 023c 6699C541 		.word	1103468902
 240 0240 B0F3C641 		.word	1103557552
 241 0244 D34DC841 		.word	1103646163
 242 0248 CEA7C941 		.word	1103734734
 243 024c A101CB41 		.word	1103823265
 244 0250 4B5BCC41 		.word	1103911755
 245 0254 CCB4CD41 		.word	1104000204
 246 0258 240ECF41 		.word	1104088612
 247 025c 5367D041 		.word	1104176979
 248 0260 58C0D141 		.word	1104265304
 249 0264 3319D341 		.word	1104353587
 250 0268 E571D441 		.word	1104441829
 251 026c 6BCAD541 		.word	1104530027
 252 0270 C722D741 		.word	1104618183
 253 0274 F97AD841 		.word	1104706297
 254 0278 FFD2D941 		.word	1104794367
 255 027c D92ADB41 		.word	1104882393
 256 0280 8882DC41 		.word	1104970376
 257 0284 0ADADD41 		.word	1105058314
 258 0288 6131DF41 		.word	1105146209
 259 028c 8B88E041 		.word	1105234059
 260 0290 88DFE141 		.word	1105321864
 261 0294 5836E341 		.word	1105409624
 262 0298 FA8CE441 		.word	1105497338
 263 029c 6FE3E541 		.word	1105585007
 264 02a0 B639E741 		.word	1105672630
 265 02a4 CF8FE841 		.word	1105760207
 266 02a8 BAE5E941 		.word	1105847738
 267 02ac 753BEB41 		.word	1105935221
 268 02b0 0291EC41 		.word	1106022658
 269 02b4 60E6ED41 		.word	1106110048
 270 02b8 8E3BEF41 		.word	1106197390
 271 02bc 8C90F041 		.word	1106284684
 272 02c0 5BE5F141 		.word	1106371931
 273 02c4 F939F341 		.word	1106459129
 274 02c8 668EF441 		.word	1106546278
 275 02cc A3E2F541 		.word	1106633379
 276 02d0 AE36F741 		.word	1106720430
 277 02d4 888AF841 		.word	1106807432
 278 02d8 31DEF941 		.word	1106894385
 279 02dc A831FB41 		.word	1106981288
 280 02e0 EC84FC41 		.word	1107068140
 281 02e4 FED7FD41 		.word	1107154942
 282 02e8 DE2AFF41 		.word	1107241694
 283 02ec C53E0042 		.word	1107312325
 284 02f0 02E80042 		.word	1107355650
 285 02f4 25910142 		.word	1107398949
ARM GAS  C:\Users\30806\AppData\Local\Temp\ccYcD1nI.s 			page 6


 286 02f8 2E3A0242 		.word	1107442222
 287 02fc 1DE30242 		.word	1107485469
 288 0300 F28B0342 		.word	1107528690
 289 0304 AC340442 		.word	1107571884
 290 0308 4DDD0442 		.word	1107615053
 291 030c D3850542 		.word	1107658195
 292 0310 3E2E0642 		.word	1107701310
 293 0314 8ED60642 		.word	1107744398
 294 0318 C37E0742 		.word	1107787459
 295 031c DE260842 		.word	1107830494
 296 0320 DDCE0842 		.word	1107873501
 297 0324 C1760942 		.word	1107916481
 298 0328 891E0A42 		.word	1107959433
 299 032c 36C60A42 		.word	1108002358
 300 0330 C76D0B42 		.word	1108045255
 301 0334 3C150C42 		.word	1108088124
 302 0338 96BC0C42 		.word	1108130966
 303 033c D3630D42 		.word	1108173779
 304 0340 F40A0E42 		.word	1108216564
 305 0344 F9B10E42 		.word	1108259321
 306 0348 E1580F42 		.word	1108302049
 307 034c ACFF0F42 		.word	1108344748
 308 0350 5BA61042 		.word	1108387419
 309 0354 ED4C1142 		.word	1108430061
 310 0358 62F31142 		.word	1108472674
 311 035c BA991242 		.word	1108515258
 312 0360 F43F1342 		.word	1108557812
 313 0364 11E61342 		.word	1108600337
 314 0368 118C1442 		.word	1108642833
 315 036c F3311542 		.word	1108685299
 316 0370 B7D71542 		.word	1108727735
 317 0374 5D7D1642 		.word	1108770141
 318 0378 E6221742 		.word	1108812518
 319 037c 50C81742 		.word	1108854864
 320 0380 9B6D1842 		.word	1108897179
 321 0384 C9121942 		.word	1108939465
 322 0388 D7B71942 		.word	1108981719
 323 038c C75C1A42 		.word	1109023943
 324 0390 99011B42 		.word	1109066137
 325 0394 4BA61B42 		.word	1109108299
 326 0398 DE4A1C42 		.word	1109150430
 327 039c 52EF1C42 		.word	1109192530
 328 03a0 A7931D42 		.word	1109234599
 329 03a4 DC371E42 		.word	1109276636
 330 03a8 F2DB1E42 		.word	1109318642
 331 03ac E87F1F42 		.word	1109360616
 332 03b0 BE232042 		.word	1109402558
 333 03b4 74C72042 		.word	1109444468
 334 03b8 0A6B2142 		.word	1109486346
 335 03bc 800E2242 		.word	1109528192
 336 03c0 D5B12242 		.word	1109570005
 337 03c4 0A552342 		.word	1109611786
 338 03c8 1EF82342 		.word	1109653534
 339 03cc 129B2442 		.word	1109695250
 340 03d0 E53D2542 		.word	1109736933
 341 03d4 97E02542 		.word	1109778583
 342 03d8 27832642 		.word	1109820199
ARM GAS  C:\Users\30806\AppData\Local\Temp\ccYcD1nI.s 			page 7


 343 03dc 97252742 		.word	1109861783
 344 03e0 E5C72742 		.word	1109903333
 345 03e4 116A2842 		.word	1109944849
 346 03e8 1C0C2942 		.word	1109986332
 347 03ec 05AE2942 		.word	1110027781
 348 03f0 CD4F2A42 		.word	1110069197
 349 03f4 72F12A42 		.word	1110110578
 350 03f8 F5922B42 		.word	1110151925
 351 03fc 56342C42 		.word	1110193238
 352 0400 95D52C42 		.word	1110234517
 353 0404 B1762D42 		.word	1110275761
 354 0408 AA172E42 		.word	1110316970
 355 040c 81B82E42 		.word	1110358145
 356 0410 35592F42 		.word	1110399285
 357 0414 C5F92F42 		.word	1110440389
 358 0418 339A3042 		.word	1110481459
 359 041c 7D3A3142 		.word	1110522493
 360 0420 A4DA3142 		.word	1110563492
 361 0424 A87A3242 		.word	1110604456
 362 0428 881A3342 		.word	1110645384
 363 042c 44BA3342 		.word	1110686276
 364 0430 DC593442 		.word	1110727132
 365 0434 50F93442 		.word	1110767952
 366 0438 A1983542 		.word	1110808737
 367 043c CC373642 		.word	1110849484
 368 0440 D4D63642 		.word	1110890196
 369 0444 B7753742 		.word	1110930871
 370 0448 75143842 		.word	1110971509
 371 044c 0FB33842 		.word	1111012111
 372 0450 84513942 		.word	1111052676
 373 0454 D3EF3942 		.word	1111093203
 374 0458 FE8D3A42 		.word	1111133694
 375 045c 032C3B42 		.word	1111174147
 376 0460 E3C93B42 		.word	1111214563
 377 0464 9E673C42 		.word	1111254942
 378 0468 33053D42 		.word	1111295283
 379 046c A2A23D42 		.word	1111335586
 380 0470 EB3F3E42 		.word	1111375851
 381 0474 0FDD3E42 		.word	1111416079
 382 0478 0C7A3F42 		.word	1111456268
 383 047c E3164042 		.word	1111496419
 384 0480 94B34042 		.word	1111536532
 385 0484 1E504142 		.word	1111576606
 386 0488 81EC4142 		.word	1111616641
 387 048c BE884242 		.word	1111656638
 388 0490 D4244342 		.word	1111696596
 389 0494 C3C04342 		.word	1111736515
 390 0498 8B5C4442 		.word	1111776395
 391 049c 2CF84442 		.word	1111816236
 392 04a0 A6934542 		.word	1111856038
 393 04a4 F82E4642 		.word	1111895800
 394 04a8 22CA4642 		.word	1111935522
 395 04ac 25654742 		.word	1111975205
 396 04b0 00004842 		.word	1112014848
 397 04b4 B39A4842 		.word	1112054451
 398 04b8 3E354942 		.word	1112094014
 399 04bc A1CF4942 		.word	1112133537
ARM GAS  C:\Users\30806\AppData\Local\Temp\ccYcD1nI.s 			page 8


 400 04c0 DC694A42 		.word	1112173020
 401 04c4 EE034B42 		.word	1112212462
 402 04c8 D79D4B42 		.word	1112251863
 403 04cc 98374C42 		.word	1112291224
 404 04d0 30D14C42 		.word	1112330544
 405 04d4 A06A4D42 		.word	1112369824
 406 04d8 E6034E42 		.word	1112409062
 407 04dc 039D4E42 		.word	1112448259
 408 04e0 F7354F42 		.word	1112487415
 409 04e4 C2CE4F42 		.word	1112526530
 410 04e8 63675042 		.word	1112565603
 411 04ec DAFF5042 		.word	1112604634
 412 04f0 28985142 		.word	1112643624
 413 04f4 4C305242 		.word	1112682572
 414 04f8 46C85242 		.word	1112721478
 415 04fc 16605342 		.word	1112760342
 416 0500 BCF75342 		.word	1112799164
 417 0504 378F5442 		.word	1112837943
 418 0508 88265542 		.word	1112876680
 419 050c AEBD5542 		.word	1112915374
 420 0510 AA545642 		.word	1112954026
 421 0514 7BEB5642 		.word	1112992635
 422 0518 21825742 		.word	1113031201
 423 051c 9C185842 		.word	1113069724
 424 0520 ECAE5842 		.word	1113108204
 425 0524 10455942 		.word	1113146640
 426 0528 0ADB5942 		.word	1113185034
 427 052c D7705A42 		.word	1113223383
 428 0530 79065B42 		.word	1113261689
 429 0534 F09B5B42 		.word	1113299952
 430 0538 3A315C42 		.word	1113338170
 431 053c 59C65C42 		.word	1113376345
 432 0540 4B5B5D42 		.word	1113414475
 433 0544 12F05D42 		.word	1113452562
 434 0548 AC845E42 		.word	1113490604
 435 054c 19195F42 		.word	1113528601
 436 0550 5AAD5F42 		.word	1113566554
 437 0554 6F416042 		.word	1113604463
 438 0558 57D56042 		.word	1113642327
 439 055c 11696142 		.word	1113680145
 440 0560 9FFC6142 		.word	1113717919
 441 0564 00906242 		.word	1113755648
 442 0568 33236342 		.word	1113793331
 443 056c 39B66342 		.word	1113830969
 444 0570 12496442 		.word	1113868562
 445 0574 BDDB6442 		.word	1113906109
 446 0578 3A6E6542 		.word	1113943610
 447 057c 8A006642 		.word	1113981066
 448 0580 AB926642 		.word	1114018475
 449 0584 9F246742 		.word	1114055839
 450 0588 64B66742 		.word	1114093156
 451 058c FC476842 		.word	1114130428
 452 0590 64D96842 		.word	1114167652
 453 0594 9F6A6942 		.word	1114204831
 454 0598 AAFB6942 		.word	1114241962
 455 059c 888C6A42 		.word	1114279048
 456 05a0 361D6B42 		.word	1114316086
ARM GAS  C:\Users\30806\AppData\Local\Temp\ccYcD1nI.s 			page 9


 457 05a4 B5AD6B42 		.word	1114353077
 458 05a8 053E6C42 		.word	1114390021
 459 05ac 26CE6C42 		.word	1114426918
 460 05b0 185E6D42 		.word	1114463768
 461 05b4 DAED6D42 		.word	1114500570
 462 05b8 6D7D6E42 		.word	1114537325
 463 05bc D10C6F42 		.word	1114574033
 464 05c0 049C6F42 		.word	1114610692
 465 05c4 082B7042 		.word	1114647304
 466 05c8 DCB97042 		.word	1114683868
 467 05cc 7F487142 		.word	1114720383
 468 05d0 F3D67142 		.word	1114756851
 469 05d4 36657242 		.word	1114793270
 470 05d8 49F37242 		.word	1114829641
 471 05dc 2C817342 		.word	1114865964
 472 05e0 DD0E7442 		.word	1114902237
 473 05e4 5E9C7442 		.word	1114938462
 474 05e8 AF297542 		.word	1114974639
 475 05ec CEB67542 		.word	1115010766
 476 05f0 BC437642 		.word	1115046844
 477 05f4 79D07642 		.word	1115082873
 478 05f8 055D7742 		.word	1115118853
 479 05fc 5FE97742 		.word	1115154783
 480 0600 88757842 		.word	1115190664
 481 0604 80017942 		.word	1115226496
 482 0608 458D7942 		.word	1115262277
 483 060c D9187A42 		.word	1115298009
 484 0610 3BA47A42 		.word	1115333691
 485 0614 6B2F7B42 		.word	1115369323
 486 0618 68BA7B42 		.word	1115404904
 487 061c 34457C42 		.word	1115440436
 488 0620 CDCF7C42 		.word	1115475917
 489 0624 345A7D42 		.word	1115511348
 490 0628 68E47D42 		.word	1115546728
 491 062c 696E7E42 		.word	1115582057
 492 0630 37F87E42 		.word	1115617335
 493 0634 D3817F42 		.word	1115652563
 494 0638 9E058042 		.word	1115686302
 495 063c 394A8042 		.word	1115703865
 496 0640 BA8E8042 		.word	1115721402
 497 0644 21D38042 		.word	1115738913
 498 0648 6F178142 		.word	1115756399
 499 064c A35B8142 		.word	1115773859
 500 0650 BD9F8142 		.word	1115791293
 501 0654 BDE38142 		.word	1115808701
 502 0658 A4278242 		.word	1115826084
 503 065c 706B8242 		.word	1115843440
 504 0660 23AF8242 		.word	1115860771
 505 0664 BBF28242 		.word	1115878075
 506 0668 39368342 		.word	1115895353
 507 066c 9D798342 		.word	1115912605
 508 0670 E6BC8342 		.word	1115929830
 509 0674 16008442 		.word	1115947030
 510 0678 2B438442 		.word	1115964203
 511 067c 25868442 		.word	1115981349
 512 0680 06C98442 		.word	1115998470
 513 0684 CB0B8542 		.word	1116015563
ARM GAS  C:\Users\30806\AppData\Local\Temp\ccYcD1nI.s 			page 10


 514 0688 764E8542 		.word	1116032630
 515 068c 07918542 		.word	1116049671
 516 0690 7DD38542 		.word	1116066685
 517 0694 D8158642 		.word	1116083672
 518 0698 18588642 		.word	1116100632
 519 069c 3E9A8642 		.word	1116117566
 520 06a0 48DC8642 		.word	1116134472
 521 06a4 381E8742 		.word	1116151352
 522 06a8 0D608742 		.word	1116168205
 523 06ac C6A18742 		.word	1116185030
 524 06b0 65E38742 		.word	1116201829
 525 06b4 E9248842 		.word	1116218601
 526 06b8 51668842 		.word	1116235345
 527 06bc 9EA78842 		.word	1116252062
 528 06c0 D0E88842 		.word	1116268752
 529 06c4 E6298942 		.word	1116285414
 530 06c8 E16A8942 		.word	1116302049
 531 06cc C1AB8942 		.word	1116318657
 532 06d0 85EC8942 		.word	1116335237
 533 06d4 2E2D8A42 		.word	1116351790
 534 06d8 BB6D8A42 		.word	1116368315
 535 06dc 2CAE8A42 		.word	1116384812
 536 06e0 82EE8A42 		.word	1116401282
 537 06e4 BC2E8B42 		.word	1116417724
 538 06e8 DA6E8B42 		.word	1116434138
 539 06ec DDAE8B42 		.word	1116450525
 540 06f0 C3EE8B42 		.word	1116466883
 541 06f4 8E2E8C42 		.word	1116483214
 542 06f8 3C6E8C42 		.word	1116499516
 543 06fc CFAD8C42 		.word	1116515791
 544 0700 46ED8C42 		.word	1116532038
 545 0704 A02C8D42 		.word	1116548256
 546 0708 DE6B8D42 		.word	1116564446
 547 070c 00AB8D42 		.word	1116580608
 548 0710 06EA8D42 		.word	1116596742
 549 0714 EF288E42 		.word	1116612847
 550 0718 BC678E42 		.word	1116628924
 551 071c 6CA68E42 		.word	1116644972
 552 0720 00E58E42 		.word	1116660992
 553 0724 78238F42 		.word	1116676984
 554 0728 D3618F42 		.word	1116692947
 555 072c 11A08F42 		.word	1116708881
 556 0730 33DE8F42 		.word	1116724787
 557 0734 381C9042 		.word	1116740664
 558 0738 205A9042 		.word	1116756512
 559 073c EB979042 		.word	1116772331
 560 0740 99D59042 		.word	1116788121
 561 0744 2B139142 		.word	1116803883
 562 0748 A0509142 		.word	1116819616
 563 074c F78D9142 		.word	1116835319
 564 0750 32CB9142 		.word	1116850994
 565 0754 4F089242 		.word	1116866639
 566 0758 4F459242 		.word	1116882255
 567 075c 32829242 		.word	1116897842
 568 0760 F8BE9242 		.word	1116913400
 569 0764 A1FB9242 		.word	1116928929
 570 0768 2C389342 		.word	1116944428
ARM GAS  C:\Users\30806\AppData\Local\Temp\ccYcD1nI.s 			page 11


 571 076c 9A749342 		.word	1116959898
 572 0770 EAB09342 		.word	1116975338
 573 0774 1DED9342 		.word	1116990749
 574 0778 32299442 		.word	1117006130
 575 077c 2A659442 		.word	1117021482
 576 0780 04A19442 		.word	1117036804
 577 0784 C0DC9442 		.word	1117052096
 578 0788 5F189542 		.word	1117067359
 579 078c E0539542 		.word	1117082592
 580 0790 438F9542 		.word	1117097795
 581 0794 88CA9542 		.word	1117112968
 582 0798 B0059642 		.word	1117128112
 583 079c B9409642 		.word	1117143225
 584 07a0 A57B9642 		.word	1117158309
 585 07a4 72B69642 		.word	1117173362
 586 07a8 21F19642 		.word	1117188385
 587 07ac B32B9742 		.word	1117203379
 588 07b0 26669742 		.word	1117218342
 589 07b4 7AA09742 		.word	1117233274
 590 07b8 B1DA9742 		.word	1117248177
 591 07bc C9149842 		.word	1117263049
 592 07c0 C34E9842 		.word	1117277891
 593 07c4 9E889842 		.word	1117292702
 594 07c8 5BC29842 		.word	1117307483
 595 07cc FAFB9842 		.word	1117322234
 596 07d0 7A359942 		.word	1117336954
 597 07d4 DB6E9942 		.word	1117351643
 598 07d8 1EA89942 		.word	1117366302
 599 07dc 42E19942 		.word	1117380930
 600 07e0 471A9A42 		.word	1117395527
 601 07e4 2E539A42 		.word	1117410094
 602 07e8 F58B9A42 		.word	1117424629
 603 07ec 9EC49A42 		.word	1117439134
 604 07f0 28FD9A42 		.word	1117453608
 605 07f4 93359B42 		.word	1117468051
 606 07f8 E06D9B42 		.word	1117482464
 607 07fc 0DA69B42 		.word	1117496845
 608 0800 1BDE9B42 		.word	1117511195
 609 0804 09169C42 		.word	1117525513
 610 0808 D94D9C42 		.word	1117539801
 611 080c 8A859C42 		.word	1117554058
 612 0810 1BBD9C42 		.word	1117568283
 613 0814 8DF49C42 		.word	1117582477
 614 0818 DF2B9D42 		.word	1117596639
 615 081c 13639D42 		.word	1117610771
 616 0820 279A9D42 		.word	1117624871
 617 0824 1BD19D42 		.word	1117638939
 618 0828 F0079E42 		.word	1117652976
 619 082c A53E9E42 		.word	1117666981
 620 0830 3B759E42 		.word	1117680955
 621 0834 B1AB9E42 		.word	1117694897
 622 0838 07E29E42 		.word	1117708807
 623 083c 3E189F42 		.word	1117722686
 624 0840 554E9F42 		.word	1117736533
 625 0844 4C849F42 		.word	1117750348
 626 0848 23BA9F42 		.word	1117764131
 627 084c DBEF9F42 		.word	1117777883
ARM GAS  C:\Users\30806\AppData\Local\Temp\ccYcD1nI.s 			page 12


 628 0850 7225A042 		.word	1117791602
 629 0854 EA5AA042 		.word	1117805290
 630 0858 4190A042 		.word	1117818945
 631 085c 79C5A042 		.word	1117832569
 632 0860 90FAA042 		.word	1117846160
 633 0864 872FA142 		.word	1117859719
 634 0868 5E64A142 		.word	1117873246
 635 086c 1599A142 		.word	1117886741
 636 0870 ACCDA142 		.word	1117900204
 637 0874 2202A242 		.word	1117913634
 638 0878 7836A242 		.word	1117927032
 639 087c AD6AA242 		.word	1117940397
 640 0880 C29EA242 		.word	1117953730
 641 0884 B7D2A242 		.word	1117967031
 642 0888 8B06A342 		.word	1117980299
 643 088c 3F3AA342 		.word	1117993535
 644 0890 D26DA342 		.word	1118006738
 645 0894 44A1A342 		.word	1118019908
 646 0898 96D4A342 		.word	1118033046
 647 089c C707A442 		.word	1118046151
 648 08a0 D73AA442 		.word	1118059223
 649 08a4 C66DA442 		.word	1118072262
 650 08a8 95A0A442 		.word	1118085269
 651 08ac 43D3A442 		.word	1118098243
 652 08b0 D005A542 		.word	1118111184
 653 08b4 3C38A542 		.word	1118124092
 654 08b8 876AA542 		.word	1118136967
 655 08bc B09CA542 		.word	1118149808
 656 08c0 B9CEA542 		.word	1118162617
 657 08c4 A100A642 		.word	1118175393
 658 08c8 6832A642 		.word	1118188136
 659 08cc 0D64A642 		.word	1118200845
 660 08d0 9195A642 		.word	1118213521
 661 08d4 F4C6A642 		.word	1118226164
 662 08d8 36F8A642 		.word	1118238774
 663 08dc 5629A742 		.word	1118251350
 664 08e0 555AA742 		.word	1118263893
 665 08e4 338BA742 		.word	1118276403
 666 08e8 EFBBA742 		.word	1118288879
 667 08ec 89ECA742 		.word	1118301321
 668 08f0 031DA842 		.word	1118313731
 669 08f4 5A4DA842 		.word	1118326106
 670 08f8 907DA842 		.word	1118338448
 671 08fc A4ADA842 		.word	1118350756
 672 0900 97DDA842 		.word	1118363031
 673 0904 680DA942 		.word	1118375272
 674 0908 173DA942 		.word	1118387479
 675 090c A46CA942 		.word	1118399652
 676 0910 109CA942 		.word	1118411792
 677 0914 5ACBA942 		.word	1118423898
 678 0918 82FAA942 		.word	1118435970
 679 091c 8729AA42 		.word	1118448007
 680 0920 6B58AA42 		.word	1118460011
 681 0924 2D87AA42 		.word	1118471981
 682 0928 CDB5AA42 		.word	1118483917
 683 092c 4BE4AA42 		.word	1118495819
 684 0930 A612AB42 		.word	1118507686
ARM GAS  C:\Users\30806\AppData\Local\Temp\ccYcD1nI.s 			page 13


 685 0934 E040AB42 		.word	1118519520
 686 0938 F76EAB42 		.word	1118531319
 687 093c EC9CAB42 		.word	1118543084
 688 0940 BFCAAB42 		.word	1118554815
 689 0944 70F8AB42 		.word	1118566512
 690 0948 FE25AC42 		.word	1118578174
 691 094c 6A53AC42 		.word	1118589802
 692 0950 B380AC42 		.word	1118601395
 693 0954 DAADAC42 		.word	1118612954
 694 0958 DFDAAC42 		.word	1118624479
 695 095c C107AD42 		.word	1118635969
 696 0960 8034AD42 		.word	1118647424
 697 0964 1D61AD42 		.word	1118658845
 698 0968 978DAD42 		.word	1118670231
 699 096c EFB9AD42 		.word	1118681583
 700 0970 24E6AD42 		.word	1118692900
 701 0974 3612AE42 		.word	1118704182
 702 0978 263EAE42 		.word	1118715430
 703 097c F269AE42 		.word	1118726642
 704 0980 9C95AE42 		.word	1118737820
 705 0984 23C1AE42 		.word	1118748963
 706 0988 87ECAE42 		.word	1118760071
 707 098c C917AF42 		.word	1118771145
 708 0990 E742AF42 		.word	1118782183
 709 0994 E26DAF42 		.word	1118793186
 710 0998 BA98AF42 		.word	1118804154
 711 099c 70C3AF42 		.word	1118815088
 712 09a0 02EEAF42 		.word	1118825986
 713 09a4 7118B042 		.word	1118836849
 714 09a8 BD42B042 		.word	1118847677
 715 09ac E56CB042 		.word	1118858469
 716 09b0 EB96B042 		.word	1118869227
 717 09b4 CDC0B042 		.word	1118879949
 718 09b8 8CEAB042 		.word	1118890636
 719 09bc 2714B142 		.word	1118901287
 720 09c0 A03DB142 		.word	1118911904
 721 09c4 F466B142 		.word	1118922484
 722 09c8 2690B142 		.word	1118933030
 723 09cc 34B9B142 		.word	1118943540
 724 09d0 1EE2B142 		.word	1118954014
 725 09d4 E50AB242 		.word	1118964453
 726 09d8 8933B242 		.word	1118974857
 727 09dc 095CB242 		.word	1118985225
 728 09e0 6584B242 		.word	1118995557
 729 09e4 9DACB242 		.word	1119005853
 730 09e8 B2D4B242 		.word	1119016114
 731 09ec A4FCB242 		.word	1119026340
 732 09f0 7124B342 		.word	1119036529
 733 09f4 1B4CB342 		.word	1119046683
 734 09f8 A173B342 		.word	1119056801
 735 09fc 039BB342 		.word	1119066883
 736 0a00 41C2B342 		.word	1119076929
 737 0a04 5CE9B342 		.word	1119086940
 738 0a08 5210B442 		.word	1119096914
 739 0a0c 2537B442 		.word	1119106853
 740 0a10 D35DB442 		.word	1119116755
 741 0a14 5E84B442 		.word	1119126622
ARM GAS  C:\Users\30806\AppData\Local\Temp\ccYcD1nI.s 			page 14


 742 0a18 C4AAB442 		.word	1119136452
 743 0a1c 07D1B442 		.word	1119146247
 744 0a20 25F7B442 		.word	1119156005
 745 0a24 1F1DB542 		.word	1119165727
 746 0a28 F542B542 		.word	1119175413
 747 0a2c A768B542 		.word	1119185063
 748 0a30 358EB542 		.word	1119194677
 749 0a34 9EB3B542 		.word	1119204254
 750 0a38 E4D8B542 		.word	1119213796
 751 0a3c 04FEB542 		.word	1119223300
 752 0a40 0123B642 		.word	1119232769
 753 0a44 D947B642 		.word	1119242201
 754 0a48 8D6CB642 		.word	1119251597
 755 0a4c 1C91B642 		.word	1119260956
 756 0a50 87B5B642 		.word	1119270279
 757 0a54 CDD9B642 		.word	1119279565
 758 0a58 EFFDB642 		.word	1119288815
 759 0a5c ED21B742 		.word	1119298029
 760 0a60 C645B742 		.word	1119307206
 761 0a64 7A69B742 		.word	1119316346
 762 0a68 098DB742 		.word	1119325449
 763 0a6c 74B0B742 		.word	1119334516
 764 0a70 BBD3B742 		.word	1119343547
 765 0a74 DCF6B742 		.word	1119352540
 766 0a78 D919B842 		.word	1119361497
 767 0a7c B13CB842 		.word	1119370417
 768 0a80 655FB842 		.word	1119379301
 769 0a84 F381B842 		.word	1119388147
 770 0a88 5DA4B842 		.word	1119396957
 771 0a8c A2C6B842 		.word	1119405730
 772 0a90 C2E8B842 		.word	1119414466
 773 0a94 BD0AB942 		.word	1119423165
 774 0a98 932CB942 		.word	1119431827
 775 0a9c 444EB942 		.word	1119440452
 776 0aa0 D06FB942 		.word	1119449040
 777 0aa4 3791B942 		.word	1119457591
 778 0aa8 79B2B942 		.word	1119466105
 779 0aac 96D3B942 		.word	1119474582
 780 0ab0 8EF4B942 		.word	1119483022
 781 0ab4 6115BA42 		.word	1119491425
 782 0ab8 0F36BA42 		.word	1119499791
 783 0abc 9756BA42 		.word	1119508119
 784 0ac0 FB76BA42 		.word	1119516411
 785 0ac4 3997BA42 		.word	1119524665
 786 0ac8 51B7BA42 		.word	1119532881
 787 0acc 45D7BA42 		.word	1119541061
 788 0ad0 13F7BA42 		.word	1119549203
 789 0ad4 BC16BB42 		.word	1119557308
 790 0ad8 4036BB42 		.word	1119565376
 791 0adc 9E55BB42 		.word	1119573406
 792 0ae0 D674BB42 		.word	1119581398
 793 0ae4 EA93BB42 		.word	1119589354
 794 0ae8 D8B2BB42 		.word	1119597272
 795 0aec A0D1BB42 		.word	1119605152
 796 0af0 43F0BB42 		.word	1119612995
 797 0af4 C10EBC42 		.word	1119620801
 798 0af8 182DBC42 		.word	1119628568
ARM GAS  C:\Users\30806\AppData\Local\Temp\ccYcD1nI.s 			page 15


 799 0afc 4B4BBC42 		.word	1119636299
 800 0b00 5769BC42 		.word	1119643991
 801 0b04 3F87BC42 		.word	1119651647
 802 0b08 00A5BC42 		.word	1119659264
 803 0b0c 9CC2BC42 		.word	1119666844
 804 0b10 12E0BC42 		.word	1119674386
 805 0b14 62FDBC42 		.word	1119681890
 806 0b18 8D1ABD42 		.word	1119689357
 807 0b1c 9237BD42 		.word	1119696786
 808 0b20 7154BD42 		.word	1119704177
 809 0b24 2B71BD42 		.word	1119711531
 810 0b28 BE8DBD42 		.word	1119718846
 811 0b2c 2CAABD42 		.word	1119726124
 812 0b30 74C6BD42 		.word	1119733364
 813 0b34 96E2BD42 		.word	1119740566
 814 0b38 92FEBD42 		.word	1119747730
 815 0b3c 681ABE42 		.word	1119754856
 816 0b40 1836BE42 		.word	1119761944
 817 0b44 A251BE42 		.word	1119768994
 818 0b48 066DBE42 		.word	1119776006
 819 0b4c 4588BE42 		.word	1119782981
 820 0b50 5DA3BE42 		.word	1119789917
 821 0b54 4FBEBE42 		.word	1119796815
 822 0b58 1BD9BE42 		.word	1119803675
 823 0b5c C1F3BE42 		.word	1119810497
 824 0b60 410EBF42 		.word	1119817281
 825 0b64 9A28BF42 		.word	1119824026
 826 0b68 CE42BF42 		.word	1119830734
 827 0b6c DB5CBF42 		.word	1119837403
 828 0b70 C276BF42 		.word	1119844034
 829 0b74 8390BF42 		.word	1119850627
 830 0b78 1EAABF42 		.word	1119857182
 831 0b7c 92C3BF42 		.word	1119863698
 832 0b80 E0DCBF42 		.word	1119870176
 833 0b84 08F6BF42 		.word	1119876616
 834 0b88 090FC042 		.word	1119883017
 835 0b8c E527C042 		.word	1119889381
 836 0b90 9940C042 		.word	1119895705
 837 0b94 2859C042 		.word	1119901992
 838 0b98 9071C042 		.word	1119908240
 839 0b9c D189C042 		.word	1119914449
 840 0ba0 ECA1C042 		.word	1119920620
 841 0ba4 E1B9C042 		.word	1119926753
 842 0ba8 AFD1C042 		.word	1119932847
 843 0bac 57E9C042 		.word	1119938903
 844 0bb0 D800C142 		.word	1119944920
 845 0bb4 3318C142 		.word	1119950899
 846 0bb8 672FC142 		.word	1119956839
 847 0bbc 7546C142 		.word	1119962741
 848 0bc0 5C5DC142 		.word	1119968604
 849 0bc4 1C74C142 		.word	1119974428
 850 0bc8 B68AC142 		.word	1119980214
 851 0bcc 29A1C142 		.word	1119985961
 852 0bd0 75B7C142 		.word	1119991669
 853 0bd4 9BCDC142 		.word	1119997339
 854 0bd8 9AE3C142 		.word	1120002970
 855 0bdc 72F9C142 		.word	1120008562
ARM GAS  C:\Users\30806\AppData\Local\Temp\ccYcD1nI.s 			page 16


 856 0be0 240FC242 		.word	1120014116
 857 0be4 AF24C242 		.word	1120019631
 858 0be8 133AC242 		.word	1120025107
 859 0bec 514FC242 		.word	1120030545
 860 0bf0 6764C242 		.word	1120035943
 861 0bf4 5779C242 		.word	1120041303
 862 0bf8 208EC242 		.word	1120046624
 863 0bfc C2A2C242 		.word	1120051906
 864 0c00 3DB7C242 		.word	1120057149
 865 0c04 92CBC242 		.word	1120062354
 866 0c08 BFDFC242 		.word	1120067519
 867 0c0c C6F3C242 		.word	1120072646
 868 0c10 A607C342 		.word	1120077734
 869 0c14 5E1BC342 		.word	1120082782
 870 0c18 F02EC342 		.word	1120087792
 871 0c1c 5B42C342 		.word	1120092763
 872 0c20 9F55C342 		.word	1120097695
 873 0c24 BC68C342 		.word	1120102588
 874 0c28 B27BC342 		.word	1120107442
 875 0c2c 808EC342 		.word	1120112256
 876 0c30 28A1C342 		.word	1120117032
 877 0c34 A9B3C342 		.word	1120121769
 878 0c38 03C6C342 		.word	1120126467
 879 0c3c 35D8C342 		.word	1120131125
 880 0c40 41EAC342 		.word	1120135745
 881 0c44 25FCC342 		.word	1120140325
 882 0c48 E20DC442 		.word	1120144866
 883 0c4c 781FC442 		.word	1120149368
 884 0c50 E730C442 		.word	1120153831
 885 0c54 2F42C442 		.word	1120158255
 886 0c58 5053C442 		.word	1120162640
 887 0c5c 4964C442 		.word	1120166985
 888 0c60 1B75C442 		.word	1120171291
 889 0c64 C685C442 		.word	1120175558
 890 0c68 4A96C442 		.word	1120179786
 891 0c6c A7A6C442 		.word	1120183975
 892 0c70 DCB6C442 		.word	1120188124
 893 0c74 EAC6C442 		.word	1120192234
 894 0c78 D1D6C442 		.word	1120196305
 895 0c7c 90E6C442 		.word	1120200336
 896 0c80 28F6C442 		.word	1120204328
 897 0c84 9905C542 		.word	1120208281
 898 0c88 E214C542 		.word	1120212194
 899 0c8c 0524C542 		.word	1120216069
 900 0c90 FF32C542 		.word	1120219903
 901 0c94 D341C542 		.word	1120223699
 902 0c98 7F50C542 		.word	1120227455
 903 0c9c 035FC542 		.word	1120231171
 904 0ca0 606DC542 		.word	1120234848
 905 0ca4 967BC542 		.word	1120238486
 906 0ca8 A589C542 		.word	1120242085
 907 0cac 8C97C542 		.word	1120245644
 908 0cb0 4BA5C542 		.word	1120249163
 909 0cb4 E3B2C542 		.word	1120252643
 910 0cb8 54C0C542 		.word	1120256084
 911 0cbc 9DCDC542 		.word	1120259485
 912 0cc0 BEDAC542 		.word	1120262846
ARM GAS  C:\Users\30806\AppData\Local\Temp\ccYcD1nI.s 			page 17


 913 0cc4 B8E7C542 		.word	1120266168
 914 0cc8 8BF4C542 		.word	1120269451
 915 0ccc 3601C642 		.word	1120272694
 916 0cd0 BA0DC642 		.word	1120275898
 917 0cd4 161AC642 		.word	1120279062
 918 0cd8 4A26C642 		.word	1120282186
 919 0cdc 5732C642 		.word	1120285271
 920 0ce0 3C3EC642 		.word	1120288316
 921 0ce4 FA49C642 		.word	1120291322
 922 0ce8 9055C642 		.word	1120294288
 923 0cec FF60C642 		.word	1120297215
 924 0cf0 466CC642 		.word	1120300102
 925 0cf4 6577C642 		.word	1120302949
 926 0cf8 5D82C642 		.word	1120305757
 927 0cfc 2D8DC642 		.word	1120308525
 928 0d00 D697C642 		.word	1120311254
 929 0d04 56A2C642 		.word	1120313942
 930 0d08 B0ACC642 		.word	1120316592
 931 0d0c E1B6C642 		.word	1120319201
 932 0d10 EBC0C642 		.word	1120321771
 933 0d14 CDCAC642 		.word	1120324301
 934 0d18 88D4C642 		.word	1120326792
 935 0d1c 1ADEC642 		.word	1120329242
 936 0d20 85E7C642 		.word	1120331653
 937 0d24 C9F0C642 		.word	1120334025
 938 0d28 E4F9C642 		.word	1120336356
 939 0d2c D802C742 		.word	1120338648
 940 0d30 A50BC742 		.word	1120340901
 941 0d34 4914C742 		.word	1120343113
 942 0d38 C61CC742 		.word	1120345286
 943 0d3c 1B25C742 		.word	1120347419
 944 0d40 482DC742 		.word	1120349512
 945 0d44 4D35C742 		.word	1120351565
 946 0d48 2B3DC742 		.word	1120353579
 947 0d4c E144C742 		.word	1120355553
 948 0d50 6F4CC742 		.word	1120357487
 949 0d54 D653C742 		.word	1120359382
 950 0d58 145BC742 		.word	1120361236
 951 0d5c 2B62C742 		.word	1120363051
 952 0d60 1A69C742 		.word	1120364826
 953 0d64 E16FC742 		.word	1120366561
 954 0d68 8076C742 		.word	1120368256
 955 0d6c F87CC742 		.word	1120369912
 956 0d70 4883C742 		.word	1120371528
 957 0d74 6F89C742 		.word	1120373103
 958 0d78 6F8FC742 		.word	1120374639
 959 0d7c 4895C742 		.word	1120376136
 960 0d80 F89AC742 		.word	1120377592
 961 0d84 80A0C742 		.word	1120379008
 962 0d88 E1A5C742 		.word	1120380385
 963 0d8c 1AABC742 		.word	1120381722
 964 0d90 2BB0C742 		.word	1120383019
 965 0d94 14B5C742 		.word	1120384276
 966 0d98 D5B9C742 		.word	1120385493
 967 0d9c 6EBEC742 		.word	1120386670
 968 0da0 E0C2C742 		.word	1120387808
 969 0da4 29C7C742 		.word	1120388905
ARM GAS  C:\Users\30806\AppData\Local\Temp\ccYcD1nI.s 			page 18


 970 0da8 4BCBC742 		.word	1120389963
 971 0dac 45CFC742 		.word	1120390981
 972 0db0 17D3C742 		.word	1120391959
 973 0db4 C1D6C742 		.word	1120392897
 974 0db8 43DAC742 		.word	1120393795
 975 0dbc 9DDDC742 		.word	1120394653
 976 0dc0 CFE0C742 		.word	1120395471
 977 0dc4 DAE3C742 		.word	1120396250
 978 0dc8 BCE6C742 		.word	1120396988
 979 0dcc 77E9C742 		.word	1120397687
 980 0dd0 0AECC742 		.word	1120398346
 981 0dd4 74EEC742 		.word	1120398964
 982 0dd8 B7F0C742 		.word	1120399543
 983 0ddc D2F2C742 		.word	1120400082
 984 0de0 C5F4C742 		.word	1120400581
 985 0de4 91F6C742 		.word	1120401041
 986 0de8 34F8C742 		.word	1120401460
 987 0dec AFF9C742 		.word	1120401839
 988 0df0 02FBC742 		.word	1120402178
 989 0df4 2EFCC742 		.word	1120402478
 990 0df8 31FDC742 		.word	1120402737
 991 0dfc 0DFEC742 		.word	1120402957
 992 0e00 C1FEC742 		.word	1120403137
 993 0e04 4CFFC742 		.word	1120403276
 994 0e08 B0FFC742 		.word	1120403376
 995 0e0c ECFFC742 		.word	1120403436
 996 0e10 0000C842 		.word	1120403456
 997              		.section	.text._ZN12user_maths_c7invSqrtEf,"ax",%progbits
 998              		.align	1
 999              		.global	_ZN12user_maths_c7invSqrtEf
 1000              		.syntax unified
 1001              		.thumb
 1002              		.thumb_func
 1003              		.type	_ZN12user_maths_c7invSqrtEf, %function
 1004              	_ZN12user_maths_c7invSqrtEf:
 1005              	.LFB374:
 1006              		.file 1 "ACE_ECF_25-ACE-ECF-CPP-V1.2/Algorithm/user_maths/cpp_files/user_maths.cpp"
   1:ACE_ECF_25-ACE-ECF-CPP-V1.2/Algorithm/user_maths/cpp_files/user_maths.cpp **** #include "user_maths.hpp"
   2:ACE_ECF_25-ACE-ECF-CPP-V1.2/Algorithm/user_maths/cpp_files/user_maths.cpp **** #include <stddef.h>
   3:ACE_ECF_25-ACE-ECF-CPP-V1.2/Algorithm/user_maths/cpp_files/user_maths.cpp **** #include "arm_math.h"
   4:ACE_ECF_25-ACE-ECF-CPP-V1.2/Algorithm/user_maths/cpp_files/user_maths.cpp **** #include "list_of_trigfunction.h"
   5:ACE_ECF_25-ACE-ECF-CPP-V1.2/Algorithm/user_maths/cpp_files/user_maths.cpp **** 
   6:ACE_ECF_25-ACE-ECF-CPP-V1.2/Algorithm/user_maths/cpp_files/user_maths.cpp **** float user_maths_c::invSqrt(float x) //平方根倒数速算法
   7:ACE_ECF_25-ACE-ECF-CPP-V1.2/Algorithm/user_maths/cpp_files/user_maths.cpp **** {
 1007              		.loc 1 7 1
 1008              		.cfi_startproc
 1009              		@ args = 0, pretend = 0, frame = 24
 1010              		@ frame_needed = 1, uses_anonymous_args = 0
 1011              		@ link register save eliminated.
 1012 0000 80B4     		push	{r7}	@
 1013              	.LCFI0:
 1014              		.cfi_def_cfa_offset 4
 1015              		.cfi_offset 7, -4
 1016 0002 87B0     		sub	sp, sp, #28	@,,
 1017              	.LCFI1:
 1018              		.cfi_def_cfa_offset 32
 1019 0004 00AF     		add	r7, sp, #0	@,,
ARM GAS  C:\Users\30806\AppData\Local\Temp\ccYcD1nI.s 			page 19


 1020              	.LCFI2:
 1021              		.cfi_def_cfa_register 7
 1022 0006 7860     		str	r0, [r7, #4]	@ this, this
 1023 0008 87ED000A 		vstr.32	s0, [r7]	@ x, x
 1024              	@ ACE_ECF_25-ACE-ECF-CPP-V1.2/Algorithm/user_maths/cpp_files/user_maths.cpp:8:     float halfx = 0.
   8:ACE_ECF_25-ACE-ECF-CPP-V1.2/Algorithm/user_maths/cpp_files/user_maths.cpp ****     float halfx = 0.5f * x;
 1025              		.loc 1 8 11
 1026 000c D7ED007A 		vldr.32	s15, [r7]	@ tmp130, x
 1027 0010 B6EE007A 		vmov.f32	s14, #5.0e-1	@ tmp131,
 1028 0014 67EE877A 		vmul.f32	s15, s15, s14	@ tmp129, tmp130, tmp131
 1029 0018 C7ED057A 		vstr.32	s15, [r7, #20]	@ tmp129, halfx
 1030              	@ ACE_ECF_25-ACE-ECF-CPP-V1.2/Algorithm/user_maths/cpp_files/user_maths.cpp:9:     float y = x;
   9:ACE_ECF_25-ACE-ECF-CPP-V1.2/Algorithm/user_maths/cpp_files/user_maths.cpp ****     float y = x;
 1031              		.loc 1 9 11
 1032 001c 3B68     		ldr	r3, [r7]	@ float	@ tmp132, x
 1033 001e 3B61     		str	r3, [r7, #16]	@ float	@ tmp132, y
 1034              	@ ACE_ECF_25-ACE-ECF-CPP-V1.2/Algorithm/user_maths/cpp_files/user_maths.cpp:10:     long i = *(long
  10:ACE_ECF_25-ACE-ECF-CPP-V1.2/Algorithm/user_maths/cpp_files/user_maths.cpp ****     long i = *(long *)&y;
 1035              		.loc 1 10 23
 1036 0020 07F11003 		add	r3, r7, #16	@ y.0_1,,
 1037              	@ ACE_ECF_25-ACE-ECF-CPP-V1.2/Algorithm/user_maths/cpp_files/user_maths.cpp:10:     long i = *(long
 1038              		.loc 1 10 14
 1039 0024 1B68     		ldr	r3, [r3]	@ _2, MEM[(long int *)y.0_1]
 1040              	@ ACE_ECF_25-ACE-ECF-CPP-V1.2/Algorithm/user_maths/cpp_files/user_maths.cpp:10:     long i = *(long
 1041              		.loc 1 10 10
 1042 0026 FB60     		str	r3, [r7, #12]	@ _2, i
 1043              	@ ACE_ECF_25-ACE-ECF-CPP-V1.2/Algorithm/user_maths/cpp_files/user_maths.cpp:11:     i = 0x5f3759df 
  11:ACE_ECF_25-ACE-ECF-CPP-V1.2/Algorithm/user_maths/cpp_files/user_maths.cpp ****     i = 0x5f3759df - (i >> 1);
 1044              		.loc 1 11 25
 1045 0028 FB68     		ldr	r3, [r7, #12]	@ i.1_3, i
 1046 002a 5A10     		asrs	r2, r3, #1	@ _4, i.1_3,
 1047              	@ ACE_ECF_25-ACE-ECF-CPP-V1.2/Algorithm/user_maths/cpp_files/user_maths.cpp:11:     i = 0x5f3759df 
 1048              		.loc 1 11 20
 1049 002c 124B     		ldr	r3, .L3	@ _5,
 1050 002e 9B1A     		subs	r3, r3, r2	@ _5, _5, _4
 1051              	@ ACE_ECF_25-ACE-ECF-CPP-V1.2/Algorithm/user_maths/cpp_files/user_maths.cpp:11:     i = 0x5f3759df 
 1052              		.loc 1 11 7
 1053 0030 FB60     		str	r3, [r7, #12]	@ _5, i
 1054              	@ ACE_ECF_25-ACE-ECF-CPP-V1.2/Algorithm/user_maths/cpp_files/user_maths.cpp:12:     y = *(float *)&
  12:ACE_ECF_25-ACE-ECF-CPP-V1.2/Algorithm/user_maths/cpp_files/user_maths.cpp ****     y = *(float *)&i;
 1055              		.loc 1 12 19
 1056 0032 07F10C03 		add	r3, r7, #12	@ i.2_6,,
 1057              	@ ACE_ECF_25-ACE-ECF-CPP-V1.2/Algorithm/user_maths/cpp_files/user_maths.cpp:12:     y = *(float *)&
 1058              		.loc 1 12 9
 1059 0036 1B68     		ldr	r3, [r3]	@ float	@ _7, MEM[(float *)i.2_6]
 1060              	@ ACE_ECF_25-ACE-ECF-CPP-V1.2/Algorithm/user_maths/cpp_files/user_maths.cpp:12:     y = *(float *)&
 1061              		.loc 1 12 7
 1062 0038 3B61     		str	r3, [r7, #16]	@ float	@ _7, y
 1063              	@ ACE_ECF_25-ACE-ECF-CPP-V1.2/Algorithm/user_maths/cpp_files/user_maths.cpp:13:     y = y * (1.5f -
  13:ACE_ECF_25-ACE-ECF-CPP-V1.2/Algorithm/user_maths/cpp_files/user_maths.cpp ****     y = y * (1.5f - (halfx * y * y));
 1064              		.loc 1 13 28
 1065 003a 97ED047A 		vldr.32	s14, [r7, #16]	@ y.3_8, y
 1066 003e D7ED057A 		vldr.32	s15, [r7, #20]	@ tmp133, halfx
 1067 0042 27EE277A 		vmul.f32	s14, s14, s15	@ _9, y.3_8, tmp133
 1068              	@ ACE_ECF_25-ACE-ECF-CPP-V1.2/Algorithm/user_maths/cpp_files/user_maths.cpp:13:     y = y * (1.5f -
 1069              		.loc 1 13 32
 1070 0046 D7ED047A 		vldr.32	s15, [r7, #16]	@ y.4_10, y
ARM GAS  C:\Users\30806\AppData\Local\Temp\ccYcD1nI.s 			page 20


 1071 004a 67EE277A 		vmul.f32	s15, s14, s15	@ _11, _9, y.4_10
 1072              	@ ACE_ECF_25-ACE-ECF-CPP-V1.2/Algorithm/user_maths/cpp_files/user_maths.cpp:13:     y = y * (1.5f -
 1073              		.loc 1 13 19
 1074 004e B7EE087A 		vmov.f32	s14, #1.5e+0	@ tmp134,
 1075 0052 37EE677A 		vsub.f32	s14, s14, s15	@ _12, tmp134, _11
 1076              	@ ACE_ECF_25-ACE-ECF-CPP-V1.2/Algorithm/user_maths/cpp_files/user_maths.cpp:13:     y = y * (1.5f -
 1077              		.loc 1 13 11
 1078 0056 D7ED047A 		vldr.32	s15, [r7, #16]	@ y.5_13, y
 1079 005a 67EE277A 		vmul.f32	s15, s14, s15	@ _14, _12, y.5_13
 1080              	@ ACE_ECF_25-ACE-ECF-CPP-V1.2/Algorithm/user_maths/cpp_files/user_maths.cpp:13:     y = y * (1.5f -
 1081              		.loc 1 13 7
 1082 005e C7ED047A 		vstr.32	s15, [r7, #16]	@ _14, y
 1083              	@ ACE_ECF_25-ACE-ECF-CPP-V1.2/Algorithm/user_maths/cpp_files/user_maths.cpp:14:     return y;
  14:ACE_ECF_25-ACE-ECF-CPP-V1.2/Algorithm/user_maths/cpp_files/user_maths.cpp ****     return y;
 1084              		.loc 1 14 12
 1085 0062 3B69     		ldr	r3, [r7, #16]	@ float	@ _23, y
 1086 0064 07EE903A 		vmov	s15, r3	@ <retval>, _23
 1087              	@ ACE_ECF_25-ACE-ECF-CPP-V1.2/Algorithm/user_maths/cpp_files/user_maths.cpp:15: }
  15:ACE_ECF_25-ACE-ECF-CPP-V1.2/Algorithm/user_maths/cpp_files/user_maths.cpp **** }
 1088              		.loc 1 15 1
 1089 0068 B0EE670A 		vmov.f32	s0, s15	@, <retval>
 1090 006c 1C37     		adds	r7, r7, #28	@,,
 1091              	.LCFI3:
 1092              		.cfi_def_cfa_offset 4
 1093 006e BD46     		mov	sp, r7	@,
 1094              	.LCFI4:
 1095              		.cfi_def_cfa_register 13
 1096              		@ sp needed	@
 1097 0070 5DF8047B 		ldr	r7, [sp], #4	@,
 1098              	.LCFI5:
 1099              		.cfi_restore 7
 1100              		.cfi_def_cfa_offset 0
 1101 0074 7047     		bx	lr	@
 1102              	.L4:
 1103 0076 00BF     		.align	2
 1104              	.L3:
 1105 0078 DF59375F 		.word	1597463007
 1106              		.cfi_endproc
 1107              	.LFE374:
 1108              		.size	_ZN12user_maths_c7invSqrtEf, .-_ZN12user_maths_c7invSqrtEf
 1109              		.section	.text._ZN12user_maths_c7max_absEss,"ax",%progbits
 1110              		.align	1
 1111              		.global	_ZN12user_maths_c7max_absEss
 1112              		.syntax unified
 1113              		.thumb
 1114              		.thumb_func
 1115              		.type	_ZN12user_maths_c7max_absEss, %function
 1116              	_ZN12user_maths_c7max_absEss:
 1117              	.LFB375:
  16:ACE_ECF_25-ACE-ECF-CPP-V1.2/Algorithm/user_maths/cpp_files/user_maths.cpp **** 
  17:ACE_ECF_25-ACE-ECF-CPP-V1.2/Algorithm/user_maths/cpp_files/user_maths.cpp **** /*取两个数最大值的绝对值*/
  18:ACE_ECF_25-ACE-ECF-CPP-V1.2/Algorithm/user_maths/cpp_files/user_maths.cpp **** int16_t user_maths_c::max_abs(int16_t x, int16_t y)
  19:ACE_ECF_25-ACE-ECF-CPP-V1.2/Algorithm/user_maths/cpp_files/user_maths.cpp **** {
 1118              		.loc 1 19 1
 1119              		.cfi_startproc
 1120              		@ args = 0, pretend = 0, frame = 8
 1121              		@ frame_needed = 1, uses_anonymous_args = 0
ARM GAS  C:\Users\30806\AppData\Local\Temp\ccYcD1nI.s 			page 21


 1122              		@ link register save eliminated.
 1123 0000 80B4     		push	{r7}	@
 1124              	.LCFI6:
 1125              		.cfi_def_cfa_offset 4
 1126              		.cfi_offset 7, -4
 1127 0002 83B0     		sub	sp, sp, #12	@,,
 1128              	.LCFI7:
 1129              		.cfi_def_cfa_offset 16
 1130 0004 00AF     		add	r7, sp, #0	@,,
 1131              	.LCFI8:
 1132              		.cfi_def_cfa_register 7
 1133 0006 7860     		str	r0, [r7, #4]	@ this, this
 1134 0008 0B46     		mov	r3, r1	@ tmp119, x
 1135 000a 7B80     		strh	r3, [r7, #2]	@ movhi	@ tmp120, x
 1136 000c 1346     		mov	r3, r2	@ movhi	@ tmp122, tmp121
 1137 000e 3B80     		strh	r3, [r7]	@ movhi	@ tmp122, y
 1138              	@ ACE_ECF_25-ACE-ECF-CPP-V1.2/Algorithm/user_maths/cpp_files/user_maths.cpp:20:     if (user_abs(x)
  20:ACE_ECF_25-ACE-ECF-CPP-V1.2/Algorithm/user_maths/cpp_files/user_maths.cpp ****     if (user_abs(x) >= user_abs(y))
 1139              		.loc 1 20 9
 1140 0010 B7F90230 		ldrsh	r3, [r7, #2]	@ tmp123, x
 1141 0014 002B     		cmp	r3, #0	@ tmp124,
 1142 0016 B8BF     		it	lt
 1143 0018 5B42     		rsblt	r3, r3, #0	@ tmp124, tmp123,
 1144 001a 9AB2     		uxth	r2, r3	@ _1, tmp124
 1145              	@ ACE_ECF_25-ACE-ECF-CPP-V1.2/Algorithm/user_maths/cpp_files/user_maths.cpp:20:     if (user_abs(x)
 1146              		.loc 1 20 24
 1147 001c B7F90030 		ldrsh	r3, [r7]	@ tmp125, y
 1148 0020 002B     		cmp	r3, #0	@ tmp126,
 1149 0022 B8BF     		it	lt
 1150 0024 5B42     		rsblt	r3, r3, #0	@ tmp126, tmp125,
 1151 0026 9BB2     		uxth	r3, r3	@ _2, tmp126
 1152              	@ ACE_ECF_25-ACE-ECF-CPP-V1.2/Algorithm/user_maths/cpp_files/user_maths.cpp:20:     if (user_abs(x)
 1153              		.loc 1 20 5
 1154 0028 9A42     		cmp	r2, r3	@ _1, _2
 1155 002a 07D3     		bcc	.L6		@,
 1156              	@ ACE_ECF_25-ACE-ECF-CPP-V1.2/Algorithm/user_maths/cpp_files/user_maths.cpp:21:         return user
  21:ACE_ECF_25-ACE-ECF-CPP-V1.2/Algorithm/user_maths/cpp_files/user_maths.cpp ****         return user_abs(x);
 1157              		.loc 1 21 16
 1158 002c B7F90230 		ldrsh	r3, [r7, #2]	@ tmp127, x
 1159 0030 002B     		cmp	r3, #0	@ tmp128,
 1160 0032 B8BF     		it	lt
 1161 0034 5B42     		rsblt	r3, r3, #0	@ tmp128, tmp127,
 1162 0036 9BB2     		uxth	r3, r3	@ _3, tmp128
 1163 0038 1BB2     		sxth	r3, r3	@ _5, _3
 1164 003a 06E0     		b	.L7		@
 1165              	.L6:
 1166              	@ ACE_ECF_25-ACE-ECF-CPP-V1.2/Algorithm/user_maths/cpp_files/user_maths.cpp:23:         return user
  22:ACE_ECF_25-ACE-ECF-CPP-V1.2/Algorithm/user_maths/cpp_files/user_maths.cpp ****     else
  23:ACE_ECF_25-ACE-ECF-CPP-V1.2/Algorithm/user_maths/cpp_files/user_maths.cpp ****         return user_abs(y);
 1167              		.loc 1 23 16
 1168 003c B7F90030 		ldrsh	r3, [r7]	@ tmp129, y
 1169 0040 002B     		cmp	r3, #0	@ tmp130,
 1170 0042 B8BF     		it	lt
 1171 0044 5B42     		rsblt	r3, r3, #0	@ tmp130, tmp129,
 1172 0046 9BB2     		uxth	r3, r3	@ _4, tmp130
 1173 0048 1BB2     		sxth	r3, r3	@ _5, _4
 1174              	.L7:
ARM GAS  C:\Users\30806\AppData\Local\Temp\ccYcD1nI.s 			page 22


 1175              	@ ACE_ECF_25-ACE-ECF-CPP-V1.2/Algorithm/user_maths/cpp_files/user_maths.cpp:24: }
  24:ACE_ECF_25-ACE-ECF-CPP-V1.2/Algorithm/user_maths/cpp_files/user_maths.cpp **** }
 1176              		.loc 1 24 1
 1177 004a 1846     		mov	r0, r3	@, <retval>
 1178 004c 0C37     		adds	r7, r7, #12	@,,
 1179              	.LCFI9:
 1180              		.cfi_def_cfa_offset 4
 1181 004e BD46     		mov	sp, r7	@,
 1182              	.LCFI10:
 1183              		.cfi_def_cfa_register 13
 1184              		@ sp needed	@
 1185 0050 5DF8047B 		ldr	r7, [sp], #4	@,
 1186              	.LCFI11:
 1187              		.cfi_restore 7
 1188              		.cfi_def_cfa_offset 0
 1189 0054 7047     		bx	lr	@
 1190              		.cfi_endproc
 1191              	.LFE375:
 1192              		.size	_ZN12user_maths_c7max_absEss, .-_ZN12user_maths_c7max_absEss
 1193              		.section	.text._ZN12user_maths_c27motion_acceleration_controlEss,"ax",%progbits
 1194              		.align	1
 1195              		.global	_ZN12user_maths_c27motion_acceleration_controlEss
 1196              		.syntax unified
 1197              		.thumb
 1198              		.thumb_func
 1199              		.type	_ZN12user_maths_c27motion_acceleration_controlEss, %function
 1200              	_ZN12user_maths_c27motion_acceleration_controlEss:
 1201              	.LFB376:
  25:ACE_ECF_25-ACE-ECF-CPP-V1.2/Algorithm/user_maths/cpp_files/user_maths.cpp **** 
  26:ACE_ECF_25-ACE-ECF-CPP-V1.2/Algorithm/user_maths/cpp_files/user_maths.cpp **** /*
  27:ACE_ECF_25-ACE-ECF-CPP-V1.2/Algorithm/user_maths/cpp_files/user_maths.cpp ****  *功能：运动控制斜坡函数（加速度限制）
  28:ACE_ECF_25-ACE-ECF-CPP-V1.2/Algorithm/user_maths/cpp_files/user_maths.cpp ****  *传入：1.加速度限制对应结构体  2.控制量 3.限制加速度
  29:ACE_ECF_25-ACE-ECF-CPP-V1.2/Algorithm/user_maths/cpp_files/user_maths.cpp ****  *传出：处理量
  30:ACE_ECF_25-ACE-ECF-CPP-V1.2/Algorithm/user_maths/cpp_files/user_maths.cpp ****  *类型：16位整形
  31:ACE_ECF_25-ACE-ECF-CPP-V1.2/Algorithm/user_maths/cpp_files/user_maths.cpp ****  */
  32:ACE_ECF_25-ACE-ECF-CPP-V1.2/Algorithm/user_maths/cpp_files/user_maths.cpp **** int16_t user_maths_c::motion_acceleration_control( int16_t Input, int16_t Limit)
  33:ACE_ECF_25-ACE-ECF-CPP-V1.2/Algorithm/user_maths/cpp_files/user_maths.cpp **** {
 1202              		.loc 1 33 1
 1203              		.cfi_startproc
 1204              		@ args = 0, pretend = 0, frame = 8
 1205              		@ frame_needed = 1, uses_anonymous_args = 0
 1206              		@ link register save eliminated.
 1207 0000 80B4     		push	{r7}	@
 1208              	.LCFI12:
 1209              		.cfi_def_cfa_offset 4
 1210              		.cfi_offset 7, -4
 1211 0002 83B0     		sub	sp, sp, #12	@,,
 1212              	.LCFI13:
 1213              		.cfi_def_cfa_offset 16
 1214 0004 00AF     		add	r7, sp, #0	@,,
 1215              	.LCFI14:
 1216              		.cfi_def_cfa_register 7
 1217 0006 7860     		str	r0, [r7, #4]	@ this, this
 1218 0008 0B46     		mov	r3, r1	@ tmp135, Input
 1219 000a 7B80     		strh	r3, [r7, #2]	@ movhi	@ tmp136, Input
 1220 000c 1346     		mov	r3, r2	@ movhi	@ tmp138, tmp137
 1221 000e 3B80     		strh	r3, [r7]	@ movhi	@ tmp138, Limit
ARM GAS  C:\Users\30806\AppData\Local\Temp\ccYcD1nI.s 			page 23


 1222              	@ ACE_ECF_25-ACE-ECF-CPP-V1.2/Algorithm/user_maths/cpp_files/user_maths.cpp:34:     this->accelerat
  34:ACE_ECF_25-ACE-ECF-CPP-V1.2/Algorithm/user_maths/cpp_files/user_maths.cpp ****     this->acceleration_control.Input = Input;
 1223              		.loc 1 34 38
 1224 0010 B7F90230 		ldrsh	r3, [r7, #2]	@ tmp139, Input
 1225 0014 07EE903A 		vmov	s15, r3	@ int	@ tmp139, tmp139
 1226 0018 F8EEE77A 		vcvt.f32.s32	s15, s15	@ _1, tmp139
 1227 001c 7B68     		ldr	r3, [r7, #4]	@ tmp140, this
 1228 001e C3ED007A 		vstr.32	s15, [r3]	@ _1, this_24(D)->acceleration_control.Input
 1229              	@ ACE_ECF_25-ACE-ECF-CPP-V1.2/Algorithm/user_maths/cpp_files/user_maths.cpp:35:     this->accelerat
  35:ACE_ECF_25-ACE-ECF-CPP-V1.2/Algorithm/user_maths/cpp_files/user_maths.cpp ****     this->acceleration_control.acc_limit = Limit;
 1230              		.loc 1 35 42
 1231 0022 B7F90030 		ldrsh	r3, [r7]	@ tmp141, Limit
 1232 0026 07EE903A 		vmov	s15, r3	@ int	@ tmp141, tmp141
 1233 002a F8EEE77A 		vcvt.f32.s32	s15, s15	@ _2, tmp141
 1234 002e 7B68     		ldr	r3, [r7, #4]	@ tmp142, this
 1235 0030 C3ED047A 		vstr.32	s15, [r3, #16]	@ _2, this_24(D)->acceleration_control.acc_limit
 1236              	@ ACE_ECF_25-ACE-ECF-CPP-V1.2/Algorithm/user_maths/cpp_files/user_maths.cpp:37:     this->accelerat
  36:ACE_ECF_25-ACE-ECF-CPP-V1.2/Algorithm/user_maths/cpp_files/user_maths.cpp **** 
  37:ACE_ECF_25-ACE-ECF-CPP-V1.2/Algorithm/user_maths/cpp_files/user_maths.cpp ****     this->acceleration_control.acc_now = this->acceleration_control.Input - this->acceleration_cont
 1237              		.loc 1 37 69
 1238 0034 7B68     		ldr	r3, [r7, #4]	@ tmp143, this
 1239 0036 93ED007A 		vldr.32	s14, [r3]	@ _3, this_24(D)->acceleration_control.Input
 1240              	@ ACE_ECF_25-ACE-ECF-CPP-V1.2/Algorithm/user_maths/cpp_files/user_maths.cpp:37:     this->accelerat
 1241              		.loc 1 37 104
 1242 003a 7B68     		ldr	r3, [r7, #4]	@ tmp144, this
 1243 003c D3ED017A 		vldr.32	s15, [r3, #4]	@ _4, this_24(D)->acceleration_control.Last_Input
 1244              	@ ACE_ECF_25-ACE-ECF-CPP-V1.2/Algorithm/user_maths/cpp_files/user_maths.cpp:37:     this->accelerat
 1245              		.loc 1 37 75
 1246 0040 77EE677A 		vsub.f32	s15, s14, s15	@ _5, _3, _4
 1247              	@ ACE_ECF_25-ACE-ECF-CPP-V1.2/Algorithm/user_maths/cpp_files/user_maths.cpp:37:     this->accelerat
 1248              		.loc 1 37 40
 1249 0044 7B68     		ldr	r3, [r7, #4]	@ tmp145, this
 1250 0046 C3ED037A 		vstr.32	s15, [r3, #12]	@ _5, this_24(D)->acceleration_control.acc_now
 1251              	@ ACE_ECF_25-ACE-ECF-CPP-V1.2/Algorithm/user_maths/cpp_files/user_maths.cpp:39:     if (user_abs(th
  38:ACE_ECF_25-ACE-ECF-CPP-V1.2/Algorithm/user_maths/cpp_files/user_maths.cpp **** 
  39:ACE_ECF_25-ACE-ECF-CPP-V1.2/Algorithm/user_maths/cpp_files/user_maths.cpp ****     if (user_abs(this->acceleration_control.acc_now) > this->acceleration_control.acc_limit)
 1252              		.loc 1 39 9
 1253 004a 7B68     		ldr	r3, [r7, #4]	@ tmp146, this
 1254 004c D3ED037A 		vldr.32	s15, [r3, #12]	@ _6, this_24(D)->acceleration_control.acc_now
 1255 0050 F5EEC07A 		vcmpe.f32	s15, #0	@ _6
 1256 0054 F1EE10FA 		vmrs	APSR_nzcv, FPSCR
 1257 0058 03DD     		ble	.L21		@,
 1258              	@ ACE_ECF_25-ACE-ECF-CPP-V1.2/Algorithm/user_maths/cpp_files/user_maths.cpp:39:     if (user_abs(th
 1259              		.loc 1 39 9 is_stmt 0 discriminator 1
 1260 005a 7B68     		ldr	r3, [r7, #4]	@ tmp147, this
 1261 005c D3ED037A 		vldr.32	s15, [r3, #12]	@ iftmp.6_19, this_24(D)->acceleration_control.acc_now
 1262 0060 04E0     		b	.L11		@
 1263              	.L21:
 1264              	@ ACE_ECF_25-ACE-ECF-CPP-V1.2/Algorithm/user_maths/cpp_files/user_maths.cpp:39:     if (user_abs(th
 1265              		.loc 1 39 9 discriminator 2
 1266 0062 7B68     		ldr	r3, [r7, #4]	@ tmp148, this
 1267 0064 D3ED037A 		vldr.32	s15, [r3, #12]	@ _7, this_24(D)->acceleration_control.acc_now
 1268 0068 F1EE677A 		vneg.f32	s15, s15	@ iftmp.6_19, _7
 1269              	.L11:
 1270              	@ ACE_ECF_25-ACE-ECF-CPP-V1.2/Algorithm/user_maths/cpp_files/user_maths.cpp:39:     if (user_abs(th
 1271              		.loc 1 39 83 is_stmt 1 discriminator 4
 1272 006c 7B68     		ldr	r3, [r7, #4]	@ tmp149, this
ARM GAS  C:\Users\30806\AppData\Local\Temp\ccYcD1nI.s 			page 24


 1273 006e 93ED047A 		vldr.32	s14, [r3, #16]	@ _8, this_24(D)->acceleration_control.acc_limit
 1274              	@ ACE_ECF_25-ACE-ECF-CPP-V1.2/Algorithm/user_maths/cpp_files/user_maths.cpp:39:     if (user_abs(th
 1275              		.loc 1 39 5 discriminator 4
 1276 0072 F4EEC77A 		vcmpe.f32	s15, s14	@ iftmp.6_19, _8
 1277 0076 F1EE10FA 		vmrs	APSR_nzcv, FPSCR
 1278 007a 22DD     		ble	.L12		@,
 1279              	@ ACE_ECF_25-ACE-ECF-CPP-V1.2/Algorithm/user_maths/cpp_files/user_maths.cpp:41:         this->accel
  40:ACE_ECF_25-ACE-ECF-CPP-V1.2/Algorithm/user_maths/cpp_files/user_maths.cpp ****     {
  41:ACE_ECF_25-ACE-ECF-CPP-V1.2/Algorithm/user_maths/cpp_files/user_maths.cpp ****         this->acceleration_control.Output = this->acceleration_control.Last_Input + this->accelerat
 1280              		.loc 1 41 72
 1281 007c 7B68     		ldr	r3, [r7, #4]	@ tmp150, this
 1282 007e 93ED017A 		vldr.32	s14, [r3, #4]	@ _9, this_24(D)->acceleration_control.Last_Input
 1283              	@ ACE_ECF_25-ACE-ECF-CPP-V1.2/Algorithm/user_maths/cpp_files/user_maths.cpp:41:         this->accel
 1284              		.loc 1 41 112
 1285 0082 7B68     		ldr	r3, [r7, #4]	@ tmp151, this
 1286 0084 93ED036A 		vldr.32	s12, [r3, #12]	@ _10, this_24(D)->acceleration_control.acc_now
 1287              	@ ACE_ECF_25-ACE-ECF-CPP-V1.2/Algorithm/user_maths/cpp_files/user_maths.cpp:41:         this->accel
 1288              		.loc 1 41 122
 1289 0088 7B68     		ldr	r3, [r7, #4]	@ tmp152, this
 1290 008a D3ED037A 		vldr.32	s15, [r3, #12]	@ _11, this_24(D)->acceleration_control.acc_now
 1291 008e F5EEC07A 		vcmpe.f32	s15, #0	@ _11
 1292 0092 F1EE10FA 		vmrs	APSR_nzcv, FPSCR
 1293 0096 03DD     		ble	.L22		@,
 1294              	@ ACE_ECF_25-ACE-ECF-CPP-V1.2/Algorithm/user_maths/cpp_files/user_maths.cpp:41:         this->accel
 1295              		.loc 1 41 122 is_stmt 0 discriminator 1
 1296 0098 7B68     		ldr	r3, [r7, #4]	@ tmp153, this
 1297 009a D3ED037A 		vldr.32	s15, [r3, #12]	@ iftmp.7_20, this_24(D)->acceleration_control.acc_now
 1298 009e 04E0     		b	.L16		@
 1299              	.L22:
 1300              	@ ACE_ECF_25-ACE-ECF-CPP-V1.2/Algorithm/user_maths/cpp_files/user_maths.cpp:41:         this->accel
 1301              		.loc 1 41 122 discriminator 2
 1302 00a0 7B68     		ldr	r3, [r7, #4]	@ tmp154, this
 1303 00a2 D3ED037A 		vldr.32	s15, [r3, #12]	@ _12, this_24(D)->acceleration_control.acc_now
 1304 00a6 F1EE677A 		vneg.f32	s15, s15	@ iftmp.7_20, _12
 1305              	.L16:
 1306              	@ ACE_ECF_25-ACE-ECF-CPP-V1.2/Algorithm/user_maths/cpp_files/user_maths.cpp:41:         this->accel
 1307              		.loc 1 41 120 is_stmt 1 discriminator 4
 1308 00aa C6EE276A 		vdiv.f32	s13, s12, s15	@ _13, _10, iftmp.7_20
 1309              	@ ACE_ECF_25-ACE-ECF-CPP-V1.2/Algorithm/user_maths/cpp_files/user_maths.cpp:41:         this->accel
 1310              		.loc 1 41 196 discriminator 4
 1311 00ae 7B68     		ldr	r3, [r7, #4]	@ tmp155, this
 1312 00b0 D3ED047A 		vldr.32	s15, [r3, #16]	@ _14, this_24(D)->acceleration_control.acc_limit
 1313              	@ ACE_ECF_25-ACE-ECF-CPP-V1.2/Algorithm/user_maths/cpp_files/user_maths.cpp:41:         this->accel
 1314              		.loc 1 41 167 discriminator 4
 1315 00b4 66EEA77A 		vmul.f32	s15, s13, s15	@ _15, _13, _14
 1316              	@ ACE_ECF_25-ACE-ECF-CPP-V1.2/Algorithm/user_maths/cpp_files/user_maths.cpp:41:         this->accel
 1317              		.loc 1 41 83 discriminator 4
 1318 00b8 77EE277A 		vadd.f32	s15, s14, s15	@ _16, _9, _15
 1319              	@ ACE_ECF_25-ACE-ECF-CPP-V1.2/Algorithm/user_maths/cpp_files/user_maths.cpp:41:         this->accel
 1320              		.loc 1 41 43 discriminator 4
 1321 00bc 7B68     		ldr	r3, [r7, #4]	@ tmp156, this
 1322 00be C3ED027A 		vstr.32	s15, [r3, #8]	@ _16, this_24(D)->acceleration_control.Output
 1323              	.L12:
 1324              	@ ACE_ECF_25-ACE-ECF-CPP-V1.2/Algorithm/user_maths/cpp_files/user_maths.cpp:44:     this->accelerat
  42:ACE_ECF_25-ACE-ECF-CPP-V1.2/Algorithm/user_maths/cpp_files/user_maths.cpp ****     }
  43:ACE_ECF_25-ACE-ECF-CPP-V1.2/Algorithm/user_maths/cpp_files/user_maths.cpp **** 
  44:ACE_ECF_25-ACE-ECF-CPP-V1.2/Algorithm/user_maths/cpp_files/user_maths.cpp ****     this->acceleration_control.Last_Input = this->acceleration_control.Output;
ARM GAS  C:\Users\30806\AppData\Local\Temp\ccYcD1nI.s 			page 25


 1325              		.loc 1 44 72
 1326 00c2 7B68     		ldr	r3, [r7, #4]	@ tmp157, this
 1327 00c4 9A68     		ldr	r2, [r3, #8]	@ float	@ _17, this_24(D)->acceleration_control.Output
 1328              	@ ACE_ECF_25-ACE-ECF-CPP-V1.2/Algorithm/user_maths/cpp_files/user_maths.cpp:44:     this->accelerat
 1329              		.loc 1 44 43
 1330 00c6 7B68     		ldr	r3, [r7, #4]	@ tmp158, this
 1331 00c8 5A60     		str	r2, [r3, #4]	@ float	@ _17, this_24(D)->acceleration_control.Last_Input
 1332              	@ ACE_ECF_25-ACE-ECF-CPP-V1.2/Algorithm/user_maths/cpp_files/user_maths.cpp:46:     return this->ac
  45:ACE_ECF_25-ACE-ECF-CPP-V1.2/Algorithm/user_maths/cpp_files/user_maths.cpp **** 
  46:ACE_ECF_25-ACE-ECF-CPP-V1.2/Algorithm/user_maths/cpp_files/user_maths.cpp ****     return this->acceleration_control.Output;
 1333              		.loc 1 46 39
 1334 00ca 7B68     		ldr	r3, [r7, #4]	@ tmp159, this
 1335 00cc D3ED027A 		vldr.32	s15, [r3, #8]	@ _18, this_24(D)->acceleration_control.Output
 1336 00d0 FDEEE77A 		vcvt.s32.f32	s15, s15	@ tmp161, _18
 1337 00d4 17EE903A 		vmov	r3, s15	@ int	@ tmp160, tmp161
 1338 00d8 1BB2     		sxth	r3, r3	@ _35, tmp160
 1339              	@ ACE_ECF_25-ACE-ECF-CPP-V1.2/Algorithm/user_maths/cpp_files/user_maths.cpp:47: }
  47:ACE_ECF_25-ACE-ECF-CPP-V1.2/Algorithm/user_maths/cpp_files/user_maths.cpp **** }
 1340              		.loc 1 47 1
 1341 00da 1846     		mov	r0, r3	@, <retval>
 1342 00dc 0C37     		adds	r7, r7, #12	@,,
 1343              	.LCFI15:
 1344              		.cfi_def_cfa_offset 4
 1345 00de BD46     		mov	sp, r7	@,
 1346              	.LCFI16:
 1347              		.cfi_def_cfa_register 13
 1348              		@ sp needed	@
 1349 00e0 5DF8047B 		ldr	r7, [sp], #4	@,
 1350              	.LCFI17:
 1351              		.cfi_restore 7
 1352              		.cfi_def_cfa_offset 0
 1353 00e4 7047     		bx	lr	@
 1354              		.cfi_endproc
 1355              	.LFE376:
 1356              		.size	_ZN12user_maths_c27motion_acceleration_controlEss, .-_ZN12user_maths_c27motion_acceleration_
 1357              		.section	.text._ZN12user_maths_c22loop_restriction_int16Ess,"ax",%progbits
 1358              		.align	1
 1359              		.global	_ZN12user_maths_c22loop_restriction_int16Ess
 1360              		.syntax unified
 1361              		.thumb
 1362              		.thumb_func
 1363              		.type	_ZN12user_maths_c22loop_restriction_int16Ess, %function
 1364              	_ZN12user_maths_c22loop_restriction_int16Ess:
 1365              	.LFB377:
  48:ACE_ECF_25-ACE-ECF-CPP-V1.2/Algorithm/user_maths/cpp_files/user_maths.cpp **** 
  49:ACE_ECF_25-ACE-ECF-CPP-V1.2/Algorithm/user_maths/cpp_files/user_maths.cpp **** /*
  50:ACE_ECF_25-ACE-ECF-CPP-V1.2/Algorithm/user_maths/cpp_files/user_maths.cpp ****  *功能：正负循环限制（16位）
  51:ACE_ECF_25-ACE-ECF-CPP-V1.2/Algorithm/user_maths/cpp_files/user_maths.cpp ****  *传入：1.输入值  2.限制幅度(正数)
  52:ACE_ECF_25-ACE-ECF-CPP-V1.2/Algorithm/user_maths/cpp_files/user_maths.cpp ****  *传出：限幅输出值
  53:ACE_ECF_25-ACE-ECF-CPP-V1.2/Algorithm/user_maths/cpp_files/user_maths.cpp ****  *描述：将输入值限制在 +-限制幅度 的范围内
  54:ACE_ECF_25-ACE-ECF-CPP-V1.2/Algorithm/user_maths/cpp_files/user_maths.cpp ****  */
  55:ACE_ECF_25-ACE-ECF-CPP-V1.2/Algorithm/user_maths/cpp_files/user_maths.cpp **** int16_t user_maths_c::loop_restriction_int16(int16_t num, int16_t limit_num)
  56:ACE_ECF_25-ACE-ECF-CPP-V1.2/Algorithm/user_maths/cpp_files/user_maths.cpp **** {
 1366              		.loc 1 56 1
 1367              		.cfi_startproc
 1368              		@ args = 0, pretend = 0, frame = 8
 1369              		@ frame_needed = 1, uses_anonymous_args = 0
ARM GAS  C:\Users\30806\AppData\Local\Temp\ccYcD1nI.s 			page 26


 1370              		@ link register save eliminated.
 1371 0000 80B4     		push	{r7}	@
 1372              	.LCFI18:
 1373              		.cfi_def_cfa_offset 4
 1374              		.cfi_offset 7, -4
 1375 0002 83B0     		sub	sp, sp, #12	@,,
 1376              	.LCFI19:
 1377              		.cfi_def_cfa_offset 16
 1378 0004 00AF     		add	r7, sp, #0	@,,
 1379              	.LCFI20:
 1380              		.cfi_def_cfa_register 7
 1381 0006 7860     		str	r0, [r7, #4]	@ this, this
 1382 0008 0B46     		mov	r3, r1	@ tmp124, num
 1383 000a 7B80     		strh	r3, [r7, #2]	@ movhi	@ tmp125, num
 1384 000c 1346     		mov	r3, r2	@ movhi	@ tmp127, tmp126
 1385 000e 3B80     		strh	r3, [r7]	@ movhi	@ tmp127, limit_num
 1386              	@ ACE_ECF_25-ACE-ECF-CPP-V1.2/Algorithm/user_maths/cpp_files/user_maths.cpp:57:     if (user_abs(nu
  57:ACE_ECF_25-ACE-ECF-CPP-V1.2/Algorithm/user_maths/cpp_files/user_maths.cpp ****     if (user_abs(num) > limit_num)
 1387              		.loc 1 57 9
 1388 0010 B7F90230 		ldrsh	r3, [r7, #2]	@ tmp128, num
 1389 0014 002B     		cmp	r3, #0	@ tmp129,
 1390 0016 B8BF     		it	lt
 1391 0018 5B42     		rsblt	r3, r3, #0	@ tmp129, tmp128,
 1392 001a 9BB2     		uxth	r3, r3	@ _1, tmp129
 1393 001c 1A46     		mov	r2, r3	@ _2, _1
 1394              	@ ACE_ECF_25-ACE-ECF-CPP-V1.2/Algorithm/user_maths/cpp_files/user_maths.cpp:57:     if (user_abs(nu
 1395              		.loc 1 57 25
 1396 001e B7F90030 		ldrsh	r3, [r7]	@ _3, limit_num
 1397              	@ ACE_ECF_25-ACE-ECF-CPP-V1.2/Algorithm/user_maths/cpp_files/user_maths.cpp:57:     if (user_abs(nu
 1398              		.loc 1 57 5
 1399 0022 9A42     		cmp	r2, r3	@ _2, _3
 1400 0024 0EDD     		ble	.L24		@,
 1401              	@ ACE_ECF_25-ACE-ECF-CPP-V1.2/Algorithm/user_maths/cpp_files/user_maths.cpp:59:         if (num >= 
  58:ACE_ECF_25-ACE-ECF-CPP-V1.2/Algorithm/user_maths/cpp_files/user_maths.cpp ****     {
  59:ACE_ECF_25-ACE-ECF-CPP-V1.2/Algorithm/user_maths/cpp_files/user_maths.cpp ****         if (num >= 0)
 1402              		.loc 1 59 9
 1403 0026 B7F90230 		ldrsh	r3, [r7, #2]	@ tmp132, num
 1404 002a 002B     		cmp	r3, #0	@ tmp132,
 1405 002c 05DB     		blt	.L25		@,
 1406              	@ ACE_ECF_25-ACE-ECF-CPP-V1.2/Algorithm/user_maths/cpp_files/user_maths.cpp:60:             num -= 
  60:ACE_ECF_25-ACE-ECF-CPP-V1.2/Algorithm/user_maths/cpp_files/user_maths.cpp ****             num -= limit_num;
 1407              		.loc 1 60 17
 1408 002e 7A88     		ldrh	r2, [r7, #2]	@ num.8_4, num
 1409 0030 3B88     		ldrh	r3, [r7]	@ limit_num.9_5, limit_num
 1410 0032 D31A     		subs	r3, r2, r3	@ tmp133, num.8_4, limit_num.9_5
 1411 0034 9BB2     		uxth	r3, r3	@ _6, tmp133
 1412 0036 7B80     		strh	r3, [r7, #2]	@ movhi	@ tmp134, num
 1413 0038 04E0     		b	.L24		@
 1414              	.L25:
 1415              	@ ACE_ECF_25-ACE-ECF-CPP-V1.2/Algorithm/user_maths/cpp_files/user_maths.cpp:62:             num += 
  61:ACE_ECF_25-ACE-ECF-CPP-V1.2/Algorithm/user_maths/cpp_files/user_maths.cpp ****         else
  62:ACE_ECF_25-ACE-ECF-CPP-V1.2/Algorithm/user_maths/cpp_files/user_maths.cpp ****             num += limit_num;
 1416              		.loc 1 62 17
 1417 003a 7A88     		ldrh	r2, [r7, #2]	@ num.10_7, num
 1418 003c 3B88     		ldrh	r3, [r7]	@ limit_num.11_8, limit_num
 1419 003e 1344     		add	r3, r3, r2	@ tmp135, num.10_7
 1420 0040 9BB2     		uxth	r3, r3	@ _9, tmp135
ARM GAS  C:\Users\30806\AppData\Local\Temp\ccYcD1nI.s 			page 27


 1421 0042 7B80     		strh	r3, [r7, #2]	@ movhi	@ tmp136, num
 1422              	.L24:
 1423              	@ ACE_ECF_25-ACE-ECF-CPP-V1.2/Algorithm/user_maths/cpp_files/user_maths.cpp:64:     return num;
  63:ACE_ECF_25-ACE-ECF-CPP-V1.2/Algorithm/user_maths/cpp_files/user_maths.cpp ****     }
  64:ACE_ECF_25-ACE-ECF-CPP-V1.2/Algorithm/user_maths/cpp_files/user_maths.cpp ****     return num;
 1424              		.loc 1 64 12
 1425 0044 B7F90230 		ldrsh	r3, [r7, #2]	@ _15, num
 1426              	@ ACE_ECF_25-ACE-ECF-CPP-V1.2/Algorithm/user_maths/cpp_files/user_maths.cpp:65: }
  65:ACE_ECF_25-ACE-ECF-CPP-V1.2/Algorithm/user_maths/cpp_files/user_maths.cpp **** }
 1427              		.loc 1 65 1
 1428 0048 1846     		mov	r0, r3	@, <retval>
 1429 004a 0C37     		adds	r7, r7, #12	@,,
 1430              	.LCFI21:
 1431              		.cfi_def_cfa_offset 4
 1432 004c BD46     		mov	sp, r7	@,
 1433              	.LCFI22:
 1434              		.cfi_def_cfa_register 13
 1435              		@ sp needed	@
 1436 004e 5DF8047B 		ldr	r7, [sp], #4	@,
 1437              	.LCFI23:
 1438              		.cfi_restore 7
 1439              		.cfi_def_cfa_offset 0
 1440 0052 7047     		bx	lr	@
 1441              		.cfi_endproc
 1442              	.LFE377:
 1443              		.size	_ZN12user_maths_c22loop_restriction_int16Ess, .-_ZN12user_maths_c22loop_restriction_int16Ess
 1444              		.section	.text._ZN12user_maths_c22loop_restriction_floatEff,"ax",%progbits
 1445              		.align	1
 1446              		.global	_ZN12user_maths_c22loop_restriction_floatEff
 1447              		.syntax unified
 1448              		.thumb
 1449              		.thumb_func
 1450              		.type	_ZN12user_maths_c22loop_restriction_floatEff, %function
 1451              	_ZN12user_maths_c22loop_restriction_floatEff:
 1452              	.LFB378:
  66:ACE_ECF_25-ACE-ECF-CPP-V1.2/Algorithm/user_maths/cpp_files/user_maths.cpp **** 
  67:ACE_ECF_25-ACE-ECF-CPP-V1.2/Algorithm/user_maths/cpp_files/user_maths.cpp **** /*
  68:ACE_ECF_25-ACE-ECF-CPP-V1.2/Algorithm/user_maths/cpp_files/user_maths.cpp ****  *功能：正负循环限制（float）
  69:ACE_ECF_25-ACE-ECF-CPP-V1.2/Algorithm/user_maths/cpp_files/user_maths.cpp ****  *传入：1.输入值  2.限制幅度(正数)
  70:ACE_ECF_25-ACE-ECF-CPP-V1.2/Algorithm/user_maths/cpp_files/user_maths.cpp ****  *传出：限幅输出值
  71:ACE_ECF_25-ACE-ECF-CPP-V1.2/Algorithm/user_maths/cpp_files/user_maths.cpp ****  *描述：将输入值限制在 +-限制幅度 的范围内
  72:ACE_ECF_25-ACE-ECF-CPP-V1.2/Algorithm/user_maths/cpp_files/user_maths.cpp ****  */
  73:ACE_ECF_25-ACE-ECF-CPP-V1.2/Algorithm/user_maths/cpp_files/user_maths.cpp **** float user_maths_c::loop_restriction_float(float num, float limit_num)
  74:ACE_ECF_25-ACE-ECF-CPP-V1.2/Algorithm/user_maths/cpp_files/user_maths.cpp **** {
 1453              		.loc 1 74 1
 1454              		.cfi_startproc
 1455              		@ args = 0, pretend = 0, frame = 16
 1456              		@ frame_needed = 1, uses_anonymous_args = 0
 1457              		@ link register save eliminated.
 1458 0000 80B4     		push	{r7}	@
 1459              	.LCFI24:
 1460              		.cfi_def_cfa_offset 4
 1461              		.cfi_offset 7, -4
 1462 0002 85B0     		sub	sp, sp, #20	@,,
 1463              	.LCFI25:
 1464              		.cfi_def_cfa_offset 24
 1465 0004 00AF     		add	r7, sp, #0	@,,
ARM GAS  C:\Users\30806\AppData\Local\Temp\ccYcD1nI.s 			page 28


 1466              	.LCFI26:
 1467              		.cfi_def_cfa_register 7
 1468 0006 F860     		str	r0, [r7, #12]	@ this, this
 1469 0008 87ED020A 		vstr.32	s0, [r7, #8]	@ num, num
 1470 000c C7ED010A 		vstr.32	s1, [r7, #4]	@ limit_num, limit_num
 1471              	@ ACE_ECF_25-ACE-ECF-CPP-V1.2/Algorithm/user_maths/cpp_files/user_maths.cpp:75:     if (user_abs(nu
  75:ACE_ECF_25-ACE-ECF-CPP-V1.2/Algorithm/user_maths/cpp_files/user_maths.cpp ****     if (user_abs(num) > limit_num)
 1472              		.loc 1 75 9
 1473 0010 D7ED027A 		vldr.32	s15, [r7, #8]	@ tmp116, num
 1474 0014 F5EEC07A 		vcmpe.f32	s15, #0	@ tmp116
 1475 0018 F1EE10FA 		vmrs	APSR_nzcv, FPSCR
 1476 001c 02DD     		ble	.L39		@,
 1477              	@ ACE_ECF_25-ACE-ECF-CPP-V1.2/Algorithm/user_maths/cpp_files/user_maths.cpp:75:     if (user_abs(nu
 1478              		.loc 1 75 9 is_stmt 0 discriminator 1
 1479 001e D7ED027A 		vldr.32	s15, [r7, #8]	@ iftmp.12_2, num
 1480 0022 03E0     		b	.L30		@
 1481              	.L39:
 1482              	@ ACE_ECF_25-ACE-ECF-CPP-V1.2/Algorithm/user_maths/cpp_files/user_maths.cpp:75:     if (user_abs(nu
 1483              		.loc 1 75 9 discriminator 2
 1484 0024 D7ED027A 		vldr.32	s15, [r7, #8]	@ tmp117, num
 1485 0028 F1EE677A 		vneg.f32	s15, s15	@ iftmp.12_2, tmp117
 1486              	.L30:
 1487              	@ ACE_ECF_25-ACE-ECF-CPP-V1.2/Algorithm/user_maths/cpp_files/user_maths.cpp:75:     if (user_abs(nu
 1488              		.loc 1 75 5 is_stmt 1 discriminator 4
 1489 002c 97ED017A 		vldr.32	s14, [r7, #4]	@ tmp118, limit_num
 1490 0030 F4EEC77A 		vcmpe.f32	s15, s14	@ iftmp.12_2, tmp118
 1491 0034 F1EE10FA 		vmrs	APSR_nzcv, FPSCR
 1492 0038 17DD     		ble	.L31		@,
 1493              	@ ACE_ECF_25-ACE-ECF-CPP-V1.2/Algorithm/user_maths/cpp_files/user_maths.cpp:77:         if (num >= 
  76:ACE_ECF_25-ACE-ECF-CPP-V1.2/Algorithm/user_maths/cpp_files/user_maths.cpp ****     {
  77:ACE_ECF_25-ACE-ECF-CPP-V1.2/Algorithm/user_maths/cpp_files/user_maths.cpp ****         if (num >= 0)
 1494              		.loc 1 77 9
 1495 003a D7ED027A 		vldr.32	s15, [r7, #8]	@ tmp119, num
 1496 003e F5EEC07A 		vcmpe.f32	s15, #0	@ tmp119
 1497 0042 F1EE10FA 		vmrs	APSR_nzcv, FPSCR
 1498 0046 08DB     		blt	.L40		@,
 1499              	@ ACE_ECF_25-ACE-ECF-CPP-V1.2/Algorithm/user_maths/cpp_files/user_maths.cpp:78:             num -= 
  78:ACE_ECF_25-ACE-ECF-CPP-V1.2/Algorithm/user_maths/cpp_files/user_maths.cpp ****             num -= limit_num;
 1500              		.loc 1 78 17
 1501 0048 97ED027A 		vldr.32	s14, [r7, #8]	@ tmp121, num
 1502 004c D7ED017A 		vldr.32	s15, [r7, #4]	@ tmp122, limit_num
 1503 0050 77EE677A 		vsub.f32	s15, s14, s15	@ tmp120, tmp121, tmp122
 1504 0054 C7ED027A 		vstr.32	s15, [r7, #8]	@ tmp120, num
 1505 0058 07E0     		b	.L31		@
 1506              	.L40:
 1507              	@ ACE_ECF_25-ACE-ECF-CPP-V1.2/Algorithm/user_maths/cpp_files/user_maths.cpp:80:             num += 
  79:ACE_ECF_25-ACE-ECF-CPP-V1.2/Algorithm/user_maths/cpp_files/user_maths.cpp ****         else
  80:ACE_ECF_25-ACE-ECF-CPP-V1.2/Algorithm/user_maths/cpp_files/user_maths.cpp ****             num += limit_num;
 1508              		.loc 1 80 17
 1509 005a 97ED027A 		vldr.32	s14, [r7, #8]	@ tmp124, num
 1510 005e D7ED017A 		vldr.32	s15, [r7, #4]	@ tmp125, limit_num
 1511 0062 77EE277A 		vadd.f32	s15, s14, s15	@ tmp123, tmp124, tmp125
 1512 0066 C7ED027A 		vstr.32	s15, [r7, #8]	@ tmp123, num
 1513              	.L31:
 1514              	@ ACE_ECF_25-ACE-ECF-CPP-V1.2/Algorithm/user_maths/cpp_files/user_maths.cpp:82:     return num;
  81:ACE_ECF_25-ACE-ECF-CPP-V1.2/Algorithm/user_maths/cpp_files/user_maths.cpp ****     }
  82:ACE_ECF_25-ACE-ECF-CPP-V1.2/Algorithm/user_maths/cpp_files/user_maths.cpp ****     return num;
ARM GAS  C:\Users\30806\AppData\Local\Temp\ccYcD1nI.s 			page 29


 1515              		.loc 1 82 12
 1516 006a BB68     		ldr	r3, [r7, #8]	@ float	@ _9, num
 1517 006c 07EE903A 		vmov	s15, r3	@ <retval>, _9
 1518              	@ ACE_ECF_25-ACE-ECF-CPP-V1.2/Algorithm/user_maths/cpp_files/user_maths.cpp:83: }
  83:ACE_ECF_25-ACE-ECF-CPP-V1.2/Algorithm/user_maths/cpp_files/user_maths.cpp **** }
 1519              		.loc 1 83 1
 1520 0070 B0EE670A 		vmov.f32	s0, s15	@, <retval>
 1521 0074 1437     		adds	r7, r7, #20	@,,
 1522              	.LCFI27:
 1523              		.cfi_def_cfa_offset 4
 1524 0076 BD46     		mov	sp, r7	@,
 1525              	.LCFI28:
 1526              		.cfi_def_cfa_register 13
 1527              		@ sp needed	@
 1528 0078 5DF8047B 		ldr	r7, [sp], #4	@,
 1529              	.LCFI29:
 1530              		.cfi_restore 7
 1531              		.cfi_def_cfa_offset 0
 1532 007c 7047     		bx	lr	@
 1533              		.cfi_endproc
 1534              	.LFE378:
 1535              		.size	_ZN12user_maths_c22loop_restriction_floatEff, .-_ZN12user_maths_c22loop_restriction_floatEff
 1536              		.section	.text._ZN12user_maths_c19loop_fp32_constrainEfff,"ax",%progbits
 1537              		.align	1
 1538              		.global	_ZN12user_maths_c19loop_fp32_constrainEfff
 1539              		.syntax unified
 1540              		.thumb
 1541              		.thumb_func
 1542              		.type	_ZN12user_maths_c19loop_fp32_constrainEfff, %function
 1543              	_ZN12user_maths_c19loop_fp32_constrainEfff:
 1544              	.LFB379:
  84:ACE_ECF_25-ACE-ECF-CPP-V1.2/Algorithm/user_maths/cpp_files/user_maths.cpp **** 
  85:ACE_ECF_25-ACE-ECF-CPP-V1.2/Algorithm/user_maths/cpp_files/user_maths.cpp **** /*循环限幅32*/
  86:ACE_ECF_25-ACE-ECF-CPP-V1.2/Algorithm/user_maths/cpp_files/user_maths.cpp **** float user_maths_c::loop_fp32_constrain(float Input, float minValue, float maxValue)
  87:ACE_ECF_25-ACE-ECF-CPP-V1.2/Algorithm/user_maths/cpp_files/user_maths.cpp **** {
 1545              		.loc 1 87 1
 1546              		.cfi_startproc
 1547              		@ args = 0, pretend = 0, frame = 24
 1548              		@ frame_needed = 1, uses_anonymous_args = 0
 1549              		@ link register save eliminated.
 1550 0000 80B4     		push	{r7}	@
 1551              	.LCFI30:
 1552              		.cfi_def_cfa_offset 4
 1553              		.cfi_offset 7, -4
 1554 0002 87B0     		sub	sp, sp, #28	@,,
 1555              	.LCFI31:
 1556              		.cfi_def_cfa_offset 32
 1557 0004 00AF     		add	r7, sp, #0	@,,
 1558              	.LCFI32:
 1559              		.cfi_def_cfa_register 7
 1560 0006 F860     		str	r0, [r7, #12]	@ this, this
 1561 0008 87ED020A 		vstr.32	s0, [r7, #8]	@ Input, Input
 1562 000c C7ED010A 		vstr.32	s1, [r7, #4]	@ minValue, minValue
 1563 0010 87ED001A 		vstr.32	s2, [r7]	@ maxValue, maxValue
 1564              	@ ACE_ECF_25-ACE-ECF-CPP-V1.2/Algorithm/user_maths/cpp_files/user_maths.cpp:88:     if (maxValue < 
  88:ACE_ECF_25-ACE-ECF-CPP-V1.2/Algorithm/user_maths/cpp_files/user_maths.cpp ****     if (maxValue < minValue)
 1565              		.loc 1 88 5
ARM GAS  C:\Users\30806\AppData\Local\Temp\ccYcD1nI.s 			page 30


 1566 0014 97ED007A 		vldr.32	s14, [r7]	@ tmp115, maxValue
 1567 0018 D7ED017A 		vldr.32	s15, [r7, #4]	@ tmp116, minValue
 1568 001c B4EEE77A 		vcmpe.f32	s14, s15	@ tmp115, tmp116
 1569 0020 F1EE10FA 		vmrs	APSR_nzcv, FPSCR
 1570 0024 01D5     		bpl	.L58		@,
 1571              	@ ACE_ECF_25-ACE-ECF-CPP-V1.2/Algorithm/user_maths/cpp_files/user_maths.cpp:90:         return Inpu
  89:ACE_ECF_25-ACE-ECF-CPP-V1.2/Algorithm/user_maths/cpp_files/user_maths.cpp ****     {
  90:ACE_ECF_25-ACE-ECF-CPP-V1.2/Algorithm/user_maths/cpp_files/user_maths.cpp ****         return Input;
 1572              		.loc 1 90 16
 1573 0026 BB68     		ldr	r3, [r7, #8]	@ float	@ _4, Input
 1574 0028 46E0     		b	.L44		@
 1575              	.L58:
 1576              	.LBB2:
 1577              	@ ACE_ECF_25-ACE-ECF-CPP-V1.2/Algorithm/user_maths/cpp_files/user_maths.cpp:93:     if (Input > max
  91:ACE_ECF_25-ACE-ECF-CPP-V1.2/Algorithm/user_maths/cpp_files/user_maths.cpp ****     }
  92:ACE_ECF_25-ACE-ECF-CPP-V1.2/Algorithm/user_maths/cpp_files/user_maths.cpp **** 
  93:ACE_ECF_25-ACE-ECF-CPP-V1.2/Algorithm/user_maths/cpp_files/user_maths.cpp ****     if (Input > maxValue)
 1578              		.loc 1 93 5
 1579 002a 97ED027A 		vldr.32	s14, [r7, #8]	@ tmp117, Input
 1580 002e D7ED007A 		vldr.32	s15, [r7]	@ tmp118, maxValue
 1581 0032 B4EEE77A 		vcmpe.f32	s14, s15	@ tmp117, tmp118
 1582 0036 F1EE10FA 		vmrs	APSR_nzcv, FPSCR
 1583 003a 19DD     		ble	.L59		@,
 1584              	.LBB3:
 1585              	@ ACE_ECF_25-ACE-ECF-CPP-V1.2/Algorithm/user_maths/cpp_files/user_maths.cpp:95:         float len =
  94:ACE_ECF_25-ACE-ECF-CPP-V1.2/Algorithm/user_maths/cpp_files/user_maths.cpp ****     {
  95:ACE_ECF_25-ACE-ECF-CPP-V1.2/Algorithm/user_maths/cpp_files/user_maths.cpp ****         float len = maxValue - minValue;
 1586              		.loc 1 95 15
 1587 003c 97ED007A 		vldr.32	s14, [r7]	@ tmp120, maxValue
 1588 0040 D7ED017A 		vldr.32	s15, [r7, #4]	@ tmp121, minValue
 1589 0044 77EE677A 		vsub.f32	s15, s14, s15	@ tmp119, tmp120, tmp121
 1590 0048 C7ED047A 		vstr.32	s15, [r7, #16]	@ tmp119, len
 1591              	.L49:
 1592              	@ ACE_ECF_25-ACE-ECF-CPP-V1.2/Algorithm/user_maths/cpp_files/user_maths.cpp:96:         while (Inpu
  96:ACE_ECF_25-ACE-ECF-CPP-V1.2/Algorithm/user_maths/cpp_files/user_maths.cpp ****         while (Input > maxValue)
 1593              		.loc 1 96 22
 1594 004c 97ED027A 		vldr.32	s14, [r7, #8]	@ tmp122, Input
 1595 0050 D7ED007A 		vldr.32	s15, [r7]	@ tmp123, maxValue
 1596 0054 B4EEE77A 		vcmpe.f32	s14, s15	@ tmp122, tmp123
 1597 0058 F1EE10FA 		vmrs	APSR_nzcv, FPSCR
 1598 005c 2BDD     		ble	.L47		@,
 1599              	@ ACE_ECF_25-ACE-ECF-CPP-V1.2/Algorithm/user_maths/cpp_files/user_maths.cpp:98:             Input -
  97:ACE_ECF_25-ACE-ECF-CPP-V1.2/Algorithm/user_maths/cpp_files/user_maths.cpp ****         {
  98:ACE_ECF_25-ACE-ECF-CPP-V1.2/Algorithm/user_maths/cpp_files/user_maths.cpp ****             Input -= len;
 1600              		.loc 1 98 19
 1601 005e 97ED027A 		vldr.32	s14, [r7, #8]	@ tmp125, Input
 1602 0062 D7ED047A 		vldr.32	s15, [r7, #16]	@ tmp126, len
 1603 0066 77EE677A 		vsub.f32	s15, s14, s15	@ tmp124, tmp125, tmp126
 1604 006a C7ED027A 		vstr.32	s15, [r7, #8]	@ tmp124, Input
 1605              	@ ACE_ECF_25-ACE-ECF-CPP-V1.2/Algorithm/user_maths/cpp_files/user_maths.cpp:96:         while (Inpu
  96:ACE_ECF_25-ACE-ECF-CPP-V1.2/Algorithm/user_maths/cpp_files/user_maths.cpp ****         while (Input > maxValue)
 1606              		.loc 1 96 9
 1607 006e EDE7     		b	.L49		@
 1608              	.L59:
 1609              	.LBE3:
 1610              	.LBB4:
 1611              	.LBB5:
ARM GAS  C:\Users\30806\AppData\Local\Temp\ccYcD1nI.s 			page 31


 1612              	@ ACE_ECF_25-ACE-ECF-CPP-V1.2/Algorithm/user_maths/cpp_files/user_maths.cpp:101:     else if (Input
  99:ACE_ECF_25-ACE-ECF-CPP-V1.2/Algorithm/user_maths/cpp_files/user_maths.cpp ****         }
 100:ACE_ECF_25-ACE-ECF-CPP-V1.2/Algorithm/user_maths/cpp_files/user_maths.cpp ****     }
 101:ACE_ECF_25-ACE-ECF-CPP-V1.2/Algorithm/user_maths/cpp_files/user_maths.cpp ****     else if (Input < minValue)
 1613              		.loc 1 101 10
 1614 0070 97ED027A 		vldr.32	s14, [r7, #8]	@ tmp127, Input
 1615 0074 D7ED017A 		vldr.32	s15, [r7, #4]	@ tmp128, minValue
 1616 0078 B4EEE77A 		vcmpe.f32	s14, s15	@ tmp127, tmp128
 1617 007c F1EE10FA 		vmrs	APSR_nzcv, FPSCR
 1618 0080 19D5     		bpl	.L47		@,
 1619              	.LBB6:
 1620              	@ ACE_ECF_25-ACE-ECF-CPP-V1.2/Algorithm/user_maths/cpp_files/user_maths.cpp:103:         float len 
 102:ACE_ECF_25-ACE-ECF-CPP-V1.2/Algorithm/user_maths/cpp_files/user_maths.cpp ****     {
 103:ACE_ECF_25-ACE-ECF-CPP-V1.2/Algorithm/user_maths/cpp_files/user_maths.cpp ****         float len = maxValue - minValue;
 1621              		.loc 1 103 15
 1622 0082 97ED007A 		vldr.32	s14, [r7]	@ tmp130, maxValue
 1623 0086 D7ED017A 		vldr.32	s15, [r7, #4]	@ tmp131, minValue
 1624 008a 77EE677A 		vsub.f32	s15, s14, s15	@ tmp129, tmp130, tmp131
 1625 008e C7ED057A 		vstr.32	s15, [r7, #20]	@ tmp129, len
 1626              	.L52:
 1627              	@ ACE_ECF_25-ACE-ECF-CPP-V1.2/Algorithm/user_maths/cpp_files/user_maths.cpp:104:         while (Inp
 104:ACE_ECF_25-ACE-ECF-CPP-V1.2/Algorithm/user_maths/cpp_files/user_maths.cpp ****         while (Input < minValue)
 1628              		.loc 1 104 22
 1629 0092 97ED027A 		vldr.32	s14, [r7, #8]	@ tmp132, Input
 1630 0096 D7ED017A 		vldr.32	s15, [r7, #4]	@ tmp133, minValue
 1631 009a B4EEE77A 		vcmpe.f32	s14, s15	@ tmp132, tmp133
 1632 009e F1EE10FA 		vmrs	APSR_nzcv, FPSCR
 1633 00a2 08D5     		bpl	.L47		@,
 1634              	@ ACE_ECF_25-ACE-ECF-CPP-V1.2/Algorithm/user_maths/cpp_files/user_maths.cpp:106:             Input 
 105:ACE_ECF_25-ACE-ECF-CPP-V1.2/Algorithm/user_maths/cpp_files/user_maths.cpp ****         {
 106:ACE_ECF_25-ACE-ECF-CPP-V1.2/Algorithm/user_maths/cpp_files/user_maths.cpp ****             Input += len;
 1635              		.loc 1 106 19
 1636 00a4 97ED027A 		vldr.32	s14, [r7, #8]	@ tmp135, Input
 1637 00a8 D7ED057A 		vldr.32	s15, [r7, #20]	@ tmp136, len
 1638 00ac 77EE277A 		vadd.f32	s15, s14, s15	@ tmp134, tmp135, tmp136
 1639 00b0 C7ED027A 		vstr.32	s15, [r7, #8]	@ tmp134, Input
 1640              	@ ACE_ECF_25-ACE-ECF-CPP-V1.2/Algorithm/user_maths/cpp_files/user_maths.cpp:104:         while (Inp
 104:ACE_ECF_25-ACE-ECF-CPP-V1.2/Algorithm/user_maths/cpp_files/user_maths.cpp ****         while (Input < minValue)
 1641              		.loc 1 104 9
 1642 00b4 EDE7     		b	.L52		@
 1643              	.L47:
 1644              	.LBE6:
 1645              	.LBE5:
 1646              	.LBE4:
 1647              	.LBE2:
 1648              	@ ACE_ECF_25-ACE-ECF-CPP-V1.2/Algorithm/user_maths/cpp_files/user_maths.cpp:109:     return Input;
 107:ACE_ECF_25-ACE-ECF-CPP-V1.2/Algorithm/user_maths/cpp_files/user_maths.cpp ****         }
 108:ACE_ECF_25-ACE-ECF-CPP-V1.2/Algorithm/user_maths/cpp_files/user_maths.cpp ****     }
 109:ACE_ECF_25-ACE-ECF-CPP-V1.2/Algorithm/user_maths/cpp_files/user_maths.cpp ****     return Input;
 1649              		.loc 1 109 12
 1650 00b6 BB68     		ldr	r3, [r7, #8]	@ float	@ _4, Input
 1651              	.L44:
 1652              	@ ACE_ECF_25-ACE-ECF-CPP-V1.2/Algorithm/user_maths/cpp_files/user_maths.cpp:110: }
 110:ACE_ECF_25-ACE-ECF-CPP-V1.2/Algorithm/user_maths/cpp_files/user_maths.cpp **** }
 1653              		.loc 1 110 1
 1654 00b8 07EE903A 		vmov	s15, r3	@ <retval>, _4
 1655 00bc B0EE670A 		vmov.f32	s0, s15	@, <retval>
ARM GAS  C:\Users\30806\AppData\Local\Temp\ccYcD1nI.s 			page 32


 1656 00c0 1C37     		adds	r7, r7, #28	@,,
 1657              	.LCFI33:
 1658              		.cfi_def_cfa_offset 4
 1659 00c2 BD46     		mov	sp, r7	@,
 1660              	.LCFI34:
 1661              		.cfi_def_cfa_register 13
 1662              		@ sp needed	@
 1663 00c4 5DF8047B 		ldr	r7, [sp], #4	@,
 1664              	.LCFI35:
 1665              		.cfi_restore 7
 1666              		.cfi_def_cfa_offset 0
 1667 00c8 7047     		bx	lr	@
 1668              		.cfi_endproc
 1669              	.LFE379:
 1670              		.size	_ZN12user_maths_c19loop_fp32_constrainEfff, .-_ZN12user_maths_c19loop_fp32_constrainEfff
 1671              		.section	.bss._ZZN12user_maths_c24data_accelerated_controlEPffE8last_num,"aw",%nobits
 1672              		.align	1
 1673              		.type	_ZZN12user_maths_c24data_accelerated_controlEPffE8last_num, %object
 1674              		.size	_ZZN12user_maths_c24data_accelerated_controlEPffE8last_num, 2
 1675              	_ZZN12user_maths_c24data_accelerated_controlEPffE8last_num:
 1676 0000 0000     		.space	2
 1677              		.section	.text._ZN12user_maths_c24data_accelerated_controlEPff,"ax",%progbits
 1678              		.align	1
 1679              		.global	_ZN12user_maths_c24data_accelerated_controlEPff
 1680              		.syntax unified
 1681              		.thumb
 1682              		.thumb_func
 1683              		.type	_ZN12user_maths_c24data_accelerated_controlEPff, %function
 1684              	_ZN12user_maths_c24data_accelerated_controlEPff:
 1685              	.LFB380:
 111:ACE_ECF_25-ACE-ECF-CPP-V1.2/Algorithm/user_maths/cpp_files/user_maths.cpp **** 
 112:ACE_ECF_25-ACE-ECF-CPP-V1.2/Algorithm/user_maths/cpp_files/user_maths.cpp **** //斜坡函数(加速度限制)
 113:ACE_ECF_25-ACE-ECF-CPP-V1.2/Algorithm/user_maths/cpp_files/user_maths.cpp **** void user_maths_c::data_accelerated_control(float *input, float acc)
 114:ACE_ECF_25-ACE-ECF-CPP-V1.2/Algorithm/user_maths/cpp_files/user_maths.cpp **** {
 1686              		.loc 1 114 1
 1687              		.cfi_startproc
 1688              		@ args = 0, pretend = 0, frame = 24
 1689              		@ frame_needed = 1, uses_anonymous_args = 0
 1690              		@ link register save eliminated.
 1691 0000 80B4     		push	{r7}	@
 1692              	.LCFI36:
 1693              		.cfi_def_cfa_offset 4
 1694              		.cfi_offset 7, -4
 1695 0002 87B0     		sub	sp, sp, #28	@,,
 1696              	.LCFI37:
 1697              		.cfi_def_cfa_offset 32
 1698 0004 00AF     		add	r7, sp, #0	@,,
 1699              	.LCFI38:
 1700              		.cfi_def_cfa_register 7
 1701 0006 F860     		str	r0, [r7, #12]	@ this, this
 1702 0008 B960     		str	r1, [r7, #8]	@ input, input
 1703 000a 87ED010A 		vstr.32	s0, [r7, #4]	@ acc, acc
 1704              	@ ACE_ECF_25-ACE-ECF-CPP-V1.2/Algorithm/user_maths/cpp_files/user_maths.cpp:117:     temp = *input 
 115:ACE_ECF_25-ACE-ECF-CPP-V1.2/Algorithm/user_maths/cpp_files/user_maths.cpp ****     static int16_t last_num = 0;
 116:ACE_ECF_25-ACE-ECF-CPP-V1.2/Algorithm/user_maths/cpp_files/user_maths.cpp ****     int16_t temp;
 117:ACE_ECF_25-ACE-ECF-CPP-V1.2/Algorithm/user_maths/cpp_files/user_maths.cpp ****     temp = *input - last_num;
 1705              		.loc 1 117 12
ARM GAS  C:\Users\30806\AppData\Local\Temp\ccYcD1nI.s 			page 33


 1706 000e BB68     		ldr	r3, [r7, #8]	@ tmp131, input
 1707 0010 93ED007A 		vldr.32	s14, [r3]	@ _1, *input_21(D)
 1708              	@ ACE_ECF_25-ACE-ECF-CPP-V1.2/Algorithm/user_maths/cpp_files/user_maths.cpp:117:     temp = *input 
 1709              		.loc 1 117 19
 1710 0014 264B     		ldr	r3, .L64	@ tmp132,
 1711 0016 B3F90030 		ldrsh	r3, [r3]	@ last_num.13_2, last_num
 1712 001a 07EE903A 		vmov	s15, r3	@ int	@ last_num.13_2, last_num.13_2
 1713 001e F8EEE77A 		vcvt.f32.s32	s15, s15	@ _3, last_num.13_2
 1714 0022 77EE677A 		vsub.f32	s15, s14, s15	@ _4, _1, _3
 1715              	@ ACE_ECF_25-ACE-ECF-CPP-V1.2/Algorithm/user_maths/cpp_files/user_maths.cpp:117:     temp = *input 
 1716              		.loc 1 117 10
 1717 0026 FDEEE77A 		vcvt.s32.f32	s15, s15	@ tmp133, _4
 1718 002a 17EE903A 		vmov	r3, s15	@ int	@ tmp134, tmp133
 1719 002e FB82     		strh	r3, [r7, #22]	@ movhi	@ tmp134, temp
 1720              	@ ACE_ECF_25-ACE-ECF-CPP-V1.2/Algorithm/user_maths/cpp_files/user_maths.cpp:119:     if (user_abs(t
 118:ACE_ECF_25-ACE-ECF-CPP-V1.2/Algorithm/user_maths/cpp_files/user_maths.cpp **** 
 119:ACE_ECF_25-ACE-ECF-CPP-V1.2/Algorithm/user_maths/cpp_files/user_maths.cpp ****     if (user_abs(temp) > acc)
 1721              		.loc 1 119 9
 1722 0030 B7F91630 		ldrsh	r3, [r7, #22]	@ tmp135, temp
 1723 0034 002B     		cmp	r3, #0	@ tmp136,
 1724 0036 B8BF     		it	lt
 1725 0038 5B42     		rsblt	r3, r3, #0	@ tmp136, tmp135,
 1726 003a 9BB2     		uxth	r3, r3	@ _5, tmp136
 1727 003c 07EE903A 		vmov	s15, r3	@ int	@ _6, _5
 1728              	@ ACE_ECF_25-ACE-ECF-CPP-V1.2/Algorithm/user_maths/cpp_files/user_maths.cpp:119:     if (user_abs(t
 1729              		.loc 1 119 24
 1730 0040 F8EEE77A 		vcvt.f32.s32	s15, s15	@ _7, _6
 1731              	@ ACE_ECF_25-ACE-ECF-CPP-V1.2/Algorithm/user_maths/cpp_files/user_maths.cpp:119:     if (user_abs(t
 1732              		.loc 1 119 5
 1733 0044 97ED017A 		vldr.32	s14, [r7, #4]	@ tmp137, acc
 1734 0048 B4EEE77A 		vcmpe.f32	s14, s15	@ tmp137, _7
 1735 004c F1EE10FA 		vmrs	APSR_nzcv, FPSCR
 1736 0050 1DD5     		bpl	.L61		@,
 1737              	@ ACE_ECF_25-ACE-ECF-CPP-V1.2/Algorithm/user_maths/cpp_files/user_maths.cpp:120:         *input = l
 120:ACE_ECF_25-ACE-ECF-CPP-V1.2/Algorithm/user_maths/cpp_files/user_maths.cpp ****         *input = last_num + temp / user_abs(temp) * acc;
 1738              		.loc 1 120 27
 1739 0052 174B     		ldr	r3, .L64	@ tmp138,
 1740 0054 B3F90030 		ldrsh	r3, [r3]	@ last_num.14_8, last_num
 1741 0058 07EE903A 		vmov	s15, r3	@ int	@ last_num.14_8, last_num.14_8
 1742 005c B8EEE77A 		vcvt.f32.s32	s14, s15	@ _9, last_num.14_8
 1743              	@ ACE_ECF_25-ACE-ECF-CPP-V1.2/Algorithm/user_maths/cpp_files/user_maths.cpp:120:         *input = l
 1744              		.loc 1 120 29
 1745 0060 B7F91630 		ldrsh	r3, [r7, #22]	@ _10, temp
 1746              	@ ACE_ECF_25-ACE-ECF-CPP-V1.2/Algorithm/user_maths/cpp_files/user_maths.cpp:120:         *input = l
 1747              		.loc 1 120 36
 1748 0064 B7F91620 		ldrsh	r2, [r7, #22]	@ tmp139, temp
 1749 0068 002A     		cmp	r2, #0	@ tmp140,
 1750 006a B8BF     		it	lt
 1751 006c 5242     		rsblt	r2, r2, #0	@ tmp140, tmp139,
 1752 006e 92B2     		uxth	r2, r2	@ _11, tmp140
 1753              	@ ACE_ECF_25-ACE-ECF-CPP-V1.2/Algorithm/user_maths/cpp_files/user_maths.cpp:120:         *input = l
 1754              		.loc 1 120 34
 1755 0070 93FBF2F3 		sdiv	r3, r3, r2	@ _13, _10, _12
 1756              	@ ACE_ECF_25-ACE-ECF-CPP-V1.2/Algorithm/user_maths/cpp_files/user_maths.cpp:120:         *input = l
 1757              		.loc 1 120 51
 1758 0074 07EE903A 		vmov	s15, r3	@ int	@ _13, _13
 1759 0078 F8EEE76A 		vcvt.f32.s32	s13, s15	@ _14, _13
ARM GAS  C:\Users\30806\AppData\Local\Temp\ccYcD1nI.s 			page 34


 1760 007c D7ED017A 		vldr.32	s15, [r7, #4]	@ tmp141, acc
 1761 0080 66EEA77A 		vmul.f32	s15, s13, s15	@ _15, _14, tmp141
 1762              	@ ACE_ECF_25-ACE-ECF-CPP-V1.2/Algorithm/user_maths/cpp_files/user_maths.cpp:120:         *input = l
 1763              		.loc 1 120 27
 1764 0084 77EE277A 		vadd.f32	s15, s14, s15	@ _16, _9, _15
 1765              	@ ACE_ECF_25-ACE-ECF-CPP-V1.2/Algorithm/user_maths/cpp_files/user_maths.cpp:120:         *input = l
 1766              		.loc 1 120 16
 1767 0088 BB68     		ldr	r3, [r7, #8]	@ tmp142, input
 1768 008a C3ED007A 		vstr.32	s15, [r3]	@ _16, *input_21(D)
 1769              	.L61:
 1770              	@ ACE_ECF_25-ACE-ECF-CPP-V1.2/Algorithm/user_maths/cpp_files/user_maths.cpp:122:     last_num = *in
 121:ACE_ECF_25-ACE-ECF-CPP-V1.2/Algorithm/user_maths/cpp_files/user_maths.cpp **** 
 122:ACE_ECF_25-ACE-ECF-CPP-V1.2/Algorithm/user_maths/cpp_files/user_maths.cpp ****     last_num = *input;
 1771              		.loc 1 122 16
 1772 008e BB68     		ldr	r3, [r7, #8]	@ tmp143, input
 1773 0090 D3ED007A 		vldr.32	s15, [r3]	@ _17, *input_21(D)
 1774              	@ ACE_ECF_25-ACE-ECF-CPP-V1.2/Algorithm/user_maths/cpp_files/user_maths.cpp:122:     last_num = *in
 1775              		.loc 1 122 14
 1776 0094 FDEEE77A 		vcvt.s32.f32	s15, s15	@ tmp145, _17
 1777 0098 17EE903A 		vmov	r3, s15	@ int	@ tmp144, tmp145
 1778 009c 1AB2     		sxth	r2, r3	@ _18, tmp144
 1779 009e 044B     		ldr	r3, .L64	@ tmp146,
 1780 00a0 1A80     		strh	r2, [r3]	@ movhi	@ tmp147, last_num
 1781              	@ ACE_ECF_25-ACE-ECF-CPP-V1.2/Algorithm/user_maths/cpp_files/user_maths.cpp:123: }
 123:ACE_ECF_25-ACE-ECF-CPP-V1.2/Algorithm/user_maths/cpp_files/user_maths.cpp **** }
 1782              		.loc 1 123 1
 1783 00a2 00BF     		nop	
 1784 00a4 1C37     		adds	r7, r7, #28	@,,
 1785              	.LCFI39:
 1786              		.cfi_def_cfa_offset 4
 1787 00a6 BD46     		mov	sp, r7	@,
 1788              	.LCFI40:
 1789              		.cfi_def_cfa_register 13
 1790              		@ sp needed	@
 1791 00a8 5DF8047B 		ldr	r7, [sp], #4	@,
 1792              	.LCFI41:
 1793              		.cfi_restore 7
 1794              		.cfi_def_cfa_offset 0
 1795 00ac 7047     		bx	lr	@
 1796              	.L65:
 1797 00ae 00BF     		.align	2
 1798              	.L64:
 1799 00b0 00000000 		.word	_ZZN12user_maths_c24data_accelerated_controlEPffE8last_num
 1800              		.cfi_endproc
 1801              	.LFE380:
 1802              		.size	_ZN12user_maths_c24data_accelerated_controlEPff, .-_ZN12user_maths_c24data_accelerated_contr
 1803              		.section	.text._ZN12user_maths_c15limiting_filterEfff,"ax",%progbits
 1804              		.align	1
 1805              		.global	_ZN12user_maths_c15limiting_filterEfff
 1806              		.syntax unified
 1807              		.thumb
 1808              		.thumb_func
 1809              		.type	_ZN12user_maths_c15limiting_filterEfff, %function
 1810              	_ZN12user_maths_c15limiting_filterEfff:
 1811              	.LFB381:
 124:ACE_ECF_25-ACE-ECF-CPP-V1.2/Algorithm/user_maths/cpp_files/user_maths.cpp **** 
 125:ACE_ECF_25-ACE-ECF-CPP-V1.2/Algorithm/user_maths/cpp_files/user_maths.cpp **** // 限幅滤波函数
ARM GAS  C:\Users\30806\AppData\Local\Temp\ccYcD1nI.s 			page 35


 126:ACE_ECF_25-ACE-ECF-CPP-V1.2/Algorithm/user_maths/cpp_files/user_maths.cpp **** float user_maths_c::limiting_filter(float new_value, float last_value, float delat_max)
 127:ACE_ECF_25-ACE-ECF-CPP-V1.2/Algorithm/user_maths/cpp_files/user_maths.cpp **** {
 1812              		.loc 1 127 1
 1813              		.cfi_startproc
 1814              		@ args = 0, pretend = 0, frame = 16
 1815              		@ frame_needed = 1, uses_anonymous_args = 0
 1816              		@ link register save eliminated.
 1817 0000 80B4     		push	{r7}	@
 1818              	.LCFI42:
 1819              		.cfi_def_cfa_offset 4
 1820              		.cfi_offset 7, -4
 1821 0002 85B0     		sub	sp, sp, #20	@,,
 1822              	.LCFI43:
 1823              		.cfi_def_cfa_offset 24
 1824 0004 00AF     		add	r7, sp, #0	@,,
 1825              	.LCFI44:
 1826              		.cfi_def_cfa_register 7
 1827 0006 F860     		str	r0, [r7, #12]	@ this, this
 1828 0008 87ED020A 		vstr.32	s0, [r7, #8]	@ new_value, new_value
 1829 000c C7ED010A 		vstr.32	s1, [r7, #4]	@ last_value, last_value
 1830 0010 87ED001A 		vstr.32	s2, [r7]	@ delat_max, delat_max
 1831              	@ ACE_ECF_25-ACE-ECF-CPP-V1.2/Algorithm/user_maths/cpp_files/user_maths.cpp:128:     if ((new_value
 128:ACE_ECF_25-ACE-ECF-CPP-V1.2/Algorithm/user_maths/cpp_files/user_maths.cpp ****     if ((new_value - last_value > delat_max) || (last_value - new_value > delat_max))
 1832              		.loc 1 128 20
 1833 0014 97ED027A 		vldr.32	s14, [r7, #8]	@ tmp117, new_value
 1834 0018 D7ED017A 		vldr.32	s15, [r7, #4]	@ tmp118, last_value
 1835 001c 77EE677A 		vsub.f32	s15, s14, s15	@ _1, tmp117, tmp118
 1836              	@ ACE_ECF_25-ACE-ECF-CPP-V1.2/Algorithm/user_maths/cpp_files/user_maths.cpp:128:     if ((new_value
 1837              		.loc 1 128 5
 1838 0020 97ED007A 		vldr.32	s14, [r7]	@ tmp119, delat_max
 1839 0024 B4EEE77A 		vcmpe.f32	s14, s15	@ tmp119, _1
 1840 0028 F1EE10FA 		vmrs	APSR_nzcv, FPSCR
 1841 002c 0CD4     		bmi	.L67		@,
 1842              	@ ACE_ECF_25-ACE-ECF-CPP-V1.2/Algorithm/user_maths/cpp_files/user_maths.cpp:128:     if ((new_value
 1843              		.loc 1 128 61 discriminator 1
 1844 002e 97ED017A 		vldr.32	s14, [r7, #4]	@ tmp120, last_value
 1845 0032 D7ED027A 		vldr.32	s15, [r7, #8]	@ tmp121, new_value
 1846 0036 77EE677A 		vsub.f32	s15, s14, s15	@ _2, tmp120, tmp121
 1847              	@ ACE_ECF_25-ACE-ECF-CPP-V1.2/Algorithm/user_maths/cpp_files/user_maths.cpp:128:     if ((new_value
 1848              		.loc 1 128 46 discriminator 1
 1849 003a 97ED007A 		vldr.32	s14, [r7]	@ tmp122, delat_max
 1850 003e B4EEE77A 		vcmpe.f32	s14, s15	@ tmp122, _2
 1851 0042 F1EE10FA 		vmrs	APSR_nzcv, FPSCR
 1852 0046 01D5     		bpl	.L71		@,
 1853              	.L67:
 1854              	@ ACE_ECF_25-ACE-ECF-CPP-V1.2/Algorithm/user_maths/cpp_files/user_maths.cpp:129:         return las
 129:ACE_ECF_25-ACE-ECF-CPP-V1.2/Algorithm/user_maths/cpp_files/user_maths.cpp ****         return last_value;
 1855              		.loc 1 129 16
 1856 0048 7B68     		ldr	r3, [r7, #4]	@ float	@ _3, last_value
 1857 004a 00E0     		b	.L70		@
 1858              	.L71:
 1859              	@ ACE_ECF_25-ACE-ECF-CPP-V1.2/Algorithm/user_maths/cpp_files/user_maths.cpp:130:     return new_val
 130:ACE_ECF_25-ACE-ECF-CPP-V1.2/Algorithm/user_maths/cpp_files/user_maths.cpp ****     return new_value;
 1860              		.loc 1 130 12
 1861 004c BB68     		ldr	r3, [r7, #8]	@ float	@ _3, new_value
 1862              	.L70:
 1863              	@ ACE_ECF_25-ACE-ECF-CPP-V1.2/Algorithm/user_maths/cpp_files/user_maths.cpp:131: }
ARM GAS  C:\Users\30806\AppData\Local\Temp\ccYcD1nI.s 			page 36


 131:ACE_ECF_25-ACE-ECF-CPP-V1.2/Algorithm/user_maths/cpp_files/user_maths.cpp **** }
 1864              		.loc 1 131 1
 1865 004e 07EE903A 		vmov	s15, r3	@ <retval>, _3
 1866 0052 B0EE670A 		vmov.f32	s0, s15	@, <retval>
 1867 0056 1437     		adds	r7, r7, #20	@,,
 1868              	.LCFI45:
 1869              		.cfi_def_cfa_offset 4
 1870 0058 BD46     		mov	sp, r7	@,
 1871              	.LCFI46:
 1872              		.cfi_def_cfa_register 13
 1873              		@ sp needed	@
 1874 005a 5DF8047B 		ldr	r7, [sp], #4	@,
 1875              	.LCFI47:
 1876              		.cfi_restore 7
 1877              		.cfi_def_cfa_offset 0
 1878 005e 7047     		bx	lr	@
 1879              		.cfi_endproc
 1880              	.LFE381:
 1881              		.size	_ZN12user_maths_c15limiting_filterEfff, .-_ZN12user_maths_c15limiting_filterEfff
 1882              		.section	.text._ZN12user_maths_c13sin_calculateEf,"ax",%progbits
 1883              		.align	1
 1884              		.global	_ZN12user_maths_c13sin_calculateEf
 1885              		.syntax unified
 1886              		.thumb
 1887              		.thumb_func
 1888              		.type	_ZN12user_maths_c13sin_calculateEf, %function
 1889              	_ZN12user_maths_c13sin_calculateEf:
 1890              	.LFB382:
 132:ACE_ECF_25-ACE-ECF-CPP-V1.2/Algorithm/user_maths/cpp_files/user_maths.cpp **** 
 133:ACE_ECF_25-ACE-ECF-CPP-V1.2/Algorithm/user_maths/cpp_files/user_maths.cpp **** // sin函数查表法
 134:ACE_ECF_25-ACE-ECF-CPP-V1.2/Algorithm/user_maths/cpp_files/user_maths.cpp **** float user_maths_c::sin_calculate(float angle)
 135:ACE_ECF_25-ACE-ECF-CPP-V1.2/Algorithm/user_maths/cpp_files/user_maths.cpp **** {
 1891              		.loc 1 135 1
 1892              		.cfi_startproc
 1893              		@ args = 0, pretend = 0, frame = 16
 1894              		@ frame_needed = 1, uses_anonymous_args = 0
 1895              		@ link register save eliminated.
 1896 0000 80B4     		push	{r7}	@
 1897              	.LCFI48:
 1898              		.cfi_def_cfa_offset 4
 1899              		.cfi_offset 7, -4
 1900 0002 85B0     		sub	sp, sp, #20	@,,
 1901              	.LCFI49:
 1902              		.cfi_def_cfa_offset 24
 1903 0004 00AF     		add	r7, sp, #0	@,,
 1904              	.LCFI50:
 1905              		.cfi_def_cfa_register 7
 1906 0006 7860     		str	r0, [r7, #4]	@ this, this
 1907 0008 87ED000A 		vstr.32	s0, [r7]	@ angle, angle
 1908              	@ ACE_ECF_25-ACE-ECF-CPP-V1.2/Algorithm/user_maths/cpp_files/user_maths.cpp:136:     float sin_angl
 136:ACE_ECF_25-ACE-ECF-CPP-V1.2/Algorithm/user_maths/cpp_files/user_maths.cpp ****     float sin_angle = 0.0f;
 1909              		.loc 1 136 11
 1910 000c 4FF00003 		mov	r3, #0	@ tmp142,
 1911 0010 FB60     		str	r3, [r7, #12]	@ float	@ tmp142, sin_angle
 1912              	@ ACE_ECF_25-ACE-ECF-CPP-V1.2/Algorithm/user_maths/cpp_files/user_maths.cpp:138:     if (angle >= 0
 137:ACE_ECF_25-ACE-ECF-CPP-V1.2/Algorithm/user_maths/cpp_files/user_maths.cpp **** 
 138:ACE_ECF_25-ACE-ECF-CPP-V1.2/Algorithm/user_maths/cpp_files/user_maths.cpp ****     if (angle >= 0.0f && angle < 90.0f)
ARM GAS  C:\Users\30806\AppData\Local\Temp\ccYcD1nI.s 			page 37


 1913              		.loc 1 138 5
 1914 0012 D7ED007A 		vldr.32	s15, [r7]	@ tmp143, angle
 1915 0016 F5EEC07A 		vcmpe.f32	s15, #0	@ tmp143
 1916 001a F1EE10FA 		vmrs	APSR_nzcv, FPSCR
 1917 001e 2ADB     		blt	.L73		@,
 1918              	@ ACE_ECF_25-ACE-ECF-CPP-V1.2/Algorithm/user_maths/cpp_files/user_maths.cpp:138:     if (angle >= 0
 1919              		.loc 1 138 23 discriminator 1
 1920 0020 D7ED007A 		vldr.32	s15, [r7]	@ tmp144, angle
 1921 0024 9FED867A 		vldr.32	s14, .L115	@ tmp145,
 1922 0028 F4EEC77A 		vcmpe.f32	s15, s14	@ tmp144, tmp145
 1923 002c F1EE10FA 		vmrs	APSR_nzcv, FPSCR
 1924 0030 21D5     		bpl	.L73		@,
 1925              	@ ACE_ECF_25-ACE-ECF-CPP-V1.2/Algorithm/user_maths/cpp_files/user_maths.cpp:139:         sin_angle 
 139:ACE_ECF_25-ACE-ECF-CPP-V1.2/Algorithm/user_maths/cpp_files/user_maths.cpp ****         sin_angle = (Trigonometric_Functions[(int)(user_abs(angle) * 10.0f)] / 100.0f);
 1926              		.loc 1 139 52
 1927 0032 D7ED007A 		vldr.32	s15, [r7]	@ tmp146, angle
 1928 0036 F5EEC07A 		vcmpe.f32	s15, #0	@ tmp146
 1929 003a F1EE10FA 		vmrs	APSR_nzcv, FPSCR
 1930 003e 02DD     		ble	.L111		@,
 1931              	@ ACE_ECF_25-ACE-ECF-CPP-V1.2/Algorithm/user_maths/cpp_files/user_maths.cpp:139:         sin_angle 
 1932              		.loc 1 139 52 is_stmt 0 discriminator 1
 1933 0040 D7ED007A 		vldr.32	s15, [r7]	@ iftmp.15_25, angle
 1934 0044 03E0     		b	.L78		@
 1935              	.L111:
 1936              	@ ACE_ECF_25-ACE-ECF-CPP-V1.2/Algorithm/user_maths/cpp_files/user_maths.cpp:139:         sin_angle 
 1937              		.loc 1 139 52 discriminator 2
 1938 0046 D7ED007A 		vldr.32	s15, [r7]	@ tmp147, angle
 1939 004a F1EE677A 		vneg.f32	s15, s15	@ iftmp.15_25, tmp147
 1940              	.L78:
 1941              	@ ACE_ECF_25-ACE-ECF-CPP-V1.2/Algorithm/user_maths/cpp_files/user_maths.cpp:139:         sin_angle 
 1942              		.loc 1 139 68 is_stmt 1 discriminator 4
 1943 004e B2EE047A 		vmov.f32	s14, #1.0e+1	@ tmp148,
 1944 0052 67EE877A 		vmul.f32	s15, s15, s14	@ _1, iftmp.15_25, tmp148
 1945              	@ ACE_ECF_25-ACE-ECF-CPP-V1.2/Algorithm/user_maths/cpp_files/user_maths.cpp:139:         sin_angle 
 1946              		.loc 1 139 46 discriminator 4
 1947 0056 FDEEE77A 		vcvt.s32.f32	s15, s15	@ _2, _1
 1948 005a 17EE903A 		vmov	r3, s15	@ int	@ _2, _2
 1949              	@ ACE_ECF_25-ACE-ECF-CPP-V1.2/Algorithm/user_maths/cpp_files/user_maths.cpp:139:         sin_angle 
 1950              		.loc 1 139 76 discriminator 4
 1951 005e 794A     		ldr	r2, .L115+4	@ tmp149,
 1952 0060 9B00     		lsls	r3, r3, #2	@ tmp150, _2,
 1953 0062 1344     		add	r3, r3, r2	@ tmp151, tmp149
 1954 0064 93ED007A 		vldr.32	s14, [r3]	@ _3, Trigonometric_Functions[_2]
 1955              	@ ACE_ECF_25-ACE-ECF-CPP-V1.2/Algorithm/user_maths/cpp_files/user_maths.cpp:139:         sin_angle 
 1956              		.loc 1 139 19 discriminator 4
 1957 0068 DFED776A 		vldr.32	s13, .L115+8	@ tmp153,
 1958 006c C7EE267A 		vdiv.f32	s15, s14, s13	@ tmp152, _3, tmp153
 1959 0070 C7ED037A 		vstr.32	s15, [r7, #12]	@ tmp152, sin_angle
 1960 0074 D9E0     		b	.L79		@
 1961              	.L73:
 1962              	@ ACE_ECF_25-ACE-ECF-CPP-V1.2/Algorithm/user_maths/cpp_files/user_maths.cpp:140:     else if (angle
 140:ACE_ECF_25-ACE-ECF-CPP-V1.2/Algorithm/user_maths/cpp_files/user_maths.cpp ****     else if (angle >= 90.0f && angle < 180.f)
 1963              		.loc 1 140 10
 1964 0076 D7ED007A 		vldr.32	s15, [r7]	@ tmp154, angle
 1965 007a 9FED717A 		vldr.32	s14, .L115	@ tmp155,
 1966 007e F4EEC77A 		vcmpe.f32	s15, s14	@ tmp154, tmp155
 1967 0082 F1EE10FA 		vmrs	APSR_nzcv, FPSCR
ARM GAS  C:\Users\30806\AppData\Local\Temp\ccYcD1nI.s 			page 38


 1968 0086 36DB     		blt	.L80		@,
 1969              	@ ACE_ECF_25-ACE-ECF-CPP-V1.2/Algorithm/user_maths/cpp_files/user_maths.cpp:140:     else if (angle
 1970              		.loc 1 140 29 discriminator 1
 1971 0088 D7ED007A 		vldr.32	s15, [r7]	@ tmp156, angle
 1972 008c 9FED6F7A 		vldr.32	s14, .L115+12	@ tmp157,
 1973 0090 F4EEC77A 		vcmpe.f32	s15, s14	@ tmp156, tmp157
 1974 0094 F1EE10FA 		vmrs	APSR_nzcv, FPSCR
 1975 0098 2DD5     		bpl	.L80		@,
 1976              	@ ACE_ECF_25-ACE-ECF-CPP-V1.2/Algorithm/user_maths/cpp_files/user_maths.cpp:141:         sin_angle 
 141:ACE_ECF_25-ACE-ECF-CPP-V1.2/Algorithm/user_maths/cpp_files/user_maths.cpp ****         sin_angle = (Trigonometric_Functions[(int)(user_abs(180.0f - angle) * 10.0f)] / 100.0f);
 1977              		.loc 1 141 52
 1978 009a 9FED6C7A 		vldr.32	s14, .L115+12	@ tmp158,
 1979 009e D7ED007A 		vldr.32	s15, [r7]	@ tmp159, angle
 1980 00a2 77EE677A 		vsub.f32	s15, s14, s15	@ _4, tmp158, tmp159
 1981 00a6 F5EEC07A 		vcmpe.f32	s15, #0	@ _4
 1982 00aa F1EE10FA 		vmrs	APSR_nzcv, FPSCR
 1983 00ae 06DD     		ble	.L112		@,
 1984              	@ ACE_ECF_25-ACE-ECF-CPP-V1.2/Algorithm/user_maths/cpp_files/user_maths.cpp:141:         sin_angle 
 1985              		.loc 1 141 52 is_stmt 0 discriminator 1
 1986 00b0 9FED667A 		vldr.32	s14, .L115+12	@ tmp160,
 1987 00b4 D7ED007A 		vldr.32	s15, [r7]	@ tmp161, angle
 1988 00b8 77EE677A 		vsub.f32	s15, s14, s15	@ iftmp.16_26, tmp160, tmp161
 1989 00bc 07E0     		b	.L85		@
 1990              	.L112:
 1991              	@ ACE_ECF_25-ACE-ECF-CPP-V1.2/Algorithm/user_maths/cpp_files/user_maths.cpp:141:         sin_angle 
 1992              		.loc 1 141 52 discriminator 2
 1993 00be 9FED637A 		vldr.32	s14, .L115+12	@ tmp162,
 1994 00c2 D7ED007A 		vldr.32	s15, [r7]	@ tmp163, angle
 1995 00c6 77EE677A 		vsub.f32	s15, s14, s15	@ _5, tmp162, tmp163
 1996 00ca F1EE677A 		vneg.f32	s15, s15	@ iftmp.16_26, _5
 1997              	.L85:
 1998              	@ ACE_ECF_25-ACE-ECF-CPP-V1.2/Algorithm/user_maths/cpp_files/user_maths.cpp:141:         sin_angle 
 1999              		.loc 1 141 77 is_stmt 1 discriminator 4
 2000 00ce B2EE047A 		vmov.f32	s14, #1.0e+1	@ tmp164,
 2001 00d2 67EE877A 		vmul.f32	s15, s15, s14	@ _6, iftmp.16_26, tmp164
 2002              	@ ACE_ECF_25-ACE-ECF-CPP-V1.2/Algorithm/user_maths/cpp_files/user_maths.cpp:141:         sin_angle 
 2003              		.loc 1 141 46 discriminator 4
 2004 00d6 FDEEE77A 		vcvt.s32.f32	s15, s15	@ _7, _6
 2005 00da 17EE903A 		vmov	r3, s15	@ int	@ _7, _7
 2006              	@ ACE_ECF_25-ACE-ECF-CPP-V1.2/Algorithm/user_maths/cpp_files/user_maths.cpp:141:         sin_angle 
 2007              		.loc 1 141 85 discriminator 4
 2008 00de 594A     		ldr	r2, .L115+4	@ tmp165,
 2009 00e0 9B00     		lsls	r3, r3, #2	@ tmp166, _7,
 2010 00e2 1344     		add	r3, r3, r2	@ tmp167, tmp165
 2011 00e4 93ED007A 		vldr.32	s14, [r3]	@ _8, Trigonometric_Functions[_7]
 2012              	@ ACE_ECF_25-ACE-ECF-CPP-V1.2/Algorithm/user_maths/cpp_files/user_maths.cpp:141:         sin_angle 
 2013              		.loc 1 141 19 discriminator 4
 2014 00e8 DFED576A 		vldr.32	s13, .L115+8	@ tmp169,
 2015 00ec C7EE267A 		vdiv.f32	s15, s14, s13	@ tmp168, _8, tmp169
 2016 00f0 C7ED037A 		vstr.32	s15, [r7, #12]	@ tmp168, sin_angle
 2017 00f4 99E0     		b	.L79		@
 2018              	.L80:
 2019              	@ ACE_ECF_25-ACE-ECF-CPP-V1.2/Algorithm/user_maths/cpp_files/user_maths.cpp:142:     else if (angle
 142:ACE_ECF_25-ACE-ECF-CPP-V1.2/Algorithm/user_maths/cpp_files/user_maths.cpp ****     else if (angle >= -180.0f && angle < -90.f)
 2020              		.loc 1 142 10
 2021 00f6 D7ED007A 		vldr.32	s15, [r7]	@ tmp170, angle
 2022 00fa 9FED557A 		vldr.32	s14, .L115+16	@ tmp171,
ARM GAS  C:\Users\30806\AppData\Local\Temp\ccYcD1nI.s 			page 39


 2023 00fe F4EEC77A 		vcmpe.f32	s15, s14	@ tmp170, tmp171
 2024 0102 F1EE10FA 		vmrs	APSR_nzcv, FPSCR
 2025 0106 38DB     		blt	.L86		@,
 2026              	@ ACE_ECF_25-ACE-ECF-CPP-V1.2/Algorithm/user_maths/cpp_files/user_maths.cpp:142:     else if (angle
 2027              		.loc 1 142 31 discriminator 1
 2028 0108 D7ED007A 		vldr.32	s15, [r7]	@ tmp172, angle
 2029 010c 9FED517A 		vldr.32	s14, .L115+20	@ tmp173,
 2030 0110 F4EEC77A 		vcmpe.f32	s15, s14	@ tmp172, tmp173
 2031 0114 F1EE10FA 		vmrs	APSR_nzcv, FPSCR
 2032 0118 2FD5     		bpl	.L86		@,
 2033              	@ ACE_ECF_25-ACE-ECF-CPP-V1.2/Algorithm/user_maths/cpp_files/user_maths.cpp:143:         sin_angle 
 143:ACE_ECF_25-ACE-ECF-CPP-V1.2/Algorithm/user_maths/cpp_files/user_maths.cpp ****         sin_angle = -(Trigonometric_Functions[(int)(user_abs(180.0f + angle) * 10.0f)] / 100.0f);
 2034              		.loc 1 143 53
 2035 011a D7ED007A 		vldr.32	s15, [r7]	@ tmp174, angle
 2036 011e 9FED4B7A 		vldr.32	s14, .L115+12	@ tmp175,
 2037 0122 77EE877A 		vadd.f32	s15, s15, s14	@ _9, tmp174, tmp175
 2038 0126 F5EEC07A 		vcmpe.f32	s15, #0	@ _9
 2039 012a F1EE10FA 		vmrs	APSR_nzcv, FPSCR
 2040 012e 06DD     		ble	.L113		@,
 2041              	@ ACE_ECF_25-ACE-ECF-CPP-V1.2/Algorithm/user_maths/cpp_files/user_maths.cpp:143:         sin_angle 
 2042              		.loc 1 143 53 is_stmt 0 discriminator 1
 2043 0130 D7ED007A 		vldr.32	s15, [r7]	@ tmp176, angle
 2044 0134 9FED457A 		vldr.32	s14, .L115+12	@ tmp177,
 2045 0138 77EE877A 		vadd.f32	s15, s15, s14	@ iftmp.17_27, tmp176, tmp177
 2046 013c 07E0     		b	.L91		@
 2047              	.L113:
 2048              	@ ACE_ECF_25-ACE-ECF-CPP-V1.2/Algorithm/user_maths/cpp_files/user_maths.cpp:143:         sin_angle 
 2049              		.loc 1 143 53 discriminator 2
 2050 013e D7ED007A 		vldr.32	s15, [r7]	@ tmp178, angle
 2051 0142 9FED427A 		vldr.32	s14, .L115+12	@ tmp179,
 2052 0146 77EE877A 		vadd.f32	s15, s15, s14	@ _10, tmp178, tmp179
 2053 014a F1EE677A 		vneg.f32	s15, s15	@ iftmp.17_27, _10
 2054              	.L91:
 2055              	@ ACE_ECF_25-ACE-ECF-CPP-V1.2/Algorithm/user_maths/cpp_files/user_maths.cpp:143:         sin_angle 
 2056              		.loc 1 143 78 is_stmt 1 discriminator 4
 2057 014e B2EE047A 		vmov.f32	s14, #1.0e+1	@ tmp180,
 2058 0152 67EE877A 		vmul.f32	s15, s15, s14	@ _11, iftmp.17_27, tmp180
 2059              	@ ACE_ECF_25-ACE-ECF-CPP-V1.2/Algorithm/user_maths/cpp_files/user_maths.cpp:143:         sin_angle 
 2060              		.loc 1 143 47 discriminator 4
 2061 0156 FDEEE77A 		vcvt.s32.f32	s15, s15	@ _12, _11
 2062 015a 17EE903A 		vmov	r3, s15	@ int	@ _12, _12
 2063              	@ ACE_ECF_25-ACE-ECF-CPP-V1.2/Algorithm/user_maths/cpp_files/user_maths.cpp:143:         sin_angle 
 2064              		.loc 1 143 86 discriminator 4
 2065 015e 394A     		ldr	r2, .L115+4	@ tmp181,
 2066 0160 9B00     		lsls	r3, r3, #2	@ tmp182, _12,
 2067 0162 1344     		add	r3, r3, r2	@ tmp183, tmp181
 2068 0164 93ED007A 		vldr.32	s14, [r3]	@ _13, Trigonometric_Functions[_12]
 2069              	@ ACE_ECF_25-ACE-ECF-CPP-V1.2/Algorithm/user_maths/cpp_files/user_maths.cpp:143:         sin_angle 
 2070              		.loc 1 143 88 discriminator 4
 2071 0168 DFED376A 		vldr.32	s13, .L115+8	@ tmp184,
 2072 016c C7EE267A 		vdiv.f32	s15, s14, s13	@ _14, _13, tmp184
 2073              	@ ACE_ECF_25-ACE-ECF-CPP-V1.2/Algorithm/user_maths/cpp_files/user_maths.cpp:143:         sin_angle 
 2074              		.loc 1 143 19 discriminator 4
 2075 0170 F1EE677A 		vneg.f32	s15, s15	@ tmp185, _14
 2076 0174 C7ED037A 		vstr.32	s15, [r7, #12]	@ tmp185, sin_angle
 2077 0178 57E0     		b	.L79		@
 2078              	.L86:
ARM GAS  C:\Users\30806\AppData\Local\Temp\ccYcD1nI.s 			page 40


 2079              	@ ACE_ECF_25-ACE-ECF-CPP-V1.2/Algorithm/user_maths/cpp_files/user_maths.cpp:144:     else if (angle
 144:ACE_ECF_25-ACE-ECF-CPP-V1.2/Algorithm/user_maths/cpp_files/user_maths.cpp ****     else if (angle >= -90.0f && angle < 0.f)
 2080              		.loc 1 144 10
 2081 017a D7ED007A 		vldr.32	s15, [r7]	@ tmp186, angle
 2082 017e 9FED357A 		vldr.32	s14, .L115+20	@ tmp187,
 2083 0182 F4EEC77A 		vcmpe.f32	s15, s14	@ tmp186, tmp187
 2084 0186 F1EE10FA 		vmrs	APSR_nzcv, FPSCR
 2085 018a 42DB     		blt	.L92		@,
 2086              	@ ACE_ECF_25-ACE-ECF-CPP-V1.2/Algorithm/user_maths/cpp_files/user_maths.cpp:144:     else if (angle
 2087              		.loc 1 144 30 discriminator 1
 2088 018c D7ED007A 		vldr.32	s15, [r7]	@ tmp188, angle
 2089 0190 F5EEC07A 		vcmpe.f32	s15, #0	@ tmp188
 2090 0194 F1EE10FA 		vmrs	APSR_nzcv, FPSCR
 2091 0198 3BD5     		bpl	.L92		@,
 2092              	@ ACE_ECF_25-ACE-ECF-CPP-V1.2/Algorithm/user_maths/cpp_files/user_maths.cpp:145:         sin_angle 
 145:ACE_ECF_25-ACE-ECF-CPP-V1.2/Algorithm/user_maths/cpp_files/user_maths.cpp ****         sin_angle = -(Trigonometric_Functions[(int)(user_abs(180.0f - (180.0f + angle)) * 10.0f)] /
 2093              		.loc 1 145 53
 2094 019a D7ED007A 		vldr.32	s15, [r7]	@ tmp189, angle
 2095 019e 9FED2B7A 		vldr.32	s14, .L115+12	@ tmp190,
 2096 01a2 77EE877A 		vadd.f32	s15, s15, s14	@ _15, tmp189, tmp190
 2097 01a6 9FED297A 		vldr.32	s14, .L115+12	@ tmp191,
 2098 01aa 77EE677A 		vsub.f32	s15, s14, s15	@ _16, tmp191, _15
 2099 01ae F5EEC07A 		vcmpe.f32	s15, #0	@ _16
 2100 01b2 F1EE10FA 		vmrs	APSR_nzcv, FPSCR
 2101 01b6 0ADD     		ble	.L114		@,
 2102              	@ ACE_ECF_25-ACE-ECF-CPP-V1.2/Algorithm/user_maths/cpp_files/user_maths.cpp:145:         sin_angle 
 2103              		.loc 1 145 53 is_stmt 0 discriminator 1
 2104 01b8 D7ED007A 		vldr.32	s15, [r7]	@ tmp192, angle
 2105 01bc 9FED237A 		vldr.32	s14, .L115+12	@ tmp193,
 2106 01c0 77EE877A 		vadd.f32	s15, s15, s14	@ _17, tmp192, tmp193
 2107 01c4 9FED217A 		vldr.32	s14, .L115+12	@ tmp194,
 2108 01c8 77EE677A 		vsub.f32	s15, s14, s15	@ iftmp.18_28, tmp194, _17
 2109 01cc 0BE0     		b	.L97		@
 2110              	.L114:
 2111              	@ ACE_ECF_25-ACE-ECF-CPP-V1.2/Algorithm/user_maths/cpp_files/user_maths.cpp:145:         sin_angle 
 2112              		.loc 1 145 53 discriminator 2
 2113 01ce D7ED007A 		vldr.32	s15, [r7]	@ tmp195, angle
 2114 01d2 9FED1E7A 		vldr.32	s14, .L115+12	@ tmp196,
 2115 01d6 77EE877A 		vadd.f32	s15, s15, s14	@ _18, tmp195, tmp196
 2116 01da 9FED1C7A 		vldr.32	s14, .L115+12	@ tmp197,
 2117 01de 77EE677A 		vsub.f32	s15, s14, s15	@ _19, tmp197, _18
 2118 01e2 F1EE677A 		vneg.f32	s15, s15	@ iftmp.18_28, _19
 2119              	.L97:
 2120              	@ ACE_ECF_25-ACE-ECF-CPP-V1.2/Algorithm/user_maths/cpp_files/user_maths.cpp:145:         sin_angle 
 2121              		.loc 1 145 89 is_stmt 1 discriminator 4
 2122 01e6 B2EE047A 		vmov.f32	s14, #1.0e+1	@ tmp198,
 2123 01ea 67EE877A 		vmul.f32	s15, s15, s14	@ _20, iftmp.18_28, tmp198
 2124              	@ ACE_ECF_25-ACE-ECF-CPP-V1.2/Algorithm/user_maths/cpp_files/user_maths.cpp:145:         sin_angle 
 2125              		.loc 1 145 47 discriminator 4
 2126 01ee FDEEE77A 		vcvt.s32.f32	s15, s15	@ _21, _20
 2127 01f2 17EE903A 		vmov	r3, s15	@ int	@ _21, _21
 2128              	@ ACE_ECF_25-ACE-ECF-CPP-V1.2/Algorithm/user_maths/cpp_files/user_maths.cpp:145:         sin_angle 
 2129              		.loc 1 145 97 discriminator 4
 2130 01f6 134A     		ldr	r2, .L115+4	@ tmp199,
 2131 01f8 9B00     		lsls	r3, r3, #2	@ tmp200, _21,
 2132 01fa 1344     		add	r3, r3, r2	@ tmp201, tmp199
 2133 01fc 93ED007A 		vldr.32	s14, [r3]	@ _22, Trigonometric_Functions[_21]
ARM GAS  C:\Users\30806\AppData\Local\Temp\ccYcD1nI.s 			page 41


 2134              	@ ACE_ECF_25-ACE-ECF-CPP-V1.2/Algorithm/user_maths/cpp_files/user_maths.cpp:145:         sin_angle 
 2135              		.loc 1 145 99 discriminator 4
 2136 0200 DFED116A 		vldr.32	s13, .L115+8	@ tmp202,
 2137 0204 C7EE267A 		vdiv.f32	s15, s14, s13	@ _23, _22, tmp202
 2138              	@ ACE_ECF_25-ACE-ECF-CPP-V1.2/Algorithm/user_maths/cpp_files/user_maths.cpp:145:         sin_angle 
 2139              		.loc 1 145 19 discriminator 4
 2140 0208 F1EE677A 		vneg.f32	s15, s15	@ tmp203, _23
 2141 020c C7ED037A 		vstr.32	s15, [r7, #12]	@ tmp203, sin_angle
 2142 0210 0BE0     		b	.L79		@
 2143              	.L92:
 2144              	@ ACE_ECF_25-ACE-ECF-CPP-V1.2/Algorithm/user_maths/cpp_files/user_maths.cpp:146:     else if (angle
 146:ACE_ECF_25-ACE-ECF-CPP-V1.2/Algorithm/user_maths/cpp_files/user_maths.cpp ****     else if (angle == 180.f)
 2145              		.loc 1 146 10
 2146 0212 D7ED007A 		vldr.32	s15, [r7]	@ tmp204, angle
 2147 0216 9FED0D7A 		vldr.32	s14, .L115+12	@ tmp205,
 2148 021a F4EE477A 		vcmp.f32	s15, s14	@ tmp204, tmp205
 2149 021e F1EE10FA 		vmrs	APSR_nzcv, FPSCR
 2150 0222 02D1     		bne	.L79		@,
 2151              	@ ACE_ECF_25-ACE-ECF-CPP-V1.2/Algorithm/user_maths/cpp_files/user_maths.cpp:147:         sin_angle 
 147:ACE_ECF_25-ACE-ECF-CPP-V1.2/Algorithm/user_maths/cpp_files/user_maths.cpp ****         sin_angle = 0.0f;
 2152              		.loc 1 147 19
 2153 0224 4FF00003 		mov	r3, #0	@ tmp206,
 2154 0228 FB60     		str	r3, [r7, #12]	@ float	@ tmp206, sin_angle
 2155              	.L79:
 2156              	@ ACE_ECF_25-ACE-ECF-CPP-V1.2/Algorithm/user_maths/cpp_files/user_maths.cpp:149:     return sin_ang
 148:ACE_ECF_25-ACE-ECF-CPP-V1.2/Algorithm/user_maths/cpp_files/user_maths.cpp **** 
 149:ACE_ECF_25-ACE-ECF-CPP-V1.2/Algorithm/user_maths/cpp_files/user_maths.cpp ****     return sin_angle;
 2157              		.loc 1 149 12
 2158 022a FB68     		ldr	r3, [r7, #12]	@ float	@ _45, sin_angle
 2159 022c 07EE903A 		vmov	s15, r3	@ <retval>, _45
 2160              	@ ACE_ECF_25-ACE-ECF-CPP-V1.2/Algorithm/user_maths/cpp_files/user_maths.cpp:150: }
 150:ACE_ECF_25-ACE-ECF-CPP-V1.2/Algorithm/user_maths/cpp_files/user_maths.cpp **** }
 2161              		.loc 1 150 1
 2162 0230 B0EE670A 		vmov.f32	s0, s15	@, <retval>
 2163 0234 1437     		adds	r7, r7, #20	@,,
 2164              	.LCFI51:
 2165              		.cfi_def_cfa_offset 4
 2166 0236 BD46     		mov	sp, r7	@,
 2167              	.LCFI52:
 2168              		.cfi_def_cfa_register 13
 2169              		@ sp needed	@
 2170 0238 5DF8047B 		ldr	r7, [sp], #4	@,
 2171              	.LCFI53:
 2172              		.cfi_restore 7
 2173              		.cfi_def_cfa_offset 0
 2174 023c 7047     		bx	lr	@
 2175              	.L116:
 2176 023e 00BF     		.align	2
 2177              	.L115:
 2178 0240 0000B442 		.word	1119092736
 2179 0244 00000000 		.word	_ZL23Trigonometric_Functions
 2180 0248 0000C842 		.word	1120403456
 2181 024c 00003443 		.word	1127481344
 2182 0250 000034C3 		.word	-1020002304
 2183 0254 0000B4C2 		.word	-1028390912
 2184              		.cfi_endproc
 2185              	.LFE382:
ARM GAS  C:\Users\30806\AppData\Local\Temp\ccYcD1nI.s 			page 42


 2186              		.size	_ZN12user_maths_c13sin_calculateEf, .-_ZN12user_maths_c13sin_calculateEf
 2187              		.section	.text._ZN12user_maths_c13cos_calculateEf,"ax",%progbits
 2188              		.align	1
 2189              		.global	_ZN12user_maths_c13cos_calculateEf
 2190              		.syntax unified
 2191              		.thumb
 2192              		.thumb_func
 2193              		.type	_ZN12user_maths_c13cos_calculateEf, %function
 2194              	_ZN12user_maths_c13cos_calculateEf:
 2195              	.LFB383:
 151:ACE_ECF_25-ACE-ECF-CPP-V1.2/Algorithm/user_maths/cpp_files/user_maths.cpp **** 
 152:ACE_ECF_25-ACE-ECF-CPP-V1.2/Algorithm/user_maths/cpp_files/user_maths.cpp **** // cos函数查表法
 153:ACE_ECF_25-ACE-ECF-CPP-V1.2/Algorithm/user_maths/cpp_files/user_maths.cpp **** float user_maths_c::cos_calculate(float angle)
 154:ACE_ECF_25-ACE-ECF-CPP-V1.2/Algorithm/user_maths/cpp_files/user_maths.cpp **** {
 2196              		.loc 1 154 1
 2197              		.cfi_startproc
 2198              		@ args = 0, pretend = 0, frame = 16
 2199              		@ frame_needed = 1, uses_anonymous_args = 0
 2200              		@ link register save eliminated.
 2201 0000 80B4     		push	{r7}	@
 2202              	.LCFI54:
 2203              		.cfi_def_cfa_offset 4
 2204              		.cfi_offset 7, -4
 2205 0002 85B0     		sub	sp, sp, #20	@,,
 2206              	.LCFI55:
 2207              		.cfi_def_cfa_offset 24
 2208 0004 00AF     		add	r7, sp, #0	@,,
 2209              	.LCFI56:
 2210              		.cfi_def_cfa_register 7
 2211 0006 7860     		str	r0, [r7, #4]	@ this, this
 2212 0008 87ED000A 		vstr.32	s0, [r7]	@ angle, angle
 2213              	@ ACE_ECF_25-ACE-ECF-CPP-V1.2/Algorithm/user_maths/cpp_files/user_maths.cpp:155:     float cos_angl
 155:ACE_ECF_25-ACE-ECF-CPP-V1.2/Algorithm/user_maths/cpp_files/user_maths.cpp ****     float cos_angle = 0.0f;
 2214              		.loc 1 155 11
 2215 000c 4FF00003 		mov	r3, #0	@ tmp129,
 2216 0010 FB60     		str	r3, [r7, #12]	@ float	@ tmp129, cos_angle
 2217              	@ ACE_ECF_25-ACE-ECF-CPP-V1.2/Algorithm/user_maths/cpp_files/user_maths.cpp:157:     angle = user_a
 156:ACE_ECF_25-ACE-ECF-CPP-V1.2/Algorithm/user_maths/cpp_files/user_maths.cpp **** 
 157:ACE_ECF_25-ACE-ECF-CPP-V1.2/Algorithm/user_maths/cpp_files/user_maths.cpp ****     angle = user_abs(angle);
 2218              		.loc 1 157 13
 2219 0012 D7ED007A 		vldr.32	s15, [r7]	@ tmp130, angle
 2220 0016 F5EEC07A 		vcmpe.f32	s15, #0	@ tmp130
 2221 001a F1EE10FA 		vmrs	APSR_nzcv, FPSCR
 2222 001e 02DD     		ble	.L142		@,
 2223              	@ ACE_ECF_25-ACE-ECF-CPP-V1.2/Algorithm/user_maths/cpp_files/user_maths.cpp:157:     angle = user_a
 2224              		.loc 1 157 13 is_stmt 0 discriminator 1
 2225 0020 D7ED007A 		vldr.32	s15, [r7]	@ iftmp.19_13, angle
 2226 0024 03E0     		b	.L120		@
 2227              	.L142:
 2228              	@ ACE_ECF_25-ACE-ECF-CPP-V1.2/Algorithm/user_maths/cpp_files/user_maths.cpp:157:     angle = user_a
 2229              		.loc 1 157 13 discriminator 2
 2230 0026 D7ED007A 		vldr.32	s15, [r7]	@ tmp131, angle
 2231 002a F1EE677A 		vneg.f32	s15, s15	@ iftmp.19_13, tmp131
 2232              	.L120:
 2233              	@ ACE_ECF_25-ACE-ECF-CPP-V1.2/Algorithm/user_maths/cpp_files/user_maths.cpp:157:     angle = user_a
 2234              		.loc 1 157 11 is_stmt 1 discriminator 4
 2235 002e C7ED007A 		vstr.32	s15, [r7]	@ iftmp.19_13, angle
ARM GAS  C:\Users\30806\AppData\Local\Temp\ccYcD1nI.s 			page 43


 2236              	@ ACE_ECF_25-ACE-ECF-CPP-V1.2/Algorithm/user_maths/cpp_files/user_maths.cpp:159:     if (angle >= 0
 158:ACE_ECF_25-ACE-ECF-CPP-V1.2/Algorithm/user_maths/cpp_files/user_maths.cpp **** 
 159:ACE_ECF_25-ACE-ECF-CPP-V1.2/Algorithm/user_maths/cpp_files/user_maths.cpp ****     if (angle >= 0.0f && angle < 90.0f)
 2237              		.loc 1 159 5 discriminator 4
 2238 0032 D7ED007A 		vldr.32	s15, [r7]	@ tmp132, angle
 2239 0036 F5EEC07A 		vcmpe.f32	s15, #0	@ tmp132
 2240 003a F1EE10FA 		vmrs	APSR_nzcv, FPSCR
 2241 003e 36DB     		blt	.L121		@,
 2242              	@ ACE_ECF_25-ACE-ECF-CPP-V1.2/Algorithm/user_maths/cpp_files/user_maths.cpp:159:     if (angle >= 0
 2243              		.loc 1 159 23 discriminator 1
 2244 0040 D7ED007A 		vldr.32	s15, [r7]	@ tmp133, angle
 2245 0044 9FED457A 		vldr.32	s14, .L145	@ tmp134,
 2246 0048 F4EEC77A 		vcmpe.f32	s15, s14	@ tmp133, tmp134
 2247 004c F1EE10FA 		vmrs	APSR_nzcv, FPSCR
 2248 0050 2DD5     		bpl	.L121		@,
 2249              	@ ACE_ECF_25-ACE-ECF-CPP-V1.2/Algorithm/user_maths/cpp_files/user_maths.cpp:160:         cos_angle 
 160:ACE_ECF_25-ACE-ECF-CPP-V1.2/Algorithm/user_maths/cpp_files/user_maths.cpp ****         cos_angle = (Trigonometric_Functions[(int)(user_abs(90.0f - angle) * 10.0f)] / 100.0f);
 2250              		.loc 1 160 52
 2251 0052 9FED427A 		vldr.32	s14, .L145	@ tmp135,
 2252 0056 D7ED007A 		vldr.32	s15, [r7]	@ tmp136, angle
 2253 005a 77EE677A 		vsub.f32	s15, s14, s15	@ _1, tmp135, tmp136
 2254 005e F5EEC07A 		vcmpe.f32	s15, #0	@ _1
 2255 0062 F1EE10FA 		vmrs	APSR_nzcv, FPSCR
 2256 0066 06DD     		ble	.L143		@,
 2257              	@ ACE_ECF_25-ACE-ECF-CPP-V1.2/Algorithm/user_maths/cpp_files/user_maths.cpp:160:         cos_angle 
 2258              		.loc 1 160 52 is_stmt 0 discriminator 1
 2259 0068 9FED3C7A 		vldr.32	s14, .L145	@ tmp137,
 2260 006c D7ED007A 		vldr.32	s15, [r7]	@ tmp138, angle
 2261 0070 77EE677A 		vsub.f32	s15, s14, s15	@ iftmp.20_14, tmp137, tmp138
 2262 0074 07E0     		b	.L126		@
 2263              	.L143:
 2264              	@ ACE_ECF_25-ACE-ECF-CPP-V1.2/Algorithm/user_maths/cpp_files/user_maths.cpp:160:         cos_angle 
 2265              		.loc 1 160 52 discriminator 2
 2266 0076 9FED397A 		vldr.32	s14, .L145	@ tmp139,
 2267 007a D7ED007A 		vldr.32	s15, [r7]	@ tmp140, angle
 2268 007e 77EE677A 		vsub.f32	s15, s14, s15	@ _2, tmp139, tmp140
 2269 0082 F1EE677A 		vneg.f32	s15, s15	@ iftmp.20_14, _2
 2270              	.L126:
 2271              	@ ACE_ECF_25-ACE-ECF-CPP-V1.2/Algorithm/user_maths/cpp_files/user_maths.cpp:160:         cos_angle 
 2272              		.loc 1 160 76 is_stmt 1 discriminator 4
 2273 0086 B2EE047A 		vmov.f32	s14, #1.0e+1	@ tmp141,
 2274 008a 67EE877A 		vmul.f32	s15, s15, s14	@ _3, iftmp.20_14, tmp141
 2275              	@ ACE_ECF_25-ACE-ECF-CPP-V1.2/Algorithm/user_maths/cpp_files/user_maths.cpp:160:         cos_angle 
 2276              		.loc 1 160 46 discriminator 4
 2277 008e FDEEE77A 		vcvt.s32.f32	s15, s15	@ _4, _3
 2278 0092 17EE903A 		vmov	r3, s15	@ int	@ _4, _4
 2279              	@ ACE_ECF_25-ACE-ECF-CPP-V1.2/Algorithm/user_maths/cpp_files/user_maths.cpp:160:         cos_angle 
 2280              		.loc 1 160 84 discriminator 4
 2281 0096 324A     		ldr	r2, .L145+4	@ tmp142,
 2282 0098 9B00     		lsls	r3, r3, #2	@ tmp143, _4,
 2283 009a 1344     		add	r3, r3, r2	@ tmp144, tmp142
 2284 009c 93ED007A 		vldr.32	s14, [r3]	@ _5, Trigonometric_Functions[_4]
 2285              	@ ACE_ECF_25-ACE-ECF-CPP-V1.2/Algorithm/user_maths/cpp_files/user_maths.cpp:160:         cos_angle 
 2286              		.loc 1 160 19 discriminator 4
 2287 00a0 DFED306A 		vldr.32	s13, .L145+8	@ tmp146,
 2288 00a4 C7EE267A 		vdiv.f32	s15, s14, s13	@ tmp145, _5, tmp146
 2289 00a8 C7ED037A 		vstr.32	s15, [r7, #12]	@ tmp145, cos_angle
ARM GAS  C:\Users\30806\AppData\Local\Temp\ccYcD1nI.s 			page 44


 2290 00ac 4CE0     		b	.L127		@
 2291              	.L121:
 2292              	@ ACE_ECF_25-ACE-ECF-CPP-V1.2/Algorithm/user_maths/cpp_files/user_maths.cpp:161:     else if (angle
 161:ACE_ECF_25-ACE-ECF-CPP-V1.2/Algorithm/user_maths/cpp_files/user_maths.cpp ****     else if (angle >= 90.0f && angle < 180.f)
 2293              		.loc 1 161 10
 2294 00ae D7ED007A 		vldr.32	s15, [r7]	@ tmp147, angle
 2295 00b2 9FED2A7A 		vldr.32	s14, .L145	@ tmp148,
 2296 00b6 F4EEC77A 		vcmpe.f32	s15, s14	@ tmp147, tmp148
 2297 00ba F1EE10FA 		vmrs	APSR_nzcv, FPSCR
 2298 00be 38DB     		blt	.L128		@,
 2299              	@ ACE_ECF_25-ACE-ECF-CPP-V1.2/Algorithm/user_maths/cpp_files/user_maths.cpp:161:     else if (angle
 2300              		.loc 1 161 29 discriminator 1
 2301 00c0 D7ED007A 		vldr.32	s15, [r7]	@ tmp149, angle
 2302 00c4 9FED287A 		vldr.32	s14, .L145+12	@ tmp150,
 2303 00c8 F4EEC77A 		vcmpe.f32	s15, s14	@ tmp149, tmp150
 2304 00cc F1EE10FA 		vmrs	APSR_nzcv, FPSCR
 2305 00d0 2FD5     		bpl	.L128		@,
 2306              	@ ACE_ECF_25-ACE-ECF-CPP-V1.2/Algorithm/user_maths/cpp_files/user_maths.cpp:162:         cos_angle 
 162:ACE_ECF_25-ACE-ECF-CPP-V1.2/Algorithm/user_maths/cpp_files/user_maths.cpp ****         cos_angle = -(Trigonometric_Functions[(int)(user_abs(angle - 90.0f) * 10.0f)] / 100.0f);
 2307              		.loc 1 162 53
 2308 00d2 D7ED007A 		vldr.32	s15, [r7]	@ tmp151, angle
 2309 00d6 9FED217A 		vldr.32	s14, .L145	@ tmp152,
 2310 00da 77EEC77A 		vsub.f32	s15, s15, s14	@ _6, tmp151, tmp152
 2311 00de F5EEC07A 		vcmpe.f32	s15, #0	@ _6
 2312 00e2 F1EE10FA 		vmrs	APSR_nzcv, FPSCR
 2313 00e6 06DD     		ble	.L144		@,
 2314              	@ ACE_ECF_25-ACE-ECF-CPP-V1.2/Algorithm/user_maths/cpp_files/user_maths.cpp:162:         cos_angle 
 2315              		.loc 1 162 53 is_stmt 0 discriminator 1
 2316 00e8 D7ED007A 		vldr.32	s15, [r7]	@ tmp153, angle
 2317 00ec 9FED1B7A 		vldr.32	s14, .L145	@ tmp154,
 2318 00f0 77EEC77A 		vsub.f32	s15, s15, s14	@ iftmp.21_15, tmp153, tmp154
 2319 00f4 07E0     		b	.L133		@
 2320              	.L144:
 2321              	@ ACE_ECF_25-ACE-ECF-CPP-V1.2/Algorithm/user_maths/cpp_files/user_maths.cpp:162:         cos_angle 
 2322              		.loc 1 162 53 discriminator 2
 2323 00f6 D7ED007A 		vldr.32	s15, [r7]	@ tmp155, angle
 2324 00fa 9FED187A 		vldr.32	s14, .L145	@ tmp156,
 2325 00fe 77EEC77A 		vsub.f32	s15, s15, s14	@ _7, tmp155, tmp156
 2326 0102 F1EE677A 		vneg.f32	s15, s15	@ iftmp.21_15, _7
 2327              	.L133:
 2328              	@ ACE_ECF_25-ACE-ECF-CPP-V1.2/Algorithm/user_maths/cpp_files/user_maths.cpp:162:         cos_angle 
 2329              		.loc 1 162 77 is_stmt 1 discriminator 4
 2330 0106 B2EE047A 		vmov.f32	s14, #1.0e+1	@ tmp157,
 2331 010a 67EE877A 		vmul.f32	s15, s15, s14	@ _8, iftmp.21_15, tmp157
 2332              	@ ACE_ECF_25-ACE-ECF-CPP-V1.2/Algorithm/user_maths/cpp_files/user_maths.cpp:162:         cos_angle 
 2333              		.loc 1 162 47 discriminator 4
 2334 010e FDEEE77A 		vcvt.s32.f32	s15, s15	@ _9, _8
 2335 0112 17EE903A 		vmov	r3, s15	@ int	@ _9, _9
 2336              	@ ACE_ECF_25-ACE-ECF-CPP-V1.2/Algorithm/user_maths/cpp_files/user_maths.cpp:162:         cos_angle 
 2337              		.loc 1 162 85 discriminator 4
 2338 0116 124A     		ldr	r2, .L145+4	@ tmp158,
 2339 0118 9B00     		lsls	r3, r3, #2	@ tmp159, _9,
 2340 011a 1344     		add	r3, r3, r2	@ tmp160, tmp158
 2341 011c 93ED007A 		vldr.32	s14, [r3]	@ _10, Trigonometric_Functions[_9]
 2342              	@ ACE_ECF_25-ACE-ECF-CPP-V1.2/Algorithm/user_maths/cpp_files/user_maths.cpp:162:         cos_angle 
 2343              		.loc 1 162 87 discriminator 4
 2344 0120 DFED106A 		vldr.32	s13, .L145+8	@ tmp161,
ARM GAS  C:\Users\30806\AppData\Local\Temp\ccYcD1nI.s 			page 45


 2345 0124 C7EE267A 		vdiv.f32	s15, s14, s13	@ _11, _10, tmp161
 2346              	@ ACE_ECF_25-ACE-ECF-CPP-V1.2/Algorithm/user_maths/cpp_files/user_maths.cpp:162:         cos_angle 
 2347              		.loc 1 162 19 discriminator 4
 2348 0128 F1EE677A 		vneg.f32	s15, s15	@ tmp162, _11
 2349 012c C7ED037A 		vstr.32	s15, [r7, #12]	@ tmp162, cos_angle
 2350 0130 0AE0     		b	.L127		@
 2351              	.L128:
 2352              	@ ACE_ECF_25-ACE-ECF-CPP-V1.2/Algorithm/user_maths/cpp_files/user_maths.cpp:163:     else if (angle
 163:ACE_ECF_25-ACE-ECF-CPP-V1.2/Algorithm/user_maths/cpp_files/user_maths.cpp ****     else if (angle == 180.f)
 2353              		.loc 1 163 10
 2354 0132 D7ED007A 		vldr.32	s15, [r7]	@ tmp163, angle
 2355 0136 9FED0C7A 		vldr.32	s14, .L145+12	@ tmp164,
 2356 013a F4EE477A 		vcmp.f32	s15, s14	@ tmp163, tmp164
 2357 013e F1EE10FA 		vmrs	APSR_nzcv, FPSCR
 2358 0142 01D1     		bne	.L127		@,
 2359              	@ ACE_ECF_25-ACE-ECF-CPP-V1.2/Algorithm/user_maths/cpp_files/user_maths.cpp:164:         cos_angle 
 164:ACE_ECF_25-ACE-ECF-CPP-V1.2/Algorithm/user_maths/cpp_files/user_maths.cpp ****         cos_angle = -1.0f;
 2360              		.loc 1 164 19
 2361 0144 094B     		ldr	r3, .L145+16	@ tmp165,
 2362 0146 FB60     		str	r3, [r7, #12]	@ float	@ tmp165, cos_angle
 2363              	.L127:
 2364              	@ ACE_ECF_25-ACE-ECF-CPP-V1.2/Algorithm/user_maths/cpp_files/user_maths.cpp:166:     return cos_ang
 165:ACE_ECF_25-ACE-ECF-CPP-V1.2/Algorithm/user_maths/cpp_files/user_maths.cpp **** 
 166:ACE_ECF_25-ACE-ECF-CPP-V1.2/Algorithm/user_maths/cpp_files/user_maths.cpp ****     return cos_angle;
 2365              		.loc 1 166 12
 2366 0148 FB68     		ldr	r3, [r7, #12]	@ float	@ _29, cos_angle
 2367 014a 07EE903A 		vmov	s15, r3	@ <retval>, _29
 2368              	@ ACE_ECF_25-ACE-ECF-CPP-V1.2/Algorithm/user_maths/cpp_files/user_maths.cpp:167: }
 167:ACE_ECF_25-ACE-ECF-CPP-V1.2/Algorithm/user_maths/cpp_files/user_maths.cpp **** }
 2369              		.loc 1 167 1
 2370 014e B0EE670A 		vmov.f32	s0, s15	@, <retval>
 2371 0152 1437     		adds	r7, r7, #20	@,,
 2372              	.LCFI57:
 2373              		.cfi_def_cfa_offset 4
 2374 0154 BD46     		mov	sp, r7	@,
 2375              	.LCFI58:
 2376              		.cfi_def_cfa_register 13
 2377              		@ sp needed	@
 2378 0156 5DF8047B 		ldr	r7, [sp], #4	@,
 2379              	.LCFI59:
 2380              		.cfi_restore 7
 2381              		.cfi_def_cfa_offset 0
 2382 015a 7047     		bx	lr	@
 2383              	.L146:
 2384              		.align	2
 2385              	.L145:
 2386 015c 0000B442 		.word	1119092736
 2387 0160 00000000 		.word	_ZL23Trigonometric_Functions
 2388 0164 0000C842 		.word	1120403456
 2389 0168 00003443 		.word	1127481344
 2390 016c 000080BF 		.word	-1082130432
 2391              		.cfi_endproc
 2392              	.LFE383:
 2393              		.size	_ZN12user_maths_c13cos_calculateEf, .-_ZN12user_maths_c13cos_calculateEf
 2394              		.section	.text._ZN12user_maths_c18float_min_distanceEffff,"ax",%progbits
 2395              		.align	1
 2396              		.global	_ZN12user_maths_c18float_min_distanceEffff
ARM GAS  C:\Users\30806\AppData\Local\Temp\ccYcD1nI.s 			page 46


 2397              		.syntax unified
 2398              		.thumb
 2399              		.thumb_func
 2400              		.type	_ZN12user_maths_c18float_min_distanceEffff, %function
 2401              	_ZN12user_maths_c18float_min_distanceEffff:
 2402              	.LFB384:
 168:ACE_ECF_25-ACE-ECF-CPP-V1.2/Algorithm/user_maths/cpp_files/user_maths.cpp **** 
 169:ACE_ECF_25-ACE-ECF-CPP-V1.2/Algorithm/user_maths/cpp_files/user_maths.cpp **** float user_maths_c::float_min_distance(float target, float actual, float minValue, float maxValue)
 170:ACE_ECF_25-ACE-ECF-CPP-V1.2/Algorithm/user_maths/cpp_files/user_maths.cpp **** {
 2403              		.loc 1 170 1
 2404              		.cfi_startproc
 2405              		@ args = 0, pretend = 0, frame = 24
 2406              		@ frame_needed = 1, uses_anonymous_args = 0
 2407 0000 80B5     		push	{r7, lr}	@
 2408              	.LCFI60:
 2409              		.cfi_def_cfa_offset 8
 2410              		.cfi_offset 7, -8
 2411              		.cfi_offset 14, -4
 2412 0002 86B0     		sub	sp, sp, #24	@,,
 2413              	.LCFI61:
 2414              		.cfi_def_cfa_offset 32
 2415 0004 00AF     		add	r7, sp, #0	@,,
 2416              	.LCFI62:
 2417              		.cfi_def_cfa_register 7
 2418 0006 7861     		str	r0, [r7, #20]	@ this, this
 2419 0008 87ED040A 		vstr.32	s0, [r7, #16]	@ target, target
 2420 000c C7ED030A 		vstr.32	s1, [r7, #12]	@ actual, actual
 2421 0010 87ED021A 		vstr.32	s2, [r7, #8]	@ minValue, minValue
 2422 0014 C7ED011A 		vstr.32	s3, [r7, #4]	@ maxValue, maxValue
 2423              	@ ACE_ECF_25-ACE-ECF-CPP-V1.2/Algorithm/user_maths/cpp_files/user_maths.cpp:171: 	if (maxValue < mi
 171:ACE_ECF_25-ACE-ECF-CPP-V1.2/Algorithm/user_maths/cpp_files/user_maths.cpp **** 	if (maxValue < minValue)
 2424              		.loc 1 171 2
 2425 0018 97ED017A 		vldr.32	s14, [r7, #4]	@ tmp127, maxValue
 2426 001c D7ED027A 		vldr.32	s15, [r7, #8]	@ tmp128, minValue
 2427 0020 B4EEE77A 		vcmpe.f32	s14, s15	@ tmp127, tmp128
 2428 0024 F1EE10FA 		vmrs	APSR_nzcv, FPSCR
 2429 0028 02D5     		bpl	.L162		@,
 2430              	@ ACE_ECF_25-ACE-ECF-CPP-V1.2/Algorithm/user_maths/cpp_files/user_maths.cpp:173:         return 0;
 172:ACE_ECF_25-ACE-ECF-CPP-V1.2/Algorithm/user_maths/cpp_files/user_maths.cpp ****     {
 173:ACE_ECF_25-ACE-ECF-CPP-V1.2/Algorithm/user_maths/cpp_files/user_maths.cpp ****         return 0;
 2431              		.loc 1 173 16
 2432 002a DFED3A7A 		vldr.32	s15, .L166	@ _12,
 2433 002e 6CE0     		b	.L150		@
 2434              	.L162:
 2435              	@ ACE_ECF_25-ACE-ECF-CPP-V1.2/Algorithm/user_maths/cpp_files/user_maths.cpp:176: 	target = this->lo
 174:ACE_ECF_25-ACE-ECF-CPP-V1.2/Algorithm/user_maths/cpp_files/user_maths.cpp ****     }
 175:ACE_ECF_25-ACE-ECF-CPP-V1.2/Algorithm/user_maths/cpp_files/user_maths.cpp **** 	
 176:ACE_ECF_25-ACE-ECF-CPP-V1.2/Algorithm/user_maths/cpp_files/user_maths.cpp **** 	target = this->loop_fp32_constrain(target, minValue,maxValue);
 2436              		.loc 1 176 36
 2437 0030 97ED011A 		vldr.32	s2, [r7, #4]	@, maxValue
 2438 0034 D7ED020A 		vldr.32	s1, [r7, #8]	@, minValue
 2439 0038 97ED040A 		vldr.32	s0, [r7, #16]	@, target
 2440 003c 7869     		ldr	r0, [r7, #20]	@, this
 2441 003e FFF7FEFF 		bl	_ZN12user_maths_c19loop_fp32_constrainEfff		@
 2442 0042 87ED040A 		vstr.32	s0, [r7, #16]	@, target
 2443              	@ ACE_ECF_25-ACE-ECF-CPP-V1.2/Algorithm/user_maths/cpp_files/user_maths.cpp:178: 	if (user_abs(targ
 177:ACE_ECF_25-ACE-ECF-CPP-V1.2/Algorithm/user_maths/cpp_files/user_maths.cpp **** 	
ARM GAS  C:\Users\30806\AppData\Local\Temp\ccYcD1nI.s 			page 47


 178:ACE_ECF_25-ACE-ECF-CPP-V1.2/Algorithm/user_maths/cpp_files/user_maths.cpp **** 	if (user_abs(target - actual) > (maxValue - minValue) / 2.0f)
 2444              		.loc 1 178 6
 2445 0046 97ED047A 		vldr.32	s14, [r7, #16]	@ tmp129, target
 2446 004a D7ED037A 		vldr.32	s15, [r7, #12]	@ tmp130, actual
 2447 004e 77EE677A 		vsub.f32	s15, s14, s15	@ _1, tmp129, tmp130
 2448 0052 F5EEC07A 		vcmpe.f32	s15, #0	@ _1
 2449 0056 F1EE10FA 		vmrs	APSR_nzcv, FPSCR
 2450 005a 06DD     		ble	.L163		@,
 2451              	@ ACE_ECF_25-ACE-ECF-CPP-V1.2/Algorithm/user_maths/cpp_files/user_maths.cpp:178: 	if (user_abs(targ
 2452              		.loc 1 178 6 is_stmt 0 discriminator 1
 2453 005c 97ED047A 		vldr.32	s14, [r7, #16]	@ tmp131, target
 2454 0060 D7ED037A 		vldr.32	s15, [r7, #12]	@ tmp132, actual
 2455 0064 77EE677A 		vsub.f32	s15, s14, s15	@ iftmp.22_13, tmp131, tmp132
 2456 0068 07E0     		b	.L153		@
 2457              	.L163:
 2458              	@ ACE_ECF_25-ACE-ECF-CPP-V1.2/Algorithm/user_maths/cpp_files/user_maths.cpp:178: 	if (user_abs(targ
 2459              		.loc 1 178 6 discriminator 2
 2460 006a 97ED047A 		vldr.32	s14, [r7, #16]	@ tmp133, target
 2461 006e D7ED037A 		vldr.32	s15, [r7, #12]	@ tmp134, actual
 2462 0072 77EE677A 		vsub.f32	s15, s14, s15	@ _2, tmp133, tmp134
 2463 0076 F1EE677A 		vneg.f32	s15, s15	@ iftmp.22_13, _2
 2464              	.L153:
 2465              	@ ACE_ECF_25-ACE-ECF-CPP-V1.2/Algorithm/user_maths/cpp_files/user_maths.cpp:178: 	if (user_abs(targ
 2466              		.loc 1 178 44 is_stmt 1 discriminator 4
 2467 007a D7ED016A 		vldr.32	s13, [r7, #4]	@ tmp135, maxValue
 2468 007e 97ED027A 		vldr.32	s14, [r7, #8]	@ tmp136, minValue
 2469 0082 76EEC76A 		vsub.f32	s13, s13, s14	@ _3, tmp135, tmp136
 2470              	@ ACE_ECF_25-ACE-ECF-CPP-V1.2/Algorithm/user_maths/cpp_files/user_maths.cpp:178: 	if (user_abs(targ
 2471              		.loc 1 178 56 discriminator 4
 2472 0086 B0EE006A 		vmov.f32	s12, #2.0e+0	@ tmp137,
 2473 008a 86EE867A 		vdiv.f32	s14, s13, s12	@ _4, _3, tmp137
 2474              	@ ACE_ECF_25-ACE-ECF-CPP-V1.2/Algorithm/user_maths/cpp_files/user_maths.cpp:178: 	if (user_abs(targ
 2475              		.loc 1 178 2 discriminator 4
 2476 008e F4EEC77A 		vcmpe.f32	s15, s14	@ iftmp.22_13, _4
 2477 0092 F1EE10FA 		vmrs	APSR_nzcv, FPSCR
 2478 0096 32DD     		ble	.L164		@,
 2479              	@ ACE_ECF_25-ACE-ECF-CPP-V1.2/Algorithm/user_maths/cpp_files/user_maths.cpp:180: 		if(maxValue - ac
 179:ACE_ECF_25-ACE-ECF-CPP-V1.2/Algorithm/user_maths/cpp_files/user_maths.cpp **** 	{
 180:ACE_ECF_25-ACE-ECF-CPP-V1.2/Algorithm/user_maths/cpp_files/user_maths.cpp **** 		if(maxValue - actual < (maxValue - minValue) / 2.0f)
 2480              		.loc 1 180 15
 2481 0098 97ED017A 		vldr.32	s14, [r7, #4]	@ tmp138, maxValue
 2482 009c D7ED037A 		vldr.32	s15, [r7, #12]	@ tmp139, actual
 2483 00a0 37EE677A 		vsub.f32	s14, s14, s15	@ _5, tmp138, tmp139
 2484              	@ ACE_ECF_25-ACE-ECF-CPP-V1.2/Algorithm/user_maths/cpp_files/user_maths.cpp:180: 		if(maxValue - ac
 2485              		.loc 1 180 36
 2486 00a4 D7ED016A 		vldr.32	s13, [r7, #4]	@ tmp140, maxValue
 2487 00a8 D7ED027A 		vldr.32	s15, [r7, #8]	@ tmp141, minValue
 2488 00ac 76EEE76A 		vsub.f32	s13, s13, s15	@ _6, tmp140, tmp141
 2489              	@ ACE_ECF_25-ACE-ECF-CPP-V1.2/Algorithm/user_maths/cpp_files/user_maths.cpp:180: 		if(maxValue - ac
 2490              		.loc 1 180 48
 2491 00b0 B0EE006A 		vmov.f32	s12, #2.0e+0	@ tmp142,
 2492 00b4 C6EE867A 		vdiv.f32	s15, s13, s12	@ _7, _6, tmp142
 2493              	@ ACE_ECF_25-ACE-ECF-CPP-V1.2/Algorithm/user_maths/cpp_files/user_maths.cpp:180: 		if(maxValue - ac
 2494              		.loc 1 180 3
 2495 00b8 B4EEE77A 		vcmpe.f32	s14, s15	@ _5, _7
 2496 00bc F1EE10FA 		vmrs	APSR_nzcv, FPSCR
 2497 00c0 0ED5     		bpl	.L165		@,
ARM GAS  C:\Users\30806\AppData\Local\Temp\ccYcD1nI.s 			page 48


 2498              	@ ACE_ECF_25-ACE-ECF-CPP-V1.2/Algorithm/user_maths/cpp_files/user_maths.cpp:182: 			return maxValue
 181:ACE_ECF_25-ACE-ECF-CPP-V1.2/Algorithm/user_maths/cpp_files/user_maths.cpp **** 		{
 182:ACE_ECF_25-ACE-ECF-CPP-V1.2/Algorithm/user_maths/cpp_files/user_maths.cpp **** 			return maxValue - actual + target - minValue;
 2499              		.loc 1 182 20
 2500 00c2 97ED017A 		vldr.32	s14, [r7, #4]	@ tmp143, maxValue
 2501 00c6 D7ED037A 		vldr.32	s15, [r7, #12]	@ tmp144, actual
 2502 00ca 37EE677A 		vsub.f32	s14, s14, s15	@ _8, tmp143, tmp144
 2503              	@ ACE_ECF_25-ACE-ECF-CPP-V1.2/Algorithm/user_maths/cpp_files/user_maths.cpp:182: 			return maxValue
 2504              		.loc 1 182 29
 2505 00ce D7ED047A 		vldr.32	s15, [r7, #16]	@ tmp145, target
 2506 00d2 37EE277A 		vadd.f32	s14, s14, s15	@ _9, _8, tmp145
 2507              	@ ACE_ECF_25-ACE-ECF-CPP-V1.2/Algorithm/user_maths/cpp_files/user_maths.cpp:182: 			return maxValue
 2508              		.loc 1 182 40
 2509 00d6 D7ED027A 		vldr.32	s15, [r7, #8]	@ tmp146, minValue
 2510 00da 77EE677A 		vsub.f32	s15, s14, s15	@ _12, _9, tmp146
 2511 00de 14E0     		b	.L150		@
 2512              	.L165:
 2513              	@ ACE_ECF_25-ACE-ECF-CPP-V1.2/Algorithm/user_maths/cpp_files/user_maths.cpp:186: 			return minValue
 183:ACE_ECF_25-ACE-ECF-CPP-V1.2/Algorithm/user_maths/cpp_files/user_maths.cpp **** 		}
 184:ACE_ECF_25-ACE-ECF-CPP-V1.2/Algorithm/user_maths/cpp_files/user_maths.cpp **** 		else
 185:ACE_ECF_25-ACE-ECF-CPP-V1.2/Algorithm/user_maths/cpp_files/user_maths.cpp **** 		{
 186:ACE_ECF_25-ACE-ECF-CPP-V1.2/Algorithm/user_maths/cpp_files/user_maths.cpp **** 			return minValue - actual + target - maxValue;
 2514              		.loc 1 186 20
 2515 00e0 97ED027A 		vldr.32	s14, [r7, #8]	@ tmp147, minValue
 2516 00e4 D7ED037A 		vldr.32	s15, [r7, #12]	@ tmp148, actual
 2517 00e8 37EE677A 		vsub.f32	s14, s14, s15	@ _10, tmp147, tmp148
 2518              	@ ACE_ECF_25-ACE-ECF-CPP-V1.2/Algorithm/user_maths/cpp_files/user_maths.cpp:186: 			return minValue
 2519              		.loc 1 186 29
 2520 00ec D7ED047A 		vldr.32	s15, [r7, #16]	@ tmp149, target
 2521 00f0 37EE277A 		vadd.f32	s14, s14, s15	@ _11, _10, tmp149
 2522              	@ ACE_ECF_25-ACE-ECF-CPP-V1.2/Algorithm/user_maths/cpp_files/user_maths.cpp:186: 			return minValue
 2523              		.loc 1 186 40
 2524 00f4 D7ED017A 		vldr.32	s15, [r7, #4]	@ tmp150, maxValue
 2525 00f8 77EE677A 		vsub.f32	s15, s14, s15	@ _12, _11, tmp150
 2526 00fc 05E0     		b	.L150		@
 2527              	.L164:
 2528              	@ ACE_ECF_25-ACE-ECF-CPP-V1.2/Algorithm/user_maths/cpp_files/user_maths.cpp:191: 		return target - 
 187:ACE_ECF_25-ACE-ECF-CPP-V1.2/Algorithm/user_maths/cpp_files/user_maths.cpp **** 		}
 188:ACE_ECF_25-ACE-ECF-CPP-V1.2/Algorithm/user_maths/cpp_files/user_maths.cpp **** 	}
 189:ACE_ECF_25-ACE-ECF-CPP-V1.2/Algorithm/user_maths/cpp_files/user_maths.cpp **** 	else 
 190:ACE_ECF_25-ACE-ECF-CPP-V1.2/Algorithm/user_maths/cpp_files/user_maths.cpp **** 	{
 191:ACE_ECF_25-ACE-ECF-CPP-V1.2/Algorithm/user_maths/cpp_files/user_maths.cpp **** 		return target - actual;
 2529              		.loc 1 191 19
 2530 00fe 97ED047A 		vldr.32	s14, [r7, #16]	@ tmp151, target
 2531 0102 D7ED037A 		vldr.32	s15, [r7, #12]	@ tmp152, actual
 2532 0106 77EE677A 		vsub.f32	s15, s14, s15	@ _12, tmp151, tmp152
 2533              	.L150:
 2534              	@ ACE_ECF_25-ACE-ECF-CPP-V1.2/Algorithm/user_maths/cpp_files/user_maths.cpp:194: }
 192:ACE_ECF_25-ACE-ECF-CPP-V1.2/Algorithm/user_maths/cpp_files/user_maths.cpp **** 	}
 193:ACE_ECF_25-ACE-ECF-CPP-V1.2/Algorithm/user_maths/cpp_files/user_maths.cpp **** 	
 194:ACE_ECF_25-ACE-ECF-CPP-V1.2/Algorithm/user_maths/cpp_files/user_maths.cpp **** }
 2535              		.loc 1 194 1
 2536 010a B0EE670A 		vmov.f32	s0, s15	@, <retval>
 2537 010e 1837     		adds	r7, r7, #24	@,,
 2538              	.LCFI63:
 2539              		.cfi_def_cfa_offset 8
 2540 0110 BD46     		mov	sp, r7	@,
ARM GAS  C:\Users\30806\AppData\Local\Temp\ccYcD1nI.s 			page 49


 2541              	.LCFI64:
 2542              		.cfi_def_cfa_register 13
 2543              		@ sp needed	@
 2544 0112 80BD     		pop	{r7, pc}	@
 2545              	.L167:
 2546              		.align	2
 2547              	.L166:
 2548 0114 00000000 		.word	0
 2549              		.cfi_endproc
 2550              	.LFE384:
 2551              		.size	_ZN12user_maths_c18float_min_distanceEffff, .-_ZN12user_maths_c18float_min_distanceEffff
 2552              		.section	.text._ZN12user_maths_c19CircleIncreaseLimitEfff,"ax",%progbits
 2553              		.align	1
 2554              		.global	_ZN12user_maths_c19CircleIncreaseLimitEfff
 2555              		.syntax unified
 2556              		.thumb
 2557              		.thumb_func
 2558              		.type	_ZN12user_maths_c19CircleIncreaseLimitEfff, %function
 2559              	_ZN12user_maths_c19CircleIncreaseLimitEfff:
 2560              	.LFB385:
 195:ACE_ECF_25-ACE-ECF-CPP-V1.2/Algorithm/user_maths/cpp_files/user_maths.cpp **** /***
 196:ACE_ECF_25-ACE-ECF-CPP-V1.2/Algorithm/user_maths/cpp_files/user_maths.cpp ****  * @brief 周期递增限制
 197:ACE_ECF_25-ACE-ECF-CPP-V1.2/Algorithm/user_maths/cpp_files/user_maths.cpp ****  * @param current_val 当前实际值
 198:ACE_ECF_25-ACE-ECF-CPP-V1.2/Algorithm/user_maths/cpp_files/user_maths.cpp ****  * @param set_val 设定值
 199:ACE_ECF_25-ACE-ECF-CPP-V1.2/Algorithm/user_maths/cpp_files/user_maths.cpp ****  * @param limit 每次调用该函数最大递增的值, 为正数
 200:ACE_ECF_25-ACE-ECF-CPP-V1.2/Algorithm/user_maths/cpp_files/user_maths.cpp ****  * @return 返回一个处理好的值
 201:ACE_ECF_25-ACE-ECF-CPP-V1.2/Algorithm/user_maths/cpp_files/user_maths.cpp **** */
 202:ACE_ECF_25-ACE-ECF-CPP-V1.2/Algorithm/user_maths/cpp_files/user_maths.cpp **** float user_maths_c::CircleIncreaseLimit(float current_val, float set_val, float limit)
 203:ACE_ECF_25-ACE-ECF-CPP-V1.2/Algorithm/user_maths/cpp_files/user_maths.cpp **** {   
 2561              		.loc 1 203 1
 2562              		.cfi_startproc
 2563              		@ args = 0, pretend = 0, frame = 16
 2564              		@ frame_needed = 1, uses_anonymous_args = 0
 2565              		@ link register save eliminated.
 2566 0000 80B4     		push	{r7}	@
 2567              	.LCFI65:
 2568              		.cfi_def_cfa_offset 4
 2569              		.cfi_offset 7, -4
 2570 0002 85B0     		sub	sp, sp, #20	@,,
 2571              	.LCFI66:
 2572              		.cfi_def_cfa_offset 24
 2573 0004 00AF     		add	r7, sp, #0	@,,
 2574              	.LCFI67:
 2575              		.cfi_def_cfa_register 7
 2576 0006 F860     		str	r0, [r7, #12]	@ this, this
 2577 0008 87ED020A 		vstr.32	s0, [r7, #8]	@ current_val, current_val
 2578 000c C7ED010A 		vstr.32	s1, [r7, #4]	@ set_val, set_val
 2579 0010 87ED001A 		vstr.32	s2, [r7]	@ limit, limit
 2580              	@ ACE_ECF_25-ACE-ECF-CPP-V1.2/Algorithm/user_maths/cpp_files/user_maths.cpp:204:     limit = user_a
 204:ACE_ECF_25-ACE-ECF-CPP-V1.2/Algorithm/user_maths/cpp_files/user_maths.cpp ****     limit = user_abs(limit);
 2581              		.loc 1 204 13
 2582 0014 D7ED007A 		vldr.32	s15, [r7]	@ tmp119, limit
 2583 0018 F5EEC07A 		vcmpe.f32	s15, #0	@ tmp119
 2584 001c F1EE10FA 		vmrs	APSR_nzcv, FPSCR
 2585 0020 02DD     		ble	.L180		@,
 2586              	@ ACE_ECF_25-ACE-ECF-CPP-V1.2/Algorithm/user_maths/cpp_files/user_maths.cpp:204:     limit = user_a
 2587              		.loc 1 204 13 is_stmt 0 discriminator 1
ARM GAS  C:\Users\30806\AppData\Local\Temp\ccYcD1nI.s 			page 50


 2588 0022 D7ED007A 		vldr.32	s15, [r7]	@ iftmp.23_4, limit
 2589 0026 03E0     		b	.L171		@
 2590              	.L180:
 2591              	@ ACE_ECF_25-ACE-ECF-CPP-V1.2/Algorithm/user_maths/cpp_files/user_maths.cpp:204:     limit = user_a
 2592              		.loc 1 204 13 discriminator 2
 2593 0028 D7ED007A 		vldr.32	s15, [r7]	@ tmp120, limit
 2594 002c F1EE677A 		vneg.f32	s15, s15	@ iftmp.23_4, tmp120
 2595              	.L171:
 2596              	@ ACE_ECF_25-ACE-ECF-CPP-V1.2/Algorithm/user_maths/cpp_files/user_maths.cpp:204:     limit = user_a
 2597              		.loc 1 204 11 is_stmt 1 discriminator 4
 2598 0030 C7ED007A 		vstr.32	s15, [r7]	@ iftmp.23_4, limit
 2599              	@ ACE_ECF_25-ACE-ECF-CPP-V1.2/Algorithm/user_maths/cpp_files/user_maths.cpp:205:     if(set_val - c
 205:ACE_ECF_25-ACE-ECF-CPP-V1.2/Algorithm/user_maths/cpp_files/user_maths.cpp ****     if(set_val - current_val > limit)
 2600              		.loc 1 205 16 discriminator 4
 2601 0034 97ED017A 		vldr.32	s14, [r7, #4]	@ tmp121, set_val
 2602 0038 D7ED027A 		vldr.32	s15, [r7, #8]	@ tmp122, current_val
 2603 003c 77EE677A 		vsub.f32	s15, s14, s15	@ _1, tmp121, tmp122
 2604              	@ ACE_ECF_25-ACE-ECF-CPP-V1.2/Algorithm/user_maths/cpp_files/user_maths.cpp:205:     if(set_val - c
 2605              		.loc 1 205 5 discriminator 4
 2606 0040 97ED007A 		vldr.32	s14, [r7]	@ tmp123, limit
 2607 0044 B4EEE77A 		vcmpe.f32	s14, s15	@ tmp123, _1
 2608 0048 F1EE10FA 		vmrs	APSR_nzcv, FPSCR
 2609 004c 06D5     		bpl	.L181		@,
 2610              	@ ACE_ECF_25-ACE-ECF-CPP-V1.2/Algorithm/user_maths/cpp_files/user_maths.cpp:207:         return cur
 206:ACE_ECF_25-ACE-ECF-CPP-V1.2/Algorithm/user_maths/cpp_files/user_maths.cpp ****     {
 207:ACE_ECF_25-ACE-ECF-CPP-V1.2/Algorithm/user_maths/cpp_files/user_maths.cpp ****         return current_val + limit;
 2611              		.loc 1 207 30
 2612 004e 97ED027A 		vldr.32	s14, [r7, #8]	@ tmp124, current_val
 2613 0052 D7ED007A 		vldr.32	s15, [r7]	@ tmp125, limit
 2614 0056 77EE277A 		vadd.f32	s15, s14, s15	@ _5, tmp124, tmp125
 2615 005a 17E0     		b	.L174		@
 2616              	.L181:
 2617              	@ ACE_ECF_25-ACE-ECF-CPP-V1.2/Algorithm/user_maths/cpp_files/user_maths.cpp:209:     else if(set_va
 208:ACE_ECF_25-ACE-ECF-CPP-V1.2/Algorithm/user_maths/cpp_files/user_maths.cpp ****     }
 209:ACE_ECF_25-ACE-ECF-CPP-V1.2/Algorithm/user_maths/cpp_files/user_maths.cpp ****     else if(set_val - current_val < -limit)
 2618              		.loc 1 209 21
 2619 005c 97ED017A 		vldr.32	s14, [r7, #4]	@ tmp126, set_val
 2620 0060 D7ED027A 		vldr.32	s15, [r7, #8]	@ tmp127, current_val
 2621 0064 37EE677A 		vsub.f32	s14, s14, s15	@ _2, tmp126, tmp127
 2622              	@ ACE_ECF_25-ACE-ECF-CPP-V1.2/Algorithm/user_maths/cpp_files/user_maths.cpp:209:     else if(set_va
 2623              		.loc 1 209 37
 2624 0068 D7ED007A 		vldr.32	s15, [r7]	@ tmp128, limit
 2625 006c F1EE677A 		vneg.f32	s15, s15	@ _3, tmp128
 2626              	@ ACE_ECF_25-ACE-ECF-CPP-V1.2/Algorithm/user_maths/cpp_files/user_maths.cpp:209:     else if(set_va
 2627              		.loc 1 209 10
 2628 0070 B4EEE77A 		vcmpe.f32	s14, s15	@ _2, _3
 2629 0074 F1EE10FA 		vmrs	APSR_nzcv, FPSCR
 2630 0078 06D5     		bpl	.L182		@,
 2631              	@ ACE_ECF_25-ACE-ECF-CPP-V1.2/Algorithm/user_maths/cpp_files/user_maths.cpp:211:         return cur
 210:ACE_ECF_25-ACE-ECF-CPP-V1.2/Algorithm/user_maths/cpp_files/user_maths.cpp ****     {
 211:ACE_ECF_25-ACE-ECF-CPP-V1.2/Algorithm/user_maths/cpp_files/user_maths.cpp ****         return current_val - limit;
 2632              		.loc 1 211 30
 2633 007a 97ED027A 		vldr.32	s14, [r7, #8]	@ tmp129, current_val
 2634 007e D7ED007A 		vldr.32	s15, [r7]	@ tmp130, limit
 2635 0082 77EE677A 		vsub.f32	s15, s14, s15	@ _5, tmp129, tmp130
 2636 0086 01E0     		b	.L174		@
 2637              	.L182:
ARM GAS  C:\Users\30806\AppData\Local\Temp\ccYcD1nI.s 			page 51


 2638              	@ ACE_ECF_25-ACE-ECF-CPP-V1.2/Algorithm/user_maths/cpp_files/user_maths.cpp:215:         return set
 212:ACE_ECF_25-ACE-ECF-CPP-V1.2/Algorithm/user_maths/cpp_files/user_maths.cpp ****     }
 213:ACE_ECF_25-ACE-ECF-CPP-V1.2/Algorithm/user_maths/cpp_files/user_maths.cpp ****     else
 214:ACE_ECF_25-ACE-ECF-CPP-V1.2/Algorithm/user_maths/cpp_files/user_maths.cpp ****     {
 215:ACE_ECF_25-ACE-ECF-CPP-V1.2/Algorithm/user_maths/cpp_files/user_maths.cpp ****         return set_val;
 2639              		.loc 1 215 16
 2640 0088 D7ED017A 		vldr.32	s15, [r7, #4]	@ _5, set_val
 2641              	.L174:
 2642              	@ ACE_ECF_25-ACE-ECF-CPP-V1.2/Algorithm/user_maths/cpp_files/user_maths.cpp:217: }
 216:ACE_ECF_25-ACE-ECF-CPP-V1.2/Algorithm/user_maths/cpp_files/user_maths.cpp ****     }
 217:ACE_ECF_25-ACE-ECF-CPP-V1.2/Algorithm/user_maths/cpp_files/user_maths.cpp **** }
 2643              		.loc 1 217 1
 2644 008c B0EE670A 		vmov.f32	s0, s15	@, <retval>
 2645 0090 1437     		adds	r7, r7, #20	@,,
 2646              	.LCFI68:
 2647              		.cfi_def_cfa_offset 4
 2648 0092 BD46     		mov	sp, r7	@,
 2649              	.LCFI69:
 2650              		.cfi_def_cfa_register 13
 2651              		@ sp needed	@
 2652 0094 5DF8047B 		ldr	r7, [sp], #4	@,
 2653              	.LCFI70:
 2654              		.cfi_restore 7
 2655              		.cfi_def_cfa_offset 0
 2656 0098 7047     		bx	lr	@
 2657              		.cfi_endproc
 2658              	.LFE385:
 2659              		.size	_ZN12user_maths_c19CircleIncreaseLimitEfff, .-_ZN12user_maths_c19CircleIncreaseLimitEfff
 2660              		.section	.text._ZN12user_maths_c14user_val_limitEfff,"ax",%progbits
 2661              		.align	1
 2662              		.global	_ZN12user_maths_c14user_val_limitEfff
 2663              		.syntax unified
 2664              		.thumb
 2665              		.thumb_func
 2666              		.type	_ZN12user_maths_c14user_val_limitEfff, %function
 2667              	_ZN12user_maths_c14user_val_limitEfff:
 2668              	.LFB386:
 218:ACE_ECF_25-ACE-ECF-CPP-V1.2/Algorithm/user_maths/cpp_files/user_maths.cpp **** 
 219:ACE_ECF_25-ACE-ECF-CPP-V1.2/Algorithm/user_maths/cpp_files/user_maths.cpp **** float user_maths_c::user_val_limit(float val, float min, float max)
 220:ACE_ECF_25-ACE-ECF-CPP-V1.2/Algorithm/user_maths/cpp_files/user_maths.cpp **** {
 2669              		.loc 1 220 1
 2670              		.cfi_startproc
 2671              		@ args = 0, pretend = 0, frame = 16
 2672              		@ frame_needed = 1, uses_anonymous_args = 0
 2673              		@ link register save eliminated.
 2674 0000 80B4     		push	{r7}	@
 2675              	.LCFI71:
 2676              		.cfi_def_cfa_offset 4
 2677              		.cfi_offset 7, -4
 2678 0002 85B0     		sub	sp, sp, #20	@,,
 2679              	.LCFI72:
 2680              		.cfi_def_cfa_offset 24
 2681 0004 00AF     		add	r7, sp, #0	@,,
 2682              	.LCFI73:
 2683              		.cfi_def_cfa_register 7
 2684 0006 F860     		str	r0, [r7, #12]	@ this, this
 2685 0008 87ED020A 		vstr.32	s0, [r7, #8]	@ val, val
ARM GAS  C:\Users\30806\AppData\Local\Temp\ccYcD1nI.s 			page 52


 2686 000c C7ED010A 		vstr.32	s1, [r7, #4]	@ min, min
 2687 0010 87ED001A 		vstr.32	s2, [r7]	@ max, max
 2688              	@ ACE_ECF_25-ACE-ECF-CPP-V1.2/Algorithm/user_maths/cpp_files/user_maths.cpp:221:     (val) = (val) 
 221:ACE_ECF_25-ACE-ECF-CPP-V1.2/Algorithm/user_maths/cpp_files/user_maths.cpp ****     (val) = (val) < (min) ? (min) : (val);
 2689              		.loc 1 221 27
 2690 0014 97ED027A 		vldr.32	s14, [r7, #8]	@ tmp117, val
 2691 0018 D7ED017A 		vldr.32	s15, [r7, #4]	@ tmp118, min
 2692 001c B4EEE77A 		vcmpe.f32	s14, s15	@ tmp117, tmp118
 2693 0020 F1EE10FA 		vmrs	APSR_nzcv, FPSCR
 2694 0024 01D5     		bpl	.L193		@,
 2695              	@ ACE_ECF_25-ACE-ECF-CPP-V1.2/Algorithm/user_maths/cpp_files/user_maths.cpp:221:     (val) = (val) 
 2696              		.loc 1 221 27 is_stmt 0 discriminator 1
 2697 0026 7B68     		ldr	r3, [r7, #4]	@ float	@ iftmp.24_1, min
 2698 0028 00E0     		b	.L186		@
 2699              	.L193:
 2700              	@ ACE_ECF_25-ACE-ECF-CPP-V1.2/Algorithm/user_maths/cpp_files/user_maths.cpp:221:     (val) = (val) 
 2701              		.loc 1 221 27 discriminator 2
 2702 002a BB68     		ldr	r3, [r7, #8]	@ float	@ iftmp.24_1, val
 2703              	.L186:
 2704              	@ ACE_ECF_25-ACE-ECF-CPP-V1.2/Algorithm/user_maths/cpp_files/user_maths.cpp:221:     (val) = (val) 
 2705              		.loc 1 221 11 is_stmt 1 discriminator 4
 2706 002c BB60     		str	r3, [r7, #8]	@ float	@ iftmp.24_1, val
 2707              	@ ACE_ECF_25-ACE-ECF-CPP-V1.2/Algorithm/user_maths/cpp_files/user_maths.cpp:222:     (val) = (val) 
 222:ACE_ECF_25-ACE-ECF-CPP-V1.2/Algorithm/user_maths/cpp_files/user_maths.cpp ****     (val) = (val) > (max) ? (max) : (val);
 2708              		.loc 1 222 27 discriminator 4
 2709 002e 97ED027A 		vldr.32	s14, [r7, #8]	@ tmp119, val
 2710 0032 D7ED007A 		vldr.32	s15, [r7]	@ tmp120, max
 2711 0036 B4EEE77A 		vcmpe.f32	s14, s15	@ tmp119, tmp120
 2712 003a F1EE10FA 		vmrs	APSR_nzcv, FPSCR
 2713 003e 01DD     		ble	.L194		@,
 2714              	@ ACE_ECF_25-ACE-ECF-CPP-V1.2/Algorithm/user_maths/cpp_files/user_maths.cpp:222:     (val) = (val) 
 2715              		.loc 1 222 27 is_stmt 0 discriminator 1
 2716 0040 3B68     		ldr	r3, [r7]	@ float	@ iftmp.25_2, max
 2717 0042 00E0     		b	.L189		@
 2718              	.L194:
 2719              	@ ACE_ECF_25-ACE-ECF-CPP-V1.2/Algorithm/user_maths/cpp_files/user_maths.cpp:222:     (val) = (val) 
 2720              		.loc 1 222 27 discriminator 2
 2721 0044 BB68     		ldr	r3, [r7, #8]	@ float	@ iftmp.25_2, val
 2722              	.L189:
 2723              	@ ACE_ECF_25-ACE-ECF-CPP-V1.2/Algorithm/user_maths/cpp_files/user_maths.cpp:222:     (val) = (val) 
 2724              		.loc 1 222 11 is_stmt 1 discriminator 4
 2725 0046 BB60     		str	r3, [r7, #8]	@ float	@ iftmp.25_2, val
 2726              	@ ACE_ECF_25-ACE-ECF-CPP-V1.2/Algorithm/user_maths/cpp_files/user_maths.cpp:223:     return val;
 223:ACE_ECF_25-ACE-ECF-CPP-V1.2/Algorithm/user_maths/cpp_files/user_maths.cpp ****     return val;
 2727              		.loc 1 223 12 discriminator 4
 2728 0048 BB68     		ldr	r3, [r7, #8]	@ float	@ _12, val
 2729 004a 07EE903A 		vmov	s15, r3	@ <retval>, _12
 2730              	@ ACE_ECF_25-ACE-ECF-CPP-V1.2/Algorithm/user_maths/cpp_files/user_maths.cpp:224: }
 224:ACE_ECF_25-ACE-ECF-CPP-V1.2/Algorithm/user_maths/cpp_files/user_maths.cpp **** }
 2731              		.loc 1 224 1 discriminator 4
 2732 004e B0EE670A 		vmov.f32	s0, s15	@, <retval>
 2733 0052 1437     		adds	r7, r7, #20	@,,
 2734              	.LCFI74:
 2735              		.cfi_def_cfa_offset 4
 2736 0054 BD46     		mov	sp, r7	@,
 2737              	.LCFI75:
 2738              		.cfi_def_cfa_register 13
ARM GAS  C:\Users\30806\AppData\Local\Temp\ccYcD1nI.s 			page 53


 2739              		@ sp needed	@
 2740 0056 5DF8047B 		ldr	r7, [sp], #4	@,
 2741              	.LCFI76:
 2742              		.cfi_restore 7
 2743              		.cfi_def_cfa_offset 0
 2744 005a 7047     		bx	lr	@
 2745              		.cfi_endproc
 2746              	.LFE386:
 2747              		.size	_ZN12user_maths_c14user_val_limitEfff, .-_ZN12user_maths_c14user_val_limitEfff
 2748              		.text
 2749              	.Letext0:
 2750              		.file 2 "d:\\stm_for_vs\\gcc-arm-none-eabi-10.3-2021.10\\arm-none-eabi\\include\\machine\\_default
 2751              		.file 3 "d:\\stm_for_vs\\gcc-arm-none-eabi-10.3-2021.10\\arm-none-eabi\\include\\sys\\_stdint.h"
 2752              		.file 4 "ACE_ECF_25-ACE-ECF-CPP-V1.2/Algorithm/user_maths/cpp_files/user_maths.hpp"
 2753              		.file 5 "d:\\stm_for_vs\\gcc-arm-none-eabi-10.3-2021.10\\arm-none-eabi\\include\\c++\\10.3.1\\bits
 2754              		.file 6 "d:\\stm_for_vs\\gcc-arm-none-eabi-10.3-2021.10\\arm-none-eabi\\include\\c++\\10.3.1\\cmat
 2755              		.file 7 "d:\\stm_for_vs\\gcc-arm-none-eabi-10.3-2021.10\\arm-none-eabi\\include\\c++\\10.3.1\\bits
 2756              		.file 8 "d:\\stm_for_vs\\gcc-arm-none-eabi-10.3-2021.10\\arm-none-eabi\\include\\c++\\10.3.1\\arm-
 2757              		.file 9 "d:\\stm_for_vs\\gcc-arm-none-eabi-10.3-2021.10\\arm-none-eabi\\include\\math.h"
 2758              		.file 10 "d:\\stm_for_vs\\gcc-arm-none-eabi-10.3-2021.10\\arm-none-eabi\\include\\c++\\10.3.1\\mat
 2759              		.file 11 "ACE_ECF_25-ACE-ECF-CPP-V1.2/Algorithm/user_maths/list_of_trigfunction.h"
 2760              		.file 12 "<built-in>"
 2761              		.section	.debug_info,"",%progbits
 2762              	.Ldebug_info0:
 2763 0000 53200000 		.4byte	0x2053
 2764 0004 0200     		.2byte	0x2
 2765 0006 00000000 		.4byte	.Ldebug_abbrev0
 2766 000a 04       		.byte	0x4
 2767 000b 01       		.uleb128 0x1
 2768 000c AA670000 		.4byte	.LASF1812
 2769 0010 04       		.byte	0x4
 2770 0011 A2650000 		.4byte	.LASF1813
 2771 0015 070A0000 		.4byte	.LASF1814
 2772 0019 00000000 		.4byte	.Ldebug_ranges0+0
 2773 001d 00000000 		.4byte	0
 2774 0021 00000000 		.4byte	0
 2775 0025 00000000 		.4byte	.Ldebug_line0
 2776 0029 00000000 		.4byte	.Ldebug_macro0
 2777 002d 02       		.uleb128 0x2
 2778 002e 01       		.byte	0x1
 2779 002f 06       		.byte	0x6
 2780 0030 88650000 		.4byte	.LASF1581
 2781 0034 02       		.uleb128 0x2
 2782 0035 01       		.byte	0x1
 2783 0036 08       		.byte	0x8
 2784 0037 862B0000 		.4byte	.LASF1582
 2785 003b 03       		.uleb128 0x3
 2786 003c 8E250000 		.4byte	.LASF1590
 2787 0040 02       		.byte	0x2
 2788 0041 37       		.byte	0x37
 2789 0042 18       		.byte	0x18
 2790 0043 47000000 		.4byte	0x47
 2791 0047 02       		.uleb128 0x2
 2792 0048 02       		.byte	0x2
 2793 0049 05       		.byte	0x5
 2794 004a 2AB60000 		.4byte	.LASF1583
 2795 004e 02       		.uleb128 0x2
ARM GAS  C:\Users\30806\AppData\Local\Temp\ccYcD1nI.s 			page 54


 2796 004f 02       		.byte	0x2
 2797 0050 07       		.byte	0x7
 2798 0051 58650000 		.4byte	.LASF1584
 2799 0055 02       		.uleb128 0x2
 2800 0056 04       		.byte	0x4
 2801 0057 05       		.byte	0x5
 2802 0058 9D750000 		.4byte	.LASF1585
 2803 005c 02       		.uleb128 0x2
 2804 005d 04       		.byte	0x4
 2805 005e 07       		.byte	0x7
 2806 005f 91AE0000 		.4byte	.LASF1586
 2807 0063 02       		.uleb128 0x2
 2808 0064 08       		.byte	0x8
 2809 0065 05       		.byte	0x5
 2810 0066 C2A90000 		.4byte	.LASF1587
 2811 006a 02       		.uleb128 0x2
 2812 006b 08       		.byte	0x8
 2813 006c 07       		.byte	0x7
 2814 006d 639D0000 		.4byte	.LASF1588
 2815 0071 04       		.uleb128 0x4
 2816 0072 04       		.byte	0x4
 2817 0073 05       		.byte	0x5
 2818 0074 696E7400 		.ascii	"int\000"
 2819 0078 02       		.uleb128 0x2
 2820 0079 04       		.byte	0x4
 2821 007a 07       		.byte	0x7
 2822 007b 36B40000 		.4byte	.LASF1589
 2823 007f 03       		.uleb128 0x3
 2824 0080 ED640000 		.4byte	.LASF1591
 2825 0084 03       		.byte	0x3
 2826 0085 20       		.byte	0x20
 2827 0086 13       		.byte	0x13
 2828 0087 3B000000 		.4byte	0x3b
 2829 008b 05       		.uleb128 0x5
 2830 008c 14       		.byte	0x14
 2831 008d 04       		.byte	0x4
 2832 008e 0E       		.byte	0xe
 2833 008f 05       		.byte	0x5
 2834 0090 DDA20000 		.4byte	.LASF1815
 2835 0094 E4000000 		.4byte	0xe4
 2836 0098 06       		.uleb128 0x6
 2837 0099 BE6A0000 		.4byte	.LASF1592
 2838 009d 04       		.byte	0x4
 2839 009e 0F       		.byte	0xf
 2840 009f 0F       		.byte	0xf
 2841 00a0 E4000000 		.4byte	0xe4
 2842 00a4 02       		.byte	0x2
 2843 00a5 23       		.byte	0x23
 2844 00a6 00       		.uleb128 0
 2845 00a7 06       		.uleb128 0x6
 2846 00a8 85AC0000 		.4byte	.LASF1593
 2847 00ac 04       		.byte	0x4
 2848 00ad 10       		.byte	0x10
 2849 00ae 0F       		.byte	0xf
 2850 00af E4000000 		.4byte	0xe4
 2851 00b3 02       		.byte	0x2
 2852 00b4 23       		.byte	0x23
ARM GAS  C:\Users\30806\AppData\Local\Temp\ccYcD1nI.s 			page 55


 2853 00b5 04       		.uleb128 0x4
 2854 00b6 06       		.uleb128 0x6
 2855 00b7 10410000 		.4byte	.LASF1594
 2856 00bb 04       		.byte	0x4
 2857 00bc 11       		.byte	0x11
 2858 00bd 0F       		.byte	0xf
 2859 00be E4000000 		.4byte	0xe4
 2860 00c2 02       		.byte	0x2
 2861 00c3 23       		.byte	0x23
 2862 00c4 08       		.uleb128 0x8
 2863 00c5 06       		.uleb128 0x6
 2864 00c6 D9930000 		.4byte	.LASF1595
 2865 00ca 04       		.byte	0x4
 2866 00cb 12       		.byte	0x12
 2867 00cc 0F       		.byte	0xf
 2868 00cd E4000000 		.4byte	0xe4
 2869 00d1 02       		.byte	0x2
 2870 00d2 23       		.byte	0x23
 2871 00d3 0C       		.uleb128 0xc
 2872 00d4 06       		.uleb128 0x6
 2873 00d5 1B090000 		.4byte	.LASF1596
 2874 00d9 04       		.byte	0x4
 2875 00da 13       		.byte	0x13
 2876 00db 0F       		.byte	0xf
 2877 00dc E4000000 		.4byte	0xe4
 2878 00e0 02       		.byte	0x2
 2879 00e1 23       		.byte	0x23
 2880 00e2 10       		.uleb128 0x10
 2881 00e3 00       		.byte	0
 2882 00e4 02       		.uleb128 0x2
 2883 00e5 04       		.byte	0x4
 2884 00e6 04       		.byte	0x4
 2885 00e7 CE2C0000 		.4byte	.LASF1597
 2886 00eb 07       		.uleb128 0x7
 2887 00ec E4000000 		.4byte	0xe4
 2888 00f0 03       		.uleb128 0x3
 2889 00f1 F9300000 		.4byte	.LASF1598
 2890 00f5 04       		.byte	0x4
 2891 00f6 14       		.byte	0x14
 2892 00f7 07       		.byte	0x7
 2893 00f8 8B000000 		.4byte	0x8b
 2894 00fc 08       		.uleb128 0x8
 2895 00fd EE290000 		.4byte	.LASF1816
 2896 0101 14       		.byte	0x14
 2897 0102 04       		.byte	0x4
 2898 0103 2E       		.byte	0x2e
 2899 0104 07       		.byte	0x7
 2900 0105 4F030000 		.4byte	0x34f
 2901 0109 06       		.uleb128 0x6
 2902 010a B06E0000 		.4byte	.LASF1599
 2903 010e 04       		.byte	0x4
 2904 010f 33       		.byte	0x33
 2905 0110 21       		.byte	0x21
 2906 0111 F0000000 		.4byte	0xf0
 2907 0115 02       		.byte	0x2
 2908 0116 23       		.byte	0x23
 2909 0117 00       		.uleb128 0
ARM GAS  C:\Users\30806\AppData\Local\Temp\ccYcD1nI.s 			page 56


 2910 0118 09       		.uleb128 0x9
 2911 0119 01       		.byte	0x1
 2912 011a 71590000 		.4byte	.LASF1600
 2913 011e 04       		.byte	0x4
 2914 011f 34       		.byte	0x34
 2915 0120 0D       		.byte	0xd
 2916 0121 663A0000 		.4byte	.LASF1602
 2917 0125 7F000000 		.4byte	0x7f
 2918 0129 01       		.byte	0x1
 2919 012a 32010000 		.4byte	0x132
 2920 012e 43010000 		.4byte	0x143
 2921 0132 0A       		.uleb128 0xa
 2922 0133 4F030000 		.4byte	0x34f
 2923 0137 01       		.byte	0x1
 2924 0138 0B       		.uleb128 0xb
 2925 0139 7F000000 		.4byte	0x7f
 2926 013d 0B       		.uleb128 0xb
 2927 013e 7F000000 		.4byte	0x7f
 2928 0142 00       		.byte	0
 2929 0143 09       		.uleb128 0x9
 2930 0144 01       		.byte	0x1
 2931 0145 576E0000 		.4byte	.LASF1601
 2932 0149 04       		.byte	0x4
 2933 014a 35       		.byte	0x35
 2934 014b 0B       		.byte	0xb
 2935 014c F1070000 		.4byte	.LASF1603
 2936 0150 E4000000 		.4byte	0xe4
 2937 0154 01       		.byte	0x1
 2938 0155 5D010000 		.4byte	0x15d
 2939 0159 69010000 		.4byte	0x169
 2940 015d 0A       		.uleb128 0xa
 2941 015e 4F030000 		.4byte	0x34f
 2942 0162 01       		.byte	0x1
 2943 0163 0B       		.uleb128 0xb
 2944 0164 E4000000 		.4byte	0xe4
 2945 0168 00       		.byte	0
 2946 0169 09       		.uleb128 0x9
 2947 016a 01       		.byte	0x1
 2948 016b CF0F0000 		.4byte	.LASF1604
 2949 016f 04       		.byte	0x4
 2950 0170 36       		.byte	0x36
 2951 0171 0B       		.byte	0xb
 2952 0172 1E420000 		.4byte	.LASF1605
 2953 0176 E4000000 		.4byte	0xe4
 2954 017a 01       		.byte	0x1
 2955 017b 83010000 		.4byte	0x183
 2956 017f 9E010000 		.4byte	0x19e
 2957 0183 0A       		.uleb128 0xa
 2958 0184 4F030000 		.4byte	0x34f
 2959 0188 01       		.byte	0x1
 2960 0189 0B       		.uleb128 0xb
 2961 018a E4000000 		.4byte	0xe4
 2962 018e 0B       		.uleb128 0xb
 2963 018f E4000000 		.4byte	0xe4
 2964 0193 0B       		.uleb128 0xb
 2965 0194 E4000000 		.4byte	0xe4
 2966 0198 0B       		.uleb128 0xb
ARM GAS  C:\Users\30806\AppData\Local\Temp\ccYcD1nI.s 			page 57


 2967 0199 E4000000 		.4byte	0xe4
 2968 019d 00       		.byte	0
 2969 019e 09       		.uleb128 0x9
 2970 019f 01       		.byte	0x1
 2971 01a0 0F8D0000 		.4byte	.LASF1606
 2972 01a4 04       		.byte	0x4
 2973 01a5 39       		.byte	0x39
 2974 01a6 0D       		.byte	0xd
 2975 01a7 27710000 		.4byte	.LASF1607
 2976 01ab 7F000000 		.4byte	0x7f
 2977 01af 01       		.byte	0x1
 2978 01b0 B8010000 		.4byte	0x1b8
 2979 01b4 C9010000 		.4byte	0x1c9
 2980 01b8 0A       		.uleb128 0xa
 2981 01b9 4F030000 		.4byte	0x34f
 2982 01bd 01       		.byte	0x1
 2983 01be 0B       		.uleb128 0xb
 2984 01bf 7F000000 		.4byte	0x7f
 2985 01c3 0B       		.uleb128 0xb
 2986 01c4 7F000000 		.4byte	0x7f
 2987 01c8 00       		.byte	0
 2988 01c9 09       		.uleb128 0x9
 2989 01ca 01       		.byte	0x1
 2990 01cb 399E0000 		.4byte	.LASF1608
 2991 01cf 04       		.byte	0x4
 2992 01d0 3C       		.byte	0x3c
 2993 01d1 0D       		.byte	0xd
 2994 01d2 67390000 		.4byte	.LASF1609
 2995 01d6 7F000000 		.4byte	0x7f
 2996 01da 01       		.byte	0x1
 2997 01db E3010000 		.4byte	0x1e3
 2998 01df F4010000 		.4byte	0x1f4
 2999 01e3 0A       		.uleb128 0xa
 3000 01e4 4F030000 		.4byte	0x34f
 3001 01e8 01       		.byte	0x1
 3002 01e9 0B       		.uleb128 0xb
 3003 01ea 7F000000 		.4byte	0x7f
 3004 01ee 0B       		.uleb128 0xb
 3005 01ef 7F000000 		.4byte	0x7f
 3006 01f3 00       		.byte	0
 3007 01f4 09       		.uleb128 0x9
 3008 01f5 01       		.byte	0x1
 3009 01f6 5E2E0000 		.4byte	.LASF1610
 3010 01fa 04       		.byte	0x4
 3011 01fb 3D       		.byte	0x3d
 3012 01fc 0B       		.byte	0xb
 3013 01fd 33930000 		.4byte	.LASF1611
 3014 0201 E4000000 		.4byte	0xe4
 3015 0205 01       		.byte	0x1
 3016 0206 0E020000 		.4byte	0x20e
 3017 020a 1F020000 		.4byte	0x21f
 3018 020e 0A       		.uleb128 0xa
 3019 020f 4F030000 		.4byte	0x34f
 3020 0213 01       		.byte	0x1
 3021 0214 0B       		.uleb128 0xb
 3022 0215 E4000000 		.4byte	0xe4
 3023 0219 0B       		.uleb128 0xb
ARM GAS  C:\Users\30806\AppData\Local\Temp\ccYcD1nI.s 			page 58


 3024 021a E4000000 		.4byte	0xe4
 3025 021e 00       		.byte	0
 3026 021f 09       		.uleb128 0x9
 3027 0220 01       		.byte	0x1
 3028 0221 50A00000 		.4byte	.LASF1612
 3029 0225 04       		.byte	0x4
 3030 0226 3E       		.byte	0x3e
 3031 0227 0B       		.byte	0xb
 3032 0228 459A0000 		.4byte	.LASF1613
 3033 022c E4000000 		.4byte	0xe4
 3034 0230 01       		.byte	0x1
 3035 0231 39020000 		.4byte	0x239
 3036 0235 4F020000 		.4byte	0x24f
 3037 0239 0A       		.uleb128 0xa
 3038 023a 4F030000 		.4byte	0x34f
 3039 023e 01       		.byte	0x1
 3040 023f 0B       		.uleb128 0xb
 3041 0240 E4000000 		.4byte	0xe4
 3042 0244 0B       		.uleb128 0xb
 3043 0245 E4000000 		.4byte	0xe4
 3044 0249 0B       		.uleb128 0xb
 3045 024a E4000000 		.4byte	0xe4
 3046 024e 00       		.byte	0
 3047 024f 09       		.uleb128 0x9
 3048 0250 01       		.byte	0x1
 3049 0251 25B10000 		.4byte	.LASF1614
 3050 0255 04       		.byte	0x4
 3051 0256 3F       		.byte	0x3f
 3052 0257 0B       		.byte	0xb
 3053 0258 AB950000 		.4byte	.LASF1615
 3054 025c E4000000 		.4byte	0xe4
 3055 0260 01       		.byte	0x1
 3056 0261 69020000 		.4byte	0x269
 3057 0265 7F020000 		.4byte	0x27f
 3058 0269 0A       		.uleb128 0xa
 3059 026a 4F030000 		.4byte	0x34f
 3060 026e 01       		.byte	0x1
 3061 026f 0B       		.uleb128 0xb
 3062 0270 E4000000 		.4byte	0xe4
 3063 0274 0B       		.uleb128 0xb
 3064 0275 E4000000 		.4byte	0xe4
 3065 0279 0B       		.uleb128 0xb
 3066 027a E4000000 		.4byte	0xe4
 3067 027e 00       		.byte	0
 3068 027f 09       		.uleb128 0x9
 3069 0280 01       		.byte	0x1
 3070 0281 94240000 		.4byte	.LASF1616
 3071 0285 04       		.byte	0x4
 3072 0286 40       		.byte	0x40
 3073 0287 0B       		.byte	0xb
 3074 0288 0EA80000 		.4byte	.LASF1617
 3075 028c E4000000 		.4byte	0xe4
 3076 0290 01       		.byte	0x1
 3077 0291 99020000 		.4byte	0x299
 3078 0295 A5020000 		.4byte	0x2a5
 3079 0299 0A       		.uleb128 0xa
 3080 029a 4F030000 		.4byte	0x34f
ARM GAS  C:\Users\30806\AppData\Local\Temp\ccYcD1nI.s 			page 59


 3081 029e 01       		.byte	0x1
 3082 029f 0B       		.uleb128 0xb
 3083 02a0 E4000000 		.4byte	0xe4
 3084 02a4 00       		.byte	0
 3085 02a5 09       		.uleb128 0x9
 3086 02a6 01       		.byte	0x1
 3087 02a7 67190000 		.4byte	.LASF1618
 3088 02ab 04       		.byte	0x4
 3089 02ac 41       		.byte	0x41
 3090 02ad 0B       		.byte	0xb
 3091 02ae D31A0000 		.4byte	.LASF1619
 3092 02b2 E4000000 		.4byte	0xe4
 3093 02b6 01       		.byte	0x1
 3094 02b7 BF020000 		.4byte	0x2bf
 3095 02bb CB020000 		.4byte	0x2cb
 3096 02bf 0A       		.uleb128 0xa
 3097 02c0 4F030000 		.4byte	0x34f
 3098 02c4 01       		.byte	0x1
 3099 02c5 0B       		.uleb128 0xb
 3100 02c6 E4000000 		.4byte	0xe4
 3101 02ca 00       		.byte	0
 3102 02cb 0C       		.uleb128 0xc
 3103 02cc 01       		.byte	0x1
 3104 02cd 00910000 		.4byte	.LASF1622
 3105 02d1 04       		.byte	0x4
 3106 02d2 44       		.byte	0x44
 3107 02d3 0A       		.byte	0xa
 3108 02d4 D5200000 		.4byte	.LASF1624
 3109 02d8 01       		.byte	0x1
 3110 02d9 E1020000 		.4byte	0x2e1
 3111 02dd F2020000 		.4byte	0x2f2
 3112 02e1 0A       		.uleb128 0xa
 3113 02e2 4F030000 		.4byte	0x34f
 3114 02e6 01       		.byte	0x1
 3115 02e7 0B       		.uleb128 0xb
 3116 02e8 5A030000 		.4byte	0x35a
 3117 02ec 0B       		.uleb128 0xb
 3118 02ed E4000000 		.4byte	0xe4
 3119 02f1 00       		.byte	0
 3120 02f2 09       		.uleb128 0x9
 3121 02f3 01       		.byte	0x1
 3122 02f4 0B090000 		.4byte	.LASF1620
 3123 02f8 04       		.byte	0x4
 3124 02f9 47       		.byte	0x47
 3125 02fa 0B       		.byte	0xb
 3126 02fb 8B620000 		.4byte	.LASF1621
 3127 02ff E4000000 		.4byte	0xe4
 3128 0303 01       		.byte	0x1
 3129 0304 0C030000 		.4byte	0x30c
 3130 0308 22030000 		.4byte	0x322
 3131 030c 0A       		.uleb128 0xa
 3132 030d 4F030000 		.4byte	0x34f
 3133 0311 01       		.byte	0x1
 3134 0312 0B       		.uleb128 0xb
 3135 0313 E4000000 		.4byte	0xe4
 3136 0317 0B       		.uleb128 0xb
 3137 0318 E4000000 		.4byte	0xe4
ARM GAS  C:\Users\30806\AppData\Local\Temp\ccYcD1nI.s 			page 60


 3138 031c 0B       		.uleb128 0xb
 3139 031d E4000000 		.4byte	0xe4
 3140 0321 00       		.byte	0
 3141 0322 0D       		.uleb128 0xd
 3142 0323 01       		.byte	0x1
 3143 0324 819B0000 		.4byte	.LASF1623
 3144 0328 04       		.byte	0x4
 3145 0329 48       		.byte	0x48
 3146 032a 0B       		.byte	0xb
 3147 032b A5AB0000 		.4byte	.LASF1625
 3148 032f E4000000 		.4byte	0xe4
 3149 0333 01       		.byte	0x1
 3150 0334 38030000 		.4byte	0x338
 3151 0338 0A       		.uleb128 0xa
 3152 0339 4F030000 		.4byte	0x34f
 3153 033d 01       		.byte	0x1
 3154 033e 0B       		.uleb128 0xb
 3155 033f E4000000 		.4byte	0xe4
 3156 0343 0B       		.uleb128 0xb
 3157 0344 E4000000 		.4byte	0xe4
 3158 0348 0B       		.uleb128 0xb
 3159 0349 E4000000 		.4byte	0xe4
 3160 034d 00       		.byte	0
 3161 034e 00       		.byte	0
 3162 034f 0E       		.uleb128 0xe
 3163 0350 04       		.byte	0x4
 3164 0351 FC000000 		.4byte	0xfc
 3165 0355 07       		.uleb128 0x7
 3166 0356 4F030000 		.4byte	0x34f
 3167 035a 0E       		.uleb128 0xe
 3168 035b 04       		.byte	0x4
 3169 035c E4000000 		.4byte	0xe4
 3170 0360 02       		.uleb128 0x2
 3171 0361 08       		.byte	0x8
 3172 0362 04       		.byte	0x4
 3173 0363 D7130000 		.4byte	.LASF1626
 3174 0367 0F       		.uleb128 0xf
 3175 0368 41540000 		.4byte	.LASF1817
 3176 036c 02       		.uleb128 0x2
 3177 036d 01       		.byte	0x1
 3178 036e 08       		.byte	0x8
 3179 036f 82820000 		.4byte	.LASF530
 3180 0373 10       		.uleb128 0x10
 3181 0374 73746400 		.ascii	"std\000"
 3182 0378 0C       		.byte	0xc
 3183 0379 00       		.byte	0
 3184 037a 84160000 		.4byte	0x1684
 3185 037e 11       		.uleb128 0x11
 3186 037f 04B50000 		.4byte	.LASF1783
 3187 0383 08       		.byte	0x8
 3188 0384 1E01     		.2byte	0x11e
 3189 0386 41       		.byte	0x41
 3190 0387 01       		.byte	0x1
 3191 0388 12       		.uleb128 0x12
 3192 0389 08       		.byte	0x8
 3193 038a 1E01     		.2byte	0x11e
 3194 038c 41       		.byte	0x41
ARM GAS  C:\Users\30806\AppData\Local\Temp\ccYcD1nI.s 			page 61


 3195 038d 7E030000 		.4byte	0x37e
 3196 0391 13       		.uleb128 0x13
 3197 0392 EE930000 		.4byte	.LASF1627
 3198 0396 01       		.byte	0x1
 3199 0397 05       		.byte	0x5
 3200 0398 7F       		.byte	0x7f
 3201 0399 0C       		.byte	0xc
 3202 039a BD030000 		.4byte	0x3bd
 3203 039e 14       		.uleb128 0x14
 3204 039f 07       		.byte	0x7
 3205 03a0 01       		.byte	0x1
 3206 03a1 34000000 		.4byte	0x34
 3207 03a5 05       		.byte	0x5
 3208 03a6 81       		.byte	0x81
 3209 03a7 0C       		.byte	0xc
 3210 03a8 B3030000 		.4byte	0x3b3
 3211 03ac 15       		.uleb128 0x15
 3212 03ad 0B960000 		.4byte	.LASF1629
 3213 03b1 00       		.byte	0
 3214 03b2 00       		.byte	0
 3215 03b3 16       		.uleb128 0x16
 3216 03b4 5F547000 		.ascii	"_Tp\000"
 3217 03b8 60030000 		.4byte	0x360
 3218 03bc 00       		.byte	0
 3219 03bd 13       		.uleb128 0x13
 3220 03be 26200000 		.4byte	.LASF1628
 3221 03c2 01       		.byte	0x1
 3222 03c3 05       		.byte	0x5
 3223 03c4 7F       		.byte	0x7f
 3224 03c5 0C       		.byte	0xc
 3225 03c6 E9030000 		.4byte	0x3e9
 3226 03ca 14       		.uleb128 0x14
 3227 03cb 07       		.byte	0x7
 3228 03cc 01       		.byte	0x1
 3229 03cd 34000000 		.4byte	0x34
 3230 03d1 05       		.byte	0x5
 3231 03d2 81       		.byte	0x81
 3232 03d3 0C       		.byte	0xc
 3233 03d4 DF030000 		.4byte	0x3df
 3234 03d8 15       		.uleb128 0x15
 3235 03d9 0B960000 		.4byte	.LASF1629
 3236 03dd 00       		.byte	0
 3237 03de 00       		.byte	0
 3238 03df 16       		.uleb128 0x16
 3239 03e0 5F547000 		.ascii	"_Tp\000"
 3240 03e4 A5160000 		.4byte	0x16a5
 3241 03e8 00       		.byte	0
 3242 03e9 13       		.uleb128 0x13
 3243 03ea 4F9D0000 		.4byte	.LASF1630
 3244 03ee 01       		.byte	0x1
 3245 03ef 05       		.byte	0x5
 3246 03f0 7F       		.byte	0x7f
 3247 03f1 0C       		.byte	0xc
 3248 03f2 15040000 		.4byte	0x415
 3249 03f6 14       		.uleb128 0x14
 3250 03f7 07       		.byte	0x7
 3251 03f8 01       		.byte	0x1
ARM GAS  C:\Users\30806\AppData\Local\Temp\ccYcD1nI.s 			page 62


 3252 03f9 34000000 		.4byte	0x34
 3253 03fd 05       		.byte	0x5
 3254 03fe 81       		.byte	0x81
 3255 03ff 0C       		.byte	0xc
 3256 0400 0B040000 		.4byte	0x40b
 3257 0404 15       		.uleb128 0x15
 3258 0405 0B960000 		.4byte	.LASF1629
 3259 0409 00       		.byte	0
 3260 040a 00       		.byte	0
 3261 040b 16       		.uleb128 0x16
 3262 040c 5F547000 		.ascii	"_Tp\000"
 3263 0410 E4000000 		.4byte	0xe4
 3264 0414 00       		.byte	0
 3265 0415 17       		.uleb128 0x17
 3266 0416 06       		.byte	0x6
 3267 0417 2904     		.2byte	0x429
 3268 0419 0B       		.byte	0xb
 3269 041a B8160000 		.4byte	0x16b8
 3270 041e 17       		.uleb128 0x17
 3271 041f 06       		.byte	0x6
 3272 0420 2A04     		.2byte	0x42a
 3273 0422 0B       		.byte	0xb
 3274 0423 AC160000 		.4byte	0x16ac
 3275 0427 18       		.uleb128 0x18
 3276 0428 01       		.byte	0x1
 3277 0429 61627300 		.ascii	"abs\000"
 3278 042d 07       		.byte	0x7
 3279 042e 4F       		.byte	0x4f
 3280 042f 03       		.byte	0x3
 3281 0430 9F840000 		.4byte	.LASF1631
 3282 0434 60030000 		.4byte	0x360
 3283 0438 01       		.byte	0x1
 3284 0439 43040000 		.4byte	0x443
 3285 043d 0B       		.uleb128 0xb
 3286 043e 60030000 		.4byte	0x360
 3287 0442 00       		.byte	0
 3288 0443 18       		.uleb128 0x18
 3289 0444 01       		.byte	0x1
 3290 0445 61627300 		.ascii	"abs\000"
 3291 0449 07       		.byte	0x7
 3292 044a 4B       		.byte	0x4b
 3293 044b 03       		.byte	0x3
 3294 044c A9840000 		.4byte	.LASF1632
 3295 0450 E4000000 		.4byte	0xe4
 3296 0454 01       		.byte	0x1
 3297 0455 5F040000 		.4byte	0x45f
 3298 0459 0B       		.uleb128 0xb
 3299 045a E4000000 		.4byte	0xe4
 3300 045e 00       		.byte	0
 3301 045f 18       		.uleb128 0x18
 3302 0460 01       		.byte	0x1
 3303 0461 61627300 		.ascii	"abs\000"
 3304 0465 07       		.byte	0x7
 3305 0466 47       		.byte	0x47
 3306 0467 03       		.byte	0x3
 3307 0468 95840000 		.4byte	.LASF1633
 3308 046c A5160000 		.4byte	0x16a5
ARM GAS  C:\Users\30806\AppData\Local\Temp\ccYcD1nI.s 			page 63


 3309 0470 01       		.byte	0x1
 3310 0471 7B040000 		.4byte	0x47b
 3311 0475 0B       		.uleb128 0xb
 3312 0476 A5160000 		.4byte	0x16a5
 3313 047a 00       		.byte	0
 3314 047b 18       		.uleb128 0x18
 3315 047c 01       		.byte	0x1
 3316 047d 61627300 		.ascii	"abs\000"
 3317 0481 07       		.byte	0x7
 3318 0482 3D       		.byte	0x3d
 3319 0483 03       		.byte	0x3
 3320 0484 27850000 		.4byte	.LASF1634
 3321 0488 63000000 		.4byte	0x63
 3322 048c 01       		.byte	0x1
 3323 048d 97040000 		.4byte	0x497
 3324 0491 0B       		.uleb128 0xb
 3325 0492 63000000 		.4byte	0x63
 3326 0496 00       		.byte	0
 3327 0497 18       		.uleb128 0x18
 3328 0498 01       		.byte	0x1
 3329 0499 61627300 		.ascii	"abs\000"
 3330 049d 07       		.byte	0x7
 3331 049e 38       		.byte	0x38
 3332 049f 03       		.byte	0x3
 3333 04a0 DE840000 		.4byte	.LASF1635
 3334 04a4 55000000 		.4byte	0x55
 3335 04a8 01       		.byte	0x1
 3336 04a9 B3040000 		.4byte	0x4b3
 3337 04ad 0B       		.uleb128 0xb
 3338 04ae 55000000 		.4byte	0x55
 3339 04b2 00       		.byte	0
 3340 04b3 19       		.uleb128 0x19
 3341 04b4 01       		.byte	0x1
 3342 04b5 62570000 		.4byte	.LASF1274
 3343 04b9 06       		.byte	0x6
 3344 04ba 5B       		.byte	0x5b
 3345 04bb 03       		.byte	0x3
 3346 04bc 89B90000 		.4byte	.LASF1636
 3347 04c0 60030000 		.4byte	0x360
 3348 04c4 01       		.byte	0x1
 3349 04c5 CF040000 		.4byte	0x4cf
 3350 04c9 0B       		.uleb128 0xb
 3351 04ca 60030000 		.4byte	0x360
 3352 04ce 00       		.byte	0
 3353 04cf 19       		.uleb128 0x19
 3354 04d0 01       		.byte	0x1
 3355 04d1 62570000 		.4byte	.LASF1274
 3356 04d5 06       		.byte	0x6
 3357 04d6 57       		.byte	0x57
 3358 04d7 03       		.byte	0x3
 3359 04d8 94B90000 		.4byte	.LASF1637
 3360 04dc E4000000 		.4byte	0xe4
 3361 04e0 01       		.byte	0x1
 3362 04e1 EB040000 		.4byte	0x4eb
 3363 04e5 0B       		.uleb128 0xb
 3364 04e6 E4000000 		.4byte	0xe4
 3365 04ea 00       		.byte	0
ARM GAS  C:\Users\30806\AppData\Local\Temp\ccYcD1nI.s 			page 64


 3366 04eb 19       		.uleb128 0x19
 3367 04ec 01       		.byte	0x1
 3368 04ed 32AB0000 		.4byte	.LASF1275
 3369 04f1 06       		.byte	0x6
 3370 04f2 6E       		.byte	0x6e
 3371 04f3 03       		.byte	0x3
 3372 04f4 670A0000 		.4byte	.LASF1638
 3373 04f8 60030000 		.4byte	0x360
 3374 04fc 01       		.byte	0x1
 3375 04fd 07050000 		.4byte	0x507
 3376 0501 0B       		.uleb128 0xb
 3377 0502 60030000 		.4byte	0x360
 3378 0506 00       		.byte	0
 3379 0507 19       		.uleb128 0x19
 3380 0508 01       		.byte	0x1
 3381 0509 32AB0000 		.4byte	.LASF1275
 3382 050d 06       		.byte	0x6
 3383 050e 6A       		.byte	0x6a
 3384 050f 03       		.byte	0x3
 3385 0510 720A0000 		.4byte	.LASF1639
 3386 0514 E4000000 		.4byte	0xe4
 3387 0518 01       		.byte	0x1
 3388 0519 23050000 		.4byte	0x523
 3389 051d 0B       		.uleb128 0xb
 3390 051e E4000000 		.4byte	0xe4
 3391 0522 00       		.byte	0
 3392 0523 19       		.uleb128 0x19
 3393 0524 01       		.byte	0x1
 3394 0525 FBA20000 		.4byte	.LASF1276
 3395 0529 06       		.byte	0x6
 3396 052a 81       		.byte	0x81
 3397 052b 03       		.byte	0x3
 3398 052c 18900000 		.4byte	.LASF1640
 3399 0530 60030000 		.4byte	0x360
 3400 0534 01       		.byte	0x1
 3401 0535 3F050000 		.4byte	0x53f
 3402 0539 0B       		.uleb128 0xb
 3403 053a 60030000 		.4byte	0x360
 3404 053e 00       		.byte	0
 3405 053f 19       		.uleb128 0x19
 3406 0540 01       		.byte	0x1
 3407 0541 FBA20000 		.4byte	.LASF1276
 3408 0545 06       		.byte	0x6
 3409 0546 7D       		.byte	0x7d
 3410 0547 03       		.byte	0x3
 3411 0548 23900000 		.4byte	.LASF1641
 3412 054c E4000000 		.4byte	0xe4
 3413 0550 01       		.byte	0x1
 3414 0551 5B050000 		.4byte	0x55b
 3415 0555 0B       		.uleb128 0xb
 3416 0556 E4000000 		.4byte	0xe4
 3417 055a 00       		.byte	0
 3418 055b 19       		.uleb128 0x19
 3419 055c 01       		.byte	0x1
 3420 055d DC450000 		.4byte	.LASF1277
 3421 0561 06       		.byte	0x6
 3422 0562 94       		.byte	0x94
ARM GAS  C:\Users\30806\AppData\Local\Temp\ccYcD1nI.s 			page 65


 3423 0563 03       		.byte	0x3
 3424 0564 B9020000 		.4byte	.LASF1642
 3425 0568 60030000 		.4byte	0x360
 3426 056c 01       		.byte	0x1
 3427 056d 7C050000 		.4byte	0x57c
 3428 0571 0B       		.uleb128 0xb
 3429 0572 60030000 		.4byte	0x360
 3430 0576 0B       		.uleb128 0xb
 3431 0577 60030000 		.4byte	0x360
 3432 057b 00       		.byte	0
 3433 057c 19       		.uleb128 0x19
 3434 057d 01       		.byte	0x1
 3435 057e DC450000 		.4byte	.LASF1277
 3436 0582 06       		.byte	0x6
 3437 0583 90       		.byte	0x90
 3438 0584 03       		.byte	0x3
 3439 0585 E1050000 		.4byte	.LASF1643
 3440 0589 E4000000 		.4byte	0xe4
 3441 058d 01       		.byte	0x1
 3442 058e 9D050000 		.4byte	0x59d
 3443 0592 0B       		.uleb128 0xb
 3444 0593 E4000000 		.4byte	0xe4
 3445 0597 0B       		.uleb128 0xb
 3446 0598 E4000000 		.4byte	0xe4
 3447 059c 00       		.byte	0
 3448 059d 18       		.uleb128 0x18
 3449 059e 01       		.byte	0x1
 3450 059f 636F7300 		.ascii	"cos\000"
 3451 05a3 06       		.byte	0x6
 3452 05a4 BC       		.byte	0xbc
 3453 05a5 03       		.byte	0x3
 3454 05a6 FBAB0000 		.4byte	.LASF1644
 3455 05aa 60030000 		.4byte	0x360
 3456 05ae 01       		.byte	0x1
 3457 05af B9050000 		.4byte	0x5b9
 3458 05b3 0B       		.uleb128 0xb
 3459 05b4 60030000 		.4byte	0x360
 3460 05b8 00       		.byte	0
 3461 05b9 18       		.uleb128 0x18
 3462 05ba 01       		.byte	0x1
 3463 05bb 636F7300 		.ascii	"cos\000"
 3464 05bf 06       		.byte	0x6
 3465 05c0 B8       		.byte	0xb8
 3466 05c1 03       		.byte	0x3
 3467 05c2 05AC0000 		.4byte	.LASF1645
 3468 05c6 E4000000 		.4byte	0xe4
 3469 05ca 01       		.byte	0x1
 3470 05cb D5050000 		.4byte	0x5d5
 3471 05cf 0B       		.uleb128 0xb
 3472 05d0 E4000000 		.4byte	0xe4
 3473 05d4 00       		.byte	0
 3474 05d5 1A       		.uleb128 0x1a
 3475 05d6 01       		.byte	0x1
 3476 05d7 73696E00 		.ascii	"sin\000"
 3477 05db 06       		.byte	0x6
 3478 05dc AD01     		.2byte	0x1ad
 3479 05de 03       		.byte	0x3
ARM GAS  C:\Users\30806\AppData\Local\Temp\ccYcD1nI.s 			page 66


 3480 05df 28B50000 		.4byte	.LASF1646
 3481 05e3 60030000 		.4byte	0x360
 3482 05e7 01       		.byte	0x1
 3483 05e8 F2050000 		.4byte	0x5f2
 3484 05ec 0B       		.uleb128 0xb
 3485 05ed 60030000 		.4byte	0x360
 3486 05f1 00       		.byte	0
 3487 05f2 1A       		.uleb128 0x1a
 3488 05f3 01       		.byte	0x1
 3489 05f4 73696E00 		.ascii	"sin\000"
 3490 05f8 06       		.byte	0x6
 3491 05f9 A901     		.2byte	0x1a9
 3492 05fb 03       		.byte	0x3
 3493 05fc 32B50000 		.4byte	.LASF1647
 3494 0600 E4000000 		.4byte	0xe4
 3495 0604 01       		.byte	0x1
 3496 0605 0F060000 		.4byte	0x60f
 3497 0609 0B       		.uleb128 0xb
 3498 060a E4000000 		.4byte	0xe4
 3499 060e 00       		.byte	0
 3500 060f 1A       		.uleb128 0x1a
 3501 0610 01       		.byte	0x1
 3502 0611 74616E00 		.ascii	"tan\000"
 3503 0615 06       		.byte	0x6
 3504 0616 E601     		.2byte	0x1e6
 3505 0618 03       		.byte	0x3
 3506 0619 87820000 		.4byte	.LASF1648
 3507 061d 60030000 		.4byte	0x360
 3508 0621 01       		.byte	0x1
 3509 0622 2C060000 		.4byte	0x62c
 3510 0626 0B       		.uleb128 0xb
 3511 0627 60030000 		.4byte	0x360
 3512 062b 00       		.byte	0
 3513 062c 1A       		.uleb128 0x1a
 3514 062d 01       		.byte	0x1
 3515 062e 74616E00 		.ascii	"tan\000"
 3516 0632 06       		.byte	0x6
 3517 0633 E201     		.2byte	0x1e2
 3518 0635 03       		.byte	0x3
 3519 0636 91820000 		.4byte	.LASF1649
 3520 063a E4000000 		.4byte	0xe4
 3521 063e 01       		.byte	0x1
 3522 063f 49060000 		.4byte	0x649
 3523 0643 0B       		.uleb128 0xb
 3524 0644 E4000000 		.4byte	0xe4
 3525 0648 00       		.byte	0
 3526 0649 19       		.uleb128 0x19
 3527 064a 01       		.byte	0x1
 3528 064b 507D0000 		.4byte	.LASF1279
 3529 064f 06       		.byte	0x6
 3530 0650 CF       		.byte	0xcf
 3531 0651 03       		.byte	0x3
 3532 0652 2B220000 		.4byte	.LASF1650
 3533 0656 60030000 		.4byte	0x360
 3534 065a 01       		.byte	0x1
 3535 065b 65060000 		.4byte	0x665
 3536 065f 0B       		.uleb128 0xb
ARM GAS  C:\Users\30806\AppData\Local\Temp\ccYcD1nI.s 			page 67


 3537 0660 60030000 		.4byte	0x360
 3538 0664 00       		.byte	0
 3539 0665 19       		.uleb128 0x19
 3540 0666 01       		.byte	0x1
 3541 0667 507D0000 		.4byte	.LASF1279
 3542 066b 06       		.byte	0x6
 3543 066c CB       		.byte	0xcb
 3544 066d 03       		.byte	0x3
 3545 066e 65770000 		.4byte	.LASF1651
 3546 0672 E4000000 		.4byte	0xe4
 3547 0676 01       		.byte	0x1
 3548 0677 81060000 		.4byte	0x681
 3549 067b 0B       		.uleb128 0xb
 3550 067c E4000000 		.4byte	0xe4
 3551 0680 00       		.byte	0
 3552 0681 1B       		.uleb128 0x1b
 3553 0682 01       		.byte	0x1
 3554 0683 FB180000 		.4byte	.LASF1287
 3555 0687 06       		.byte	0x6
 3556 0688 C001     		.2byte	0x1c0
 3557 068a 03       		.byte	0x3
 3558 068b 0D2D0000 		.4byte	.LASF1652
 3559 068f 60030000 		.4byte	0x360
 3560 0693 01       		.byte	0x1
 3561 0694 9E060000 		.4byte	0x69e
 3562 0698 0B       		.uleb128 0xb
 3563 0699 60030000 		.4byte	0x360
 3564 069d 00       		.byte	0
 3565 069e 1B       		.uleb128 0x1b
 3566 069f 01       		.byte	0x1
 3567 06a0 FB180000 		.4byte	.LASF1287
 3568 06a4 06       		.byte	0x6
 3569 06a5 BC01     		.2byte	0x1bc
 3570 06a7 03       		.byte	0x3
 3571 06a8 182D0000 		.4byte	.LASF1653
 3572 06ac E4000000 		.4byte	0xe4
 3573 06b0 01       		.byte	0x1
 3574 06b1 BB060000 		.4byte	0x6bb
 3575 06b5 0B       		.uleb128 0xb
 3576 06b6 E4000000 		.4byte	0xe4
 3577 06ba 00       		.byte	0
 3578 06bb 1B       		.uleb128 0x1b
 3579 06bc 01       		.byte	0x1
 3580 06bd 349E0000 		.4byte	.LASF1289
 3581 06c1 06       		.byte	0x6
 3582 06c2 F901     		.2byte	0x1f9
 3583 06c4 03       		.byte	0x3
 3584 06c5 8F860000 		.4byte	.LASF1654
 3585 06c9 60030000 		.4byte	0x360
 3586 06cd 01       		.byte	0x1
 3587 06ce D8060000 		.4byte	0x6d8
 3588 06d2 0B       		.uleb128 0xb
 3589 06d3 60030000 		.4byte	0x360
 3590 06d7 00       		.byte	0
 3591 06d8 1B       		.uleb128 0x1b
 3592 06d9 01       		.byte	0x1
 3593 06da 349E0000 		.4byte	.LASF1289
ARM GAS  C:\Users\30806\AppData\Local\Temp\ccYcD1nI.s 			page 68


 3594 06de 06       		.byte	0x6
 3595 06df F501     		.2byte	0x1f5
 3596 06e1 03       		.byte	0x3
 3597 06e2 9A860000 		.4byte	.LASF1655
 3598 06e6 E4000000 		.4byte	0xe4
 3599 06ea 01       		.byte	0x1
 3600 06eb F5060000 		.4byte	0x6f5
 3601 06ef 0B       		.uleb128 0xb
 3602 06f0 E4000000 		.4byte	0xe4
 3603 06f4 00       		.byte	0
 3604 06f5 18       		.uleb128 0x18
 3605 06f6 01       		.byte	0x1
 3606 06f7 65787000 		.ascii	"exp\000"
 3607 06fb 06       		.byte	0x6
 3608 06fc E2       		.byte	0xe2
 3609 06fd 03       		.byte	0x3
 3610 06fe B3480000 		.4byte	.LASF1656
 3611 0702 60030000 		.4byte	0x360
 3612 0706 01       		.byte	0x1
 3613 0707 11070000 		.4byte	0x711
 3614 070b 0B       		.uleb128 0xb
 3615 070c 60030000 		.4byte	0x360
 3616 0710 00       		.byte	0
 3617 0711 18       		.uleb128 0x18
 3618 0712 01       		.byte	0x1
 3619 0713 65787000 		.ascii	"exp\000"
 3620 0717 06       		.byte	0x6
 3621 0718 DE       		.byte	0xde
 3622 0719 03       		.byte	0x3
 3623 071a 08860000 		.4byte	.LASF1657
 3624 071e E4000000 		.4byte	0xe4
 3625 0722 01       		.byte	0x1
 3626 0723 2D070000 		.4byte	0x72d
 3627 0727 0B       		.uleb128 0xb
 3628 0728 E4000000 		.4byte	0xe4
 3629 072c 00       		.byte	0
 3630 072d 1B       		.uleb128 0x1b
 3631 072e 01       		.byte	0x1
 3632 072f 6C6A0000 		.4byte	.LASF1283
 3633 0733 06       		.byte	0x6
 3634 0734 3001     		.2byte	0x130
 3635 0736 03       		.byte	0x3
 3636 0737 C49C0000 		.4byte	.LASF1658
 3637 073b 60030000 		.4byte	0x360
 3638 073f 01       		.byte	0x1
 3639 0740 4F070000 		.4byte	0x74f
 3640 0744 0B       		.uleb128 0xb
 3641 0745 60030000 		.4byte	0x360
 3642 0749 0B       		.uleb128 0xb
 3643 074a 9C170000 		.4byte	0x179c
 3644 074e 00       		.byte	0
 3645 074f 1B       		.uleb128 0x1b
 3646 0750 01       		.byte	0x1
 3647 0751 6C6A0000 		.4byte	.LASF1283
 3648 0755 06       		.byte	0x6
 3649 0756 2C01     		.2byte	0x12c
 3650 0758 03       		.byte	0x3
ARM GAS  C:\Users\30806\AppData\Local\Temp\ccYcD1nI.s 			page 69


 3651 0759 A3AE0000 		.4byte	.LASF1659
 3652 075d E4000000 		.4byte	0xe4
 3653 0761 01       		.byte	0x1
 3654 0762 71070000 		.4byte	0x771
 3655 0766 0B       		.uleb128 0xb
 3656 0767 E4000000 		.4byte	0xe4
 3657 076b 0B       		.uleb128 0xb
 3658 076c 9C170000 		.4byte	0x179c
 3659 0770 00       		.byte	0
 3660 0771 1B       		.uleb128 0x1b
 3661 0772 01       		.byte	0x1
 3662 0773 43050000 		.4byte	.LASF1284
 3663 0777 06       		.byte	0x6
 3664 0778 4301     		.2byte	0x143
 3665 077a 03       		.byte	0x3
 3666 077b 8AAB0000 		.4byte	.LASF1660
 3667 077f 60030000 		.4byte	0x360
 3668 0783 01       		.byte	0x1
 3669 0784 93070000 		.4byte	0x793
 3670 0788 0B       		.uleb128 0xb
 3671 0789 60030000 		.4byte	0x360
 3672 078d 0B       		.uleb128 0xb
 3673 078e 71000000 		.4byte	0x71
 3674 0792 00       		.byte	0
 3675 0793 1B       		.uleb128 0x1b
 3676 0794 01       		.byte	0x1
 3677 0795 43050000 		.4byte	.LASF1284
 3678 0799 06       		.byte	0x6
 3679 079a 3F01     		.2byte	0x13f
 3680 079c 03       		.byte	0x3
 3681 079d 6EAE0000 		.4byte	.LASF1661
 3682 07a1 E4000000 		.4byte	0xe4
 3683 07a5 01       		.byte	0x1
 3684 07a6 B5070000 		.4byte	0x7b5
 3685 07aa 0B       		.uleb128 0xb
 3686 07ab E4000000 		.4byte	0xe4
 3687 07af 0B       		.uleb128 0xb
 3688 07b0 71000000 		.4byte	0x71
 3689 07b4 00       		.byte	0
 3690 07b5 1A       		.uleb128 0x1a
 3691 07b6 01       		.byte	0x1
 3692 07b7 6C6F6700 		.ascii	"log\000"
 3693 07bb 06       		.byte	0x6
 3694 07bc 5601     		.2byte	0x156
 3695 07be 03       		.byte	0x3
 3696 07bf BF0B0000 		.4byte	.LASF1662
 3697 07c3 60030000 		.4byte	0x360
 3698 07c7 01       		.byte	0x1
 3699 07c8 D2070000 		.4byte	0x7d2
 3700 07cc 0B       		.uleb128 0xb
 3701 07cd 60030000 		.4byte	0x360
 3702 07d1 00       		.byte	0
 3703 07d2 1A       		.uleb128 0x1a
 3704 07d3 01       		.byte	0x1
 3705 07d4 6C6F6700 		.ascii	"log\000"
 3706 07d8 06       		.byte	0x6
 3707 07d9 5201     		.2byte	0x152
ARM GAS  C:\Users\30806\AppData\Local\Temp\ccYcD1nI.s 			page 70


 3708 07db 03       		.byte	0x3
 3709 07dc CE420000 		.4byte	.LASF1663
 3710 07e0 E4000000 		.4byte	0xe4
 3711 07e4 01       		.byte	0x1
 3712 07e5 EF070000 		.4byte	0x7ef
 3713 07e9 0B       		.uleb128 0xb
 3714 07ea E4000000 		.4byte	0xe4
 3715 07ee 00       		.byte	0
 3716 07ef 1B       		.uleb128 0x1b
 3717 07f0 01       		.byte	0x1
 3718 07f1 3C000000 		.4byte	.LASF1285
 3719 07f5 06       		.byte	0x6
 3720 07f6 6901     		.2byte	0x169
 3721 07f8 03       		.byte	0x3
 3722 07f9 20660000 		.4byte	.LASF1664
 3723 07fd 60030000 		.4byte	0x360
 3724 0801 01       		.byte	0x1
 3725 0802 0C080000 		.4byte	0x80c
 3726 0806 0B       		.uleb128 0xb
 3727 0807 60030000 		.4byte	0x360
 3728 080b 00       		.byte	0
 3729 080c 1B       		.uleb128 0x1b
 3730 080d 01       		.byte	0x1
 3731 080e 3C000000 		.4byte	.LASF1285
 3732 0812 06       		.byte	0x6
 3733 0813 6501     		.2byte	0x165
 3734 0815 03       		.byte	0x3
 3735 0816 2C660000 		.4byte	.LASF1665
 3736 081a E4000000 		.4byte	0xe4
 3737 081e 01       		.byte	0x1
 3738 081f 29080000 		.4byte	0x829
 3739 0823 0B       		.uleb128 0xb
 3740 0824 E4000000 		.4byte	0xe4
 3741 0828 00       		.byte	0
 3742 0829 1B       		.uleb128 0x1b
 3743 082a 01       		.byte	0x1
 3744 082b 5A280000 		.4byte	.LASF1286
 3745 082f 06       		.byte	0x6
 3746 0830 7C01     		.2byte	0x17c
 3747 0832 03       		.byte	0x3
 3748 0833 8A9F0000 		.4byte	.LASF1666
 3749 0837 60030000 		.4byte	0x360
 3750 083b 01       		.byte	0x1
 3751 083c 4B080000 		.4byte	0x84b
 3752 0840 0B       		.uleb128 0xb
 3753 0841 60030000 		.4byte	0x360
 3754 0845 0B       		.uleb128 0xb
 3755 0846 E2170000 		.4byte	0x17e2
 3756 084a 00       		.byte	0
 3757 084b 1B       		.uleb128 0x1b
 3758 084c 01       		.byte	0x1
 3759 084d 5A280000 		.4byte	.LASF1286
 3760 0851 06       		.byte	0x6
 3761 0852 7801     		.2byte	0x178
 3762 0854 03       		.byte	0x3
 3763 0855 C8B10000 		.4byte	.LASF1667
 3764 0859 E4000000 		.4byte	0xe4
ARM GAS  C:\Users\30806\AppData\Local\Temp\ccYcD1nI.s 			page 71


 3765 085d 01       		.byte	0x1
 3766 085e 6D080000 		.4byte	0x86d
 3767 0862 0B       		.uleb128 0xb
 3768 0863 E4000000 		.4byte	0xe4
 3769 0867 0B       		.uleb128 0xb
 3770 0868 5A030000 		.4byte	0x35a
 3771 086c 00       		.byte	0
 3772 086d 1A       		.uleb128 0x1a
 3773 086e 01       		.byte	0x1
 3774 086f 706F7700 		.ascii	"pow\000"
 3775 0873 06       		.byte	0x6
 3776 0874 8801     		.2byte	0x188
 3777 0876 03       		.byte	0x3
 3778 0877 00090000 		.4byte	.LASF1668
 3779 087b 60030000 		.4byte	0x360
 3780 087f 01       		.byte	0x1
 3781 0880 8F080000 		.4byte	0x88f
 3782 0884 0B       		.uleb128 0xb
 3783 0885 60030000 		.4byte	0x360
 3784 0889 0B       		.uleb128 0xb
 3785 088a 60030000 		.4byte	0x360
 3786 088e 00       		.byte	0
 3787 088f 1A       		.uleb128 0x1a
 3788 0890 01       		.byte	0x1
 3789 0891 706F7700 		.ascii	"pow\000"
 3790 0895 06       		.byte	0x6
 3791 0896 8401     		.2byte	0x184
 3792 0898 03       		.byte	0x3
 3793 0899 5B3A0000 		.4byte	.LASF1669
 3794 089d E4000000 		.4byte	0xe4
 3795 08a1 01       		.byte	0x1
 3796 08a2 B1080000 		.4byte	0x8b1
 3797 08a6 0B       		.uleb128 0xb
 3798 08a7 E4000000 		.4byte	0xe4
 3799 08ab 0B       		.uleb128 0xb
 3800 08ac E4000000 		.4byte	0xe4
 3801 08b0 00       		.byte	0
 3802 08b1 1B       		.uleb128 0x1b
 3803 08b2 01       		.byte	0x1
 3804 08b3 ACB60000 		.4byte	.LASF1288
 3805 08b7 06       		.byte	0x6
 3806 08b8 D301     		.2byte	0x1d3
 3807 08ba 03       		.byte	0x3
 3808 08bb B3840000 		.4byte	.LASF1670
 3809 08bf 60030000 		.4byte	0x360
 3810 08c3 01       		.byte	0x1
 3811 08c4 CE080000 		.4byte	0x8ce
 3812 08c8 0B       		.uleb128 0xb
 3813 08c9 60030000 		.4byte	0x360
 3814 08cd 00       		.byte	0
 3815 08ce 1B       		.uleb128 0x1b
 3816 08cf 01       		.byte	0x1
 3817 08d0 ACB60000 		.4byte	.LASF1288
 3818 08d4 06       		.byte	0x6
 3819 08d5 CF01     		.2byte	0x1cf
 3820 08d7 03       		.byte	0x3
 3821 08d8 BE840000 		.4byte	.LASF1671
ARM GAS  C:\Users\30806\AppData\Local\Temp\ccYcD1nI.s 			page 72


 3822 08dc E4000000 		.4byte	0xe4
 3823 08e0 01       		.byte	0x1
 3824 08e1 EB080000 		.4byte	0x8eb
 3825 08e5 0B       		.uleb128 0xb
 3826 08e6 E4000000 		.4byte	0xe4
 3827 08ea 00       		.byte	0
 3828 08eb 19       		.uleb128 0x19
 3829 08ec 01       		.byte	0x1
 3830 08ed 00640000 		.4byte	.LASF1278
 3831 08f1 06       		.byte	0x6
 3832 08f2 A9       		.byte	0xa9
 3833 08f3 03       		.byte	0x3
 3834 08f4 F50F0000 		.4byte	.LASF1672
 3835 08f8 60030000 		.4byte	0x360
 3836 08fc 01       		.byte	0x1
 3837 08fd 07090000 		.4byte	0x907
 3838 0901 0B       		.uleb128 0xb
 3839 0902 60030000 		.4byte	0x360
 3840 0906 00       		.byte	0
 3841 0907 19       		.uleb128 0x19
 3842 0908 01       		.byte	0x1
 3843 0909 00640000 		.4byte	.LASF1278
 3844 090d 06       		.byte	0x6
 3845 090e A5       		.byte	0xa5
 3846 090f 03       		.byte	0x3
 3847 0910 DB320000 		.4byte	.LASF1673
 3848 0914 E4000000 		.4byte	0xe4
 3849 0918 01       		.byte	0x1
 3850 0919 23090000 		.4byte	0x923
 3851 091d 0B       		.uleb128 0xb
 3852 091e E4000000 		.4byte	0xe4
 3853 0922 00       		.byte	0
 3854 0923 19       		.uleb128 0x19
 3855 0924 01       		.byte	0x1
 3856 0925 36580000 		.4byte	.LASF1280
 3857 0929 06       		.byte	0x6
 3858 092a F5       		.byte	0xf5
 3859 092b 03       		.byte	0x3
 3860 092c D13D0000 		.4byte	.LASF1674
 3861 0930 60030000 		.4byte	0x360
 3862 0934 01       		.byte	0x1
 3863 0935 3F090000 		.4byte	0x93f
 3864 0939 0B       		.uleb128 0xb
 3865 093a 60030000 		.4byte	0x360
 3866 093e 00       		.byte	0
 3867 093f 19       		.uleb128 0x19
 3868 0940 01       		.byte	0x1
 3869 0941 36580000 		.4byte	.LASF1280
 3870 0945 06       		.byte	0x6
 3871 0946 F1       		.byte	0xf1
 3872 0947 03       		.byte	0x3
 3873 0948 DC3D0000 		.4byte	.LASF1675
 3874 094c E4000000 		.4byte	0xe4
 3875 0950 01       		.byte	0x1
 3876 0951 5B090000 		.4byte	0x95b
 3877 0955 0B       		.uleb128 0xb
 3878 0956 E4000000 		.4byte	0xe4
ARM GAS  C:\Users\30806\AppData\Local\Temp\ccYcD1nI.s 			page 73


 3879 095a 00       		.byte	0
 3880 095b 1B       		.uleb128 0x1b
 3881 095c 01       		.byte	0x1
 3882 095d 39170000 		.4byte	.LASF1281
 3883 0961 06       		.byte	0x6
 3884 0962 0801     		.2byte	0x108
 3885 0964 03       		.byte	0x3
 3886 0965 00100000 		.4byte	.LASF1676
 3887 0969 60030000 		.4byte	0x360
 3888 096d 01       		.byte	0x1
 3889 096e 78090000 		.4byte	0x978
 3890 0972 0B       		.uleb128 0xb
 3891 0973 60030000 		.4byte	0x360
 3892 0977 00       		.byte	0
 3893 0978 1B       		.uleb128 0x1b
 3894 0979 01       		.byte	0x1
 3895 097a 39170000 		.4byte	.LASF1281
 3896 097e 06       		.byte	0x6
 3897 097f 0401     		.2byte	0x104
 3898 0981 03       		.byte	0x3
 3899 0982 C88E0000 		.4byte	.LASF1677
 3900 0986 E4000000 		.4byte	0xe4
 3901 098a 01       		.byte	0x1
 3902 098b 95090000 		.4byte	0x995
 3903 098f 0B       		.uleb128 0xb
 3904 0990 E4000000 		.4byte	0xe4
 3905 0994 00       		.byte	0
 3906 0995 1B       		.uleb128 0x1b
 3907 0996 01       		.byte	0x1
 3908 0997 629C0000 		.4byte	.LASF1282
 3909 099b 06       		.byte	0x6
 3910 099c 1B01     		.2byte	0x11b
 3911 099e 03       		.byte	0x3
 3912 099f 366D0000 		.4byte	.LASF1678
 3913 09a3 60030000 		.4byte	0x360
 3914 09a7 01       		.byte	0x1
 3915 09a8 B7090000 		.4byte	0x9b7
 3916 09ac 0B       		.uleb128 0xb
 3917 09ad 60030000 		.4byte	0x360
 3918 09b1 0B       		.uleb128 0xb
 3919 09b2 60030000 		.4byte	0x360
 3920 09b6 00       		.byte	0
 3921 09b7 1B       		.uleb128 0x1b
 3922 09b8 01       		.byte	0x1
 3923 09b9 629C0000 		.4byte	.LASF1282
 3924 09bd 06       		.byte	0x6
 3925 09be 1701     		.2byte	0x117
 3926 09c0 03       		.byte	0x3
 3927 09c1 FE700000 		.4byte	.LASF1679
 3928 09c5 E4000000 		.4byte	0xe4
 3929 09c9 01       		.byte	0x1
 3930 09ca D9090000 		.4byte	0x9d9
 3931 09ce 0B       		.uleb128 0xb
 3932 09cf E4000000 		.4byte	0xe4
 3933 09d3 0B       		.uleb128 0xb
 3934 09d4 E4000000 		.4byte	0xe4
 3935 09d8 00       		.byte	0
ARM GAS  C:\Users\30806\AppData\Local\Temp\ccYcD1nI.s 			page 74


 3936 09d9 1B       		.uleb128 0x1b
 3937 09da 01       		.byte	0x1
 3938 09db A5540000 		.4byte	.LASF1290
 3939 09df 06       		.byte	0x6
 3940 09e0 2302     		.2byte	0x223
 3941 09e2 03       		.byte	0x3
 3942 09e3 F66C0000 		.4byte	.LASF1680
 3943 09e7 71000000 		.4byte	0x71
 3944 09eb 01       		.byte	0x1
 3945 09ec F6090000 		.4byte	0x9f6
 3946 09f0 0B       		.uleb128 0xb
 3947 09f1 60030000 		.4byte	0x360
 3948 09f5 00       		.byte	0
 3949 09f6 1B       		.uleb128 0x1b
 3950 09f7 01       		.byte	0x1
 3951 09f8 A5540000 		.4byte	.LASF1290
 3952 09fc 06       		.byte	0x6
 3953 09fd 1E02     		.2byte	0x21e
 3954 09ff 03       		.byte	0x3
 3955 0a00 E46C0000 		.4byte	.LASF1681
 3956 0a04 71000000 		.4byte	0x71
 3957 0a08 01       		.byte	0x1
 3958 0a09 130A0000 		.4byte	0xa13
 3959 0a0d 0B       		.uleb128 0xb
 3960 0a0e A5160000 		.4byte	0x16a5
 3961 0a12 00       		.byte	0
 3962 0a13 1B       		.uleb128 0x1b
 3963 0a14 01       		.byte	0x1
 3964 0a15 A5540000 		.4byte	.LASF1290
 3965 0a19 06       		.byte	0x6
 3966 0a1a 1902     		.2byte	0x219
 3967 0a1c 03       		.byte	0x3
 3968 0a1d 086D0000 		.4byte	.LASF1682
 3969 0a21 71000000 		.4byte	0x71
 3970 0a25 01       		.byte	0x1
 3971 0a26 300A0000 		.4byte	0xa30
 3972 0a2a 0B       		.uleb128 0xb
 3973 0a2b E4000000 		.4byte	0xe4
 3974 0a2f 00       		.byte	0
 3975 0a30 1B       		.uleb128 0x1b
 3976 0a31 01       		.byte	0x1
 3977 0a32 8DB30000 		.4byte	.LASF1291
 3978 0a36 06       		.byte	0x6
 3979 0a37 3A02     		.2byte	0x23a
 3980 0a39 03       		.byte	0x3
 3981 0a3a 971E0000 		.4byte	.LASF1683
 3982 0a3e 70180000 		.4byte	0x1870
 3983 0a42 01       		.byte	0x1
 3984 0a43 4D0A0000 		.4byte	0xa4d
 3985 0a47 0B       		.uleb128 0xb
 3986 0a48 60030000 		.4byte	0x360
 3987 0a4c 00       		.byte	0
 3988 0a4d 1B       		.uleb128 0x1b
 3989 0a4e 01       		.byte	0x1
 3990 0a4f 8DB30000 		.4byte	.LASF1291
 3991 0a53 06       		.byte	0x6
 3992 0a54 3602     		.2byte	0x236
ARM GAS  C:\Users\30806\AppData\Local\Temp\ccYcD1nI.s 			page 75


 3993 0a56 03       		.byte	0x3
 3994 0a57 8C410000 		.4byte	.LASF1684
 3995 0a5b 70180000 		.4byte	0x1870
 3996 0a5f 01       		.byte	0x1
 3997 0a60 6A0A0000 		.4byte	0xa6a
 3998 0a64 0B       		.uleb128 0xb
 3999 0a65 A5160000 		.4byte	0x16a5
 4000 0a69 00       		.byte	0
 4001 0a6a 1B       		.uleb128 0x1b
 4002 0a6b 01       		.byte	0x1
 4003 0a6c 8DB30000 		.4byte	.LASF1291
 4004 0a70 06       		.byte	0x6
 4005 0a71 3202     		.2byte	0x232
 4006 0a73 03       		.byte	0x3
 4007 0a74 A61E0000 		.4byte	.LASF1685
 4008 0a78 70180000 		.4byte	0x1870
 4009 0a7c 01       		.byte	0x1
 4010 0a7d 870A0000 		.4byte	0xa87
 4011 0a81 0B       		.uleb128 0xb
 4012 0a82 E4000000 		.4byte	0xe4
 4013 0a86 00       		.byte	0
 4014 0a87 1B       		.uleb128 0x1b
 4015 0a88 01       		.byte	0x1
 4016 0a89 6F230000 		.4byte	.LASF1292
 4017 0a8d 06       		.byte	0x6
 4018 0a8e 5502     		.2byte	0x255
 4019 0a90 03       		.byte	0x3
 4020 0a91 BB1A0000 		.4byte	.LASF1686
 4021 0a95 70180000 		.4byte	0x1870
 4022 0a99 01       		.byte	0x1
 4023 0a9a A40A0000 		.4byte	0xaa4
 4024 0a9e 0B       		.uleb128 0xb
 4025 0a9f 60030000 		.4byte	0x360
 4026 0aa3 00       		.byte	0
 4027 0aa4 1B       		.uleb128 0x1b
 4028 0aa5 01       		.byte	0x1
 4029 0aa6 6F230000 		.4byte	.LASF1292
 4030 0aaa 06       		.byte	0x6
 4031 0aab 5002     		.2byte	0x250
 4032 0aad 03       		.byte	0x3
 4033 0aae AF1A0000 		.4byte	.LASF1687
 4034 0ab2 70180000 		.4byte	0x1870
 4035 0ab6 01       		.byte	0x1
 4036 0ab7 C10A0000 		.4byte	0xac1
 4037 0abb 0B       		.uleb128 0xb
 4038 0abc A5160000 		.4byte	0x16a5
 4039 0ac0 00       		.byte	0
 4040 0ac1 1B       		.uleb128 0x1b
 4041 0ac2 01       		.byte	0x1
 4042 0ac3 6F230000 		.4byte	.LASF1292
 4043 0ac7 06       		.byte	0x6
 4044 0ac8 4802     		.2byte	0x248
 4045 0aca 03       		.byte	0x3
 4046 0acb C71A0000 		.4byte	.LASF1688
 4047 0acf 70180000 		.4byte	0x1870
 4048 0ad3 01       		.byte	0x1
 4049 0ad4 DE0A0000 		.4byte	0xade
ARM GAS  C:\Users\30806\AppData\Local\Temp\ccYcD1nI.s 			page 76


 4050 0ad8 0B       		.uleb128 0xb
 4051 0ad9 E4000000 		.4byte	0xe4
 4052 0add 00       		.byte	0
 4053 0ade 1B       		.uleb128 0x1b
 4054 0adf 01       		.byte	0x1
 4055 0ae0 A4580000 		.4byte	.LASF1293
 4056 0ae4 06       		.byte	0x6
 4057 0ae5 7002     		.2byte	0x270
 4058 0ae7 03       		.byte	0x3
 4059 0ae8 A3510000 		.4byte	.LASF1689
 4060 0aec 70180000 		.4byte	0x1870
 4061 0af0 01       		.byte	0x1
 4062 0af1 FB0A0000 		.4byte	0xafb
 4063 0af5 0B       		.uleb128 0xb
 4064 0af6 60030000 		.4byte	0x360
 4065 0afa 00       		.byte	0
 4066 0afb 1B       		.uleb128 0x1b
 4067 0afc 01       		.byte	0x1
 4068 0afd A4580000 		.4byte	.LASF1293
 4069 0b01 06       		.byte	0x6
 4070 0b02 6B02     		.2byte	0x26b
 4071 0b04 03       		.byte	0x3
 4072 0b05 97510000 		.4byte	.LASF1690
 4073 0b09 70180000 		.4byte	0x1870
 4074 0b0d 01       		.byte	0x1
 4075 0b0e 180B0000 		.4byte	0xb18
 4076 0b12 0B       		.uleb128 0xb
 4077 0b13 A5160000 		.4byte	0x16a5
 4078 0b17 00       		.byte	0
 4079 0b18 1B       		.uleb128 0x1b
 4080 0b19 01       		.byte	0x1
 4081 0b1a A4580000 		.4byte	.LASF1293
 4082 0b1e 06       		.byte	0x6
 4083 0b1f 6302     		.2byte	0x263
 4084 0b21 03       		.byte	0x3
 4085 0b22 AF510000 		.4byte	.LASF1691
 4086 0b26 70180000 		.4byte	0x1870
 4087 0b2a 01       		.byte	0x1
 4088 0b2b 350B0000 		.4byte	0xb35
 4089 0b2f 0B       		.uleb128 0xb
 4090 0b30 E4000000 		.4byte	0xe4
 4091 0b34 00       		.byte	0
 4092 0b35 1B       		.uleb128 0x1b
 4093 0b36 01       		.byte	0x1
 4094 0b37 C4770000 		.4byte	.LASF1294
 4095 0b3b 06       		.byte	0x6
 4096 0b3c 8602     		.2byte	0x286
 4097 0b3e 03       		.byte	0x3
 4098 0b3f 45140000 		.4byte	.LASF1692
 4099 0b43 70180000 		.4byte	0x1870
 4100 0b47 01       		.byte	0x1
 4101 0b48 520B0000 		.4byte	0xb52
 4102 0b4c 0B       		.uleb128 0xb
 4103 0b4d 60030000 		.4byte	0x360
 4104 0b51 00       		.byte	0
 4105 0b52 1B       		.uleb128 0x1b
 4106 0b53 01       		.byte	0x1
ARM GAS  C:\Users\30806\AppData\Local\Temp\ccYcD1nI.s 			page 77


 4107 0b54 C4770000 		.4byte	.LASF1294
 4108 0b58 06       		.byte	0x6
 4109 0b59 8202     		.2byte	0x282
 4110 0b5b 03       		.byte	0x3
 4111 0b5c 36140000 		.4byte	.LASF1693
 4112 0b60 70180000 		.4byte	0x1870
 4113 0b64 01       		.byte	0x1
 4114 0b65 6F0B0000 		.4byte	0xb6f
 4115 0b69 0B       		.uleb128 0xb
 4116 0b6a A5160000 		.4byte	0x16a5
 4117 0b6e 00       		.byte	0
 4118 0b6f 1B       		.uleb128 0x1b
 4119 0b70 01       		.byte	0x1
 4120 0b71 C4770000 		.4byte	.LASF1294
 4121 0b75 06       		.byte	0x6
 4122 0b76 7E02     		.2byte	0x27e
 4123 0b78 03       		.byte	0x3
 4124 0b79 54140000 		.4byte	.LASF1694
 4125 0b7d 70180000 		.4byte	0x1870
 4126 0b81 01       		.byte	0x1
 4127 0b82 8C0B0000 		.4byte	0xb8c
 4128 0b86 0B       		.uleb128 0xb
 4129 0b87 E4000000 		.4byte	0xe4
 4130 0b8b 00       		.byte	0
 4131 0b8c 1B       		.uleb128 0x1b
 4132 0b8d 01       		.byte	0x1
 4133 0b8e F70C0000 		.4byte	.LASF1295
 4134 0b92 06       		.byte	0x6
 4135 0b93 9D02     		.2byte	0x29d
 4136 0b95 03       		.byte	0x3
 4137 0b96 041B0000 		.4byte	.LASF1695
 4138 0b9a 70180000 		.4byte	0x1870
 4139 0b9e 01       		.byte	0x1
 4140 0b9f A90B0000 		.4byte	0xba9
 4141 0ba3 0B       		.uleb128 0xb
 4142 0ba4 60030000 		.4byte	0x360
 4143 0ba8 00       		.byte	0
 4144 0ba9 1B       		.uleb128 0x1b
 4145 0baa 01       		.byte	0x1
 4146 0bab F70C0000 		.4byte	.LASF1295
 4147 0baf 06       		.byte	0x6
 4148 0bb0 9902     		.2byte	0x299
 4149 0bb2 03       		.byte	0x3
 4150 0bb3 F61A0000 		.4byte	.LASF1696
 4151 0bb7 70180000 		.4byte	0x1870
 4152 0bbb 01       		.byte	0x1
 4153 0bbc C60B0000 		.4byte	0xbc6
 4154 0bc0 0B       		.uleb128 0xb
 4155 0bc1 A5160000 		.4byte	0x16a5
 4156 0bc5 00       		.byte	0
 4157 0bc6 1B       		.uleb128 0x1b
 4158 0bc7 01       		.byte	0x1
 4159 0bc8 F70C0000 		.4byte	.LASF1295
 4160 0bcc 06       		.byte	0x6
 4161 0bcd 9502     		.2byte	0x295
 4162 0bcf 03       		.byte	0x3
 4163 0bd0 121B0000 		.4byte	.LASF1697
ARM GAS  C:\Users\30806\AppData\Local\Temp\ccYcD1nI.s 			page 78


 4164 0bd4 70180000 		.4byte	0x1870
 4165 0bd8 01       		.byte	0x1
 4166 0bd9 E30B0000 		.4byte	0xbe3
 4167 0bdd 0B       		.uleb128 0xb
 4168 0bde E4000000 		.4byte	0xe4
 4169 0be2 00       		.byte	0
 4170 0be3 1B       		.uleb128 0x1b
 4171 0be4 01       		.byte	0x1
 4172 0be5 B50B0000 		.4byte	.LASF1296
 4173 0be9 06       		.byte	0x6
 4174 0bea B302     		.2byte	0x2b3
 4175 0bec 03       		.byte	0x3
 4176 0bed E4400000 		.4byte	.LASF1698
 4177 0bf1 70180000 		.4byte	0x1870
 4178 0bf5 01       		.byte	0x1
 4179 0bf6 050C0000 		.4byte	0xc05
 4180 0bfa 0B       		.uleb128 0xb
 4181 0bfb 60030000 		.4byte	0x360
 4182 0bff 0B       		.uleb128 0xb
 4183 0c00 60030000 		.4byte	0x360
 4184 0c04 00       		.byte	0
 4185 0c05 1B       		.uleb128 0x1b
 4186 0c06 01       		.byte	0x1
 4187 0c07 B50B0000 		.4byte	.LASF1296
 4188 0c0b 06       		.byte	0x6
 4189 0c0c AF02     		.2byte	0x2af
 4190 0c0e 03       		.byte	0x3
 4191 0c0f 293B0000 		.4byte	.LASF1699
 4192 0c13 70180000 		.4byte	0x1870
 4193 0c17 01       		.byte	0x1
 4194 0c18 270C0000 		.4byte	0xc27
 4195 0c1c 0B       		.uleb128 0xb
 4196 0c1d A5160000 		.4byte	0x16a5
 4197 0c21 0B       		.uleb128 0xb
 4198 0c22 A5160000 		.4byte	0x16a5
 4199 0c26 00       		.byte	0
 4200 0c27 1B       		.uleb128 0x1b
 4201 0c28 01       		.byte	0x1
 4202 0c29 B50B0000 		.4byte	.LASF1296
 4203 0c2d 06       		.byte	0x6
 4204 0c2e AB02     		.2byte	0x2ab
 4205 0c30 03       		.byte	0x3
 4206 0c31 97430000 		.4byte	.LASF1700
 4207 0c35 70180000 		.4byte	0x1870
 4208 0c39 01       		.byte	0x1
 4209 0c3a 490C0000 		.4byte	0xc49
 4210 0c3e 0B       		.uleb128 0xb
 4211 0c3f E4000000 		.4byte	0xe4
 4212 0c43 0B       		.uleb128 0xb
 4213 0c44 E4000000 		.4byte	0xe4
 4214 0c48 00       		.byte	0
 4215 0c49 1B       		.uleb128 0x1b
 4216 0c4a 01       		.byte	0x1
 4217 0c4b 7C8A0000 		.4byte	.LASF1297
 4218 0c4f 06       		.byte	0x6
 4219 0c50 CD02     		.2byte	0x2cd
 4220 0c52 03       		.byte	0x3
ARM GAS  C:\Users\30806\AppData\Local\Temp\ccYcD1nI.s 			page 79


 4221 0c53 E73D0000 		.4byte	.LASF1701
 4222 0c57 70180000 		.4byte	0x1870
 4223 0c5b 01       		.byte	0x1
 4224 0c5c 6B0C0000 		.4byte	0xc6b
 4225 0c60 0B       		.uleb128 0xb
 4226 0c61 60030000 		.4byte	0x360
 4227 0c65 0B       		.uleb128 0xb
 4228 0c66 60030000 		.4byte	0x360
 4229 0c6a 00       		.byte	0
 4230 0c6b 1B       		.uleb128 0x1b
 4231 0c6c 01       		.byte	0x1
 4232 0c6d 7C8A0000 		.4byte	.LASF1297
 4233 0c71 06       		.byte	0x6
 4234 0c72 C902     		.2byte	0x2c9
 4235 0c74 03       		.byte	0x3
 4236 0c75 50390000 		.4byte	.LASF1702
 4237 0c79 70180000 		.4byte	0x1870
 4238 0c7d 01       		.byte	0x1
 4239 0c7e 8D0C0000 		.4byte	0xc8d
 4240 0c82 0B       		.uleb128 0xb
 4241 0c83 A5160000 		.4byte	0x16a5
 4242 0c87 0B       		.uleb128 0xb
 4243 0c88 A5160000 		.4byte	0x16a5
 4244 0c8c 00       		.byte	0
 4245 0c8d 1B       		.uleb128 0x1b
 4246 0c8e 01       		.byte	0x1
 4247 0c8f 7C8A0000 		.4byte	.LASF1297
 4248 0c93 06       		.byte	0x6
 4249 0c94 C502     		.2byte	0x2c5
 4250 0c96 03       		.byte	0x3
 4251 0c97 49420000 		.4byte	.LASF1703
 4252 0c9b 70180000 		.4byte	0x1870
 4253 0c9f 01       		.byte	0x1
 4254 0ca0 AF0C0000 		.4byte	0xcaf
 4255 0ca4 0B       		.uleb128 0xb
 4256 0ca5 E4000000 		.4byte	0xe4
 4257 0ca9 0B       		.uleb128 0xb
 4258 0caa E4000000 		.4byte	0xe4
 4259 0cae 00       		.byte	0
 4260 0caf 1B       		.uleb128 0x1b
 4261 0cb0 01       		.byte	0x1
 4262 0cb1 7F8C0000 		.4byte	.LASF1298
 4263 0cb5 06       		.byte	0x6
 4264 0cb6 E702     		.2byte	0x2e7
 4265 0cb8 03       		.byte	0x3
 4266 0cb9 13630000 		.4byte	.LASF1704
 4267 0cbd 70180000 		.4byte	0x1870
 4268 0cc1 01       		.byte	0x1
 4269 0cc2 D10C0000 		.4byte	0xcd1
 4270 0cc6 0B       		.uleb128 0xb
 4271 0cc7 60030000 		.4byte	0x360
 4272 0ccb 0B       		.uleb128 0xb
 4273 0ccc 60030000 		.4byte	0x360
 4274 0cd0 00       		.byte	0
 4275 0cd1 1B       		.uleb128 0x1b
 4276 0cd2 01       		.byte	0x1
 4277 0cd3 7F8C0000 		.4byte	.LASF1298
ARM GAS  C:\Users\30806\AppData\Local\Temp\ccYcD1nI.s 			page 80


 4278 0cd7 06       		.byte	0x6
 4279 0cd8 E302     		.2byte	0x2e3
 4280 0cda 03       		.byte	0x3
 4281 0cdb DB5F0000 		.4byte	.LASF1705
 4282 0cdf 70180000 		.4byte	0x1870
 4283 0ce3 01       		.byte	0x1
 4284 0ce4 F30C0000 		.4byte	0xcf3
 4285 0ce8 0B       		.uleb128 0xb
 4286 0ce9 A5160000 		.4byte	0x16a5
 4287 0ced 0B       		.uleb128 0xb
 4288 0cee A5160000 		.4byte	0x16a5
 4289 0cf2 00       		.byte	0
 4290 0cf3 1B       		.uleb128 0x1b
 4291 0cf4 01       		.byte	0x1
 4292 0cf5 7F8C0000 		.4byte	.LASF1298
 4293 0cf9 06       		.byte	0x6
 4294 0cfa DF02     		.2byte	0x2df
 4295 0cfc 03       		.byte	0x3
 4296 0cfd 94650000 		.4byte	.LASF1706
 4297 0d01 70180000 		.4byte	0x1870
 4298 0d05 01       		.byte	0x1
 4299 0d06 150D0000 		.4byte	0xd15
 4300 0d0a 0B       		.uleb128 0xb
 4301 0d0b E4000000 		.4byte	0xe4
 4302 0d0f 0B       		.uleb128 0xb
 4303 0d10 E4000000 		.4byte	0xe4
 4304 0d14 00       		.byte	0
 4305 0d15 1B       		.uleb128 0x1b
 4306 0d16 01       		.byte	0x1
 4307 0d17 C46A0000 		.4byte	.LASF1299
 4308 0d1b 06       		.byte	0x6
 4309 0d1c 0103     		.2byte	0x301
 4310 0d1e 03       		.byte	0x3
 4311 0d1f E3410000 		.4byte	.LASF1707
 4312 0d23 70180000 		.4byte	0x1870
 4313 0d27 01       		.byte	0x1
 4314 0d28 370D0000 		.4byte	0xd37
 4315 0d2c 0B       		.uleb128 0xb
 4316 0d2d 60030000 		.4byte	0x360
 4317 0d31 0B       		.uleb128 0xb
 4318 0d32 60030000 		.4byte	0x360
 4319 0d36 00       		.byte	0
 4320 0d37 1B       		.uleb128 0x1b
 4321 0d38 01       		.byte	0x1
 4322 0d39 C46A0000 		.4byte	.LASF1299
 4323 0d3d 06       		.byte	0x6
 4324 0d3e FD02     		.2byte	0x2fd
 4325 0d40 03       		.byte	0x3
 4326 0d41 45900000 		.4byte	.LASF1708
 4327 0d45 70180000 		.4byte	0x1870
 4328 0d49 01       		.byte	0x1
 4329 0d4a 590D0000 		.4byte	0xd59
 4330 0d4e 0B       		.uleb128 0xb
 4331 0d4f A5160000 		.4byte	0x16a5
 4332 0d53 0B       		.uleb128 0xb
 4333 0d54 A5160000 		.4byte	0x16a5
 4334 0d58 00       		.byte	0
ARM GAS  C:\Users\30806\AppData\Local\Temp\ccYcD1nI.s 			page 81


 4335 0d59 1B       		.uleb128 0x1b
 4336 0d5a 01       		.byte	0x1
 4337 0d5b C46A0000 		.4byte	.LASF1299
 4338 0d5f 06       		.byte	0x6
 4339 0d60 F902     		.2byte	0x2f9
 4340 0d62 03       		.byte	0x3
 4341 0d63 42960000 		.4byte	.LASF1709
 4342 0d67 70180000 		.4byte	0x1870
 4343 0d6b 01       		.byte	0x1
 4344 0d6c 7B0D0000 		.4byte	0xd7b
 4345 0d70 0B       		.uleb128 0xb
 4346 0d71 E4000000 		.4byte	0xe4
 4347 0d75 0B       		.uleb128 0xb
 4348 0d76 E4000000 		.4byte	0xe4
 4349 0d7a 00       		.byte	0
 4350 0d7b 1B       		.uleb128 0x1b
 4351 0d7c 01       		.byte	0x1
 4352 0d7d C97D0000 		.4byte	.LASF1300
 4353 0d81 06       		.byte	0x6
 4354 0d82 1B03     		.2byte	0x31b
 4355 0d84 03       		.byte	0x3
 4356 0d85 01040000 		.4byte	.LASF1710
 4357 0d89 70180000 		.4byte	0x1870
 4358 0d8d 01       		.byte	0x1
 4359 0d8e 9D0D0000 		.4byte	0xd9d
 4360 0d92 0B       		.uleb128 0xb
 4361 0d93 60030000 		.4byte	0x360
 4362 0d97 0B       		.uleb128 0xb
 4363 0d98 60030000 		.4byte	0x360
 4364 0d9c 00       		.byte	0
 4365 0d9d 1B       		.uleb128 0x1b
 4366 0d9e 01       		.byte	0x1
 4367 0d9f C97D0000 		.4byte	.LASF1300
 4368 0da3 06       		.byte	0x6
 4369 0da4 1703     		.2byte	0x317
 4370 0da6 03       		.byte	0x3
 4371 0da7 F8000000 		.4byte	.LASF1711
 4372 0dab 70180000 		.4byte	0x1870
 4373 0daf 01       		.byte	0x1
 4374 0db0 BF0D0000 		.4byte	0xdbf
 4375 0db4 0B       		.uleb128 0xb
 4376 0db5 A5160000 		.4byte	0x16a5
 4377 0db9 0B       		.uleb128 0xb
 4378 0dba A5160000 		.4byte	0x16a5
 4379 0dbe 00       		.byte	0
 4380 0dbf 1B       		.uleb128 0x1b
 4381 0dc0 01       		.byte	0x1
 4382 0dc1 C97D0000 		.4byte	.LASF1300
 4383 0dc5 06       		.byte	0x6
 4384 0dc6 1303     		.2byte	0x313
 4385 0dc8 03       		.byte	0x3
 4386 0dc9 86360000 		.4byte	.LASF1712
 4387 0dcd 70180000 		.4byte	0x1870
 4388 0dd1 01       		.byte	0x1
 4389 0dd2 E10D0000 		.4byte	0xde1
 4390 0dd6 0B       		.uleb128 0xb
 4391 0dd7 E4000000 		.4byte	0xe4
ARM GAS  C:\Users\30806\AppData\Local\Temp\ccYcD1nI.s 			page 82


 4392 0ddb 0B       		.uleb128 0xb
 4393 0ddc E4000000 		.4byte	0xe4
 4394 0de0 00       		.byte	0
 4395 0de1 1B       		.uleb128 0x1b
 4396 0de2 01       		.byte	0x1
 4397 0de3 E60A0000 		.4byte	.LASF1301
 4398 0de7 06       		.byte	0x6
 4399 0de8 3503     		.2byte	0x335
 4400 0dea 03       		.byte	0x3
 4401 0deb 0C7C0000 		.4byte	.LASF1713
 4402 0def 70180000 		.4byte	0x1870
 4403 0df3 01       		.byte	0x1
 4404 0df4 030E0000 		.4byte	0xe03
 4405 0df8 0B       		.uleb128 0xb
 4406 0df9 60030000 		.4byte	0x360
 4407 0dfd 0B       		.uleb128 0xb
 4408 0dfe 60030000 		.4byte	0x360
 4409 0e02 00       		.byte	0
 4410 0e03 1B       		.uleb128 0x1b
 4411 0e04 01       		.byte	0x1
 4412 0e05 E60A0000 		.4byte	.LASF1301
 4413 0e09 06       		.byte	0x6
 4414 0e0a 3103     		.2byte	0x331
 4415 0e0c 03       		.byte	0x3
 4416 0e0d C3A10000 		.4byte	.LASF1714
 4417 0e11 70180000 		.4byte	0x1870
 4418 0e15 01       		.byte	0x1
 4419 0e16 250E0000 		.4byte	0xe25
 4420 0e1a 0B       		.uleb128 0xb
 4421 0e1b A5160000 		.4byte	0x16a5
 4422 0e1f 0B       		.uleb128 0xb
 4423 0e20 A5160000 		.4byte	0x16a5
 4424 0e24 00       		.byte	0
 4425 0e25 1B       		.uleb128 0x1b
 4426 0e26 01       		.byte	0x1
 4427 0e27 E60A0000 		.4byte	.LASF1301
 4428 0e2b 06       		.byte	0x6
 4429 0e2c 2D03     		.2byte	0x32d
 4430 0e2e 03       		.byte	0x3
 4431 0e2f 127F0000 		.4byte	.LASF1715
 4432 0e33 70180000 		.4byte	0x1870
 4433 0e37 01       		.byte	0x1
 4434 0e38 470E0000 		.4byte	0xe47
 4435 0e3c 0B       		.uleb128 0xb
 4436 0e3d E4000000 		.4byte	0xe4
 4437 0e41 0B       		.uleb128 0xb
 4438 0e42 E4000000 		.4byte	0xe4
 4439 0e46 00       		.byte	0
 4440 0e47 1B       		.uleb128 0x1b
 4441 0e48 01       		.byte	0x1
 4442 0e49 297A0000 		.4byte	.LASF1302
 4443 0e4d 06       		.byte	0x6
 4444 0e4e C204     		.2byte	0x4c2
 4445 0e50 03       		.byte	0x3
 4446 0e51 9B410000 		.4byte	.LASF1716
 4447 0e55 60030000 		.4byte	0x360
 4448 0e59 01       		.byte	0x1
ARM GAS  C:\Users\30806\AppData\Local\Temp\ccYcD1nI.s 			page 83


 4449 0e5a 640E0000 		.4byte	0xe64
 4450 0e5e 0B       		.uleb128 0xb
 4451 0e5f 60030000 		.4byte	0x360
 4452 0e63 00       		.byte	0
 4453 0e64 1B       		.uleb128 0x1b
 4454 0e65 01       		.byte	0x1
 4455 0e66 297A0000 		.4byte	.LASF1302
 4456 0e6a 06       		.byte	0x6
 4457 0e6b BE04     		.2byte	0x4be
 4458 0e6d 03       		.byte	0x3
 4459 0e6e 06350000 		.4byte	.LASF1717
 4460 0e72 E4000000 		.4byte	0xe4
 4461 0e76 01       		.byte	0x1
 4462 0e77 810E0000 		.4byte	0xe81
 4463 0e7b 0B       		.uleb128 0xb
 4464 0e7c E4000000 		.4byte	0xe4
 4465 0e80 00       		.byte	0
 4466 0e81 1B       		.uleb128 0x1b
 4467 0e82 01       		.byte	0x1
 4468 0e83 12840000 		.4byte	.LASF1305
 4469 0e87 06       		.byte	0x6
 4470 0e88 D404     		.2byte	0x4d4
 4471 0e8a 03       		.byte	0x3
 4472 0e8b 13500000 		.4byte	.LASF1718
 4473 0e8f 60030000 		.4byte	0x360
 4474 0e93 01       		.byte	0x1
 4475 0e94 9E0E0000 		.4byte	0xe9e
 4476 0e98 0B       		.uleb128 0xb
 4477 0e99 60030000 		.4byte	0x360
 4478 0e9d 00       		.byte	0
 4479 0e9e 1B       		.uleb128 0x1b
 4480 0e9f 01       		.byte	0x1
 4481 0ea0 12840000 		.4byte	.LASF1305
 4482 0ea4 06       		.byte	0x6
 4483 0ea5 D004     		.2byte	0x4d0
 4484 0ea7 03       		.byte	0x3
 4485 0ea8 1F500000 		.4byte	.LASF1719
 4486 0eac E4000000 		.4byte	0xe4
 4487 0eb0 01       		.byte	0x1
 4488 0eb1 BB0E0000 		.4byte	0xebb
 4489 0eb5 0B       		.uleb128 0xb
 4490 0eb6 E4000000 		.4byte	0xe4
 4491 0eba 00       		.byte	0
 4492 0ebb 1B       		.uleb128 0x1b
 4493 0ebc 01       		.byte	0x1
 4494 0ebd BD480000 		.4byte	.LASF1308
 4495 0ec1 06       		.byte	0x6
 4496 0ec2 E604     		.2byte	0x4e6
 4497 0ec4 03       		.byte	0x3
 4498 0ec5 DFA40000 		.4byte	.LASF1720
 4499 0ec9 60030000 		.4byte	0x360
 4500 0ecd 01       		.byte	0x1
 4501 0ece D80E0000 		.4byte	0xed8
 4502 0ed2 0B       		.uleb128 0xb
 4503 0ed3 60030000 		.4byte	0x360
 4504 0ed7 00       		.byte	0
 4505 0ed8 1B       		.uleb128 0x1b
ARM GAS  C:\Users\30806\AppData\Local\Temp\ccYcD1nI.s 			page 84


 4506 0ed9 01       		.byte	0x1
 4507 0eda BD480000 		.4byte	.LASF1308
 4508 0ede 06       		.byte	0x6
 4509 0edf E204     		.2byte	0x4e2
 4510 0ee1 03       		.byte	0x3
 4511 0ee2 EBA40000 		.4byte	.LASF1721
 4512 0ee6 E4000000 		.4byte	0xe4
 4513 0eea 01       		.byte	0x1
 4514 0eeb F50E0000 		.4byte	0xef5
 4515 0eef 0B       		.uleb128 0xb
 4516 0ef0 E4000000 		.4byte	0xe4
 4517 0ef4 00       		.byte	0
 4518 0ef5 1B       		.uleb128 0x1b
 4519 0ef6 01       		.byte	0x1
 4520 0ef7 A4440000 		.4byte	.LASF1311
 4521 0efb 06       		.byte	0x6
 4522 0efc F804     		.2byte	0x4f8
 4523 0efe 03       		.byte	0x3
 4524 0eff 14550000 		.4byte	.LASF1722
 4525 0f03 60030000 		.4byte	0x360
 4526 0f07 01       		.byte	0x1
 4527 0f08 120F0000 		.4byte	0xf12
 4528 0f0c 0B       		.uleb128 0xb
 4529 0f0d 60030000 		.4byte	0x360
 4530 0f11 00       		.byte	0
 4531 0f12 1B       		.uleb128 0x1b
 4532 0f13 01       		.byte	0x1
 4533 0f14 A4440000 		.4byte	.LASF1311
 4534 0f18 06       		.byte	0x6
 4535 0f19 F404     		.2byte	0x4f4
 4536 0f1b 03       		.byte	0x3
 4537 0f1c 1F550000 		.4byte	.LASF1723
 4538 0f20 E4000000 		.4byte	0xe4
 4539 0f24 01       		.byte	0x1
 4540 0f25 2F0F0000 		.4byte	0xf2f
 4541 0f29 0B       		.uleb128 0xb
 4542 0f2a E4000000 		.4byte	0xe4
 4543 0f2e 00       		.byte	0
 4544 0f2f 1B       		.uleb128 0x1b
 4545 0f30 01       		.byte	0x1
 4546 0f31 B95D0000 		.4byte	.LASF1314
 4547 0f35 06       		.byte	0x6
 4548 0f36 0A05     		.2byte	0x50a
 4549 0f38 03       		.byte	0x3
 4550 0f39 B3990000 		.4byte	.LASF1724
 4551 0f3d 60030000 		.4byte	0x360
 4552 0f41 01       		.byte	0x1
 4553 0f42 510F0000 		.4byte	0xf51
 4554 0f46 0B       		.uleb128 0xb
 4555 0f47 60030000 		.4byte	0x360
 4556 0f4b 0B       		.uleb128 0xb
 4557 0f4c 60030000 		.4byte	0x360
 4558 0f50 00       		.byte	0
 4559 0f51 1B       		.uleb128 0x1b
 4560 0f52 01       		.byte	0x1
 4561 0f53 B95D0000 		.4byte	.LASF1314
 4562 0f57 06       		.byte	0x6
ARM GAS  C:\Users\30806\AppData\Local\Temp\ccYcD1nI.s 			page 85


 4563 0f58 0605     		.2byte	0x506
 4564 0f5a 03       		.byte	0x3
 4565 0f5b B69B0000 		.4byte	.LASF1725
 4566 0f5f E4000000 		.4byte	0xe4
 4567 0f63 01       		.byte	0x1
 4568 0f64 730F0000 		.4byte	0xf73
 4569 0f68 0B       		.uleb128 0xb
 4570 0f69 E4000000 		.4byte	0xe4
 4571 0f6d 0B       		.uleb128 0xb
 4572 0f6e E4000000 		.4byte	0xe4
 4573 0f72 00       		.byte	0
 4574 0f73 1A       		.uleb128 0x1a
 4575 0f74 01       		.byte	0x1
 4576 0f75 65726600 		.ascii	"erf\000"
 4577 0f79 06       		.byte	0x6
 4578 0f7a 1E05     		.2byte	0x51e
 4579 0f7c 03       		.byte	0x3
 4580 0f7d 979F0000 		.4byte	.LASF1726
 4581 0f81 60030000 		.4byte	0x360
 4582 0f85 01       		.byte	0x1
 4583 0f86 900F0000 		.4byte	0xf90
 4584 0f8a 0B       		.uleb128 0xb
 4585 0f8b 60030000 		.4byte	0x360
 4586 0f8f 00       		.byte	0
 4587 0f90 1A       		.uleb128 0x1a
 4588 0f91 01       		.byte	0x1
 4589 0f92 65726600 		.ascii	"erf\000"
 4590 0f96 06       		.byte	0x6
 4591 0f97 1A05     		.2byte	0x51a
 4592 0f99 03       		.byte	0x3
 4593 0f9a 32B30000 		.4byte	.LASF1727
 4594 0f9e E4000000 		.4byte	0xe4
 4595 0fa2 01       		.byte	0x1
 4596 0fa3 AD0F0000 		.4byte	0xfad
 4597 0fa7 0B       		.uleb128 0xb
 4598 0fa8 E4000000 		.4byte	0xe4
 4599 0fac 00       		.byte	0
 4600 0fad 1B       		.uleb128 0x1b
 4601 0fae 01       		.byte	0x1
 4602 0faf F2830000 		.4byte	.LASF1319
 4603 0fb3 06       		.byte	0x6
 4604 0fb4 3005     		.2byte	0x530
 4605 0fb6 03       		.byte	0x3
 4606 0fb7 55410000 		.4byte	.LASF1728
 4607 0fbb 60030000 		.4byte	0x360
 4608 0fbf 01       		.byte	0x1
 4609 0fc0 CA0F0000 		.4byte	0xfca
 4610 0fc4 0B       		.uleb128 0xb
 4611 0fc5 60030000 		.4byte	0x360
 4612 0fc9 00       		.byte	0
 4613 0fca 1B       		.uleb128 0x1b
 4614 0fcb 01       		.byte	0x1
 4615 0fcc F2830000 		.4byte	.LASF1319
 4616 0fd0 06       		.byte	0x6
 4617 0fd1 2C05     		.2byte	0x52c
 4618 0fd3 03       		.byte	0x3
 4619 0fd4 60410000 		.4byte	.LASF1729
ARM GAS  C:\Users\30806\AppData\Local\Temp\ccYcD1nI.s 			page 86


 4620 0fd8 E4000000 		.4byte	0xe4
 4621 0fdc 01       		.byte	0x1
 4622 0fdd E70F0000 		.4byte	0xfe7
 4623 0fe1 0B       		.uleb128 0xb
 4624 0fe2 E4000000 		.4byte	0xe4
 4625 0fe6 00       		.byte	0
 4626 0fe7 1B       		.uleb128 0x1b
 4627 0fe8 01       		.byte	0x1
 4628 0fe9 9D4F0000 		.4byte	.LASF1322
 4629 0fed 06       		.byte	0x6
 4630 0fee 4205     		.2byte	0x542
 4631 0ff0 03       		.byte	0x3
 4632 0ff1 7E4D0000 		.4byte	.LASF1730
 4633 0ff5 60030000 		.4byte	0x360
 4634 0ff9 01       		.byte	0x1
 4635 0ffa 04100000 		.4byte	0x1004
 4636 0ffe 0B       		.uleb128 0xb
 4637 0fff 60030000 		.4byte	0x360
 4638 1003 00       		.byte	0
 4639 1004 1B       		.uleb128 0x1b
 4640 1005 01       		.byte	0x1
 4641 1006 9D4F0000 		.4byte	.LASF1322
 4642 100a 06       		.byte	0x6
 4643 100b 3E05     		.2byte	0x53e
 4644 100d 03       		.byte	0x3
 4645 100e 894D0000 		.4byte	.LASF1731
 4646 1012 E4000000 		.4byte	0xe4
 4647 1016 01       		.byte	0x1
 4648 1017 21100000 		.4byte	0x1021
 4649 101b 0B       		.uleb128 0xb
 4650 101c E4000000 		.4byte	0xe4
 4651 1020 00       		.byte	0
 4652 1021 1B       		.uleb128 0x1b
 4653 1022 01       		.byte	0x1
 4654 1023 64000000 		.4byte	.LASF1325
 4655 1027 06       		.byte	0x6
 4656 1028 5405     		.2byte	0x554
 4657 102a 03       		.byte	0x3
 4658 102b 1D8E0000 		.4byte	.LASF1732
 4659 102f 60030000 		.4byte	0x360
 4660 1033 01       		.byte	0x1
 4661 1034 3E100000 		.4byte	0x103e
 4662 1038 0B       		.uleb128 0xb
 4663 1039 60030000 		.4byte	0x360
 4664 103d 00       		.byte	0
 4665 103e 1B       		.uleb128 0x1b
 4666 103f 01       		.byte	0x1
 4667 1040 64000000 		.4byte	.LASF1325
 4668 1044 06       		.byte	0x6
 4669 1045 5005     		.2byte	0x550
 4670 1047 03       		.byte	0x3
 4671 1048 298E0000 		.4byte	.LASF1733
 4672 104c E4000000 		.4byte	0xe4
 4673 1050 01       		.byte	0x1
 4674 1051 5B100000 		.4byte	0x105b
 4675 1055 0B       		.uleb128 0xb
 4676 1056 E4000000 		.4byte	0xe4
ARM GAS  C:\Users\30806\AppData\Local\Temp\ccYcD1nI.s 			page 87


 4677 105a 00       		.byte	0
 4678 105b 1B       		.uleb128 0x1b
 4679 105c 01       		.byte	0x1
 4680 105d E3A10000 		.4byte	.LASF1328
 4681 1061 06       		.byte	0x6
 4682 1062 6605     		.2byte	0x566
 4683 1064 03       		.byte	0x3
 4684 1065 9E8A0000 		.4byte	.LASF1734
 4685 1069 60030000 		.4byte	0x360
 4686 106d 01       		.byte	0x1
 4687 106e 7D100000 		.4byte	0x107d
 4688 1072 0B       		.uleb128 0xb
 4689 1073 60030000 		.4byte	0x360
 4690 1077 0B       		.uleb128 0xb
 4691 1078 60030000 		.4byte	0x360
 4692 107c 00       		.byte	0
 4693 107d 1B       		.uleb128 0x1b
 4694 107e 01       		.byte	0x1
 4695 107f E3A10000 		.4byte	.LASF1328
 4696 1083 06       		.byte	0x6
 4697 1084 6205     		.2byte	0x562
 4698 1086 03       		.byte	0x3
 4699 1087 B70D0000 		.4byte	.LASF1735
 4700 108b E4000000 		.4byte	0xe4
 4701 108f 01       		.byte	0x1
 4702 1090 9F100000 		.4byte	0x109f
 4703 1094 0B       		.uleb128 0xb
 4704 1095 E4000000 		.4byte	0xe4
 4705 1099 0B       		.uleb128 0xb
 4706 109a E4000000 		.4byte	0xe4
 4707 109e 00       		.byte	0
 4708 109f 1A       		.uleb128 0x1a
 4709 10a0 01       		.byte	0x1
 4710 10a1 666D6100 		.ascii	"fma\000"
 4711 10a5 06       		.byte	0x6
 4712 10a6 7A05     		.2byte	0x57a
 4713 10a8 03       		.byte	0x3
 4714 10a9 4C860000 		.4byte	.LASF1736
 4715 10ad 60030000 		.4byte	0x360
 4716 10b1 01       		.byte	0x1
 4717 10b2 C6100000 		.4byte	0x10c6
 4718 10b6 0B       		.uleb128 0xb
 4719 10b7 60030000 		.4byte	0x360
 4720 10bb 0B       		.uleb128 0xb
 4721 10bc 60030000 		.4byte	0x360
 4722 10c0 0B       		.uleb128 0xb
 4723 10c1 60030000 		.4byte	0x360
 4724 10c5 00       		.byte	0
 4725 10c6 1A       		.uleb128 0x1a
 4726 10c7 01       		.byte	0x1
 4727 10c8 666D6100 		.ascii	"fma\000"
 4728 10cc 06       		.byte	0x6
 4729 10cd 7605     		.2byte	0x576
 4730 10cf 03       		.byte	0x3
 4731 10d0 709A0000 		.4byte	.LASF1737
 4732 10d4 E4000000 		.4byte	0xe4
 4733 10d8 01       		.byte	0x1
ARM GAS  C:\Users\30806\AppData\Local\Temp\ccYcD1nI.s 			page 88


 4734 10d9 ED100000 		.4byte	0x10ed
 4735 10dd 0B       		.uleb128 0xb
 4736 10de E4000000 		.4byte	0xe4
 4737 10e2 0B       		.uleb128 0xb
 4738 10e3 E4000000 		.4byte	0xe4
 4739 10e7 0B       		.uleb128 0xb
 4740 10e8 E4000000 		.4byte	0xe4
 4741 10ec 00       		.byte	0
 4742 10ed 1B       		.uleb128 0x1b
 4743 10ee 01       		.byte	0x1
 4744 10ef 98750000 		.4byte	.LASF1333
 4745 10f3 06       		.byte	0x6
 4746 10f4 8E05     		.2byte	0x58e
 4747 10f6 03       		.byte	0x3
 4748 10f7 0B590000 		.4byte	.LASF1738
 4749 10fb 60030000 		.4byte	0x360
 4750 10ff 01       		.byte	0x1
 4751 1100 0F110000 		.4byte	0x110f
 4752 1104 0B       		.uleb128 0xb
 4753 1105 60030000 		.4byte	0x360
 4754 1109 0B       		.uleb128 0xb
 4755 110a 60030000 		.4byte	0x360
 4756 110e 00       		.byte	0
 4757 110f 1B       		.uleb128 0x1b
 4758 1110 01       		.byte	0x1
 4759 1111 98750000 		.4byte	.LASF1333
 4760 1115 06       		.byte	0x6
 4761 1116 8A05     		.2byte	0x58a
 4762 1118 03       		.byte	0x3
 4763 1119 4E920000 		.4byte	.LASF1739
 4764 111d E4000000 		.4byte	0xe4
 4765 1121 01       		.byte	0x1
 4766 1122 31110000 		.4byte	0x1131
 4767 1126 0B       		.uleb128 0xb
 4768 1127 E4000000 		.4byte	0xe4
 4769 112b 0B       		.uleb128 0xb
 4770 112c E4000000 		.4byte	0xe4
 4771 1130 00       		.byte	0
 4772 1131 1B       		.uleb128 0x1b
 4773 1132 01       		.byte	0x1
 4774 1133 D28B0000 		.4byte	.LASF1336
 4775 1137 06       		.byte	0x6
 4776 1138 A205     		.2byte	0x5a2
 4777 113a 03       		.byte	0x3
 4778 113b 270E0000 		.4byte	.LASF1740
 4779 113f 60030000 		.4byte	0x360
 4780 1143 01       		.byte	0x1
 4781 1144 53110000 		.4byte	0x1153
 4782 1148 0B       		.uleb128 0xb
 4783 1149 60030000 		.4byte	0x360
 4784 114d 0B       		.uleb128 0xb
 4785 114e 60030000 		.4byte	0x360
 4786 1152 00       		.byte	0
 4787 1153 1B       		.uleb128 0x1b
 4788 1154 01       		.byte	0x1
 4789 1155 D28B0000 		.4byte	.LASF1336
 4790 1159 06       		.byte	0x6
ARM GAS  C:\Users\30806\AppData\Local\Temp\ccYcD1nI.s 			page 89


 4791 115a 9E05     		.2byte	0x59e
 4792 115c 03       		.byte	0x3
 4793 115d 7F800000 		.4byte	.LASF1741
 4794 1161 E4000000 		.4byte	0xe4
 4795 1165 01       		.byte	0x1
 4796 1166 75110000 		.4byte	0x1175
 4797 116a 0B       		.uleb128 0xb
 4798 116b E4000000 		.4byte	0xe4
 4799 116f 0B       		.uleb128 0xb
 4800 1170 E4000000 		.4byte	0xe4
 4801 1174 00       		.byte	0
 4802 1175 1B       		.uleb128 0x1b
 4803 1176 01       		.byte	0x1
 4804 1177 54590000 		.4byte	.LASF1339
 4805 117b 06       		.byte	0x6
 4806 117c B605     		.2byte	0x5b6
 4807 117e 03       		.byte	0x3
 4808 117f D0A20000 		.4byte	.LASF1742
 4809 1183 60030000 		.4byte	0x360
 4810 1187 01       		.byte	0x1
 4811 1188 97110000 		.4byte	0x1197
 4812 118c 0B       		.uleb128 0xb
 4813 118d 60030000 		.4byte	0x360
 4814 1191 0B       		.uleb128 0xb
 4815 1192 60030000 		.4byte	0x360
 4816 1196 00       		.byte	0
 4817 1197 1B       		.uleb128 0x1b
 4818 1198 01       		.byte	0x1
 4819 1199 54590000 		.4byte	.LASF1339
 4820 119d 06       		.byte	0x6
 4821 119e B205     		.2byte	0x5b2
 4822 11a0 03       		.byte	0x3
 4823 11a1 D7A60000 		.4byte	.LASF1743
 4824 11a5 E4000000 		.4byte	0xe4
 4825 11a9 01       		.byte	0x1
 4826 11aa B9110000 		.4byte	0x11b9
 4827 11ae 0B       		.uleb128 0xb
 4828 11af E4000000 		.4byte	0xe4
 4829 11b3 0B       		.uleb128 0xb
 4830 11b4 E4000000 		.4byte	0xe4
 4831 11b8 00       		.byte	0
 4832 11b9 1B       		.uleb128 0x1b
 4833 11ba 01       		.byte	0x1
 4834 11bb 35320000 		.4byte	.LASF1342
 4835 11bf 06       		.byte	0x6
 4836 11c0 CA05     		.2byte	0x5ca
 4837 11c2 03       		.byte	0x3
 4838 11c3 09130000 		.4byte	.LASF1744
 4839 11c7 71000000 		.4byte	0x71
 4840 11cb 01       		.byte	0x1
 4841 11cc D6110000 		.4byte	0x11d6
 4842 11d0 0B       		.uleb128 0xb
 4843 11d1 60030000 		.4byte	0x360
 4844 11d5 00       		.byte	0
 4845 11d6 1B       		.uleb128 0x1b
 4846 11d7 01       		.byte	0x1
 4847 11d8 35320000 		.4byte	.LASF1342
ARM GAS  C:\Users\30806\AppData\Local\Temp\ccYcD1nI.s 			page 90


 4848 11dc 06       		.byte	0x6
 4849 11dd C605     		.2byte	0x5c6
 4850 11df 03       		.byte	0x3
 4851 11e0 4C700000 		.4byte	.LASF1745
 4852 11e4 71000000 		.4byte	0x71
 4853 11e8 01       		.byte	0x1
 4854 11e9 F3110000 		.4byte	0x11f3
 4855 11ed 0B       		.uleb128 0xb
 4856 11ee E4000000 		.4byte	0xe4
 4857 11f2 00       		.byte	0
 4858 11f3 1B       		.uleb128 0x1b
 4859 11f4 01       		.byte	0x1
 4860 11f5 3EA70000 		.4byte	.LASF1345
 4861 11f9 06       		.byte	0x6
 4862 11fa DD05     		.2byte	0x5dd
 4863 11fc 03       		.byte	0x3
 4864 11fd CB4E0000 		.4byte	.LASF1746
 4865 1201 60030000 		.4byte	0x360
 4866 1205 01       		.byte	0x1
 4867 1206 10120000 		.4byte	0x1210
 4868 120a 0B       		.uleb128 0xb
 4869 120b 60030000 		.4byte	0x360
 4870 120f 00       		.byte	0
 4871 1210 1B       		.uleb128 0x1b
 4872 1211 01       		.byte	0x1
 4873 1212 3EA70000 		.4byte	.LASF1345
 4874 1216 06       		.byte	0x6
 4875 1217 D905     		.2byte	0x5d9
 4876 1219 03       		.byte	0x3
 4877 121a D84E0000 		.4byte	.LASF1747
 4878 121e E4000000 		.4byte	0xe4
 4879 1222 01       		.byte	0x1
 4880 1223 2D120000 		.4byte	0x122d
 4881 1227 0B       		.uleb128 0xb
 4882 1228 E4000000 		.4byte	0xe4
 4883 122c 00       		.byte	0
 4884 122d 1B       		.uleb128 0x1b
 4885 122e 01       		.byte	0x1
 4886 122f 67330000 		.4byte	.LASF1348
 4887 1233 06       		.byte	0x6
 4888 1234 EF05     		.2byte	0x5ef
 4889 1236 03       		.byte	0x3
 4890 1237 9CAC0000 		.4byte	.LASF1748
 4891 123b 63000000 		.4byte	0x63
 4892 123f 01       		.byte	0x1
 4893 1240 4A120000 		.4byte	0x124a
 4894 1244 0B       		.uleb128 0xb
 4895 1245 60030000 		.4byte	0x360
 4896 1249 00       		.byte	0
 4897 124a 1B       		.uleb128 0x1b
 4898 124b 01       		.byte	0x1
 4899 124c 67330000 		.4byte	.LASF1348
 4900 1250 06       		.byte	0x6
 4901 1251 EB05     		.2byte	0x5eb
 4902 1253 03       		.byte	0x3
 4903 1254 A89A0000 		.4byte	.LASF1749
 4904 1258 63000000 		.4byte	0x63
ARM GAS  C:\Users\30806\AppData\Local\Temp\ccYcD1nI.s 			page 91


 4905 125c 01       		.byte	0x1
 4906 125d 67120000 		.4byte	0x1267
 4907 1261 0B       		.uleb128 0xb
 4908 1262 E4000000 		.4byte	0xe4
 4909 1266 00       		.byte	0
 4910 1267 1B       		.uleb128 0x1b
 4911 1268 01       		.byte	0x1
 4912 1269 F7990000 		.4byte	.LASF1351
 4913 126d 06       		.byte	0x6
 4914 126e 0106     		.2byte	0x601
 4915 1270 03       		.byte	0x3
 4916 1271 A15B0000 		.4byte	.LASF1750
 4917 1275 63000000 		.4byte	0x63
 4918 1279 01       		.byte	0x1
 4919 127a 84120000 		.4byte	0x1284
 4920 127e 0B       		.uleb128 0xb
 4921 127f 60030000 		.4byte	0x360
 4922 1283 00       		.byte	0
 4923 1284 1B       		.uleb128 0x1b
 4924 1285 01       		.byte	0x1
 4925 1286 F7990000 		.4byte	.LASF1351
 4926 128a 06       		.byte	0x6
 4927 128b FD05     		.2byte	0x5fd
 4928 128d 03       		.byte	0x3
 4929 128e AF5B0000 		.4byte	.LASF1751
 4930 1292 63000000 		.4byte	0x63
 4931 1296 01       		.byte	0x1
 4932 1297 A1120000 		.4byte	0x12a1
 4933 129b 0B       		.uleb128 0xb
 4934 129c E4000000 		.4byte	0xe4
 4935 12a0 00       		.byte	0
 4936 12a1 1B       		.uleb128 0x1b
 4937 12a2 01       		.byte	0x1
 4938 12a3 95030000 		.4byte	.LASF1354
 4939 12a7 06       		.byte	0x6
 4940 12a8 1306     		.2byte	0x613
 4941 12aa 03       		.byte	0x3
 4942 12ab 81700000 		.4byte	.LASF1752
 4943 12af 60030000 		.4byte	0x360
 4944 12b3 01       		.byte	0x1
 4945 12b4 BE120000 		.4byte	0x12be
 4946 12b8 0B       		.uleb128 0xb
 4947 12b9 60030000 		.4byte	0x360
 4948 12bd 00       		.byte	0
 4949 12be 1B       		.uleb128 0x1b
 4950 12bf 01       		.byte	0x1
 4951 12c0 95030000 		.4byte	.LASF1354
 4952 12c4 06       		.byte	0x6
 4953 12c5 0F06     		.2byte	0x60f
 4954 12c7 03       		.byte	0x3
 4955 12c8 8D700000 		.4byte	.LASF1753
 4956 12cc E4000000 		.4byte	0xe4
 4957 12d0 01       		.byte	0x1
 4958 12d1 DB120000 		.4byte	0x12db
 4959 12d5 0B       		.uleb128 0xb
 4960 12d6 E4000000 		.4byte	0xe4
 4961 12da 00       		.byte	0
ARM GAS  C:\Users\30806\AppData\Local\Temp\ccYcD1nI.s 			page 92


 4962 12db 1B       		.uleb128 0x1b
 4963 12dc 01       		.byte	0x1
 4964 12dd 2E930000 		.4byte	.LASF1357
 4965 12e1 06       		.byte	0x6
 4966 12e2 2606     		.2byte	0x626
 4967 12e4 03       		.byte	0x3
 4968 12e5 6B470000 		.4byte	.LASF1754
 4969 12e9 60030000 		.4byte	0x360
 4970 12ed 01       		.byte	0x1
 4971 12ee F8120000 		.4byte	0x12f8
 4972 12f2 0B       		.uleb128 0xb
 4973 12f3 60030000 		.4byte	0x360
 4974 12f7 00       		.byte	0
 4975 12f8 1B       		.uleb128 0x1b
 4976 12f9 01       		.byte	0x1
 4977 12fa 2E930000 		.4byte	.LASF1357
 4978 12fe 06       		.byte	0x6
 4979 12ff 2206     		.2byte	0x622
 4980 1301 03       		.byte	0x3
 4981 1302 76470000 		.4byte	.LASF1755
 4982 1306 E4000000 		.4byte	0xe4
 4983 130a 01       		.byte	0x1
 4984 130b 15130000 		.4byte	0x1315
 4985 130f 0B       		.uleb128 0xb
 4986 1310 E4000000 		.4byte	0xe4
 4987 1314 00       		.byte	0
 4988 1315 1B       		.uleb128 0x1b
 4989 1316 01       		.byte	0x1
 4990 1317 69950000 		.4byte	.LASF1360
 4991 131b 06       		.byte	0x6
 4992 131c 3806     		.2byte	0x638
 4993 131e 03       		.byte	0x3
 4994 131f 93200000 		.4byte	.LASF1756
 4995 1323 60030000 		.4byte	0x360
 4996 1327 01       		.byte	0x1
 4997 1328 32130000 		.4byte	0x1332
 4998 132c 0B       		.uleb128 0xb
 4999 132d 60030000 		.4byte	0x360
 5000 1331 00       		.byte	0
 5001 1332 1B       		.uleb128 0x1b
 5002 1333 01       		.byte	0x1
 5003 1334 69950000 		.4byte	.LASF1360
 5004 1338 06       		.byte	0x6
 5005 1339 3406     		.2byte	0x634
 5006 133b 03       		.byte	0x3
 5007 133c 9E200000 		.4byte	.LASF1757
 5008 1340 E4000000 		.4byte	0xe4
 5009 1344 01       		.byte	0x1
 5010 1345 4F130000 		.4byte	0x134f
 5011 1349 0B       		.uleb128 0xb
 5012 134a E4000000 		.4byte	0xe4
 5013 134e 00       		.byte	0
 5014 134f 1B       		.uleb128 0x1b
 5015 1350 01       		.byte	0x1
 5016 1351 8E7E0000 		.4byte	.LASF1363
 5017 1355 06       		.byte	0x6
 5018 1356 4A06     		.2byte	0x64a
ARM GAS  C:\Users\30806\AppData\Local\Temp\ccYcD1nI.s 			page 93


 5019 1358 03       		.byte	0x3
 5020 1359 9A570000 		.4byte	.LASF1758
 5021 135d 55000000 		.4byte	0x55
 5022 1361 01       		.byte	0x1
 5023 1362 6C130000 		.4byte	0x136c
 5024 1366 0B       		.uleb128 0xb
 5025 1367 60030000 		.4byte	0x360
 5026 136b 00       		.byte	0
 5027 136c 1B       		.uleb128 0x1b
 5028 136d 01       		.byte	0x1
 5029 136e 8E7E0000 		.4byte	.LASF1363
 5030 1372 06       		.byte	0x6
 5031 1373 4606     		.2byte	0x646
 5032 1375 03       		.byte	0x3
 5033 1376 A6570000 		.4byte	.LASF1759
 5034 137a 55000000 		.4byte	0x55
 5035 137e 01       		.byte	0x1
 5036 137f 89130000 		.4byte	0x1389
 5037 1383 0B       		.uleb128 0xb
 5038 1384 E4000000 		.4byte	0xe4
 5039 1388 00       		.byte	0
 5040 1389 1B       		.uleb128 0x1b
 5041 138a 01       		.byte	0x1
 5042 138b 15A50000 		.4byte	.LASF1366
 5043 138f 06       		.byte	0x6
 5044 1390 5C06     		.2byte	0x65c
 5045 1392 03       		.byte	0x3
 5046 1393 18480000 		.4byte	.LASF1760
 5047 1397 55000000 		.4byte	0x55
 5048 139b 01       		.byte	0x1
 5049 139c A6130000 		.4byte	0x13a6
 5050 13a0 0B       		.uleb128 0xb
 5051 13a1 60030000 		.4byte	0x360
 5052 13a5 00       		.byte	0
 5053 13a6 1B       		.uleb128 0x1b
 5054 13a7 01       		.byte	0x1
 5055 13a8 15A50000 		.4byte	.LASF1366
 5056 13ac 06       		.byte	0x6
 5057 13ad 5806     		.2byte	0x658
 5058 13af 03       		.byte	0x3
 5059 13b0 25480000 		.4byte	.LASF1761
 5060 13b4 55000000 		.4byte	0x55
 5061 13b8 01       		.byte	0x1
 5062 13b9 C3130000 		.4byte	0x13c3
 5063 13bd 0B       		.uleb128 0xb
 5064 13be E4000000 		.4byte	0xe4
 5065 13c2 00       		.byte	0
 5066 13c3 1B       		.uleb128 0x1b
 5067 13c4 01       		.byte	0x1
 5068 13c5 46390000 		.4byte	.LASF1371
 5069 13c9 06       		.byte	0x6
 5070 13ca 6E06     		.2byte	0x66e
 5071 13cc 03       		.byte	0x3
 5072 13cd 35410000 		.4byte	.LASF1762
 5073 13d1 60030000 		.4byte	0x360
 5074 13d5 01       		.byte	0x1
 5075 13d6 E0130000 		.4byte	0x13e0
ARM GAS  C:\Users\30806\AppData\Local\Temp\ccYcD1nI.s 			page 94


 5076 13da 0B       		.uleb128 0xb
 5077 13db 60030000 		.4byte	0x360
 5078 13df 00       		.byte	0
 5079 13e0 1B       		.uleb128 0x1b
 5080 13e1 01       		.byte	0x1
 5081 13e2 46390000 		.4byte	.LASF1371
 5082 13e6 06       		.byte	0x6
 5083 13e7 6A06     		.2byte	0x66a
 5084 13e9 03       		.byte	0x3
 5085 13ea 45410000 		.4byte	.LASF1763
 5086 13ee E4000000 		.4byte	0xe4
 5087 13f2 01       		.byte	0x1
 5088 13f3 FD130000 		.4byte	0x13fd
 5089 13f7 0B       		.uleb128 0xb
 5090 13f8 E4000000 		.4byte	0xe4
 5091 13fc 00       		.byte	0
 5092 13fd 1B       		.uleb128 0x1b
 5093 13fe 01       		.byte	0x1
 5094 13ff 10610000 		.4byte	.LASF1374
 5095 1403 06       		.byte	0x6
 5096 1404 8006     		.2byte	0x680
 5097 1406 03       		.byte	0x3
 5098 1407 F5B10000 		.4byte	.LASF1764
 5099 140b 60030000 		.4byte	0x360
 5100 140f 01       		.byte	0x1
 5101 1410 1F140000 		.4byte	0x141f
 5102 1414 0B       		.uleb128 0xb
 5103 1415 60030000 		.4byte	0x360
 5104 1419 0B       		.uleb128 0xb
 5105 141a 60030000 		.4byte	0x360
 5106 141e 00       		.byte	0
 5107 141f 1B       		.uleb128 0x1b
 5108 1420 01       		.byte	0x1
 5109 1421 10610000 		.4byte	.LASF1374
 5110 1425 06       		.byte	0x6
 5111 1426 7C06     		.2byte	0x67c
 5112 1428 03       		.byte	0x3
 5113 1429 C9B40000 		.4byte	.LASF1765
 5114 142d E4000000 		.4byte	0xe4
 5115 1431 01       		.byte	0x1
 5116 1432 41140000 		.4byte	0x1441
 5117 1436 0B       		.uleb128 0xb
 5118 1437 E4000000 		.4byte	0xe4
 5119 143b 0B       		.uleb128 0xb
 5120 143c E4000000 		.4byte	0xe4
 5121 1440 00       		.byte	0
 5122 1441 1B       		.uleb128 0x1b
 5123 1442 01       		.byte	0x1
 5124 1443 54940000 		.4byte	.LASF1377
 5125 1447 06       		.byte	0x6
 5126 1448 9406     		.2byte	0x694
 5127 144a 03       		.byte	0x3
 5128 144b BC800000 		.4byte	.LASF1766
 5129 144f 60030000 		.4byte	0x360
 5130 1453 01       		.byte	0x1
 5131 1454 63140000 		.4byte	0x1463
 5132 1458 0B       		.uleb128 0xb
ARM GAS  C:\Users\30806\AppData\Local\Temp\ccYcD1nI.s 			page 95


 5133 1459 60030000 		.4byte	0x360
 5134 145d 0B       		.uleb128 0xb
 5135 145e 60030000 		.4byte	0x360
 5136 1462 00       		.byte	0
 5137 1463 1B       		.uleb128 0x1b
 5138 1464 01       		.byte	0x1
 5139 1465 54940000 		.4byte	.LASF1377
 5140 1469 06       		.byte	0x6
 5141 146a 9006     		.2byte	0x690
 5142 146c 03       		.byte	0x3
 5143 146d 0E830000 		.4byte	.LASF1767
 5144 1471 E4000000 		.4byte	0xe4
 5145 1475 01       		.byte	0x1
 5146 1476 85140000 		.4byte	0x1485
 5147 147a 0B       		.uleb128 0xb
 5148 147b E4000000 		.4byte	0xe4
 5149 147f 0B       		.uleb128 0xb
 5150 1480 60030000 		.4byte	0x360
 5151 1484 00       		.byte	0
 5152 1485 1B       		.uleb128 0x1b
 5153 1486 01       		.byte	0x1
 5154 1487 9E7C0000 		.4byte	.LASF1380
 5155 148b 06       		.byte	0x6
 5156 148c A606     		.2byte	0x6a6
 5157 148e 03       		.byte	0x3
 5158 148f 82870000 		.4byte	.LASF1768
 5159 1493 60030000 		.4byte	0x360
 5160 1497 01       		.byte	0x1
 5161 1498 A7140000 		.4byte	0x14a7
 5162 149c 0B       		.uleb128 0xb
 5163 149d 60030000 		.4byte	0x360
 5164 14a1 0B       		.uleb128 0xb
 5165 14a2 60030000 		.4byte	0x360
 5166 14a6 00       		.byte	0
 5167 14a7 1B       		.uleb128 0x1b
 5168 14a8 01       		.byte	0x1
 5169 14a9 9E7C0000 		.4byte	.LASF1380
 5170 14ad 06       		.byte	0x6
 5171 14ae A206     		.2byte	0x6a2
 5172 14b0 03       		.byte	0x3
 5173 14b1 6B8A0000 		.4byte	.LASF1769
 5174 14b5 E4000000 		.4byte	0xe4
 5175 14b9 01       		.byte	0x1
 5176 14ba C9140000 		.4byte	0x14c9
 5177 14be 0B       		.uleb128 0xb
 5178 14bf E4000000 		.4byte	0xe4
 5179 14c3 0B       		.uleb128 0xb
 5180 14c4 E4000000 		.4byte	0xe4
 5181 14c8 00       		.byte	0
 5182 14c9 1B       		.uleb128 0x1b
 5183 14ca 01       		.byte	0x1
 5184 14cb E9420000 		.4byte	.LASF1383
 5185 14cf 06       		.byte	0x6
 5186 14d0 BA06     		.2byte	0x6ba
 5187 14d2 03       		.byte	0x3
 5188 14d3 14790000 		.4byte	.LASF1770
 5189 14d7 60030000 		.4byte	0x360
ARM GAS  C:\Users\30806\AppData\Local\Temp\ccYcD1nI.s 			page 96


 5190 14db 01       		.byte	0x1
 5191 14dc F0140000 		.4byte	0x14f0
 5192 14e0 0B       		.uleb128 0xb
 5193 14e1 60030000 		.4byte	0x360
 5194 14e5 0B       		.uleb128 0xb
 5195 14e6 60030000 		.4byte	0x360
 5196 14ea 0B       		.uleb128 0xb
 5197 14eb 9C170000 		.4byte	0x179c
 5198 14ef 00       		.byte	0
 5199 14f0 1B       		.uleb128 0x1b
 5200 14f1 01       		.byte	0x1
 5201 14f2 E9420000 		.4byte	.LASF1383
 5202 14f6 06       		.byte	0x6
 5203 14f7 B606     		.2byte	0x6b6
 5204 14f9 03       		.byte	0x3
 5205 14fa 9F250000 		.4byte	.LASF1771
 5206 14fe E4000000 		.4byte	0xe4
 5207 1502 01       		.byte	0x1
 5208 1503 17150000 		.4byte	0x1517
 5209 1507 0B       		.uleb128 0xb
 5210 1508 E4000000 		.4byte	0xe4
 5211 150c 0B       		.uleb128 0xb
 5212 150d E4000000 		.4byte	0xe4
 5213 1511 0B       		.uleb128 0xb
 5214 1512 9C170000 		.4byte	0x179c
 5215 1516 00       		.byte	0
 5216 1517 1B       		.uleb128 0x1b
 5217 1518 01       		.byte	0x1
 5218 1519 278B0000 		.4byte	.LASF1386
 5219 151d 06       		.byte	0x6
 5220 151e CE06     		.2byte	0x6ce
 5221 1520 03       		.byte	0x3
 5222 1521 A4180000 		.4byte	.LASF1772
 5223 1525 60030000 		.4byte	0x360
 5224 1529 01       		.byte	0x1
 5225 152a 34150000 		.4byte	0x1534
 5226 152e 0B       		.uleb128 0xb
 5227 152f 60030000 		.4byte	0x360
 5228 1533 00       		.byte	0
 5229 1534 1B       		.uleb128 0x1b
 5230 1535 01       		.byte	0x1
 5231 1536 278B0000 		.4byte	.LASF1386
 5232 153a 06       		.byte	0x6
 5233 153b CA06     		.2byte	0x6ca
 5234 153d 03       		.byte	0x3
 5235 153e AF180000 		.4byte	.LASF1773
 5236 1542 E4000000 		.4byte	0xe4
 5237 1546 01       		.byte	0x1
 5238 1547 51150000 		.4byte	0x1551
 5239 154b 0B       		.uleb128 0xb
 5240 154c E4000000 		.4byte	0xe4
 5241 1550 00       		.byte	0
 5242 1551 1B       		.uleb128 0x1b
 5243 1552 01       		.byte	0x1
 5244 1553 21830000 		.4byte	.LASF1389
 5245 1557 06       		.byte	0x6
 5246 1558 E006     		.2byte	0x6e0
ARM GAS  C:\Users\30806\AppData\Local\Temp\ccYcD1nI.s 			page 97


 5247 155a 03       		.byte	0x3
 5248 155b 369C0000 		.4byte	.LASF1774
 5249 155f 60030000 		.4byte	0x360
 5250 1563 01       		.byte	0x1
 5251 1564 6E150000 		.4byte	0x156e
 5252 1568 0B       		.uleb128 0xb
 5253 1569 60030000 		.4byte	0x360
 5254 156d 00       		.byte	0
 5255 156e 1B       		.uleb128 0x1b
 5256 156f 01       		.byte	0x1
 5257 1570 21830000 		.4byte	.LASF1389
 5258 1574 06       		.byte	0x6
 5259 1575 DC06     		.2byte	0x6dc
 5260 1577 03       		.byte	0x3
 5261 1578 429C0000 		.4byte	.LASF1775
 5262 157c E4000000 		.4byte	0xe4
 5263 1580 01       		.byte	0x1
 5264 1581 8B150000 		.4byte	0x158b
 5265 1585 0B       		.uleb128 0xb
 5266 1586 E4000000 		.4byte	0xe4
 5267 158a 00       		.byte	0
 5268 158b 1B       		.uleb128 0x1b
 5269 158c 01       		.byte	0x1
 5270 158d 995B0000 		.4byte	.LASF1392
 5271 1591 06       		.byte	0x6
 5272 1592 F206     		.2byte	0x6f2
 5273 1594 03       		.byte	0x3
 5274 1595 65270000 		.4byte	.LASF1776
 5275 1599 60030000 		.4byte	0x360
 5276 159d 01       		.byte	0x1
 5277 159e AD150000 		.4byte	0x15ad
 5278 15a2 0B       		.uleb128 0xb
 5279 15a3 60030000 		.4byte	0x360
 5280 15a7 0B       		.uleb128 0xb
 5281 15a8 55000000 		.4byte	0x55
 5282 15ac 00       		.byte	0
 5283 15ad 1B       		.uleb128 0x1b
 5284 15ae 01       		.byte	0x1
 5285 15af 995B0000 		.4byte	.LASF1392
 5286 15b3 06       		.byte	0x6
 5287 15b4 EE06     		.2byte	0x6ee
 5288 15b6 03       		.byte	0x3
 5289 15b7 512A0000 		.4byte	.LASF1777
 5290 15bb E4000000 		.4byte	0xe4
 5291 15bf 01       		.byte	0x1
 5292 15c0 CF150000 		.4byte	0x15cf
 5293 15c4 0B       		.uleb128 0xb
 5294 15c5 E4000000 		.4byte	0xe4
 5295 15c9 0B       		.uleb128 0xb
 5296 15ca 55000000 		.4byte	0x55
 5297 15ce 00       		.byte	0
 5298 15cf 1B       		.uleb128 0x1b
 5299 15d0 01       		.byte	0x1
 5300 15d1 00190000 		.4byte	.LASF1395
 5301 15d5 06       		.byte	0x6
 5302 15d6 0407     		.2byte	0x704
 5303 15d8 03       		.byte	0x3
ARM GAS  C:\Users\30806\AppData\Local\Temp\ccYcD1nI.s 			page 98


 5304 15d9 04850000 		.4byte	.LASF1778
 5305 15dd 60030000 		.4byte	0x360
 5306 15e1 01       		.byte	0x1
 5307 15e2 F1150000 		.4byte	0x15f1
 5308 15e6 0B       		.uleb128 0xb
 5309 15e7 60030000 		.4byte	0x360
 5310 15eb 0B       		.uleb128 0xb
 5311 15ec 71000000 		.4byte	0x71
 5312 15f0 00       		.byte	0
 5313 15f1 1B       		.uleb128 0x1b
 5314 15f2 01       		.byte	0x1
 5315 15f3 00190000 		.4byte	.LASF1395
 5316 15f7 06       		.byte	0x6
 5317 15f8 0007     		.2byte	0x700
 5318 15fa 03       		.byte	0x3
 5319 15fb 64870000 		.4byte	.LASF1779
 5320 15ff E4000000 		.4byte	0xe4
 5321 1603 01       		.byte	0x1
 5322 1604 13160000 		.4byte	0x1613
 5323 1608 0B       		.uleb128 0xb
 5324 1609 E4000000 		.4byte	0xe4
 5325 160d 0B       		.uleb128 0xb
 5326 160e 71000000 		.4byte	0x71
 5327 1612 00       		.byte	0
 5328 1613 1B       		.uleb128 0x1b
 5329 1614 01       		.byte	0x1
 5330 1615 D77D0000 		.4byte	.LASF1398
 5331 1619 06       		.byte	0x6
 5332 161a 1607     		.2byte	0x716
 5333 161c 03       		.byte	0x3
 5334 161d 69150000 		.4byte	.LASF1780
 5335 1621 60030000 		.4byte	0x360
 5336 1625 01       		.byte	0x1
 5337 1626 30160000 		.4byte	0x1630
 5338 162a 0B       		.uleb128 0xb
 5339 162b 60030000 		.4byte	0x360
 5340 162f 00       		.byte	0
 5341 1630 1B       		.uleb128 0x1b
 5342 1631 01       		.byte	0x1
 5343 1632 D77D0000 		.4byte	.LASF1398
 5344 1636 06       		.byte	0x6
 5345 1637 1207     		.2byte	0x712
 5346 1639 03       		.byte	0x3
 5347 163a 76150000 		.4byte	.LASF1781
 5348 163e E4000000 		.4byte	0xe4
 5349 1642 01       		.byte	0x1
 5350 1643 4D160000 		.4byte	0x164d
 5351 1647 0B       		.uleb128 0xb
 5352 1648 E4000000 		.4byte	0xe4
 5353 164c 00       		.byte	0
 5354 164d 1B       		.uleb128 0x1b
 5355 164e 01       		.byte	0x1
 5356 164f 828F0000 		.4byte	.LASF1401
 5357 1653 06       		.byte	0x6
 5358 1654 2807     		.2byte	0x728
 5359 1656 03       		.byte	0x3
 5360 1657 6E2B0000 		.4byte	.LASF1782
ARM GAS  C:\Users\30806\AppData\Local\Temp\ccYcD1nI.s 			page 99


 5361 165b 60030000 		.4byte	0x360
 5362 165f 01       		.byte	0x1
 5363 1660 6A160000 		.4byte	0x166a
 5364 1664 0B       		.uleb128 0xb
 5365 1665 60030000 		.4byte	0x360
 5366 1669 00       		.byte	0
 5367 166a 1C       		.uleb128 0x1c
 5368 166b 01       		.byte	0x1
 5369 166c 828F0000 		.4byte	.LASF1401
 5370 1670 06       		.byte	0x6
 5371 1671 2407     		.2byte	0x724
 5372 1673 03       		.byte	0x3
 5373 1674 7A2B0000 		.4byte	.LASF1818
 5374 1678 E4000000 		.4byte	0xe4
 5375 167c 01       		.byte	0x1
 5376 167d 0B       		.uleb128 0xb
 5377 167e E4000000 		.4byte	0xe4
 5378 1682 00       		.byte	0
 5379 1683 00       		.byte	0
 5380 1684 1D       		.uleb128 0x1d
 5381 1685 53090000 		.4byte	.LASF1819
 5382 1689 08       		.byte	0x8
 5383 168a 2001     		.2byte	0x120
 5384 168c 0B       		.byte	0xb
 5385 168d A5160000 		.4byte	0x16a5
 5386 1691 11       		.uleb128 0x11
 5387 1692 04B50000 		.4byte	.LASF1783
 5388 1696 08       		.byte	0x8
 5389 1697 2201     		.2byte	0x122
 5390 1699 41       		.byte	0x41
 5391 169a 01       		.byte	0x1
 5392 169b 12       		.uleb128 0x12
 5393 169c 08       		.byte	0x8
 5394 169d 2201     		.2byte	0x122
 5395 169f 41       		.byte	0x41
 5396 16a0 91160000 		.4byte	0x1691
 5397 16a4 00       		.byte	0
 5398 16a5 02       		.uleb128 0x2
 5399 16a6 08       		.byte	0x8
 5400 16a7 04       		.byte	0x4
 5401 16a8 76910000 		.4byte	.LASF1784
 5402 16ac 03       		.uleb128 0x3
 5403 16ad 305E0000 		.4byte	.LASF1785
 5404 16b1 09       		.byte	0x9
 5405 16b2 96       		.byte	0x96
 5406 16b3 14       		.byte	0x14
 5407 16b4 E4000000 		.4byte	0xe4
 5408 16b8 03       		.uleb128 0x3
 5409 16b9 9AB10000 		.4byte	.LASF1786
 5410 16bd 09       		.byte	0x9
 5411 16be 97       		.byte	0x97
 5412 16bf 14       		.byte	0x14
 5413 16c0 A5160000 		.4byte	0x16a5
 5414 16c4 1E       		.uleb128 0x1e
 5415 16c5 0A       		.byte	0xa
 5416 16c6 26       		.byte	0x26
 5417 16c7 0C       		.byte	0xc
ARM GAS  C:\Users\30806\AppData\Local\Temp\ccYcD1nI.s 			page 100


 5418 16c8 27040000 		.4byte	0x427
 5419 16cc 1E       		.uleb128 0x1e
 5420 16cd 0A       		.byte	0xa
 5421 16ce 26       		.byte	0x26
 5422 16cf 0C       		.byte	0xc
 5423 16d0 43040000 		.4byte	0x443
 5424 16d4 1E       		.uleb128 0x1e
 5425 16d5 0A       		.byte	0xa
 5426 16d6 26       		.byte	0x26
 5427 16d7 0C       		.byte	0xc
 5428 16d8 5F040000 		.4byte	0x45f
 5429 16dc 1E       		.uleb128 0x1e
 5430 16dd 0A       		.byte	0xa
 5431 16de 26       		.byte	0x26
 5432 16df 0C       		.byte	0xc
 5433 16e0 7B040000 		.4byte	0x47b
 5434 16e4 1E       		.uleb128 0x1e
 5435 16e5 0A       		.byte	0xa
 5436 16e6 26       		.byte	0x26
 5437 16e7 0C       		.byte	0xc
 5438 16e8 97040000 		.4byte	0x497
 5439 16ec 1E       		.uleb128 0x1e
 5440 16ed 0A       		.byte	0xa
 5441 16ee 27       		.byte	0x27
 5442 16ef 0C       		.byte	0xc
 5443 16f0 B3040000 		.4byte	0x4b3
 5444 16f4 1E       		.uleb128 0x1e
 5445 16f5 0A       		.byte	0xa
 5446 16f6 27       		.byte	0x27
 5447 16f7 0C       		.byte	0xc
 5448 16f8 CF040000 		.4byte	0x4cf
 5449 16fc 1E       		.uleb128 0x1e
 5450 16fd 0A       		.byte	0xa
 5451 16fe 28       		.byte	0x28
 5452 16ff 0C       		.byte	0xc
 5453 1700 EB040000 		.4byte	0x4eb
 5454 1704 1E       		.uleb128 0x1e
 5455 1705 0A       		.byte	0xa
 5456 1706 28       		.byte	0x28
 5457 1707 0C       		.byte	0xc
 5458 1708 07050000 		.4byte	0x507
 5459 170c 1E       		.uleb128 0x1e
 5460 170d 0A       		.byte	0xa
 5461 170e 29       		.byte	0x29
 5462 170f 0C       		.byte	0xc
 5463 1710 23050000 		.4byte	0x523
 5464 1714 1E       		.uleb128 0x1e
 5465 1715 0A       		.byte	0xa
 5466 1716 29       		.byte	0x29
 5467 1717 0C       		.byte	0xc
 5468 1718 3F050000 		.4byte	0x53f
 5469 171c 1E       		.uleb128 0x1e
 5470 171d 0A       		.byte	0xa
 5471 171e 2A       		.byte	0x2a
 5472 171f 0C       		.byte	0xc
 5473 1720 5B050000 		.4byte	0x55b
 5474 1724 1E       		.uleb128 0x1e
ARM GAS  C:\Users\30806\AppData\Local\Temp\ccYcD1nI.s 			page 101


 5475 1725 0A       		.byte	0xa
 5476 1726 2A       		.byte	0x2a
 5477 1727 0C       		.byte	0xc
 5478 1728 7C050000 		.4byte	0x57c
 5479 172c 1E       		.uleb128 0x1e
 5480 172d 0A       		.byte	0xa
 5481 172e 2B       		.byte	0x2b
 5482 172f 0C       		.byte	0xc
 5483 1730 9D050000 		.4byte	0x59d
 5484 1734 1E       		.uleb128 0x1e
 5485 1735 0A       		.byte	0xa
 5486 1736 2B       		.byte	0x2b
 5487 1737 0C       		.byte	0xc
 5488 1738 B9050000 		.4byte	0x5b9
 5489 173c 1E       		.uleb128 0x1e
 5490 173d 0A       		.byte	0xa
 5491 173e 2C       		.byte	0x2c
 5492 173f 0C       		.byte	0xc
 5493 1740 D5050000 		.4byte	0x5d5
 5494 1744 1E       		.uleb128 0x1e
 5495 1745 0A       		.byte	0xa
 5496 1746 2C       		.byte	0x2c
 5497 1747 0C       		.byte	0xc
 5498 1748 F2050000 		.4byte	0x5f2
 5499 174c 1E       		.uleb128 0x1e
 5500 174d 0A       		.byte	0xa
 5501 174e 2D       		.byte	0x2d
 5502 174f 0C       		.byte	0xc
 5503 1750 0F060000 		.4byte	0x60f
 5504 1754 1E       		.uleb128 0x1e
 5505 1755 0A       		.byte	0xa
 5506 1756 2D       		.byte	0x2d
 5507 1757 0C       		.byte	0xc
 5508 1758 2C060000 		.4byte	0x62c
 5509 175c 1E       		.uleb128 0x1e
 5510 175d 0A       		.byte	0xa
 5511 175e 2E       		.byte	0x2e
 5512 175f 0C       		.byte	0xc
 5513 1760 49060000 		.4byte	0x649
 5514 1764 1E       		.uleb128 0x1e
 5515 1765 0A       		.byte	0xa
 5516 1766 2E       		.byte	0x2e
 5517 1767 0C       		.byte	0xc
 5518 1768 65060000 		.4byte	0x665
 5519 176c 1E       		.uleb128 0x1e
 5520 176d 0A       		.byte	0xa
 5521 176e 2F       		.byte	0x2f
 5522 176f 0C       		.byte	0xc
 5523 1770 81060000 		.4byte	0x681
 5524 1774 1E       		.uleb128 0x1e
 5525 1775 0A       		.byte	0xa
 5526 1776 2F       		.byte	0x2f
 5527 1777 0C       		.byte	0xc
 5528 1778 9E060000 		.4byte	0x69e
 5529 177c 1E       		.uleb128 0x1e
 5530 177d 0A       		.byte	0xa
 5531 177e 30       		.byte	0x30
ARM GAS  C:\Users\30806\AppData\Local\Temp\ccYcD1nI.s 			page 102


 5532 177f 0C       		.byte	0xc
 5533 1780 BB060000 		.4byte	0x6bb
 5534 1784 1E       		.uleb128 0x1e
 5535 1785 0A       		.byte	0xa
 5536 1786 30       		.byte	0x30
 5537 1787 0C       		.byte	0xc
 5538 1788 D8060000 		.4byte	0x6d8
 5539 178c 1E       		.uleb128 0x1e
 5540 178d 0A       		.byte	0xa
 5541 178e 31       		.byte	0x31
 5542 178f 0C       		.byte	0xc
 5543 1790 F5060000 		.4byte	0x6f5
 5544 1794 1E       		.uleb128 0x1e
 5545 1795 0A       		.byte	0xa
 5546 1796 31       		.byte	0x31
 5547 1797 0C       		.byte	0xc
 5548 1798 11070000 		.4byte	0x711
 5549 179c 0E       		.uleb128 0xe
 5550 179d 04       		.byte	0x4
 5551 179e 71000000 		.4byte	0x71
 5552 17a2 1E       		.uleb128 0x1e
 5553 17a3 0A       		.byte	0xa
 5554 17a4 32       		.byte	0x32
 5555 17a5 0C       		.byte	0xc
 5556 17a6 2D070000 		.4byte	0x72d
 5557 17aa 1E       		.uleb128 0x1e
 5558 17ab 0A       		.byte	0xa
 5559 17ac 32       		.byte	0x32
 5560 17ad 0C       		.byte	0xc
 5561 17ae 4F070000 		.4byte	0x74f
 5562 17b2 1E       		.uleb128 0x1e
 5563 17b3 0A       		.byte	0xa
 5564 17b4 33       		.byte	0x33
 5565 17b5 0C       		.byte	0xc
 5566 17b6 71070000 		.4byte	0x771
 5567 17ba 1E       		.uleb128 0x1e
 5568 17bb 0A       		.byte	0xa
 5569 17bc 33       		.byte	0x33
 5570 17bd 0C       		.byte	0xc
 5571 17be 93070000 		.4byte	0x793
 5572 17c2 1E       		.uleb128 0x1e
 5573 17c3 0A       		.byte	0xa
 5574 17c4 34       		.byte	0x34
 5575 17c5 0C       		.byte	0xc
 5576 17c6 B5070000 		.4byte	0x7b5
 5577 17ca 1E       		.uleb128 0x1e
 5578 17cb 0A       		.byte	0xa
 5579 17cc 34       		.byte	0x34
 5580 17cd 0C       		.byte	0xc
 5581 17ce D2070000 		.4byte	0x7d2
 5582 17d2 1E       		.uleb128 0x1e
 5583 17d3 0A       		.byte	0xa
 5584 17d4 35       		.byte	0x35
 5585 17d5 0C       		.byte	0xc
 5586 17d6 EF070000 		.4byte	0x7ef
 5587 17da 1E       		.uleb128 0x1e
 5588 17db 0A       		.byte	0xa
ARM GAS  C:\Users\30806\AppData\Local\Temp\ccYcD1nI.s 			page 103


 5589 17dc 35       		.byte	0x35
 5590 17dd 0C       		.byte	0xc
 5591 17de 0C080000 		.4byte	0x80c
 5592 17e2 0E       		.uleb128 0xe
 5593 17e3 04       		.byte	0x4
 5594 17e4 60030000 		.4byte	0x360
 5595 17e8 1E       		.uleb128 0x1e
 5596 17e9 0A       		.byte	0xa
 5597 17ea 36       		.byte	0x36
 5598 17eb 0C       		.byte	0xc
 5599 17ec 29080000 		.4byte	0x829
 5600 17f0 1E       		.uleb128 0x1e
 5601 17f1 0A       		.byte	0xa
 5602 17f2 36       		.byte	0x36
 5603 17f3 0C       		.byte	0xc
 5604 17f4 4B080000 		.4byte	0x84b
 5605 17f8 1E       		.uleb128 0x1e
 5606 17f9 0A       		.byte	0xa
 5607 17fa 37       		.byte	0x37
 5608 17fb 0C       		.byte	0xc
 5609 17fc 6D080000 		.4byte	0x86d
 5610 1800 1E       		.uleb128 0x1e
 5611 1801 0A       		.byte	0xa
 5612 1802 37       		.byte	0x37
 5613 1803 0C       		.byte	0xc
 5614 1804 8F080000 		.4byte	0x88f
 5615 1808 1E       		.uleb128 0x1e
 5616 1809 0A       		.byte	0xa
 5617 180a 38       		.byte	0x38
 5618 180b 0C       		.byte	0xc
 5619 180c B1080000 		.4byte	0x8b1
 5620 1810 1E       		.uleb128 0x1e
 5621 1811 0A       		.byte	0xa
 5622 1812 38       		.byte	0x38
 5623 1813 0C       		.byte	0xc
 5624 1814 CE080000 		.4byte	0x8ce
 5625 1818 1E       		.uleb128 0x1e
 5626 1819 0A       		.byte	0xa
 5627 181a 39       		.byte	0x39
 5628 181b 0C       		.byte	0xc
 5629 181c EB080000 		.4byte	0x8eb
 5630 1820 1E       		.uleb128 0x1e
 5631 1821 0A       		.byte	0xa
 5632 1822 39       		.byte	0x39
 5633 1823 0C       		.byte	0xc
 5634 1824 07090000 		.4byte	0x907
 5635 1828 1E       		.uleb128 0x1e
 5636 1829 0A       		.byte	0xa
 5637 182a 3A       		.byte	0x3a
 5638 182b 0C       		.byte	0xc
 5639 182c 23090000 		.4byte	0x923
 5640 1830 1E       		.uleb128 0x1e
 5641 1831 0A       		.byte	0xa
 5642 1832 3A       		.byte	0x3a
 5643 1833 0C       		.byte	0xc
 5644 1834 3F090000 		.4byte	0x93f
 5645 1838 1E       		.uleb128 0x1e
ARM GAS  C:\Users\30806\AppData\Local\Temp\ccYcD1nI.s 			page 104


 5646 1839 0A       		.byte	0xa
 5647 183a 3B       		.byte	0x3b
 5648 183b 0C       		.byte	0xc
 5649 183c 5B090000 		.4byte	0x95b
 5650 1840 1E       		.uleb128 0x1e
 5651 1841 0A       		.byte	0xa
 5652 1842 3B       		.byte	0x3b
 5653 1843 0C       		.byte	0xc
 5654 1844 78090000 		.4byte	0x978
 5655 1848 1E       		.uleb128 0x1e
 5656 1849 0A       		.byte	0xa
 5657 184a 3C       		.byte	0x3c
 5658 184b 0C       		.byte	0xc
 5659 184c 95090000 		.4byte	0x995
 5660 1850 1E       		.uleb128 0x1e
 5661 1851 0A       		.byte	0xa
 5662 1852 3C       		.byte	0x3c
 5663 1853 0C       		.byte	0xc
 5664 1854 B7090000 		.4byte	0x9b7
 5665 1858 1E       		.uleb128 0x1e
 5666 1859 0A       		.byte	0xa
 5667 185a 3F       		.byte	0x3f
 5668 185b 0C       		.byte	0xc
 5669 185c D9090000 		.4byte	0x9d9
 5670 1860 1E       		.uleb128 0x1e
 5671 1861 0A       		.byte	0xa
 5672 1862 3F       		.byte	0x3f
 5673 1863 0C       		.byte	0xc
 5674 1864 F6090000 		.4byte	0x9f6
 5675 1868 1E       		.uleb128 0x1e
 5676 1869 0A       		.byte	0xa
 5677 186a 3F       		.byte	0x3f
 5678 186b 0C       		.byte	0xc
 5679 186c 130A0000 		.4byte	0xa13
 5680 1870 02       		.uleb128 0x2
 5681 1871 01       		.byte	0x1
 5682 1872 02       		.byte	0x2
 5683 1873 6F800000 		.4byte	.LASF1787
 5684 1877 1E       		.uleb128 0x1e
 5685 1878 0A       		.byte	0xa
 5686 1879 40       		.byte	0x40
 5687 187a 0C       		.byte	0xc
 5688 187b 300A0000 		.4byte	0xa30
 5689 187f 1E       		.uleb128 0x1e
 5690 1880 0A       		.byte	0xa
 5691 1881 40       		.byte	0x40
 5692 1882 0C       		.byte	0xc
 5693 1883 4D0A0000 		.4byte	0xa4d
 5694 1887 1E       		.uleb128 0x1e
 5695 1888 0A       		.byte	0xa
 5696 1889 40       		.byte	0x40
 5697 188a 0C       		.byte	0xc
 5698 188b 6A0A0000 		.4byte	0xa6a
 5699 188f 1E       		.uleb128 0x1e
 5700 1890 0A       		.byte	0xa
 5701 1891 41       		.byte	0x41
 5702 1892 0C       		.byte	0xc
ARM GAS  C:\Users\30806\AppData\Local\Temp\ccYcD1nI.s 			page 105


 5703 1893 870A0000 		.4byte	0xa87
 5704 1897 1E       		.uleb128 0x1e
 5705 1898 0A       		.byte	0xa
 5706 1899 41       		.byte	0x41
 5707 189a 0C       		.byte	0xc
 5708 189b A40A0000 		.4byte	0xaa4
 5709 189f 1E       		.uleb128 0x1e
 5710 18a0 0A       		.byte	0xa
 5711 18a1 41       		.byte	0x41
 5712 18a2 0C       		.byte	0xc
 5713 18a3 C10A0000 		.4byte	0xac1
 5714 18a7 1E       		.uleb128 0x1e
 5715 18a8 0A       		.byte	0xa
 5716 18a9 42       		.byte	0x42
 5717 18aa 0C       		.byte	0xc
 5718 18ab DE0A0000 		.4byte	0xade
 5719 18af 1E       		.uleb128 0x1e
 5720 18b0 0A       		.byte	0xa
 5721 18b1 42       		.byte	0x42
 5722 18b2 0C       		.byte	0xc
 5723 18b3 FB0A0000 		.4byte	0xafb
 5724 18b7 1E       		.uleb128 0x1e
 5725 18b8 0A       		.byte	0xa
 5726 18b9 42       		.byte	0x42
 5727 18ba 0C       		.byte	0xc
 5728 18bb 180B0000 		.4byte	0xb18
 5729 18bf 1E       		.uleb128 0x1e
 5730 18c0 0A       		.byte	0xa
 5731 18c1 43       		.byte	0x43
 5732 18c2 0C       		.byte	0xc
 5733 18c3 350B0000 		.4byte	0xb35
 5734 18c7 1E       		.uleb128 0x1e
 5735 18c8 0A       		.byte	0xa
 5736 18c9 43       		.byte	0x43
 5737 18ca 0C       		.byte	0xc
 5738 18cb 520B0000 		.4byte	0xb52
 5739 18cf 1E       		.uleb128 0x1e
 5740 18d0 0A       		.byte	0xa
 5741 18d1 43       		.byte	0x43
 5742 18d2 0C       		.byte	0xc
 5743 18d3 6F0B0000 		.4byte	0xb6f
 5744 18d7 1E       		.uleb128 0x1e
 5745 18d8 0A       		.byte	0xa
 5746 18d9 44       		.byte	0x44
 5747 18da 0C       		.byte	0xc
 5748 18db 8C0B0000 		.4byte	0xb8c
 5749 18df 1E       		.uleb128 0x1e
 5750 18e0 0A       		.byte	0xa
 5751 18e1 44       		.byte	0x44
 5752 18e2 0C       		.byte	0xc
 5753 18e3 A90B0000 		.4byte	0xba9
 5754 18e7 1E       		.uleb128 0x1e
 5755 18e8 0A       		.byte	0xa
 5756 18e9 44       		.byte	0x44
 5757 18ea 0C       		.byte	0xc
 5758 18eb C60B0000 		.4byte	0xbc6
 5759 18ef 1E       		.uleb128 0x1e
ARM GAS  C:\Users\30806\AppData\Local\Temp\ccYcD1nI.s 			page 106


 5760 18f0 0A       		.byte	0xa
 5761 18f1 45       		.byte	0x45
 5762 18f2 0C       		.byte	0xc
 5763 18f3 E30B0000 		.4byte	0xbe3
 5764 18f7 1E       		.uleb128 0x1e
 5765 18f8 0A       		.byte	0xa
 5766 18f9 45       		.byte	0x45
 5767 18fa 0C       		.byte	0xc
 5768 18fb 050C0000 		.4byte	0xc05
 5769 18ff 1E       		.uleb128 0x1e
 5770 1900 0A       		.byte	0xa
 5771 1901 45       		.byte	0x45
 5772 1902 0C       		.byte	0xc
 5773 1903 270C0000 		.4byte	0xc27
 5774 1907 1E       		.uleb128 0x1e
 5775 1908 0A       		.byte	0xa
 5776 1909 46       		.byte	0x46
 5777 190a 0C       		.byte	0xc
 5778 190b 490C0000 		.4byte	0xc49
 5779 190f 1E       		.uleb128 0x1e
 5780 1910 0A       		.byte	0xa
 5781 1911 46       		.byte	0x46
 5782 1912 0C       		.byte	0xc
 5783 1913 6B0C0000 		.4byte	0xc6b
 5784 1917 1E       		.uleb128 0x1e
 5785 1918 0A       		.byte	0xa
 5786 1919 46       		.byte	0x46
 5787 191a 0C       		.byte	0xc
 5788 191b 8D0C0000 		.4byte	0xc8d
 5789 191f 1E       		.uleb128 0x1e
 5790 1920 0A       		.byte	0xa
 5791 1921 47       		.byte	0x47
 5792 1922 0C       		.byte	0xc
 5793 1923 AF0C0000 		.4byte	0xcaf
 5794 1927 1E       		.uleb128 0x1e
 5795 1928 0A       		.byte	0xa
 5796 1929 47       		.byte	0x47
 5797 192a 0C       		.byte	0xc
 5798 192b D10C0000 		.4byte	0xcd1
 5799 192f 1E       		.uleb128 0x1e
 5800 1930 0A       		.byte	0xa
 5801 1931 47       		.byte	0x47
 5802 1932 0C       		.byte	0xc
 5803 1933 F30C0000 		.4byte	0xcf3
 5804 1937 1E       		.uleb128 0x1e
 5805 1938 0A       		.byte	0xa
 5806 1939 48       		.byte	0x48
 5807 193a 0C       		.byte	0xc
 5808 193b 150D0000 		.4byte	0xd15
 5809 193f 1E       		.uleb128 0x1e
 5810 1940 0A       		.byte	0xa
 5811 1941 48       		.byte	0x48
 5812 1942 0C       		.byte	0xc
 5813 1943 370D0000 		.4byte	0xd37
 5814 1947 1E       		.uleb128 0x1e
 5815 1948 0A       		.byte	0xa
 5816 1949 48       		.byte	0x48
ARM GAS  C:\Users\30806\AppData\Local\Temp\ccYcD1nI.s 			page 107


 5817 194a 0C       		.byte	0xc
 5818 194b 590D0000 		.4byte	0xd59
 5819 194f 1E       		.uleb128 0x1e
 5820 1950 0A       		.byte	0xa
 5821 1951 49       		.byte	0x49
 5822 1952 0C       		.byte	0xc
 5823 1953 7B0D0000 		.4byte	0xd7b
 5824 1957 1E       		.uleb128 0x1e
 5825 1958 0A       		.byte	0xa
 5826 1959 49       		.byte	0x49
 5827 195a 0C       		.byte	0xc
 5828 195b 9D0D0000 		.4byte	0xd9d
 5829 195f 1E       		.uleb128 0x1e
 5830 1960 0A       		.byte	0xa
 5831 1961 49       		.byte	0x49
 5832 1962 0C       		.byte	0xc
 5833 1963 BF0D0000 		.4byte	0xdbf
 5834 1967 1E       		.uleb128 0x1e
 5835 1968 0A       		.byte	0xa
 5836 1969 4A       		.byte	0x4a
 5837 196a 0C       		.byte	0xc
 5838 196b E10D0000 		.4byte	0xde1
 5839 196f 1E       		.uleb128 0x1e
 5840 1970 0A       		.byte	0xa
 5841 1971 4A       		.byte	0x4a
 5842 1972 0C       		.byte	0xc
 5843 1973 030E0000 		.4byte	0xe03
 5844 1977 1E       		.uleb128 0x1e
 5845 1978 0A       		.byte	0xa
 5846 1979 4A       		.byte	0x4a
 5847 197a 0C       		.byte	0xc
 5848 197b 250E0000 		.4byte	0xe25
 5849 197f 1E       		.uleb128 0x1e
 5850 1980 0A       		.byte	0xa
 5851 1981 4E       		.byte	0x4e
 5852 1982 0C       		.byte	0xc
 5853 1983 470E0000 		.4byte	0xe47
 5854 1987 1E       		.uleb128 0x1e
 5855 1988 0A       		.byte	0xa
 5856 1989 4E       		.byte	0x4e
 5857 198a 0C       		.byte	0xc
 5858 198b 640E0000 		.4byte	0xe64
 5859 198f 1E       		.uleb128 0x1e
 5860 1990 0A       		.byte	0xa
 5861 1991 4F       		.byte	0x4f
 5862 1992 0C       		.byte	0xc
 5863 1993 810E0000 		.4byte	0xe81
 5864 1997 1E       		.uleb128 0x1e
 5865 1998 0A       		.byte	0xa
 5866 1999 4F       		.byte	0x4f
 5867 199a 0C       		.byte	0xc
 5868 199b 9E0E0000 		.4byte	0xe9e
 5869 199f 1E       		.uleb128 0x1e
 5870 19a0 0A       		.byte	0xa
 5871 19a1 50       		.byte	0x50
 5872 19a2 0C       		.byte	0xc
 5873 19a3 BB0E0000 		.4byte	0xebb
ARM GAS  C:\Users\30806\AppData\Local\Temp\ccYcD1nI.s 			page 108


 5874 19a7 1E       		.uleb128 0x1e
 5875 19a8 0A       		.byte	0xa
 5876 19a9 50       		.byte	0x50
 5877 19aa 0C       		.byte	0xc
 5878 19ab D80E0000 		.4byte	0xed8
 5879 19af 1E       		.uleb128 0x1e
 5880 19b0 0A       		.byte	0xa
 5881 19b1 51       		.byte	0x51
 5882 19b2 0C       		.byte	0xc
 5883 19b3 F50E0000 		.4byte	0xef5
 5884 19b7 1E       		.uleb128 0x1e
 5885 19b8 0A       		.byte	0xa
 5886 19b9 51       		.byte	0x51
 5887 19ba 0C       		.byte	0xc
 5888 19bb 120F0000 		.4byte	0xf12
 5889 19bf 1E       		.uleb128 0x1e
 5890 19c0 0A       		.byte	0xa
 5891 19c1 52       		.byte	0x52
 5892 19c2 0C       		.byte	0xc
 5893 19c3 2F0F0000 		.4byte	0xf2f
 5894 19c7 1E       		.uleb128 0x1e
 5895 19c8 0A       		.byte	0xa
 5896 19c9 52       		.byte	0x52
 5897 19ca 0C       		.byte	0xc
 5898 19cb 510F0000 		.4byte	0xf51
 5899 19cf 1E       		.uleb128 0x1e
 5900 19d0 0A       		.byte	0xa
 5901 19d1 53       		.byte	0x53
 5902 19d2 0C       		.byte	0xc
 5903 19d3 730F0000 		.4byte	0xf73
 5904 19d7 1E       		.uleb128 0x1e
 5905 19d8 0A       		.byte	0xa
 5906 19d9 53       		.byte	0x53
 5907 19da 0C       		.byte	0xc
 5908 19db 900F0000 		.4byte	0xf90
 5909 19df 1E       		.uleb128 0x1e
 5910 19e0 0A       		.byte	0xa
 5911 19e1 54       		.byte	0x54
 5912 19e2 0C       		.byte	0xc
 5913 19e3 AD0F0000 		.4byte	0xfad
 5914 19e7 1E       		.uleb128 0x1e
 5915 19e8 0A       		.byte	0xa
 5916 19e9 54       		.byte	0x54
 5917 19ea 0C       		.byte	0xc
 5918 19eb CA0F0000 		.4byte	0xfca
 5919 19ef 1E       		.uleb128 0x1e
 5920 19f0 0A       		.byte	0xa
 5921 19f1 55       		.byte	0x55
 5922 19f2 0C       		.byte	0xc
 5923 19f3 E70F0000 		.4byte	0xfe7
 5924 19f7 1E       		.uleb128 0x1e
 5925 19f8 0A       		.byte	0xa
 5926 19f9 55       		.byte	0x55
 5927 19fa 0C       		.byte	0xc
 5928 19fb 04100000 		.4byte	0x1004
 5929 19ff 1E       		.uleb128 0x1e
 5930 1a00 0A       		.byte	0xa
ARM GAS  C:\Users\30806\AppData\Local\Temp\ccYcD1nI.s 			page 109


 5931 1a01 56       		.byte	0x56
 5932 1a02 0C       		.byte	0xc
 5933 1a03 21100000 		.4byte	0x1021
 5934 1a07 1E       		.uleb128 0x1e
 5935 1a08 0A       		.byte	0xa
 5936 1a09 56       		.byte	0x56
 5937 1a0a 0C       		.byte	0xc
 5938 1a0b 3E100000 		.4byte	0x103e
 5939 1a0f 1E       		.uleb128 0x1e
 5940 1a10 0A       		.byte	0xa
 5941 1a11 57       		.byte	0x57
 5942 1a12 0C       		.byte	0xc
 5943 1a13 5B100000 		.4byte	0x105b
 5944 1a17 1E       		.uleb128 0x1e
 5945 1a18 0A       		.byte	0xa
 5946 1a19 57       		.byte	0x57
 5947 1a1a 0C       		.byte	0xc
 5948 1a1b 7D100000 		.4byte	0x107d
 5949 1a1f 1E       		.uleb128 0x1e
 5950 1a20 0A       		.byte	0xa
 5951 1a21 58       		.byte	0x58
 5952 1a22 0C       		.byte	0xc
 5953 1a23 9F100000 		.4byte	0x109f
 5954 1a27 1E       		.uleb128 0x1e
 5955 1a28 0A       		.byte	0xa
 5956 1a29 58       		.byte	0x58
 5957 1a2a 0C       		.byte	0xc
 5958 1a2b C6100000 		.4byte	0x10c6
 5959 1a2f 1E       		.uleb128 0x1e
 5960 1a30 0A       		.byte	0xa
 5961 1a31 59       		.byte	0x59
 5962 1a32 0C       		.byte	0xc
 5963 1a33 ED100000 		.4byte	0x10ed
 5964 1a37 1E       		.uleb128 0x1e
 5965 1a38 0A       		.byte	0xa
 5966 1a39 59       		.byte	0x59
 5967 1a3a 0C       		.byte	0xc
 5968 1a3b 0F110000 		.4byte	0x110f
 5969 1a3f 1E       		.uleb128 0x1e
 5970 1a40 0A       		.byte	0xa
 5971 1a41 5A       		.byte	0x5a
 5972 1a42 0C       		.byte	0xc
 5973 1a43 31110000 		.4byte	0x1131
 5974 1a47 1E       		.uleb128 0x1e
 5975 1a48 0A       		.byte	0xa
 5976 1a49 5A       		.byte	0x5a
 5977 1a4a 0C       		.byte	0xc
 5978 1a4b 53110000 		.4byte	0x1153
 5979 1a4f 1E       		.uleb128 0x1e
 5980 1a50 0A       		.byte	0xa
 5981 1a51 5B       		.byte	0x5b
 5982 1a52 0C       		.byte	0xc
 5983 1a53 75110000 		.4byte	0x1175
 5984 1a57 1E       		.uleb128 0x1e
 5985 1a58 0A       		.byte	0xa
 5986 1a59 5B       		.byte	0x5b
 5987 1a5a 0C       		.byte	0xc
ARM GAS  C:\Users\30806\AppData\Local\Temp\ccYcD1nI.s 			page 110


 5988 1a5b 97110000 		.4byte	0x1197
 5989 1a5f 1E       		.uleb128 0x1e
 5990 1a60 0A       		.byte	0xa
 5991 1a61 5C       		.byte	0x5c
 5992 1a62 0C       		.byte	0xc
 5993 1a63 B9110000 		.4byte	0x11b9
 5994 1a67 1E       		.uleb128 0x1e
 5995 1a68 0A       		.byte	0xa
 5996 1a69 5C       		.byte	0x5c
 5997 1a6a 0C       		.byte	0xc
 5998 1a6b D6110000 		.4byte	0x11d6
 5999 1a6f 1E       		.uleb128 0x1e
 6000 1a70 0A       		.byte	0xa
 6001 1a71 5D       		.byte	0x5d
 6002 1a72 0C       		.byte	0xc
 6003 1a73 F3110000 		.4byte	0x11f3
 6004 1a77 1E       		.uleb128 0x1e
 6005 1a78 0A       		.byte	0xa
 6006 1a79 5D       		.byte	0x5d
 6007 1a7a 0C       		.byte	0xc
 6008 1a7b 10120000 		.4byte	0x1210
 6009 1a7f 1E       		.uleb128 0x1e
 6010 1a80 0A       		.byte	0xa
 6011 1a81 5E       		.byte	0x5e
 6012 1a82 0C       		.byte	0xc
 6013 1a83 2D120000 		.4byte	0x122d
 6014 1a87 1E       		.uleb128 0x1e
 6015 1a88 0A       		.byte	0xa
 6016 1a89 5E       		.byte	0x5e
 6017 1a8a 0C       		.byte	0xc
 6018 1a8b 4A120000 		.4byte	0x124a
 6019 1a8f 1E       		.uleb128 0x1e
 6020 1a90 0A       		.byte	0xa
 6021 1a91 5F       		.byte	0x5f
 6022 1a92 0C       		.byte	0xc
 6023 1a93 67120000 		.4byte	0x1267
 6024 1a97 1E       		.uleb128 0x1e
 6025 1a98 0A       		.byte	0xa
 6026 1a99 5F       		.byte	0x5f
 6027 1a9a 0C       		.byte	0xc
 6028 1a9b 84120000 		.4byte	0x1284
 6029 1a9f 1E       		.uleb128 0x1e
 6030 1aa0 0A       		.byte	0xa
 6031 1aa1 60       		.byte	0x60
 6032 1aa2 0C       		.byte	0xc
 6033 1aa3 A1120000 		.4byte	0x12a1
 6034 1aa7 1E       		.uleb128 0x1e
 6035 1aa8 0A       		.byte	0xa
 6036 1aa9 60       		.byte	0x60
 6037 1aaa 0C       		.byte	0xc
 6038 1aab BE120000 		.4byte	0x12be
 6039 1aaf 1E       		.uleb128 0x1e
 6040 1ab0 0A       		.byte	0xa
 6041 1ab1 61       		.byte	0x61
 6042 1ab2 0C       		.byte	0xc
 6043 1ab3 DB120000 		.4byte	0x12db
 6044 1ab7 1E       		.uleb128 0x1e
ARM GAS  C:\Users\30806\AppData\Local\Temp\ccYcD1nI.s 			page 111


 6045 1ab8 0A       		.byte	0xa
 6046 1ab9 61       		.byte	0x61
 6047 1aba 0C       		.byte	0xc
 6048 1abb F8120000 		.4byte	0x12f8
 6049 1abf 1E       		.uleb128 0x1e
 6050 1ac0 0A       		.byte	0xa
 6051 1ac1 62       		.byte	0x62
 6052 1ac2 0C       		.byte	0xc
 6053 1ac3 15130000 		.4byte	0x1315
 6054 1ac7 1E       		.uleb128 0x1e
 6055 1ac8 0A       		.byte	0xa
 6056 1ac9 62       		.byte	0x62
 6057 1aca 0C       		.byte	0xc
 6058 1acb 32130000 		.4byte	0x1332
 6059 1acf 1E       		.uleb128 0x1e
 6060 1ad0 0A       		.byte	0xa
 6061 1ad1 63       		.byte	0x63
 6062 1ad2 0C       		.byte	0xc
 6063 1ad3 4F130000 		.4byte	0x134f
 6064 1ad7 1E       		.uleb128 0x1e
 6065 1ad8 0A       		.byte	0xa
 6066 1ad9 63       		.byte	0x63
 6067 1ada 0C       		.byte	0xc
 6068 1adb 6C130000 		.4byte	0x136c
 6069 1adf 1E       		.uleb128 0x1e
 6070 1ae0 0A       		.byte	0xa
 6071 1ae1 64       		.byte	0x64
 6072 1ae2 0C       		.byte	0xc
 6073 1ae3 89130000 		.4byte	0x1389
 6074 1ae7 1E       		.uleb128 0x1e
 6075 1ae8 0A       		.byte	0xa
 6076 1ae9 64       		.byte	0x64
 6077 1aea 0C       		.byte	0xc
 6078 1aeb A6130000 		.4byte	0x13a6
 6079 1aef 1E       		.uleb128 0x1e
 6080 1af0 0A       		.byte	0xa
 6081 1af1 65       		.byte	0x65
 6082 1af2 0C       		.byte	0xc
 6083 1af3 C3130000 		.4byte	0x13c3
 6084 1af7 1E       		.uleb128 0x1e
 6085 1af8 0A       		.byte	0xa
 6086 1af9 65       		.byte	0x65
 6087 1afa 0C       		.byte	0xc
 6088 1afb E0130000 		.4byte	0x13e0
 6089 1aff 1E       		.uleb128 0x1e
 6090 1b00 0A       		.byte	0xa
 6091 1b01 66       		.byte	0x66
 6092 1b02 0C       		.byte	0xc
 6093 1b03 FD130000 		.4byte	0x13fd
 6094 1b07 1E       		.uleb128 0x1e
 6095 1b08 0A       		.byte	0xa
 6096 1b09 66       		.byte	0x66
 6097 1b0a 0C       		.byte	0xc
 6098 1b0b 1F140000 		.4byte	0x141f
 6099 1b0f 1E       		.uleb128 0x1e
 6100 1b10 0A       		.byte	0xa
 6101 1b11 67       		.byte	0x67
ARM GAS  C:\Users\30806\AppData\Local\Temp\ccYcD1nI.s 			page 112


 6102 1b12 0C       		.byte	0xc
 6103 1b13 41140000 		.4byte	0x1441
 6104 1b17 1E       		.uleb128 0x1e
 6105 1b18 0A       		.byte	0xa
 6106 1b19 67       		.byte	0x67
 6107 1b1a 0C       		.byte	0xc
 6108 1b1b 63140000 		.4byte	0x1463
 6109 1b1f 1E       		.uleb128 0x1e
 6110 1b20 0A       		.byte	0xa
 6111 1b21 68       		.byte	0x68
 6112 1b22 0C       		.byte	0xc
 6113 1b23 85140000 		.4byte	0x1485
 6114 1b27 1E       		.uleb128 0x1e
 6115 1b28 0A       		.byte	0xa
 6116 1b29 68       		.byte	0x68
 6117 1b2a 0C       		.byte	0xc
 6118 1b2b A7140000 		.4byte	0x14a7
 6119 1b2f 1E       		.uleb128 0x1e
 6120 1b30 0A       		.byte	0xa
 6121 1b31 69       		.byte	0x69
 6122 1b32 0C       		.byte	0xc
 6123 1b33 C9140000 		.4byte	0x14c9
 6124 1b37 1E       		.uleb128 0x1e
 6125 1b38 0A       		.byte	0xa
 6126 1b39 69       		.byte	0x69
 6127 1b3a 0C       		.byte	0xc
 6128 1b3b F0140000 		.4byte	0x14f0
 6129 1b3f 1E       		.uleb128 0x1e
 6130 1b40 0A       		.byte	0xa
 6131 1b41 6A       		.byte	0x6a
 6132 1b42 0C       		.byte	0xc
 6133 1b43 17150000 		.4byte	0x1517
 6134 1b47 1E       		.uleb128 0x1e
 6135 1b48 0A       		.byte	0xa
 6136 1b49 6A       		.byte	0x6a
 6137 1b4a 0C       		.byte	0xc
 6138 1b4b 34150000 		.4byte	0x1534
 6139 1b4f 1E       		.uleb128 0x1e
 6140 1b50 0A       		.byte	0xa
 6141 1b51 6B       		.byte	0x6b
 6142 1b52 0C       		.byte	0xc
 6143 1b53 51150000 		.4byte	0x1551
 6144 1b57 1E       		.uleb128 0x1e
 6145 1b58 0A       		.byte	0xa
 6146 1b59 6B       		.byte	0x6b
 6147 1b5a 0C       		.byte	0xc
 6148 1b5b 6E150000 		.4byte	0x156e
 6149 1b5f 1E       		.uleb128 0x1e
 6150 1b60 0A       		.byte	0xa
 6151 1b61 6C       		.byte	0x6c
 6152 1b62 0C       		.byte	0xc
 6153 1b63 8B150000 		.4byte	0x158b
 6154 1b67 1E       		.uleb128 0x1e
 6155 1b68 0A       		.byte	0xa
 6156 1b69 6C       		.byte	0x6c
 6157 1b6a 0C       		.byte	0xc
 6158 1b6b AD150000 		.4byte	0x15ad
ARM GAS  C:\Users\30806\AppData\Local\Temp\ccYcD1nI.s 			page 113


 6159 1b6f 1E       		.uleb128 0x1e
 6160 1b70 0A       		.byte	0xa
 6161 1b71 6D       		.byte	0x6d
 6162 1b72 0C       		.byte	0xc
 6163 1b73 CF150000 		.4byte	0x15cf
 6164 1b77 1E       		.uleb128 0x1e
 6165 1b78 0A       		.byte	0xa
 6166 1b79 6D       		.byte	0x6d
 6167 1b7a 0C       		.byte	0xc
 6168 1b7b F1150000 		.4byte	0x15f1
 6169 1b7f 1E       		.uleb128 0x1e
 6170 1b80 0A       		.byte	0xa
 6171 1b81 6E       		.byte	0x6e
 6172 1b82 0C       		.byte	0xc
 6173 1b83 13160000 		.4byte	0x1613
 6174 1b87 1E       		.uleb128 0x1e
 6175 1b88 0A       		.byte	0xa
 6176 1b89 6E       		.byte	0x6e
 6177 1b8a 0C       		.byte	0xc
 6178 1b8b 30160000 		.4byte	0x1630
 6179 1b8f 1E       		.uleb128 0x1e
 6180 1b90 0A       		.byte	0xa
 6181 1b91 6F       		.byte	0x6f
 6182 1b92 0C       		.byte	0xc
 6183 1b93 4D160000 		.4byte	0x164d
 6184 1b97 1E       		.uleb128 0x1e
 6185 1b98 0A       		.byte	0xa
 6186 1b99 6F       		.byte	0x6f
 6187 1b9a 0C       		.byte	0xc
 6188 1b9b 6A160000 		.4byte	0x166a
 6189 1b9f 1F       		.uleb128 0x1f
 6190 1ba0 EB000000 		.4byte	0xeb
 6191 1ba4 B01B0000 		.4byte	0x1bb0
 6192 1ba8 20       		.uleb128 0x20
 6193 1ba9 78000000 		.4byte	0x78
 6194 1bad 8403     		.2byte	0x384
 6195 1baf 00       		.byte	0
 6196 1bb0 07       		.uleb128 0x7
 6197 1bb1 9F1B0000 		.4byte	0x1b9f
 6198 1bb5 21       		.uleb128 0x21
 6199 1bb6 ECB40000 		.4byte	.LASF1797
 6200 1bba 0B       		.byte	0xb
 6201 1bbb 0A       		.byte	0xa
 6202 1bbc 0D       		.byte	0xd
 6203 1bbd B01B0000 		.4byte	0x1bb0
 6204 1bc1 05       		.byte	0x5
 6205 1bc2 03       		.byte	0x3
 6206 1bc3 00000000 		.4byte	_ZL23Trigonometric_Functions
 6207 1bc7 22       		.uleb128 0x22
 6208 1bc8 22030000 		.4byte	0x322
 6209 1bcc 01       		.byte	0x1
 6210 1bcd DB       		.byte	0xdb
 6211 1bce 07       		.byte	0x7
 6212 1bcf E41B0000 		.4byte	0x1be4
 6213 1bd3 00000000 		.4byte	.LFB386
 6214 1bd7 5C000000 		.4byte	.LFE386
 6215 1bdb 00000000 		.4byte	.LLST12
ARM GAS  C:\Users\30806\AppData\Local\Temp\ccYcD1nI.s 			page 114


 6216 1bdf 01       		.byte	0x1
 6217 1be0 1F1C0000 		.4byte	0x1c1f
 6218 1be4 23       		.uleb128 0x23
 6219 1be5 53540000 		.4byte	.LASF1788
 6220 1be9 55030000 		.4byte	0x355
 6221 1bed 01       		.byte	0x1
 6222 1bee 02       		.byte	0x2
 6223 1bef 91       		.byte	0x91
 6224 1bf0 74       		.sleb128 -12
 6225 1bf1 24       		.uleb128 0x24
 6226 1bf2 76616C00 		.ascii	"val\000"
 6227 1bf6 01       		.byte	0x1
 6228 1bf7 DB       		.byte	0xdb
 6229 1bf8 2A       		.byte	0x2a
 6230 1bf9 E4000000 		.4byte	0xe4
 6231 1bfd 02       		.byte	0x2
 6232 1bfe 91       		.byte	0x91
 6233 1bff 70       		.sleb128 -16
 6234 1c00 24       		.uleb128 0x24
 6235 1c01 6D696E00 		.ascii	"min\000"
 6236 1c05 01       		.byte	0x1
 6237 1c06 DB       		.byte	0xdb
 6238 1c07 35       		.byte	0x35
 6239 1c08 E4000000 		.4byte	0xe4
 6240 1c0c 02       		.byte	0x2
 6241 1c0d 91       		.byte	0x91
 6242 1c0e 6C       		.sleb128 -20
 6243 1c0f 24       		.uleb128 0x24
 6244 1c10 6D617800 		.ascii	"max\000"
 6245 1c14 01       		.byte	0x1
 6246 1c15 DB       		.byte	0xdb
 6247 1c16 40       		.byte	0x40
 6248 1c17 E4000000 		.4byte	0xe4
 6249 1c1b 02       		.byte	0x2
 6250 1c1c 91       		.byte	0x91
 6251 1c1d 68       		.sleb128 -24
 6252 1c1e 00       		.byte	0
 6253 1c1f 22       		.uleb128 0x22
 6254 1c20 4F020000 		.4byte	0x24f
 6255 1c24 01       		.byte	0x1
 6256 1c25 CA       		.byte	0xca
 6257 1c26 07       		.byte	0x7
 6258 1c27 3C1C0000 		.4byte	0x1c3c
 6259 1c2b 00000000 		.4byte	.LFB385
 6260 1c2f 9A000000 		.4byte	.LFE385
 6261 1c33 5C000000 		.4byte	.LLST11
 6262 1c37 01       		.byte	0x1
 6263 1c38 771C0000 		.4byte	0x1c77
 6264 1c3c 23       		.uleb128 0x23
 6265 1c3d 53540000 		.4byte	.LASF1788
 6266 1c41 55030000 		.4byte	0x355
 6267 1c45 01       		.byte	0x1
 6268 1c46 02       		.byte	0x2
 6269 1c47 91       		.byte	0x91
 6270 1c48 74       		.sleb128 -12
 6271 1c49 25       		.uleb128 0x25
 6272 1c4a 84580000 		.4byte	.LASF1789
ARM GAS  C:\Users\30806\AppData\Local\Temp\ccYcD1nI.s 			page 115


 6273 1c4e 01       		.byte	0x1
 6274 1c4f CA       		.byte	0xca
 6275 1c50 2F       		.byte	0x2f
 6276 1c51 E4000000 		.4byte	0xe4
 6277 1c55 02       		.byte	0x2
 6278 1c56 91       		.byte	0x91
 6279 1c57 70       		.sleb128 -16
 6280 1c58 25       		.uleb128 0x25
 6281 1c59 9E3A0000 		.4byte	.LASF1790
 6282 1c5d 01       		.byte	0x1
 6283 1c5e CA       		.byte	0xca
 6284 1c5f 42       		.byte	0x42
 6285 1c60 E4000000 		.4byte	0xe4
 6286 1c64 02       		.byte	0x2
 6287 1c65 91       		.byte	0x91
 6288 1c66 6C       		.sleb128 -20
 6289 1c67 25       		.uleb128 0x25
 6290 1c68 CD770000 		.4byte	.LASF1791
 6291 1c6c 01       		.byte	0x1
 6292 1c6d CA       		.byte	0xca
 6293 1c6e 51       		.byte	0x51
 6294 1c6f E4000000 		.4byte	0xe4
 6295 1c73 02       		.byte	0x2
 6296 1c74 91       		.byte	0x91
 6297 1c75 68       		.sleb128 -24
 6298 1c76 00       		.byte	0
 6299 1c77 26       		.uleb128 0x26
 6300 1c78 69010000 		.4byte	0x169
 6301 1c7c 01       		.byte	0x1
 6302 1c7d A9       		.byte	0xa9
 6303 1c7e 07       		.byte	0x7
 6304 1c7f 941C0000 		.4byte	0x1c94
 6305 1c83 00000000 		.4byte	.LFB384
 6306 1c87 18010000 		.4byte	.LFE384
 6307 1c8b B8000000 		.4byte	.LLST10
 6308 1c8f 01       		.byte	0x1
 6309 1c90 DE1C0000 		.4byte	0x1cde
 6310 1c94 23       		.uleb128 0x23
 6311 1c95 53540000 		.4byte	.LASF1788
 6312 1c99 55030000 		.4byte	0x355
 6313 1c9d 01       		.byte	0x1
 6314 1c9e 02       		.byte	0x2
 6315 1c9f 91       		.byte	0x91
 6316 1ca0 74       		.sleb128 -12
 6317 1ca1 25       		.uleb128 0x25
 6318 1ca2 A72E0000 		.4byte	.LASF1792
 6319 1ca6 01       		.byte	0x1
 6320 1ca7 A9       		.byte	0xa9
 6321 1ca8 2E       		.byte	0x2e
 6322 1ca9 E4000000 		.4byte	0xe4
 6323 1cad 02       		.byte	0x2
 6324 1cae 91       		.byte	0x91
 6325 1caf 70       		.sleb128 -16
 6326 1cb0 25       		.uleb128 0x25
 6327 1cb1 24960000 		.4byte	.LASF1793
 6328 1cb5 01       		.byte	0x1
 6329 1cb6 A9       		.byte	0xa9
ARM GAS  C:\Users\30806\AppData\Local\Temp\ccYcD1nI.s 			page 116


 6330 1cb7 3C       		.byte	0x3c
 6331 1cb8 E4000000 		.4byte	0xe4
 6332 1cbc 02       		.byte	0x2
 6333 1cbd 91       		.byte	0x91
 6334 1cbe 6C       		.sleb128 -20
 6335 1cbf 25       		.uleb128 0x25
 6336 1cc0 FE3D0000 		.4byte	.LASF1794
 6337 1cc4 01       		.byte	0x1
 6338 1cc5 A9       		.byte	0xa9
 6339 1cc6 4A       		.byte	0x4a
 6340 1cc7 E4000000 		.4byte	0xe4
 6341 1ccb 02       		.byte	0x2
 6342 1ccc 91       		.byte	0x91
 6343 1ccd 68       		.sleb128 -24
 6344 1cce 25       		.uleb128 0x25
 6345 1ccf 832C0000 		.4byte	.LASF1795
 6346 1cd3 01       		.byte	0x1
 6347 1cd4 A9       		.byte	0xa9
 6348 1cd5 5A       		.byte	0x5a
 6349 1cd6 E4000000 		.4byte	0xe4
 6350 1cda 02       		.byte	0x2
 6351 1cdb 91       		.byte	0x91
 6352 1cdc 64       		.sleb128 -28
 6353 1cdd 00       		.byte	0
 6354 1cde 22       		.uleb128 0x22
 6355 1cdf 7F020000 		.4byte	0x27f
 6356 1ce3 01       		.byte	0x1
 6357 1ce4 99       		.byte	0x99
 6358 1ce5 07       		.byte	0x7
 6359 1ce6 FB1C0000 		.4byte	0x1cfb
 6360 1cea 00000000 		.4byte	.LFB383
 6361 1cee 70010000 		.4byte	.LFE383
 6362 1cf2 08010000 		.4byte	.LLST9
 6363 1cf6 01       		.byte	0x1
 6364 1cf7 271D0000 		.4byte	0x1d27
 6365 1cfb 23       		.uleb128 0x23
 6366 1cfc 53540000 		.4byte	.LASF1788
 6367 1d00 55030000 		.4byte	0x355
 6368 1d04 01       		.byte	0x1
 6369 1d05 02       		.byte	0x2
 6370 1d06 91       		.byte	0x91
 6371 1d07 6C       		.sleb128 -20
 6372 1d08 25       		.uleb128 0x25
 6373 1d09 1C5B0000 		.4byte	.LASF1796
 6374 1d0d 01       		.byte	0x1
 6375 1d0e 99       		.byte	0x99
 6376 1d0f 29       		.byte	0x29
 6377 1d10 E4000000 		.4byte	0xe4
 6378 1d14 02       		.byte	0x2
 6379 1d15 91       		.byte	0x91
 6380 1d16 68       		.sleb128 -24
 6381 1d17 21       		.uleb128 0x21
 6382 1d18 C0580000 		.4byte	.LASF1798
 6383 1d1c 01       		.byte	0x1
 6384 1d1d 9B       		.byte	0x9b
 6385 1d1e 0B       		.byte	0xb
 6386 1d1f E4000000 		.4byte	0xe4
ARM GAS  C:\Users\30806\AppData\Local\Temp\ccYcD1nI.s 			page 117


 6387 1d23 02       		.byte	0x2
 6388 1d24 91       		.byte	0x91
 6389 1d25 74       		.sleb128 -12
 6390 1d26 00       		.byte	0
 6391 1d27 22       		.uleb128 0x22
 6392 1d28 A5020000 		.4byte	0x2a5
 6393 1d2c 01       		.byte	0x1
 6394 1d2d 86       		.byte	0x86
 6395 1d2e 07       		.byte	0x7
 6396 1d2f 441D0000 		.4byte	0x1d44
 6397 1d33 00000000 		.4byte	.LFB382
 6398 1d37 58020000 		.4byte	.LFE382
 6399 1d3b 64010000 		.4byte	.LLST8
 6400 1d3f 01       		.byte	0x1
 6401 1d40 701D0000 		.4byte	0x1d70
 6402 1d44 23       		.uleb128 0x23
 6403 1d45 53540000 		.4byte	.LASF1788
 6404 1d49 55030000 		.4byte	0x355
 6405 1d4d 01       		.byte	0x1
 6406 1d4e 02       		.byte	0x2
 6407 1d4f 91       		.byte	0x91
 6408 1d50 6C       		.sleb128 -20
 6409 1d51 25       		.uleb128 0x25
 6410 1d52 1C5B0000 		.4byte	.LASF1796
 6411 1d56 01       		.byte	0x1
 6412 1d57 86       		.byte	0x86
 6413 1d58 29       		.byte	0x29
 6414 1d59 E4000000 		.4byte	0xe4
 6415 1d5d 02       		.byte	0x2
 6416 1d5e 91       		.byte	0x91
 6417 1d5f 68       		.sleb128 -24
 6418 1d60 21       		.uleb128 0x21
 6419 1d61 61A30000 		.4byte	.LASF1799
 6420 1d65 01       		.byte	0x1
 6421 1d66 88       		.byte	0x88
 6422 1d67 0B       		.byte	0xb
 6423 1d68 E4000000 		.4byte	0xe4
 6424 1d6c 02       		.byte	0x2
 6425 1d6d 91       		.byte	0x91
 6426 1d6e 74       		.sleb128 -12
 6427 1d6f 00       		.byte	0
 6428 1d70 22       		.uleb128 0x22
 6429 1d71 F2020000 		.4byte	0x2f2
 6430 1d75 01       		.byte	0x1
 6431 1d76 7E       		.byte	0x7e
 6432 1d77 07       		.byte	0x7
 6433 1d78 8D1D0000 		.4byte	0x1d8d
 6434 1d7c 00000000 		.4byte	.LFB381
 6435 1d80 60000000 		.4byte	.LFE381
 6436 1d84 C0010000 		.4byte	.LLST7
 6437 1d88 01       		.byte	0x1
 6438 1d89 C81D0000 		.4byte	0x1dc8
 6439 1d8d 23       		.uleb128 0x23
 6440 1d8e 53540000 		.4byte	.LASF1788
 6441 1d92 55030000 		.4byte	0x355
 6442 1d96 01       		.byte	0x1
 6443 1d97 02       		.byte	0x2
ARM GAS  C:\Users\30806\AppData\Local\Temp\ccYcD1nI.s 			page 118


 6444 1d98 91       		.byte	0x91
 6445 1d99 74       		.sleb128 -12
 6446 1d9a 25       		.uleb128 0x25
 6447 1d9b AC780000 		.4byte	.LASF1800
 6448 1d9f 01       		.byte	0x1
 6449 1da0 7E       		.byte	0x7e
 6450 1da1 2B       		.byte	0x2b
 6451 1da2 E4000000 		.4byte	0xe4
 6452 1da6 02       		.byte	0x2
 6453 1da7 91       		.byte	0x91
 6454 1da8 70       		.sleb128 -16
 6455 1da9 25       		.uleb128 0x25
 6456 1daa B82B0000 		.4byte	.LASF1801
 6457 1dae 01       		.byte	0x1
 6458 1daf 7E       		.byte	0x7e
 6459 1db0 3C       		.byte	0x3c
 6460 1db1 E4000000 		.4byte	0xe4
 6461 1db5 02       		.byte	0x2
 6462 1db6 91       		.byte	0x91
 6463 1db7 6C       		.sleb128 -20
 6464 1db8 25       		.uleb128 0x25
 6465 1db9 207C0000 		.4byte	.LASF1802
 6466 1dbd 01       		.byte	0x1
 6467 1dbe 7E       		.byte	0x7e
 6468 1dbf 4E       		.byte	0x4e
 6469 1dc0 E4000000 		.4byte	0xe4
 6470 1dc4 02       		.byte	0x2
 6471 1dc5 91       		.byte	0x91
 6472 1dc6 68       		.sleb128 -24
 6473 1dc7 00       		.byte	0
 6474 1dc8 22       		.uleb128 0x22
 6475 1dc9 CB020000 		.4byte	0x2cb
 6476 1dcd 01       		.byte	0x1
 6477 1dce 71       		.byte	0x71
 6478 1dcf 06       		.byte	0x6
 6479 1dd0 E51D0000 		.4byte	0x1de5
 6480 1dd4 00000000 		.4byte	.LFB380
 6481 1dd8 B4000000 		.4byte	.LFE380
 6482 1ddc 1C020000 		.4byte	.LLST6
 6483 1de0 01       		.byte	0x1
 6484 1de1 321E0000 		.4byte	0x1e32
 6485 1de5 23       		.uleb128 0x23
 6486 1de6 53540000 		.4byte	.LASF1788
 6487 1dea 55030000 		.4byte	0x355
 6488 1dee 01       		.byte	0x1
 6489 1def 02       		.byte	0x2
 6490 1df0 91       		.byte	0x91
 6491 1df1 6C       		.sleb128 -20
 6492 1df2 25       		.uleb128 0x25
 6493 1df3 A0960000 		.4byte	.LASF1803
 6494 1df7 01       		.byte	0x1
 6495 1df8 71       		.byte	0x71
 6496 1df9 34       		.byte	0x34
 6497 1dfa 5A030000 		.4byte	0x35a
 6498 1dfe 02       		.byte	0x2
 6499 1dff 91       		.byte	0x91
 6500 1e00 68       		.sleb128 -24
ARM GAS  C:\Users\30806\AppData\Local\Temp\ccYcD1nI.s 			page 119


 6501 1e01 24       		.uleb128 0x24
 6502 1e02 61636300 		.ascii	"acc\000"
 6503 1e06 01       		.byte	0x1
 6504 1e07 71       		.byte	0x71
 6505 1e08 41       		.byte	0x41
 6506 1e09 E4000000 		.4byte	0xe4
 6507 1e0d 02       		.byte	0x2
 6508 1e0e 91       		.byte	0x91
 6509 1e0f 64       		.sleb128 -28
 6510 1e10 21       		.uleb128 0x21
 6511 1e11 5D090000 		.4byte	.LASF1804
 6512 1e15 01       		.byte	0x1
 6513 1e16 73       		.byte	0x73
 6514 1e17 14       		.byte	0x14
 6515 1e18 7F000000 		.4byte	0x7f
 6516 1e1c 05       		.byte	0x5
 6517 1e1d 03       		.byte	0x3
 6518 1e1e 00000000 		.4byte	_ZZN12user_maths_c24data_accelerated_controlEPffE8last_num
 6519 1e22 21       		.uleb128 0x21
 6520 1e23 34A10000 		.4byte	.LASF1805
 6521 1e27 01       		.byte	0x1
 6522 1e28 74       		.byte	0x74
 6523 1e29 0D       		.byte	0xd
 6524 1e2a 7F000000 		.4byte	0x7f
 6525 1e2e 02       		.byte	0x2
 6526 1e2f 91       		.byte	0x91
 6527 1e30 76       		.sleb128 -10
 6528 1e31 00       		.byte	0
 6529 1e32 22       		.uleb128 0x22
 6530 1e33 1F020000 		.4byte	0x21f
 6531 1e37 01       		.byte	0x1
 6532 1e38 56       		.byte	0x56
 6533 1e39 07       		.byte	0x7
 6534 1e3a 4F1E0000 		.4byte	0x1e4f
 6535 1e3e 00000000 		.4byte	.LFB379
 6536 1e42 CA000000 		.4byte	.LFE379
 6537 1e46 78020000 		.4byte	.LLST5
 6538 1e4a 01       		.byte	0x1
 6539 1e4b C01E0000 		.4byte	0x1ec0
 6540 1e4f 23       		.uleb128 0x23
 6541 1e50 53540000 		.4byte	.LASF1788
 6542 1e54 55030000 		.4byte	0x355
 6543 1e58 01       		.byte	0x1
 6544 1e59 02       		.byte	0x2
 6545 1e5a 91       		.byte	0x91
 6546 1e5b 6C       		.sleb128 -20
 6547 1e5c 25       		.uleb128 0x25
 6548 1e5d BE6A0000 		.4byte	.LASF1592
 6549 1e61 01       		.byte	0x1
 6550 1e62 56       		.byte	0x56
 6551 1e63 2F       		.byte	0x2f
 6552 1e64 E4000000 		.4byte	0xe4
 6553 1e68 02       		.byte	0x2
 6554 1e69 91       		.byte	0x91
 6555 1e6a 68       		.sleb128 -24
 6556 1e6b 25       		.uleb128 0x25
 6557 1e6c FE3D0000 		.4byte	.LASF1794
ARM GAS  C:\Users\30806\AppData\Local\Temp\ccYcD1nI.s 			page 120


 6558 1e70 01       		.byte	0x1
 6559 1e71 56       		.byte	0x56
 6560 1e72 3C       		.byte	0x3c
 6561 1e73 E4000000 		.4byte	0xe4
 6562 1e77 02       		.byte	0x2
 6563 1e78 91       		.byte	0x91
 6564 1e79 64       		.sleb128 -28
 6565 1e7a 25       		.uleb128 0x25
 6566 1e7b 832C0000 		.4byte	.LASF1795
 6567 1e7f 01       		.byte	0x1
 6568 1e80 56       		.byte	0x56
 6569 1e81 4C       		.byte	0x4c
 6570 1e82 E4000000 		.4byte	0xe4
 6571 1e86 02       		.byte	0x2
 6572 1e87 91       		.byte	0x91
 6573 1e88 60       		.sleb128 -32
 6574 1e89 27       		.uleb128 0x27
 6575 1e8a 3C000000 		.4byte	.LBB3
 6576 1e8e 70000000 		.4byte	.LBE3
 6577 1e92 A61E0000 		.4byte	0x1ea6
 6578 1e96 28       		.uleb128 0x28
 6579 1e97 6C656E00 		.ascii	"len\000"
 6580 1e9b 01       		.byte	0x1
 6581 1e9c 5F       		.byte	0x5f
 6582 1e9d 0F       		.byte	0xf
 6583 1e9e E4000000 		.4byte	0xe4
 6584 1ea2 02       		.byte	0x2
 6585 1ea3 91       		.byte	0x91
 6586 1ea4 70       		.sleb128 -16
 6587 1ea5 00       		.byte	0
 6588 1ea6 29       		.uleb128 0x29
 6589 1ea7 82000000 		.4byte	.LBB6
 6590 1eab B6000000 		.4byte	.LBE6
 6591 1eaf 28       		.uleb128 0x28
 6592 1eb0 6C656E00 		.ascii	"len\000"
 6593 1eb4 01       		.byte	0x1
 6594 1eb5 67       		.byte	0x67
 6595 1eb6 0F       		.byte	0xf
 6596 1eb7 E4000000 		.4byte	0xe4
 6597 1ebb 02       		.byte	0x2
 6598 1ebc 91       		.byte	0x91
 6599 1ebd 74       		.sleb128 -12
 6600 1ebe 00       		.byte	0
 6601 1ebf 00       		.byte	0
 6602 1ec0 22       		.uleb128 0x22
 6603 1ec1 F4010000 		.4byte	0x1f4
 6604 1ec5 01       		.byte	0x1
 6605 1ec6 49       		.byte	0x49
 6606 1ec7 07       		.byte	0x7
 6607 1ec8 DD1E0000 		.4byte	0x1edd
 6608 1ecc 00000000 		.4byte	.LFB378
 6609 1ed0 7E000000 		.4byte	.LFE378
 6610 1ed4 D4020000 		.4byte	.LLST4
 6611 1ed8 01       		.byte	0x1
 6612 1ed9 091F0000 		.4byte	0x1f09
 6613 1edd 23       		.uleb128 0x23
 6614 1ede 53540000 		.4byte	.LASF1788
ARM GAS  C:\Users\30806\AppData\Local\Temp\ccYcD1nI.s 			page 121


 6615 1ee2 55030000 		.4byte	0x355
 6616 1ee6 01       		.byte	0x1
 6617 1ee7 02       		.byte	0x2
 6618 1ee8 91       		.byte	0x91
 6619 1ee9 74       		.sleb128 -12
 6620 1eea 24       		.uleb128 0x24
 6621 1eeb 6E756D00 		.ascii	"num\000"
 6622 1eef 01       		.byte	0x1
 6623 1ef0 49       		.byte	0x49
 6624 1ef1 32       		.byte	0x32
 6625 1ef2 E4000000 		.4byte	0xe4
 6626 1ef6 02       		.byte	0x2
 6627 1ef7 91       		.byte	0x91
 6628 1ef8 70       		.sleb128 -16
 6629 1ef9 25       		.uleb128 0x25
 6630 1efa B9410000 		.4byte	.LASF1806
 6631 1efe 01       		.byte	0x1
 6632 1eff 49       		.byte	0x49
 6633 1f00 3D       		.byte	0x3d
 6634 1f01 E4000000 		.4byte	0xe4
 6635 1f05 02       		.byte	0x2
 6636 1f06 91       		.byte	0x91
 6637 1f07 6C       		.sleb128 -20
 6638 1f08 00       		.byte	0
 6639 1f09 22       		.uleb128 0x22
 6640 1f0a C9010000 		.4byte	0x1c9
 6641 1f0e 01       		.byte	0x1
 6642 1f0f 37       		.byte	0x37
 6643 1f10 09       		.byte	0x9
 6644 1f11 261F0000 		.4byte	0x1f26
 6645 1f15 00000000 		.4byte	.LFB377
 6646 1f19 54000000 		.4byte	.LFE377
 6647 1f1d 30030000 		.4byte	.LLST3
 6648 1f21 01       		.byte	0x1
 6649 1f22 521F0000 		.4byte	0x1f52
 6650 1f26 23       		.uleb128 0x23
 6651 1f27 53540000 		.4byte	.LASF1788
 6652 1f2b 55030000 		.4byte	0x355
 6653 1f2f 01       		.byte	0x1
 6654 1f30 02       		.byte	0x2
 6655 1f31 91       		.byte	0x91
 6656 1f32 74       		.sleb128 -12
 6657 1f33 24       		.uleb128 0x24
 6658 1f34 6E756D00 		.ascii	"num\000"
 6659 1f38 01       		.byte	0x1
 6660 1f39 37       		.byte	0x37
 6661 1f3a 36       		.byte	0x36
 6662 1f3b 7F000000 		.4byte	0x7f
 6663 1f3f 02       		.byte	0x2
 6664 1f40 91       		.byte	0x91
 6665 1f41 72       		.sleb128 -14
 6666 1f42 25       		.uleb128 0x25
 6667 1f43 B9410000 		.4byte	.LASF1806
 6668 1f47 01       		.byte	0x1
 6669 1f48 37       		.byte	0x37
 6670 1f49 43       		.byte	0x43
 6671 1f4a 7F000000 		.4byte	0x7f
ARM GAS  C:\Users\30806\AppData\Local\Temp\ccYcD1nI.s 			page 122


 6672 1f4e 02       		.byte	0x2
 6673 1f4f 91       		.byte	0x91
 6674 1f50 70       		.sleb128 -16
 6675 1f51 00       		.byte	0
 6676 1f52 22       		.uleb128 0x22
 6677 1f53 9E010000 		.4byte	0x19e
 6678 1f57 01       		.byte	0x1
 6679 1f58 20       		.byte	0x20
 6680 1f59 09       		.byte	0x9
 6681 1f5a 6F1F0000 		.4byte	0x1f6f
 6682 1f5e 00000000 		.4byte	.LFB376
 6683 1f62 E6000000 		.4byte	.LFE376
 6684 1f66 8C030000 		.4byte	.LLST2
 6685 1f6a 01       		.byte	0x1
 6686 1f6b 9B1F0000 		.4byte	0x1f9b
 6687 1f6f 23       		.uleb128 0x23
 6688 1f70 53540000 		.4byte	.LASF1788
 6689 1f74 55030000 		.4byte	0x355
 6690 1f78 01       		.byte	0x1
 6691 1f79 02       		.byte	0x2
 6692 1f7a 91       		.byte	0x91
 6693 1f7b 74       		.sleb128 -12
 6694 1f7c 25       		.uleb128 0x25
 6695 1f7d BE6A0000 		.4byte	.LASF1592
 6696 1f81 01       		.byte	0x1
 6697 1f82 20       		.byte	0x20
 6698 1f83 3C       		.byte	0x3c
 6699 1f84 7F000000 		.4byte	0x7f
 6700 1f88 02       		.byte	0x2
 6701 1f89 91       		.byte	0x91
 6702 1f8a 72       		.sleb128 -14
 6703 1f8b 25       		.uleb128 0x25
 6704 1f8c 4B720000 		.4byte	.LASF1807
 6705 1f90 01       		.byte	0x1
 6706 1f91 20       		.byte	0x20
 6707 1f92 4B       		.byte	0x4b
 6708 1f93 7F000000 		.4byte	0x7f
 6709 1f97 02       		.byte	0x2
 6710 1f98 91       		.byte	0x91
 6711 1f99 70       		.sleb128 -16
 6712 1f9a 00       		.byte	0
 6713 1f9b 22       		.uleb128 0x22
 6714 1f9c 18010000 		.4byte	0x118
 6715 1fa0 01       		.byte	0x1
 6716 1fa1 12       		.byte	0x12
 6717 1fa2 09       		.byte	0x9
 6718 1fa3 B81F0000 		.4byte	0x1fb8
 6719 1fa7 00000000 		.4byte	.LFB375
 6720 1fab 56000000 		.4byte	.LFE375
 6721 1faf E8030000 		.4byte	.LLST1
 6722 1fb3 01       		.byte	0x1
 6723 1fb4 E01F0000 		.4byte	0x1fe0
 6724 1fb8 23       		.uleb128 0x23
 6725 1fb9 53540000 		.4byte	.LASF1788
 6726 1fbd 55030000 		.4byte	0x355
 6727 1fc1 01       		.byte	0x1
 6728 1fc2 02       		.byte	0x2
ARM GAS  C:\Users\30806\AppData\Local\Temp\ccYcD1nI.s 			page 123


 6729 1fc3 91       		.byte	0x91
 6730 1fc4 74       		.sleb128 -12
 6731 1fc5 24       		.uleb128 0x24
 6732 1fc6 7800     		.ascii	"x\000"
 6733 1fc8 01       		.byte	0x1
 6734 1fc9 12       		.byte	0x12
 6735 1fca 27       		.byte	0x27
 6736 1fcb 7F000000 		.4byte	0x7f
 6737 1fcf 02       		.byte	0x2
 6738 1fd0 91       		.byte	0x91
 6739 1fd1 72       		.sleb128 -14
 6740 1fd2 24       		.uleb128 0x24
 6741 1fd3 7900     		.ascii	"y\000"
 6742 1fd5 01       		.byte	0x1
 6743 1fd6 12       		.byte	0x12
 6744 1fd7 32       		.byte	0x32
 6745 1fd8 7F000000 		.4byte	0x7f
 6746 1fdc 02       		.byte	0x2
 6747 1fdd 91       		.byte	0x91
 6748 1fde 70       		.sleb128 -16
 6749 1fdf 00       		.byte	0
 6750 1fe0 22       		.uleb128 0x22
 6751 1fe1 43010000 		.4byte	0x143
 6752 1fe5 01       		.byte	0x1
 6753 1fe6 06       		.byte	0x6
 6754 1fe7 07       		.byte	0x7
 6755 1fe8 FD1F0000 		.4byte	0x1ffd
 6756 1fec 00000000 		.4byte	.LFB374
 6757 1ff0 7C000000 		.4byte	.LFE374
 6758 1ff4 44040000 		.4byte	.LLST0
 6759 1ff8 01       		.byte	0x1
 6760 1ff9 41200000 		.4byte	0x2041
 6761 1ffd 23       		.uleb128 0x23
 6762 1ffe 53540000 		.4byte	.LASF1788
 6763 2002 55030000 		.4byte	0x355
 6764 2006 01       		.byte	0x1
 6765 2007 02       		.byte	0x2
 6766 2008 91       		.byte	0x91
 6767 2009 64       		.sleb128 -28
 6768 200a 24       		.uleb128 0x24
 6769 200b 7800     		.ascii	"x\000"
 6770 200d 01       		.byte	0x1
 6771 200e 06       		.byte	0x6
 6772 200f 23       		.byte	0x23
 6773 2010 E4000000 		.4byte	0xe4
 6774 2014 02       		.byte	0x2
 6775 2015 91       		.byte	0x91
 6776 2016 60       		.sleb128 -32
 6777 2017 21       		.uleb128 0x21
 6778 2018 2E430000 		.4byte	.LASF1808
 6779 201c 01       		.byte	0x1
 6780 201d 08       		.byte	0x8
 6781 201e 0B       		.byte	0xb
 6782 201f E4000000 		.4byte	0xe4
 6783 2023 02       		.byte	0x2
 6784 2024 91       		.byte	0x91
 6785 2025 74       		.sleb128 -12
ARM GAS  C:\Users\30806\AppData\Local\Temp\ccYcD1nI.s 			page 124


 6786 2026 28       		.uleb128 0x28
 6787 2027 7900     		.ascii	"y\000"
 6788 2029 01       		.byte	0x1
 6789 202a 09       		.byte	0x9
 6790 202b 0B       		.byte	0xb
 6791 202c E4000000 		.4byte	0xe4
 6792 2030 02       		.byte	0x2
 6793 2031 91       		.byte	0x91
 6794 2032 70       		.sleb128 -16
 6795 2033 28       		.uleb128 0x28
 6796 2034 6900     		.ascii	"i\000"
 6797 2036 01       		.byte	0x1
 6798 2037 0A       		.byte	0xa
 6799 2038 0A       		.byte	0xa
 6800 2039 55000000 		.4byte	0x55
 6801 203d 02       		.byte	0x2
 6802 203e 91       		.byte	0x91
 6803 203f 6C       		.sleb128 -20
 6804 2040 00       		.byte	0
 6805 2041 02       		.uleb128 0x2
 6806 2042 04       		.byte	0x4
 6807 2043 07       		.byte	0x7
 6808 2044 8F6B0000 		.4byte	.LASF1809
 6809 2048 02       		.uleb128 0x2
 6810 2049 02       		.byte	0x2
 6811 204a 10       		.byte	0x10
 6812 204b F8B00000 		.4byte	.LASF1810
 6813 204f 02       		.uleb128 0x2
 6814 2050 04       		.byte	0x4
 6815 2051 10       		.byte	0x10
 6816 2052 51630000 		.4byte	.LASF1811
 6817 2056 00       		.byte	0
 6818              		.section	.debug_abbrev,"",%progbits
 6819              	.Ldebug_abbrev0:
 6820 0000 01       		.uleb128 0x1
 6821 0001 11       		.uleb128 0x11
 6822 0002 01       		.byte	0x1
 6823 0003 25       		.uleb128 0x25
 6824 0004 0E       		.uleb128 0xe
 6825 0005 13       		.uleb128 0x13
 6826 0006 0B       		.uleb128 0xb
 6827 0007 03       		.uleb128 0x3
 6828 0008 0E       		.uleb128 0xe
 6829 0009 1B       		.uleb128 0x1b
 6830 000a 0E       		.uleb128 0xe
 6831 000b 55       		.uleb128 0x55
 6832 000c 06       		.uleb128 0x6
 6833 000d 11       		.uleb128 0x11
 6834 000e 01       		.uleb128 0x1
 6835 000f 52       		.uleb128 0x52
 6836 0010 01       		.uleb128 0x1
 6837 0011 10       		.uleb128 0x10
 6838 0012 06       		.uleb128 0x6
 6839 0013 9942     		.uleb128 0x2119
 6840 0015 06       		.uleb128 0x6
 6841 0016 00       		.byte	0
 6842 0017 00       		.byte	0
ARM GAS  C:\Users\30806\AppData\Local\Temp\ccYcD1nI.s 			page 125


 6843 0018 02       		.uleb128 0x2
 6844 0019 24       		.uleb128 0x24
 6845 001a 00       		.byte	0
 6846 001b 0B       		.uleb128 0xb
 6847 001c 0B       		.uleb128 0xb
 6848 001d 3E       		.uleb128 0x3e
 6849 001e 0B       		.uleb128 0xb
 6850 001f 03       		.uleb128 0x3
 6851 0020 0E       		.uleb128 0xe
 6852 0021 00       		.byte	0
 6853 0022 00       		.byte	0
 6854 0023 03       		.uleb128 0x3
 6855 0024 16       		.uleb128 0x16
 6856 0025 00       		.byte	0
 6857 0026 03       		.uleb128 0x3
 6858 0027 0E       		.uleb128 0xe
 6859 0028 3A       		.uleb128 0x3a
 6860 0029 0B       		.uleb128 0xb
 6861 002a 3B       		.uleb128 0x3b
 6862 002b 0B       		.uleb128 0xb
 6863 002c 39       		.uleb128 0x39
 6864 002d 0B       		.uleb128 0xb
 6865 002e 49       		.uleb128 0x49
 6866 002f 13       		.uleb128 0x13
 6867 0030 00       		.byte	0
 6868 0031 00       		.byte	0
 6869 0032 04       		.uleb128 0x4
 6870 0033 24       		.uleb128 0x24
 6871 0034 00       		.byte	0
 6872 0035 0B       		.uleb128 0xb
 6873 0036 0B       		.uleb128 0xb
 6874 0037 3E       		.uleb128 0x3e
 6875 0038 0B       		.uleb128 0xb
 6876 0039 03       		.uleb128 0x3
 6877 003a 08       		.uleb128 0x8
 6878 003b 00       		.byte	0
 6879 003c 00       		.byte	0
 6880 003d 05       		.uleb128 0x5
 6881 003e 13       		.uleb128 0x13
 6882 003f 01       		.byte	0x1
 6883 0040 0B       		.uleb128 0xb
 6884 0041 0B       		.uleb128 0xb
 6885 0042 3A       		.uleb128 0x3a
 6886 0043 0B       		.uleb128 0xb
 6887 0044 3B       		.uleb128 0x3b
 6888 0045 0B       		.uleb128 0xb
 6889 0046 39       		.uleb128 0x39
 6890 0047 0B       		.uleb128 0xb
 6891 0048 8740     		.uleb128 0x2007
 6892 004a 0E       		.uleb128 0xe
 6893 004b 01       		.uleb128 0x1
 6894 004c 13       		.uleb128 0x13
 6895 004d 00       		.byte	0
 6896 004e 00       		.byte	0
 6897 004f 06       		.uleb128 0x6
 6898 0050 0D       		.uleb128 0xd
 6899 0051 00       		.byte	0
ARM GAS  C:\Users\30806\AppData\Local\Temp\ccYcD1nI.s 			page 126


 6900 0052 03       		.uleb128 0x3
 6901 0053 0E       		.uleb128 0xe
 6902 0054 3A       		.uleb128 0x3a
 6903 0055 0B       		.uleb128 0xb
 6904 0056 3B       		.uleb128 0x3b
 6905 0057 0B       		.uleb128 0xb
 6906 0058 39       		.uleb128 0x39
 6907 0059 0B       		.uleb128 0xb
 6908 005a 49       		.uleb128 0x49
 6909 005b 13       		.uleb128 0x13
 6910 005c 38       		.uleb128 0x38
 6911 005d 0A       		.uleb128 0xa
 6912 005e 00       		.byte	0
 6913 005f 00       		.byte	0
 6914 0060 07       		.uleb128 0x7
 6915 0061 26       		.uleb128 0x26
 6916 0062 00       		.byte	0
 6917 0063 49       		.uleb128 0x49
 6918 0064 13       		.uleb128 0x13
 6919 0065 00       		.byte	0
 6920 0066 00       		.byte	0
 6921 0067 08       		.uleb128 0x8
 6922 0068 02       		.uleb128 0x2
 6923 0069 01       		.byte	0x1
 6924 006a 03       		.uleb128 0x3
 6925 006b 0E       		.uleb128 0xe
 6926 006c 0B       		.uleb128 0xb
 6927 006d 0B       		.uleb128 0xb
 6928 006e 3A       		.uleb128 0x3a
 6929 006f 0B       		.uleb128 0xb
 6930 0070 3B       		.uleb128 0x3b
 6931 0071 0B       		.uleb128 0xb
 6932 0072 39       		.uleb128 0x39
 6933 0073 0B       		.uleb128 0xb
 6934 0074 01       		.uleb128 0x1
 6935 0075 13       		.uleb128 0x13
 6936 0076 00       		.byte	0
 6937 0077 00       		.byte	0
 6938 0078 09       		.uleb128 0x9
 6939 0079 2E       		.uleb128 0x2e
 6940 007a 01       		.byte	0x1
 6941 007b 3F       		.uleb128 0x3f
 6942 007c 0C       		.uleb128 0xc
 6943 007d 03       		.uleb128 0x3
 6944 007e 0E       		.uleb128 0xe
 6945 007f 3A       		.uleb128 0x3a
 6946 0080 0B       		.uleb128 0xb
 6947 0081 3B       		.uleb128 0x3b
 6948 0082 0B       		.uleb128 0xb
 6949 0083 39       		.uleb128 0x39
 6950 0084 0B       		.uleb128 0xb
 6951 0085 8740     		.uleb128 0x2007
 6952 0087 0E       		.uleb128 0xe
 6953 0088 49       		.uleb128 0x49
 6954 0089 13       		.uleb128 0x13
 6955 008a 3C       		.uleb128 0x3c
 6956 008b 0C       		.uleb128 0xc
ARM GAS  C:\Users\30806\AppData\Local\Temp\ccYcD1nI.s 			page 127


 6957 008c 64       		.uleb128 0x64
 6958 008d 13       		.uleb128 0x13
 6959 008e 01       		.uleb128 0x1
 6960 008f 13       		.uleb128 0x13
 6961 0090 00       		.byte	0
 6962 0091 00       		.byte	0
 6963 0092 0A       		.uleb128 0xa
 6964 0093 05       		.uleb128 0x5
 6965 0094 00       		.byte	0
 6966 0095 49       		.uleb128 0x49
 6967 0096 13       		.uleb128 0x13
 6968 0097 34       		.uleb128 0x34
 6969 0098 0C       		.uleb128 0xc
 6970 0099 00       		.byte	0
 6971 009a 00       		.byte	0
 6972 009b 0B       		.uleb128 0xb
 6973 009c 05       		.uleb128 0x5
 6974 009d 00       		.byte	0
 6975 009e 49       		.uleb128 0x49
 6976 009f 13       		.uleb128 0x13
 6977 00a0 00       		.byte	0
 6978 00a1 00       		.byte	0
 6979 00a2 0C       		.uleb128 0xc
 6980 00a3 2E       		.uleb128 0x2e
 6981 00a4 01       		.byte	0x1
 6982 00a5 3F       		.uleb128 0x3f
 6983 00a6 0C       		.uleb128 0xc
 6984 00a7 03       		.uleb128 0x3
 6985 00a8 0E       		.uleb128 0xe
 6986 00a9 3A       		.uleb128 0x3a
 6987 00aa 0B       		.uleb128 0xb
 6988 00ab 3B       		.uleb128 0x3b
 6989 00ac 0B       		.uleb128 0xb
 6990 00ad 39       		.uleb128 0x39
 6991 00ae 0B       		.uleb128 0xb
 6992 00af 8740     		.uleb128 0x2007
 6993 00b1 0E       		.uleb128 0xe
 6994 00b2 3C       		.uleb128 0x3c
 6995 00b3 0C       		.uleb128 0xc
 6996 00b4 64       		.uleb128 0x64
 6997 00b5 13       		.uleb128 0x13
 6998 00b6 01       		.uleb128 0x1
 6999 00b7 13       		.uleb128 0x13
 7000 00b8 00       		.byte	0
 7001 00b9 00       		.byte	0
 7002 00ba 0D       		.uleb128 0xd
 7003 00bb 2E       		.uleb128 0x2e
 7004 00bc 01       		.byte	0x1
 7005 00bd 3F       		.uleb128 0x3f
 7006 00be 0C       		.uleb128 0xc
 7007 00bf 03       		.uleb128 0x3
 7008 00c0 0E       		.uleb128 0xe
 7009 00c1 3A       		.uleb128 0x3a
 7010 00c2 0B       		.uleb128 0xb
 7011 00c3 3B       		.uleb128 0x3b
 7012 00c4 0B       		.uleb128 0xb
 7013 00c5 39       		.uleb128 0x39
ARM GAS  C:\Users\30806\AppData\Local\Temp\ccYcD1nI.s 			page 128


 7014 00c6 0B       		.uleb128 0xb
 7015 00c7 8740     		.uleb128 0x2007
 7016 00c9 0E       		.uleb128 0xe
 7017 00ca 49       		.uleb128 0x49
 7018 00cb 13       		.uleb128 0x13
 7019 00cc 3C       		.uleb128 0x3c
 7020 00cd 0C       		.uleb128 0xc
 7021 00ce 64       		.uleb128 0x64
 7022 00cf 13       		.uleb128 0x13
 7023 00d0 00       		.byte	0
 7024 00d1 00       		.byte	0
 7025 00d2 0E       		.uleb128 0xe
 7026 00d3 0F       		.uleb128 0xf
 7027 00d4 00       		.byte	0
 7028 00d5 0B       		.uleb128 0xb
 7029 00d6 0B       		.uleb128 0xb
 7030 00d7 49       		.uleb128 0x49
 7031 00d8 13       		.uleb128 0x13
 7032 00d9 00       		.byte	0
 7033 00da 00       		.byte	0
 7034 00db 0F       		.uleb128 0xf
 7035 00dc 3B       		.uleb128 0x3b
 7036 00dd 00       		.byte	0
 7037 00de 03       		.uleb128 0x3
 7038 00df 0E       		.uleb128 0xe
 7039 00e0 00       		.byte	0
 7040 00e1 00       		.byte	0
 7041 00e2 10       		.uleb128 0x10
 7042 00e3 39       		.uleb128 0x39
 7043 00e4 01       		.byte	0x1
 7044 00e5 03       		.uleb128 0x3
 7045 00e6 08       		.uleb128 0x8
 7046 00e7 3A       		.uleb128 0x3a
 7047 00e8 0B       		.uleb128 0xb
 7048 00e9 3B       		.uleb128 0x3b
 7049 00ea 0B       		.uleb128 0xb
 7050 00eb 01       		.uleb128 0x1
 7051 00ec 13       		.uleb128 0x13
 7052 00ed 00       		.byte	0
 7053 00ee 00       		.byte	0
 7054 00ef 11       		.uleb128 0x11
 7055 00f0 39       		.uleb128 0x39
 7056 00f1 00       		.byte	0
 7057 00f2 03       		.uleb128 0x3
 7058 00f3 0E       		.uleb128 0xe
 7059 00f4 3A       		.uleb128 0x3a
 7060 00f5 0B       		.uleb128 0xb
 7061 00f6 3B       		.uleb128 0x3b
 7062 00f7 05       		.uleb128 0x5
 7063 00f8 39       		.uleb128 0x39
 7064 00f9 0B       		.uleb128 0xb
 7065 00fa 8901     		.uleb128 0x89
 7066 00fc 0C       		.uleb128 0xc
 7067 00fd 00       		.byte	0
 7068 00fe 00       		.byte	0
 7069 00ff 12       		.uleb128 0x12
 7070 0100 3A       		.uleb128 0x3a
ARM GAS  C:\Users\30806\AppData\Local\Temp\ccYcD1nI.s 			page 129


 7071 0101 00       		.byte	0
 7072 0102 3A       		.uleb128 0x3a
 7073 0103 0B       		.uleb128 0xb
 7074 0104 3B       		.uleb128 0x3b
 7075 0105 05       		.uleb128 0x5
 7076 0106 39       		.uleb128 0x39
 7077 0107 0B       		.uleb128 0xb
 7078 0108 18       		.uleb128 0x18
 7079 0109 13       		.uleb128 0x13
 7080 010a 00       		.byte	0
 7081 010b 00       		.byte	0
 7082 010c 13       		.uleb128 0x13
 7083 010d 13       		.uleb128 0x13
 7084 010e 01       		.byte	0x1
 7085 010f 03       		.uleb128 0x3
 7086 0110 0E       		.uleb128 0xe
 7087 0111 0B       		.uleb128 0xb
 7088 0112 0B       		.uleb128 0xb
 7089 0113 3A       		.uleb128 0x3a
 7090 0114 0B       		.uleb128 0xb
 7091 0115 3B       		.uleb128 0x3b
 7092 0116 0B       		.uleb128 0xb
 7093 0117 39       		.uleb128 0x39
 7094 0118 0B       		.uleb128 0xb
 7095 0119 01       		.uleb128 0x1
 7096 011a 13       		.uleb128 0x13
 7097 011b 00       		.byte	0
 7098 011c 00       		.byte	0
 7099 011d 14       		.uleb128 0x14
 7100 011e 04       		.uleb128 0x4
 7101 011f 01       		.byte	0x1
 7102 0120 3E       		.uleb128 0x3e
 7103 0121 0B       		.uleb128 0xb
 7104 0122 0B       		.uleb128 0xb
 7105 0123 0B       		.uleb128 0xb
 7106 0124 49       		.uleb128 0x49
 7107 0125 13       		.uleb128 0x13
 7108 0126 3A       		.uleb128 0x3a
 7109 0127 0B       		.uleb128 0xb
 7110 0128 3B       		.uleb128 0x3b
 7111 0129 0B       		.uleb128 0xb
 7112 012a 39       		.uleb128 0x39
 7113 012b 0B       		.uleb128 0xb
 7114 012c 01       		.uleb128 0x1
 7115 012d 13       		.uleb128 0x13
 7116 012e 00       		.byte	0
 7117 012f 00       		.byte	0
 7118 0130 15       		.uleb128 0x15
 7119 0131 28       		.uleb128 0x28
 7120 0132 00       		.byte	0
 7121 0133 03       		.uleb128 0x3
 7122 0134 0E       		.uleb128 0xe
 7123 0135 1C       		.uleb128 0x1c
 7124 0136 0B       		.uleb128 0xb
 7125 0137 00       		.byte	0
 7126 0138 00       		.byte	0
 7127 0139 16       		.uleb128 0x16
ARM GAS  C:\Users\30806\AppData\Local\Temp\ccYcD1nI.s 			page 130


 7128 013a 2F       		.uleb128 0x2f
 7129 013b 00       		.byte	0
 7130 013c 03       		.uleb128 0x3
 7131 013d 08       		.uleb128 0x8
 7132 013e 49       		.uleb128 0x49
 7133 013f 13       		.uleb128 0x13
 7134 0140 00       		.byte	0
 7135 0141 00       		.byte	0
 7136 0142 17       		.uleb128 0x17
 7137 0143 08       		.uleb128 0x8
 7138 0144 00       		.byte	0
 7139 0145 3A       		.uleb128 0x3a
 7140 0146 0B       		.uleb128 0xb
 7141 0147 3B       		.uleb128 0x3b
 7142 0148 05       		.uleb128 0x5
 7143 0149 39       		.uleb128 0x39
 7144 014a 0B       		.uleb128 0xb
 7145 014b 18       		.uleb128 0x18
 7146 014c 13       		.uleb128 0x13
 7147 014d 00       		.byte	0
 7148 014e 00       		.byte	0
 7149 014f 18       		.uleb128 0x18
 7150 0150 2E       		.uleb128 0x2e
 7151 0151 01       		.byte	0x1
 7152 0152 3F       		.uleb128 0x3f
 7153 0153 0C       		.uleb128 0xc
 7154 0154 03       		.uleb128 0x3
 7155 0155 08       		.uleb128 0x8
 7156 0156 3A       		.uleb128 0x3a
 7157 0157 0B       		.uleb128 0xb
 7158 0158 3B       		.uleb128 0x3b
 7159 0159 0B       		.uleb128 0xb
 7160 015a 39       		.uleb128 0x39
 7161 015b 0B       		.uleb128 0xb
 7162 015c 8740     		.uleb128 0x2007
 7163 015e 0E       		.uleb128 0xe
 7164 015f 49       		.uleb128 0x49
 7165 0160 13       		.uleb128 0x13
 7166 0161 3C       		.uleb128 0x3c
 7167 0162 0C       		.uleb128 0xc
 7168 0163 01       		.uleb128 0x1
 7169 0164 13       		.uleb128 0x13
 7170 0165 00       		.byte	0
 7171 0166 00       		.byte	0
 7172 0167 19       		.uleb128 0x19
 7173 0168 2E       		.uleb128 0x2e
 7174 0169 01       		.byte	0x1
 7175 016a 3F       		.uleb128 0x3f
 7176 016b 0C       		.uleb128 0xc
 7177 016c 03       		.uleb128 0x3
 7178 016d 0E       		.uleb128 0xe
 7179 016e 3A       		.uleb128 0x3a
 7180 016f 0B       		.uleb128 0xb
 7181 0170 3B       		.uleb128 0x3b
 7182 0171 0B       		.uleb128 0xb
 7183 0172 39       		.uleb128 0x39
 7184 0173 0B       		.uleb128 0xb
ARM GAS  C:\Users\30806\AppData\Local\Temp\ccYcD1nI.s 			page 131


 7185 0174 8740     		.uleb128 0x2007
 7186 0176 0E       		.uleb128 0xe
 7187 0177 49       		.uleb128 0x49
 7188 0178 13       		.uleb128 0x13
 7189 0179 3C       		.uleb128 0x3c
 7190 017a 0C       		.uleb128 0xc
 7191 017b 01       		.uleb128 0x1
 7192 017c 13       		.uleb128 0x13
 7193 017d 00       		.byte	0
 7194 017e 00       		.byte	0
 7195 017f 1A       		.uleb128 0x1a
 7196 0180 2E       		.uleb128 0x2e
 7197 0181 01       		.byte	0x1
 7198 0182 3F       		.uleb128 0x3f
 7199 0183 0C       		.uleb128 0xc
 7200 0184 03       		.uleb128 0x3
 7201 0185 08       		.uleb128 0x8
 7202 0186 3A       		.uleb128 0x3a
 7203 0187 0B       		.uleb128 0xb
 7204 0188 3B       		.uleb128 0x3b
 7205 0189 05       		.uleb128 0x5
 7206 018a 39       		.uleb128 0x39
 7207 018b 0B       		.uleb128 0xb
 7208 018c 8740     		.uleb128 0x2007
 7209 018e 0E       		.uleb128 0xe
 7210 018f 49       		.uleb128 0x49
 7211 0190 13       		.uleb128 0x13
 7212 0191 3C       		.uleb128 0x3c
 7213 0192 0C       		.uleb128 0xc
 7214 0193 01       		.uleb128 0x1
 7215 0194 13       		.uleb128 0x13
 7216 0195 00       		.byte	0
 7217 0196 00       		.byte	0
 7218 0197 1B       		.uleb128 0x1b
 7219 0198 2E       		.uleb128 0x2e
 7220 0199 01       		.byte	0x1
 7221 019a 3F       		.uleb128 0x3f
 7222 019b 0C       		.uleb128 0xc
 7223 019c 03       		.uleb128 0x3
 7224 019d 0E       		.uleb128 0xe
 7225 019e 3A       		.uleb128 0x3a
 7226 019f 0B       		.uleb128 0xb
 7227 01a0 3B       		.uleb128 0x3b
 7228 01a1 05       		.uleb128 0x5
 7229 01a2 39       		.uleb128 0x39
 7230 01a3 0B       		.uleb128 0xb
 7231 01a4 8740     		.uleb128 0x2007
 7232 01a6 0E       		.uleb128 0xe
 7233 01a7 49       		.uleb128 0x49
 7234 01a8 13       		.uleb128 0x13
 7235 01a9 3C       		.uleb128 0x3c
 7236 01aa 0C       		.uleb128 0xc
 7237 01ab 01       		.uleb128 0x1
 7238 01ac 13       		.uleb128 0x13
 7239 01ad 00       		.byte	0
 7240 01ae 00       		.byte	0
 7241 01af 1C       		.uleb128 0x1c
ARM GAS  C:\Users\30806\AppData\Local\Temp\ccYcD1nI.s 			page 132


 7242 01b0 2E       		.uleb128 0x2e
 7243 01b1 01       		.byte	0x1
 7244 01b2 3F       		.uleb128 0x3f
 7245 01b3 0C       		.uleb128 0xc
 7246 01b4 03       		.uleb128 0x3
 7247 01b5 0E       		.uleb128 0xe
 7248 01b6 3A       		.uleb128 0x3a
 7249 01b7 0B       		.uleb128 0xb
 7250 01b8 3B       		.uleb128 0x3b
 7251 01b9 05       		.uleb128 0x5
 7252 01ba 39       		.uleb128 0x39
 7253 01bb 0B       		.uleb128 0xb
 7254 01bc 8740     		.uleb128 0x2007
 7255 01be 0E       		.uleb128 0xe
 7256 01bf 49       		.uleb128 0x49
 7257 01c0 13       		.uleb128 0x13
 7258 01c1 3C       		.uleb128 0x3c
 7259 01c2 0C       		.uleb128 0xc
 7260 01c3 00       		.byte	0
 7261 01c4 00       		.byte	0
 7262 01c5 1D       		.uleb128 0x1d
 7263 01c6 39       		.uleb128 0x39
 7264 01c7 01       		.byte	0x1
 7265 01c8 03       		.uleb128 0x3
 7266 01c9 0E       		.uleb128 0xe
 7267 01ca 3A       		.uleb128 0x3a
 7268 01cb 0B       		.uleb128 0xb
 7269 01cc 3B       		.uleb128 0x3b
 7270 01cd 05       		.uleb128 0x5
 7271 01ce 39       		.uleb128 0x39
 7272 01cf 0B       		.uleb128 0xb
 7273 01d0 01       		.uleb128 0x1
 7274 01d1 13       		.uleb128 0x13
 7275 01d2 00       		.byte	0
 7276 01d3 00       		.byte	0
 7277 01d4 1E       		.uleb128 0x1e
 7278 01d5 08       		.uleb128 0x8
 7279 01d6 00       		.byte	0
 7280 01d7 3A       		.uleb128 0x3a
 7281 01d8 0B       		.uleb128 0xb
 7282 01d9 3B       		.uleb128 0x3b
 7283 01da 0B       		.uleb128 0xb
 7284 01db 39       		.uleb128 0x39
 7285 01dc 0B       		.uleb128 0xb
 7286 01dd 18       		.uleb128 0x18
 7287 01de 13       		.uleb128 0x13
 7288 01df 00       		.byte	0
 7289 01e0 00       		.byte	0
 7290 01e1 1F       		.uleb128 0x1f
 7291 01e2 01       		.uleb128 0x1
 7292 01e3 01       		.byte	0x1
 7293 01e4 49       		.uleb128 0x49
 7294 01e5 13       		.uleb128 0x13
 7295 01e6 01       		.uleb128 0x1
 7296 01e7 13       		.uleb128 0x13
 7297 01e8 00       		.byte	0
 7298 01e9 00       		.byte	0
ARM GAS  C:\Users\30806\AppData\Local\Temp\ccYcD1nI.s 			page 133


 7299 01ea 20       		.uleb128 0x20
 7300 01eb 21       		.uleb128 0x21
 7301 01ec 00       		.byte	0
 7302 01ed 49       		.uleb128 0x49
 7303 01ee 13       		.uleb128 0x13
 7304 01ef 2F       		.uleb128 0x2f
 7305 01f0 05       		.uleb128 0x5
 7306 01f1 00       		.byte	0
 7307 01f2 00       		.byte	0
 7308 01f3 21       		.uleb128 0x21
 7309 01f4 34       		.uleb128 0x34
 7310 01f5 00       		.byte	0
 7311 01f6 03       		.uleb128 0x3
 7312 01f7 0E       		.uleb128 0xe
 7313 01f8 3A       		.uleb128 0x3a
 7314 01f9 0B       		.uleb128 0xb
 7315 01fa 3B       		.uleb128 0x3b
 7316 01fb 0B       		.uleb128 0xb
 7317 01fc 39       		.uleb128 0x39
 7318 01fd 0B       		.uleb128 0xb
 7319 01fe 49       		.uleb128 0x49
 7320 01ff 13       		.uleb128 0x13
 7321 0200 02       		.uleb128 0x2
 7322 0201 0A       		.uleb128 0xa
 7323 0202 00       		.byte	0
 7324 0203 00       		.byte	0
 7325 0204 22       		.uleb128 0x22
 7326 0205 2E       		.uleb128 0x2e
 7327 0206 01       		.byte	0x1
 7328 0207 47       		.uleb128 0x47
 7329 0208 13       		.uleb128 0x13
 7330 0209 3A       		.uleb128 0x3a
 7331 020a 0B       		.uleb128 0xb
 7332 020b 3B       		.uleb128 0x3b
 7333 020c 0B       		.uleb128 0xb
 7334 020d 39       		.uleb128 0x39
 7335 020e 0B       		.uleb128 0xb
 7336 020f 64       		.uleb128 0x64
 7337 0210 13       		.uleb128 0x13
 7338 0211 11       		.uleb128 0x11
 7339 0212 01       		.uleb128 0x1
 7340 0213 12       		.uleb128 0x12
 7341 0214 01       		.uleb128 0x1
 7342 0215 40       		.uleb128 0x40
 7343 0216 06       		.uleb128 0x6
 7344 0217 9742     		.uleb128 0x2117
 7345 0219 0C       		.uleb128 0xc
 7346 021a 01       		.uleb128 0x1
 7347 021b 13       		.uleb128 0x13
 7348 021c 00       		.byte	0
 7349 021d 00       		.byte	0
 7350 021e 23       		.uleb128 0x23
 7351 021f 05       		.uleb128 0x5
 7352 0220 00       		.byte	0
 7353 0221 03       		.uleb128 0x3
 7354 0222 0E       		.uleb128 0xe
 7355 0223 49       		.uleb128 0x49
ARM GAS  C:\Users\30806\AppData\Local\Temp\ccYcD1nI.s 			page 134


 7356 0224 13       		.uleb128 0x13
 7357 0225 34       		.uleb128 0x34
 7358 0226 0C       		.uleb128 0xc
 7359 0227 02       		.uleb128 0x2
 7360 0228 0A       		.uleb128 0xa
 7361 0229 00       		.byte	0
 7362 022a 00       		.byte	0
 7363 022b 24       		.uleb128 0x24
 7364 022c 05       		.uleb128 0x5
 7365 022d 00       		.byte	0
 7366 022e 03       		.uleb128 0x3
 7367 022f 08       		.uleb128 0x8
 7368 0230 3A       		.uleb128 0x3a
 7369 0231 0B       		.uleb128 0xb
 7370 0232 3B       		.uleb128 0x3b
 7371 0233 0B       		.uleb128 0xb
 7372 0234 39       		.uleb128 0x39
 7373 0235 0B       		.uleb128 0xb
 7374 0236 49       		.uleb128 0x49
 7375 0237 13       		.uleb128 0x13
 7376 0238 02       		.uleb128 0x2
 7377 0239 0A       		.uleb128 0xa
 7378 023a 00       		.byte	0
 7379 023b 00       		.byte	0
 7380 023c 25       		.uleb128 0x25
 7381 023d 05       		.uleb128 0x5
 7382 023e 00       		.byte	0
 7383 023f 03       		.uleb128 0x3
 7384 0240 0E       		.uleb128 0xe
 7385 0241 3A       		.uleb128 0x3a
 7386 0242 0B       		.uleb128 0xb
 7387 0243 3B       		.uleb128 0x3b
 7388 0244 0B       		.uleb128 0xb
 7389 0245 39       		.uleb128 0x39
 7390 0246 0B       		.uleb128 0xb
 7391 0247 49       		.uleb128 0x49
 7392 0248 13       		.uleb128 0x13
 7393 0249 02       		.uleb128 0x2
 7394 024a 0A       		.uleb128 0xa
 7395 024b 00       		.byte	0
 7396 024c 00       		.byte	0
 7397 024d 26       		.uleb128 0x26
 7398 024e 2E       		.uleb128 0x2e
 7399 024f 01       		.byte	0x1
 7400 0250 47       		.uleb128 0x47
 7401 0251 13       		.uleb128 0x13
 7402 0252 3A       		.uleb128 0x3a
 7403 0253 0B       		.uleb128 0xb
 7404 0254 3B       		.uleb128 0x3b
 7405 0255 0B       		.uleb128 0xb
 7406 0256 39       		.uleb128 0x39
 7407 0257 0B       		.uleb128 0xb
 7408 0258 64       		.uleb128 0x64
 7409 0259 13       		.uleb128 0x13
 7410 025a 11       		.uleb128 0x11
 7411 025b 01       		.uleb128 0x1
 7412 025c 12       		.uleb128 0x12
ARM GAS  C:\Users\30806\AppData\Local\Temp\ccYcD1nI.s 			page 135


 7413 025d 01       		.uleb128 0x1
 7414 025e 40       		.uleb128 0x40
 7415 025f 06       		.uleb128 0x6
 7416 0260 9642     		.uleb128 0x2116
 7417 0262 0C       		.uleb128 0xc
 7418 0263 01       		.uleb128 0x1
 7419 0264 13       		.uleb128 0x13
 7420 0265 00       		.byte	0
 7421 0266 00       		.byte	0
 7422 0267 27       		.uleb128 0x27
 7423 0268 0B       		.uleb128 0xb
 7424 0269 01       		.byte	0x1
 7425 026a 11       		.uleb128 0x11
 7426 026b 01       		.uleb128 0x1
 7427 026c 12       		.uleb128 0x12
 7428 026d 01       		.uleb128 0x1
 7429 026e 01       		.uleb128 0x1
 7430 026f 13       		.uleb128 0x13
 7431 0270 00       		.byte	0
 7432 0271 00       		.byte	0
 7433 0272 28       		.uleb128 0x28
 7434 0273 34       		.uleb128 0x34
 7435 0274 00       		.byte	0
 7436 0275 03       		.uleb128 0x3
 7437 0276 08       		.uleb128 0x8
 7438 0277 3A       		.uleb128 0x3a
 7439 0278 0B       		.uleb128 0xb
 7440 0279 3B       		.uleb128 0x3b
 7441 027a 0B       		.uleb128 0xb
 7442 027b 39       		.uleb128 0x39
 7443 027c 0B       		.uleb128 0xb
 7444 027d 49       		.uleb128 0x49
 7445 027e 13       		.uleb128 0x13
 7446 027f 02       		.uleb128 0x2
 7447 0280 0A       		.uleb128 0xa
 7448 0281 00       		.byte	0
 7449 0282 00       		.byte	0
 7450 0283 29       		.uleb128 0x29
 7451 0284 0B       		.uleb128 0xb
 7452 0285 01       		.byte	0x1
 7453 0286 11       		.uleb128 0x11
 7454 0287 01       		.uleb128 0x1
 7455 0288 12       		.uleb128 0x12
 7456 0289 01       		.uleb128 0x1
 7457 028a 00       		.byte	0
 7458 028b 00       		.byte	0
 7459 028c 00       		.byte	0
 7460              		.section	.debug_loc,"",%progbits
 7461              	.Ldebug_loc0:
 7462              	.LLST12:
 7463 0000 00000000 		.4byte	.LFB386
 7464 0004 02000000 		.4byte	.LCFI71
 7465 0008 0200     		.2byte	0x2
 7466 000a 7D       		.byte	0x7d
 7467 000b 00       		.sleb128 0
 7468 000c 02000000 		.4byte	.LCFI71
 7469 0010 04000000 		.4byte	.LCFI72
ARM GAS  C:\Users\30806\AppData\Local\Temp\ccYcD1nI.s 			page 136


 7470 0014 0200     		.2byte	0x2
 7471 0016 7D       		.byte	0x7d
 7472 0017 04       		.sleb128 4
 7473 0018 04000000 		.4byte	.LCFI72
 7474 001c 06000000 		.4byte	.LCFI73
 7475 0020 0200     		.2byte	0x2
 7476 0022 7D       		.byte	0x7d
 7477 0023 18       		.sleb128 24
 7478 0024 06000000 		.4byte	.LCFI73
 7479 0028 54000000 		.4byte	.LCFI74
 7480 002c 0200     		.2byte	0x2
 7481 002e 77       		.byte	0x77
 7482 002f 18       		.sleb128 24
 7483 0030 54000000 		.4byte	.LCFI74
 7484 0034 56000000 		.4byte	.LCFI75
 7485 0038 0200     		.2byte	0x2
 7486 003a 77       		.byte	0x77
 7487 003b 04       		.sleb128 4
 7488 003c 56000000 		.4byte	.LCFI75
 7489 0040 5A000000 		.4byte	.LCFI76
 7490 0044 0200     		.2byte	0x2
 7491 0046 7D       		.byte	0x7d
 7492 0047 04       		.sleb128 4
 7493 0048 5A000000 		.4byte	.LCFI76
 7494 004c 5C000000 		.4byte	.LFE386
 7495 0050 0200     		.2byte	0x2
 7496 0052 7D       		.byte	0x7d
 7497 0053 00       		.sleb128 0
 7498 0054 00000000 		.4byte	0
 7499 0058 00000000 		.4byte	0
 7500              	.LLST11:
 7501 005c 00000000 		.4byte	.LFB385
 7502 0060 02000000 		.4byte	.LCFI65
 7503 0064 0200     		.2byte	0x2
 7504 0066 7D       		.byte	0x7d
 7505 0067 00       		.sleb128 0
 7506 0068 02000000 		.4byte	.LCFI65
 7507 006c 04000000 		.4byte	.LCFI66
 7508 0070 0200     		.2byte	0x2
 7509 0072 7D       		.byte	0x7d
 7510 0073 04       		.sleb128 4
 7511 0074 04000000 		.4byte	.LCFI66
 7512 0078 06000000 		.4byte	.LCFI67
 7513 007c 0200     		.2byte	0x2
 7514 007e 7D       		.byte	0x7d
 7515 007f 18       		.sleb128 24
 7516 0080 06000000 		.4byte	.LCFI67
 7517 0084 92000000 		.4byte	.LCFI68
 7518 0088 0200     		.2byte	0x2
 7519 008a 77       		.byte	0x77
 7520 008b 18       		.sleb128 24
 7521 008c 92000000 		.4byte	.LCFI68
 7522 0090 94000000 		.4byte	.LCFI69
 7523 0094 0200     		.2byte	0x2
 7524 0096 77       		.byte	0x77
 7525 0097 04       		.sleb128 4
 7526 0098 94000000 		.4byte	.LCFI69
ARM GAS  C:\Users\30806\AppData\Local\Temp\ccYcD1nI.s 			page 137


 7527 009c 98000000 		.4byte	.LCFI70
 7528 00a0 0200     		.2byte	0x2
 7529 00a2 7D       		.byte	0x7d
 7530 00a3 04       		.sleb128 4
 7531 00a4 98000000 		.4byte	.LCFI70
 7532 00a8 9A000000 		.4byte	.LFE385
 7533 00ac 0200     		.2byte	0x2
 7534 00ae 7D       		.byte	0x7d
 7535 00af 00       		.sleb128 0
 7536 00b0 00000000 		.4byte	0
 7537 00b4 00000000 		.4byte	0
 7538              	.LLST10:
 7539 00b8 00000000 		.4byte	.LFB384
 7540 00bc 02000000 		.4byte	.LCFI60
 7541 00c0 0200     		.2byte	0x2
 7542 00c2 7D       		.byte	0x7d
 7543 00c3 00       		.sleb128 0
 7544 00c4 02000000 		.4byte	.LCFI60
 7545 00c8 04000000 		.4byte	.LCFI61
 7546 00cc 0200     		.2byte	0x2
 7547 00ce 7D       		.byte	0x7d
 7548 00cf 08       		.sleb128 8
 7549 00d0 04000000 		.4byte	.LCFI61
 7550 00d4 06000000 		.4byte	.LCFI62
 7551 00d8 0200     		.2byte	0x2
 7552 00da 7D       		.byte	0x7d
 7553 00db 20       		.sleb128 32
 7554 00dc 06000000 		.4byte	.LCFI62
 7555 00e0 10010000 		.4byte	.LCFI63
 7556 00e4 0200     		.2byte	0x2
 7557 00e6 77       		.byte	0x77
 7558 00e7 20       		.sleb128 32
 7559 00e8 10010000 		.4byte	.LCFI63
 7560 00ec 12010000 		.4byte	.LCFI64
 7561 00f0 0200     		.2byte	0x2
 7562 00f2 77       		.byte	0x77
 7563 00f3 08       		.sleb128 8
 7564 00f4 12010000 		.4byte	.LCFI64
 7565 00f8 18010000 		.4byte	.LFE384
 7566 00fc 0200     		.2byte	0x2
 7567 00fe 7D       		.byte	0x7d
 7568 00ff 08       		.sleb128 8
 7569 0100 00000000 		.4byte	0
 7570 0104 00000000 		.4byte	0
 7571              	.LLST9:
 7572 0108 00000000 		.4byte	.LFB383
 7573 010c 02000000 		.4byte	.LCFI54
 7574 0110 0200     		.2byte	0x2
 7575 0112 7D       		.byte	0x7d
 7576 0113 00       		.sleb128 0
 7577 0114 02000000 		.4byte	.LCFI54
 7578 0118 04000000 		.4byte	.LCFI55
 7579 011c 0200     		.2byte	0x2
 7580 011e 7D       		.byte	0x7d
 7581 011f 04       		.sleb128 4
 7582 0120 04000000 		.4byte	.LCFI55
 7583 0124 06000000 		.4byte	.LCFI56
ARM GAS  C:\Users\30806\AppData\Local\Temp\ccYcD1nI.s 			page 138


 7584 0128 0200     		.2byte	0x2
 7585 012a 7D       		.byte	0x7d
 7586 012b 18       		.sleb128 24
 7587 012c 06000000 		.4byte	.LCFI56
 7588 0130 54010000 		.4byte	.LCFI57
 7589 0134 0200     		.2byte	0x2
 7590 0136 77       		.byte	0x77
 7591 0137 18       		.sleb128 24
 7592 0138 54010000 		.4byte	.LCFI57
 7593 013c 56010000 		.4byte	.LCFI58
 7594 0140 0200     		.2byte	0x2
 7595 0142 77       		.byte	0x77
 7596 0143 04       		.sleb128 4
 7597 0144 56010000 		.4byte	.LCFI58
 7598 0148 5A010000 		.4byte	.LCFI59
 7599 014c 0200     		.2byte	0x2
 7600 014e 7D       		.byte	0x7d
 7601 014f 04       		.sleb128 4
 7602 0150 5A010000 		.4byte	.LCFI59
 7603 0154 70010000 		.4byte	.LFE383
 7604 0158 0200     		.2byte	0x2
 7605 015a 7D       		.byte	0x7d
 7606 015b 00       		.sleb128 0
 7607 015c 00000000 		.4byte	0
 7608 0160 00000000 		.4byte	0
 7609              	.LLST8:
 7610 0164 00000000 		.4byte	.LFB382
 7611 0168 02000000 		.4byte	.LCFI48
 7612 016c 0200     		.2byte	0x2
 7613 016e 7D       		.byte	0x7d
 7614 016f 00       		.sleb128 0
 7615 0170 02000000 		.4byte	.LCFI48
 7616 0174 04000000 		.4byte	.LCFI49
 7617 0178 0200     		.2byte	0x2
 7618 017a 7D       		.byte	0x7d
 7619 017b 04       		.sleb128 4
 7620 017c 04000000 		.4byte	.LCFI49
 7621 0180 06000000 		.4byte	.LCFI50
 7622 0184 0200     		.2byte	0x2
 7623 0186 7D       		.byte	0x7d
 7624 0187 18       		.sleb128 24
 7625 0188 06000000 		.4byte	.LCFI50
 7626 018c 36020000 		.4byte	.LCFI51
 7627 0190 0200     		.2byte	0x2
 7628 0192 77       		.byte	0x77
 7629 0193 18       		.sleb128 24
 7630 0194 36020000 		.4byte	.LCFI51
 7631 0198 38020000 		.4byte	.LCFI52
 7632 019c 0200     		.2byte	0x2
 7633 019e 77       		.byte	0x77
 7634 019f 04       		.sleb128 4
 7635 01a0 38020000 		.4byte	.LCFI52
 7636 01a4 3C020000 		.4byte	.LCFI53
 7637 01a8 0200     		.2byte	0x2
 7638 01aa 7D       		.byte	0x7d
 7639 01ab 04       		.sleb128 4
 7640 01ac 3C020000 		.4byte	.LCFI53
ARM GAS  C:\Users\30806\AppData\Local\Temp\ccYcD1nI.s 			page 139


 7641 01b0 58020000 		.4byte	.LFE382
 7642 01b4 0200     		.2byte	0x2
 7643 01b6 7D       		.byte	0x7d
 7644 01b7 00       		.sleb128 0
 7645 01b8 00000000 		.4byte	0
 7646 01bc 00000000 		.4byte	0
 7647              	.LLST7:
 7648 01c0 00000000 		.4byte	.LFB381
 7649 01c4 02000000 		.4byte	.LCFI42
 7650 01c8 0200     		.2byte	0x2
 7651 01ca 7D       		.byte	0x7d
 7652 01cb 00       		.sleb128 0
 7653 01cc 02000000 		.4byte	.LCFI42
 7654 01d0 04000000 		.4byte	.LCFI43
 7655 01d4 0200     		.2byte	0x2
 7656 01d6 7D       		.byte	0x7d
 7657 01d7 04       		.sleb128 4
 7658 01d8 04000000 		.4byte	.LCFI43
 7659 01dc 06000000 		.4byte	.LCFI44
 7660 01e0 0200     		.2byte	0x2
 7661 01e2 7D       		.byte	0x7d
 7662 01e3 18       		.sleb128 24
 7663 01e4 06000000 		.4byte	.LCFI44
 7664 01e8 58000000 		.4byte	.LCFI45
 7665 01ec 0200     		.2byte	0x2
 7666 01ee 77       		.byte	0x77
 7667 01ef 18       		.sleb128 24
 7668 01f0 58000000 		.4byte	.LCFI45
 7669 01f4 5A000000 		.4byte	.LCFI46
 7670 01f8 0200     		.2byte	0x2
 7671 01fa 77       		.byte	0x77
 7672 01fb 04       		.sleb128 4
 7673 01fc 5A000000 		.4byte	.LCFI46
 7674 0200 5E000000 		.4byte	.LCFI47
 7675 0204 0200     		.2byte	0x2
 7676 0206 7D       		.byte	0x7d
 7677 0207 04       		.sleb128 4
 7678 0208 5E000000 		.4byte	.LCFI47
 7679 020c 60000000 		.4byte	.LFE381
 7680 0210 0200     		.2byte	0x2
 7681 0212 7D       		.byte	0x7d
 7682 0213 00       		.sleb128 0
 7683 0214 00000000 		.4byte	0
 7684 0218 00000000 		.4byte	0
 7685              	.LLST6:
 7686 021c 00000000 		.4byte	.LFB380
 7687 0220 02000000 		.4byte	.LCFI36
 7688 0224 0200     		.2byte	0x2
 7689 0226 7D       		.byte	0x7d
 7690 0227 00       		.sleb128 0
 7691 0228 02000000 		.4byte	.LCFI36
 7692 022c 04000000 		.4byte	.LCFI37
 7693 0230 0200     		.2byte	0x2
 7694 0232 7D       		.byte	0x7d
 7695 0233 04       		.sleb128 4
 7696 0234 04000000 		.4byte	.LCFI37
 7697 0238 06000000 		.4byte	.LCFI38
ARM GAS  C:\Users\30806\AppData\Local\Temp\ccYcD1nI.s 			page 140


 7698 023c 0200     		.2byte	0x2
 7699 023e 7D       		.byte	0x7d
 7700 023f 20       		.sleb128 32
 7701 0240 06000000 		.4byte	.LCFI38
 7702 0244 A6000000 		.4byte	.LCFI39
 7703 0248 0200     		.2byte	0x2
 7704 024a 77       		.byte	0x77
 7705 024b 20       		.sleb128 32
 7706 024c A6000000 		.4byte	.LCFI39
 7707 0250 A8000000 		.4byte	.LCFI40
 7708 0254 0200     		.2byte	0x2
 7709 0256 77       		.byte	0x77
 7710 0257 04       		.sleb128 4
 7711 0258 A8000000 		.4byte	.LCFI40
 7712 025c AC000000 		.4byte	.LCFI41
 7713 0260 0200     		.2byte	0x2
 7714 0262 7D       		.byte	0x7d
 7715 0263 04       		.sleb128 4
 7716 0264 AC000000 		.4byte	.LCFI41
 7717 0268 B4000000 		.4byte	.LFE380
 7718 026c 0200     		.2byte	0x2
 7719 026e 7D       		.byte	0x7d
 7720 026f 00       		.sleb128 0
 7721 0270 00000000 		.4byte	0
 7722 0274 00000000 		.4byte	0
 7723              	.LLST5:
 7724 0278 00000000 		.4byte	.LFB379
 7725 027c 02000000 		.4byte	.LCFI30
 7726 0280 0200     		.2byte	0x2
 7727 0282 7D       		.byte	0x7d
 7728 0283 00       		.sleb128 0
 7729 0284 02000000 		.4byte	.LCFI30
 7730 0288 04000000 		.4byte	.LCFI31
 7731 028c 0200     		.2byte	0x2
 7732 028e 7D       		.byte	0x7d
 7733 028f 04       		.sleb128 4
 7734 0290 04000000 		.4byte	.LCFI31
 7735 0294 06000000 		.4byte	.LCFI32
 7736 0298 0200     		.2byte	0x2
 7737 029a 7D       		.byte	0x7d
 7738 029b 20       		.sleb128 32
 7739 029c 06000000 		.4byte	.LCFI32
 7740 02a0 C2000000 		.4byte	.LCFI33
 7741 02a4 0200     		.2byte	0x2
 7742 02a6 77       		.byte	0x77
 7743 02a7 20       		.sleb128 32
 7744 02a8 C2000000 		.4byte	.LCFI33
 7745 02ac C4000000 		.4byte	.LCFI34
 7746 02b0 0200     		.2byte	0x2
 7747 02b2 77       		.byte	0x77
 7748 02b3 04       		.sleb128 4
 7749 02b4 C4000000 		.4byte	.LCFI34
 7750 02b8 C8000000 		.4byte	.LCFI35
 7751 02bc 0200     		.2byte	0x2
 7752 02be 7D       		.byte	0x7d
 7753 02bf 04       		.sleb128 4
 7754 02c0 C8000000 		.4byte	.LCFI35
ARM GAS  C:\Users\30806\AppData\Local\Temp\ccYcD1nI.s 			page 141


 7755 02c4 CA000000 		.4byte	.LFE379
 7756 02c8 0200     		.2byte	0x2
 7757 02ca 7D       		.byte	0x7d
 7758 02cb 00       		.sleb128 0
 7759 02cc 00000000 		.4byte	0
 7760 02d0 00000000 		.4byte	0
 7761              	.LLST4:
 7762 02d4 00000000 		.4byte	.LFB378
 7763 02d8 02000000 		.4byte	.LCFI24
 7764 02dc 0200     		.2byte	0x2
 7765 02de 7D       		.byte	0x7d
 7766 02df 00       		.sleb128 0
 7767 02e0 02000000 		.4byte	.LCFI24
 7768 02e4 04000000 		.4byte	.LCFI25
 7769 02e8 0200     		.2byte	0x2
 7770 02ea 7D       		.byte	0x7d
 7771 02eb 04       		.sleb128 4
 7772 02ec 04000000 		.4byte	.LCFI25
 7773 02f0 06000000 		.4byte	.LCFI26
 7774 02f4 0200     		.2byte	0x2
 7775 02f6 7D       		.byte	0x7d
 7776 02f7 18       		.sleb128 24
 7777 02f8 06000000 		.4byte	.LCFI26
 7778 02fc 76000000 		.4byte	.LCFI27
 7779 0300 0200     		.2byte	0x2
 7780 0302 77       		.byte	0x77
 7781 0303 18       		.sleb128 24
 7782 0304 76000000 		.4byte	.LCFI27
 7783 0308 78000000 		.4byte	.LCFI28
 7784 030c 0200     		.2byte	0x2
 7785 030e 77       		.byte	0x77
 7786 030f 04       		.sleb128 4
 7787 0310 78000000 		.4byte	.LCFI28
 7788 0314 7C000000 		.4byte	.LCFI29
 7789 0318 0200     		.2byte	0x2
 7790 031a 7D       		.byte	0x7d
 7791 031b 04       		.sleb128 4
 7792 031c 7C000000 		.4byte	.LCFI29
 7793 0320 7E000000 		.4byte	.LFE378
 7794 0324 0200     		.2byte	0x2
 7795 0326 7D       		.byte	0x7d
 7796 0327 00       		.sleb128 0
 7797 0328 00000000 		.4byte	0
 7798 032c 00000000 		.4byte	0
 7799              	.LLST3:
 7800 0330 00000000 		.4byte	.LFB377
 7801 0334 02000000 		.4byte	.LCFI18
 7802 0338 0200     		.2byte	0x2
 7803 033a 7D       		.byte	0x7d
 7804 033b 00       		.sleb128 0
 7805 033c 02000000 		.4byte	.LCFI18
 7806 0340 04000000 		.4byte	.LCFI19
 7807 0344 0200     		.2byte	0x2
 7808 0346 7D       		.byte	0x7d
 7809 0347 04       		.sleb128 4
 7810 0348 04000000 		.4byte	.LCFI19
 7811 034c 06000000 		.4byte	.LCFI20
ARM GAS  C:\Users\30806\AppData\Local\Temp\ccYcD1nI.s 			page 142


 7812 0350 0200     		.2byte	0x2
 7813 0352 7D       		.byte	0x7d
 7814 0353 10       		.sleb128 16
 7815 0354 06000000 		.4byte	.LCFI20
 7816 0358 4C000000 		.4byte	.LCFI21
 7817 035c 0200     		.2byte	0x2
 7818 035e 77       		.byte	0x77
 7819 035f 10       		.sleb128 16
 7820 0360 4C000000 		.4byte	.LCFI21
 7821 0364 4E000000 		.4byte	.LCFI22
 7822 0368 0200     		.2byte	0x2
 7823 036a 77       		.byte	0x77
 7824 036b 04       		.sleb128 4
 7825 036c 4E000000 		.4byte	.LCFI22
 7826 0370 52000000 		.4byte	.LCFI23
 7827 0374 0200     		.2byte	0x2
 7828 0376 7D       		.byte	0x7d
 7829 0377 04       		.sleb128 4
 7830 0378 52000000 		.4byte	.LCFI23
 7831 037c 54000000 		.4byte	.LFE377
 7832 0380 0200     		.2byte	0x2
 7833 0382 7D       		.byte	0x7d
 7834 0383 00       		.sleb128 0
 7835 0384 00000000 		.4byte	0
 7836 0388 00000000 		.4byte	0
 7837              	.LLST2:
 7838 038c 00000000 		.4byte	.LFB376
 7839 0390 02000000 		.4byte	.LCFI12
 7840 0394 0200     		.2byte	0x2
 7841 0396 7D       		.byte	0x7d
 7842 0397 00       		.sleb128 0
 7843 0398 02000000 		.4byte	.LCFI12
 7844 039c 04000000 		.4byte	.LCFI13
 7845 03a0 0200     		.2byte	0x2
 7846 03a2 7D       		.byte	0x7d
 7847 03a3 04       		.sleb128 4
 7848 03a4 04000000 		.4byte	.LCFI13
 7849 03a8 06000000 		.4byte	.LCFI14
 7850 03ac 0200     		.2byte	0x2
 7851 03ae 7D       		.byte	0x7d
 7852 03af 10       		.sleb128 16
 7853 03b0 06000000 		.4byte	.LCFI14
 7854 03b4 DE000000 		.4byte	.LCFI15
 7855 03b8 0200     		.2byte	0x2
 7856 03ba 77       		.byte	0x77
 7857 03bb 10       		.sleb128 16
 7858 03bc DE000000 		.4byte	.LCFI15
 7859 03c0 E0000000 		.4byte	.LCFI16
 7860 03c4 0200     		.2byte	0x2
 7861 03c6 77       		.byte	0x77
 7862 03c7 04       		.sleb128 4
 7863 03c8 E0000000 		.4byte	.LCFI16
 7864 03cc E4000000 		.4byte	.LCFI17
 7865 03d0 0200     		.2byte	0x2
 7866 03d2 7D       		.byte	0x7d
 7867 03d3 04       		.sleb128 4
 7868 03d4 E4000000 		.4byte	.LCFI17
ARM GAS  C:\Users\30806\AppData\Local\Temp\ccYcD1nI.s 			page 143


 7869 03d8 E6000000 		.4byte	.LFE376
 7870 03dc 0200     		.2byte	0x2
 7871 03de 7D       		.byte	0x7d
 7872 03df 00       		.sleb128 0
 7873 03e0 00000000 		.4byte	0
 7874 03e4 00000000 		.4byte	0
 7875              	.LLST1:
 7876 03e8 00000000 		.4byte	.LFB375
 7877 03ec 02000000 		.4byte	.LCFI6
 7878 03f0 0200     		.2byte	0x2
 7879 03f2 7D       		.byte	0x7d
 7880 03f3 00       		.sleb128 0
 7881 03f4 02000000 		.4byte	.LCFI6
 7882 03f8 04000000 		.4byte	.LCFI7
 7883 03fc 0200     		.2byte	0x2
 7884 03fe 7D       		.byte	0x7d
 7885 03ff 04       		.sleb128 4
 7886 0400 04000000 		.4byte	.LCFI7
 7887 0404 06000000 		.4byte	.LCFI8
 7888 0408 0200     		.2byte	0x2
 7889 040a 7D       		.byte	0x7d
 7890 040b 10       		.sleb128 16
 7891 040c 06000000 		.4byte	.LCFI8
 7892 0410 4E000000 		.4byte	.LCFI9
 7893 0414 0200     		.2byte	0x2
 7894 0416 77       		.byte	0x77
 7895 0417 10       		.sleb128 16
 7896 0418 4E000000 		.4byte	.LCFI9
 7897 041c 50000000 		.4byte	.LCFI10
 7898 0420 0200     		.2byte	0x2
 7899 0422 77       		.byte	0x77
 7900 0423 04       		.sleb128 4
 7901 0424 50000000 		.4byte	.LCFI10
 7902 0428 54000000 		.4byte	.LCFI11
 7903 042c 0200     		.2byte	0x2
 7904 042e 7D       		.byte	0x7d
 7905 042f 04       		.sleb128 4
 7906 0430 54000000 		.4byte	.LCFI11
 7907 0434 56000000 		.4byte	.LFE375
 7908 0438 0200     		.2byte	0x2
 7909 043a 7D       		.byte	0x7d
 7910 043b 00       		.sleb128 0
 7911 043c 00000000 		.4byte	0
 7912 0440 00000000 		.4byte	0
 7913              	.LLST0:
 7914 0444 00000000 		.4byte	.LFB374
 7915 0448 02000000 		.4byte	.LCFI0
 7916 044c 0200     		.2byte	0x2
 7917 044e 7D       		.byte	0x7d
 7918 044f 00       		.sleb128 0
 7919 0450 02000000 		.4byte	.LCFI0
 7920 0454 04000000 		.4byte	.LCFI1
 7921 0458 0200     		.2byte	0x2
 7922 045a 7D       		.byte	0x7d
 7923 045b 04       		.sleb128 4
 7924 045c 04000000 		.4byte	.LCFI1
 7925 0460 06000000 		.4byte	.LCFI2
ARM GAS  C:\Users\30806\AppData\Local\Temp\ccYcD1nI.s 			page 144


 7926 0464 0200     		.2byte	0x2
 7927 0466 7D       		.byte	0x7d
 7928 0467 20       		.sleb128 32
 7929 0468 06000000 		.4byte	.LCFI2
 7930 046c 6E000000 		.4byte	.LCFI3
 7931 0470 0200     		.2byte	0x2
 7932 0472 77       		.byte	0x77
 7933 0473 20       		.sleb128 32
 7934 0474 6E000000 		.4byte	.LCFI3
 7935 0478 70000000 		.4byte	.LCFI4
 7936 047c 0200     		.2byte	0x2
 7937 047e 77       		.byte	0x77
 7938 047f 04       		.sleb128 4
 7939 0480 70000000 		.4byte	.LCFI4
 7940 0484 74000000 		.4byte	.LCFI5
 7941 0488 0200     		.2byte	0x2
 7942 048a 7D       		.byte	0x7d
 7943 048b 04       		.sleb128 4
 7944 048c 74000000 		.4byte	.LCFI5
 7945 0490 7C000000 		.4byte	.LFE374
 7946 0494 0200     		.2byte	0x2
 7947 0496 7D       		.byte	0x7d
 7948 0497 00       		.sleb128 0
 7949 0498 00000000 		.4byte	0
 7950 049c 00000000 		.4byte	0
 7951              		.section	.debug_aranges,"",%progbits
 7952 0000 7C000000 		.4byte	0x7c
 7953 0004 0200     		.2byte	0x2
 7954 0006 00000000 		.4byte	.Ldebug_info0
 7955 000a 04       		.byte	0x4
 7956 000b 00       		.byte	0
 7957 000c 0000     		.2byte	0
 7958 000e 0000     		.2byte	0
 7959 0010 00000000 		.4byte	.LFB374
 7960 0014 7C000000 		.4byte	.LFE374-.LFB374
 7961 0018 00000000 		.4byte	.LFB375
 7962 001c 56000000 		.4byte	.LFE375-.LFB375
 7963 0020 00000000 		.4byte	.LFB376
 7964 0024 E6000000 		.4byte	.LFE376-.LFB376
 7965 0028 00000000 		.4byte	.LFB377
 7966 002c 54000000 		.4byte	.LFE377-.LFB377
 7967 0030 00000000 		.4byte	.LFB378
 7968 0034 7E000000 		.4byte	.LFE378-.LFB378
 7969 0038 00000000 		.4byte	.LFB379
 7970 003c CA000000 		.4byte	.LFE379-.LFB379
 7971 0040 00000000 		.4byte	.LFB380
 7972 0044 B4000000 		.4byte	.LFE380-.LFB380
 7973 0048 00000000 		.4byte	.LFB381
 7974 004c 60000000 		.4byte	.LFE381-.LFB381
 7975 0050 00000000 		.4byte	.LFB382
 7976 0054 58020000 		.4byte	.LFE382-.LFB382
 7977 0058 00000000 		.4byte	.LFB383
 7978 005c 70010000 		.4byte	.LFE383-.LFB383
 7979 0060 00000000 		.4byte	.LFB384
 7980 0064 18010000 		.4byte	.LFE384-.LFB384
 7981 0068 00000000 		.4byte	.LFB385
 7982 006c 9A000000 		.4byte	.LFE385-.LFB385
ARM GAS  C:\Users\30806\AppData\Local\Temp\ccYcD1nI.s 			page 145


 7983 0070 00000000 		.4byte	.LFB386
 7984 0074 5C000000 		.4byte	.LFE386-.LFB386
 7985 0078 00000000 		.4byte	0
 7986 007c 00000000 		.4byte	0
 7987              		.section	.debug_ranges,"",%progbits
 7988              	.Ldebug_ranges0:
 7989 0000 00000000 		.4byte	.LFB374
 7990 0004 7C000000 		.4byte	.LFE374
 7991 0008 00000000 		.4byte	.LFB375
 7992 000c 56000000 		.4byte	.LFE375
 7993 0010 00000000 		.4byte	.LFB376
 7994 0014 E6000000 		.4byte	.LFE376
 7995 0018 00000000 		.4byte	.LFB377
 7996 001c 54000000 		.4byte	.LFE377
 7997 0020 00000000 		.4byte	.LFB378
 7998 0024 7E000000 		.4byte	.LFE378
 7999 0028 00000000 		.4byte	.LFB379
 8000 002c CA000000 		.4byte	.LFE379
 8001 0030 00000000 		.4byte	.LFB380
 8002 0034 B4000000 		.4byte	.LFE380
 8003 0038 00000000 		.4byte	.LFB381
 8004 003c 60000000 		.4byte	.LFE381
 8005 0040 00000000 		.4byte	.LFB382
 8006 0044 58020000 		.4byte	.LFE382
 8007 0048 00000000 		.4byte	.LFB383
 8008 004c 70010000 		.4byte	.LFE383
 8009 0050 00000000 		.4byte	.LFB384
 8010 0054 18010000 		.4byte	.LFE384
 8011 0058 00000000 		.4byte	.LFB385
 8012 005c 9A000000 		.4byte	.LFE385
 8013 0060 00000000 		.4byte	.LFB386
 8014 0064 5C000000 		.4byte	.LFE386
 8015 0068 00000000 		.4byte	0
 8016 006c 00000000 		.4byte	0
 8017              		.section	.debug_macro,"",%progbits
 8018              	.Ldebug_macro0:
 8019 0000 0400     		.2byte	0x4
 8020 0002 02       		.byte	0x2
 8021 0003 00000000 		.4byte	.Ldebug_line0
 8022 0007 07       		.byte	0x7
 8023 0008 00000000 		.4byte	.Ldebug_macro2
 8024 000c 03       		.byte	0x3
 8025 000d 00       		.uleb128 0
 8026 000e 01       		.uleb128 0x1
 8027 000f 03       		.byte	0x3
 8028 0010 01       		.uleb128 0x1
 8029 0011 04       		.uleb128 0x4
 8030 0012 05       		.byte	0x5
 8031 0013 02       		.uleb128 0x2
 8032 0014 A2550000 		.4byte	.LASF481
 8033              		.file 13 "d:\\stm_for_vs\\gcc-arm-none-eabi-10.3-2021.10\\lib\\gcc\\arm-none-eabi\\10.3.1\\include
 8034 0018 03       		.byte	0x3
 8035 0019 0A       		.uleb128 0xa
 8036 001a 0D       		.uleb128 0xd
 8037 001b 07       		.byte	0x7
 8038 001c 00000000 		.4byte	.Ldebug_macro3
 8039              		.file 14 "d:\\stm_for_vs\\gcc-arm-none-eabi-10.3-2021.10\\arm-none-eabi\\include\\stdint.h"
ARM GAS  C:\Users\30806\AppData\Local\Temp\ccYcD1nI.s 			page 146


 8040 0020 03       		.byte	0x3
 8041 0021 09       		.uleb128 0x9
 8042 0022 0E       		.uleb128 0xe
 8043 0023 05       		.byte	0x5
 8044 0024 0A       		.uleb128 0xa
 8045 0025 28910000 		.4byte	.LASF486
 8046 0029 03       		.byte	0x3
 8047 002a 0C       		.uleb128 0xc
 8048 002b 02       		.uleb128 0x2
 8049 002c 05       		.byte	0x5
 8050 002d 06       		.uleb128 0x6
 8051 002e 67880000 		.4byte	.LASF487
 8052              		.file 15 "d:\\stm_for_vs\\gcc-arm-none-eabi-10.3-2021.10\\arm-none-eabi\\include\\sys\\features.h"
 8053 0032 03       		.byte	0x3
 8054 0033 08       		.uleb128 0x8
 8055 0034 0F       		.uleb128 0xf
 8056 0035 05       		.byte	0x5
 8057 0036 16       		.uleb128 0x16
 8058 0037 13960000 		.4byte	.LASF488
 8059              		.file 16 "d:\\stm_for_vs\\gcc-arm-none-eabi-10.3-2021.10\\arm-none-eabi\\include\\_newlib_version.
 8060 003b 03       		.byte	0x3
 8061 003c 1C       		.uleb128 0x1c
 8062 003d 10       		.uleb128 0x10
 8063 003e 07       		.byte	0x7
 8064 003f 00000000 		.4byte	.Ldebug_macro4
 8065 0043 04       		.byte	0x4
 8066 0044 07       		.byte	0x7
 8067 0045 00000000 		.4byte	.Ldebug_macro5
 8068 0049 04       		.byte	0x4
 8069 004a 07       		.byte	0x7
 8070 004b 00000000 		.4byte	.Ldebug_macro6
 8071 004f 04       		.byte	0x4
 8072              		.file 17 "d:\\stm_for_vs\\gcc-arm-none-eabi-10.3-2021.10\\arm-none-eabi\\include\\sys\\_intsup.h"
 8073 0050 03       		.byte	0x3
 8074 0051 0D       		.uleb128 0xd
 8075 0052 11       		.uleb128 0x11
 8076 0053 07       		.byte	0x7
 8077 0054 00000000 		.4byte	.Ldebug_macro7
 8078 0058 04       		.byte	0x4
 8079 0059 03       		.byte	0x3
 8080 005a 0E       		.uleb128 0xe
 8081 005b 03       		.uleb128 0x3
 8082 005c 07       		.byte	0x7
 8083 005d 00000000 		.4byte	.Ldebug_macro8
 8084 0061 04       		.byte	0x4
 8085 0062 07       		.byte	0x7
 8086 0063 00000000 		.4byte	.Ldebug_macro9
 8087 0067 04       		.byte	0x4
 8088 0068 05       		.byte	0x5
 8089 0069 0D       		.uleb128 0xd
 8090 006a C3480000 		.4byte	.LASF643
 8091 006e 04       		.byte	0x4
 8092 006f 07       		.byte	0x7
 8093 0070 00000000 		.4byte	.Ldebug_macro10
 8094 0074 04       		.byte	0x4
 8095              		.file 18 "d:\\stm_for_vs\\gcc-arm-none-eabi-10.3-2021.10\\lib\\gcc\\arm-none-eabi\\10.3.1\\include
 8096 0075 03       		.byte	0x3
ARM GAS  C:\Users\30806\AppData\Local\Temp\ccYcD1nI.s 			page 147


 8097 0076 02       		.uleb128 0x2
 8098 0077 12       		.uleb128 0x12
 8099 0078 07       		.byte	0x7
 8100 0079 00000000 		.4byte	.Ldebug_macro11
 8101 007d 04       		.byte	0x4
 8102              		.file 19 "Middlewares/ST/ARM/DSP/Inc/arm_math.h"
 8103 007e 03       		.byte	0x3
 8104 007f 03       		.uleb128 0x3
 8105 0080 13       		.uleb128 0x13
 8106 0081 05       		.byte	0x5
 8107 0082 D502     		.uleb128 0x155
 8108 0084 A62A0000 		.4byte	.LASF703
 8109              		.file 20 "Drivers/CMSIS/Include/cmsis_compiler.h"
 8110 0088 03       		.byte	0x3
 8111 0089 8603     		.uleb128 0x186
 8112 008b 14       		.uleb128 0x14
 8113 008c 05       		.byte	0x5
 8114 008d 1A       		.uleb128 0x1a
 8115 008e 8D160000 		.4byte	.LASF704
 8116              		.file 21 "Drivers/CMSIS/Include/cmsis_gcc.h"
 8117 0092 03       		.byte	0x3
 8118 0093 36       		.uleb128 0x36
 8119 0094 15       		.uleb128 0x15
 8120 0095 07       		.byte	0x7
 8121 0096 00000000 		.4byte	.Ldebug_macro12
 8122 009a 04       		.byte	0x4
 8123 009b 04       		.byte	0x4
 8124              		.file 22 "d:\\stm_for_vs\\gcc-arm-none-eabi-10.3-2021.10\\arm-none-eabi\\include\\string.h"
 8125 009c 03       		.byte	0x3
 8126 009d 8B03     		.uleb128 0x18b
 8127 009f 16       		.uleb128 0x16
 8128 00a0 05       		.byte	0x5
 8129 00a1 08       		.uleb128 0x8
 8130 00a2 036B0000 		.4byte	.LASF743
 8131              		.file 23 "d:\\stm_for_vs\\gcc-arm-none-eabi-10.3-2021.10\\arm-none-eabi\\include\\_ansi.h"
 8132 00a6 03       		.byte	0x3
 8133 00a7 0A       		.uleb128 0xa
 8134 00a8 17       		.uleb128 0x17
 8135 00a9 05       		.byte	0x5
 8136 00aa 08       		.uleb128 0x8
 8137 00ab C4190000 		.4byte	.LASF744
 8138              		.file 24 "d:\\stm_for_vs\\gcc-arm-none-eabi-10.3-2021.10\\arm-none-eabi\\include\\newlib.h"
 8139 00af 03       		.byte	0x3
 8140 00b0 0A       		.uleb128 0xa
 8141 00b1 18       		.uleb128 0x18
 8142 00b2 07       		.byte	0x7
 8143 00b3 00000000 		.4byte	.Ldebug_macro13
 8144 00b7 04       		.byte	0x4
 8145              		.file 25 "d:\\stm_for_vs\\gcc-arm-none-eabi-10.3-2021.10\\arm-none-eabi\\include\\sys\\config.h"
 8146 00b8 03       		.byte	0x3
 8147 00b9 0B       		.uleb128 0xb
 8148 00ba 19       		.uleb128 0x19
 8149 00bb 05       		.byte	0x5
 8150 00bc 02       		.uleb128 0x2
 8151 00bd 57660000 		.4byte	.LASF761
 8152              		.file 26 "d:\\stm_for_vs\\gcc-arm-none-eabi-10.3-2021.10\\arm-none-eabi\\include\\machine\\ieeefp.
 8153 00c1 03       		.byte	0x3
ARM GAS  C:\Users\30806\AppData\Local\Temp\ccYcD1nI.s 			page 148


 8154 00c2 04       		.uleb128 0x4
 8155 00c3 1A       		.uleb128 0x1a
 8156 00c4 07       		.byte	0x7
 8157 00c5 00000000 		.4byte	.Ldebug_macro14
 8158 00c9 04       		.byte	0x4
 8159 00ca 07       		.byte	0x7
 8160 00cb 00000000 		.4byte	.Ldebug_macro15
 8161 00cf 04       		.byte	0x4
 8162 00d0 07       		.byte	0x7
 8163 00d1 00000000 		.4byte	.Ldebug_macro16
 8164 00d5 04       		.byte	0x4
 8165              		.file 27 "d:\\stm_for_vs\\gcc-arm-none-eabi-10.3-2021.10\\arm-none-eabi\\include\\sys\\reent.h"
 8166 00d6 03       		.byte	0x3
 8167 00d7 0B       		.uleb128 0xb
 8168 00d8 1B       		.uleb128 0x1b
 8169 00d9 05       		.byte	0x5
 8170 00da 0B       		.uleb128 0xb
 8171 00db 0C9B0000 		.4byte	.LASF781
 8172 00df 03       		.byte	0x3
 8173 00e0 0D       		.uleb128 0xd
 8174 00e1 17       		.uleb128 0x17
 8175 00e2 04       		.byte	0x4
 8176 00e3 03       		.byte	0x3
 8177 00e4 0E       		.uleb128 0xe
 8178 00e5 12       		.uleb128 0x12
 8179 00e6 04       		.byte	0x4
 8180              		.file 28 "d:\\stm_for_vs\\gcc-arm-none-eabi-10.3-2021.10\\arm-none-eabi\\include\\sys\\_types.h"
 8181 00e7 03       		.byte	0x3
 8182 00e8 0F       		.uleb128 0xf
 8183 00e9 1C       		.uleb128 0x1c
 8184 00ea 07       		.byte	0x7
 8185 00eb 00000000 		.4byte	.Ldebug_macro17
 8186 00ef 03       		.byte	0x3
 8187 00f0 18       		.uleb128 0x18
 8188 00f1 12       		.uleb128 0x12
 8189 00f2 07       		.byte	0x7
 8190 00f3 00000000 		.4byte	.Ldebug_macro18
 8191 00f7 04       		.byte	0x4
 8192              		.file 29 "d:\\stm_for_vs\\gcc-arm-none-eabi-10.3-2021.10\\arm-none-eabi\\include\\machine\\_types.
 8193 00f8 03       		.byte	0x3
 8194 00f9 1B       		.uleb128 0x1b
 8195 00fa 1D       		.uleb128 0x1d
 8196 00fb 05       		.byte	0x5
 8197 00fc 06       		.uleb128 0x6
 8198 00fd 34B60000 		.4byte	.LASF787
 8199 0101 04       		.byte	0x4
 8200 0102 07       		.byte	0x7
 8201 0103 00000000 		.4byte	.Ldebug_macro19
 8202 0107 04       		.byte	0x4
 8203 0108 07       		.byte	0x7
 8204 0109 00000000 		.4byte	.Ldebug_macro20
 8205              		.file 30 "d:\\stm_for_vs\\gcc-arm-none-eabi-10.3-2021.10\\arm-none-eabi\\include\\sys\\lock.h"
 8206 010d 03       		.byte	0x3
 8207 010e 22       		.uleb128 0x22
 8208 010f 1E       		.uleb128 0x1e
 8209 0110 07       		.byte	0x7
 8210 0111 00000000 		.4byte	.Ldebug_macro21
ARM GAS  C:\Users\30806\AppData\Local\Temp\ccYcD1nI.s 			page 149


 8211 0115 04       		.byte	0x4
 8212 0116 07       		.byte	0x7
 8213 0117 00000000 		.4byte	.Ldebug_macro22
 8214 011b 04       		.byte	0x4
 8215              		.file 31 "d:\\stm_for_vs\\gcc-arm-none-eabi-10.3-2021.10\\arm-none-eabi\\include\\sys\\cdefs.h"
 8216 011c 03       		.byte	0x3
 8217 011d 0C       		.uleb128 0xc
 8218 011e 1F       		.uleb128 0x1f
 8219 011f 05       		.byte	0x5
 8220 0120 2B       		.uleb128 0x2b
 8221 0121 AD810000 		.4byte	.LASF865
 8222 0125 03       		.byte	0x3
 8223 0126 2F       		.uleb128 0x2f
 8224 0127 12       		.uleb128 0x12
 8225 0128 04       		.byte	0x4
 8226 0129 07       		.byte	0x7
 8227 012a 00000000 		.4byte	.Ldebug_macro23
 8228 012e 04       		.byte	0x4
 8229 012f 07       		.byte	0x7
 8230 0130 00000000 		.4byte	.Ldebug_macro24
 8231 0134 03       		.byte	0x3
 8232 0135 11       		.uleb128 0x11
 8233 0136 12       		.uleb128 0x12
 8234 0137 07       		.byte	0x7
 8235 0138 00000000 		.4byte	.Ldebug_macro25
 8236 013c 04       		.byte	0x4
 8237              		.file 32 "d:\\stm_for_vs\\gcc-arm-none-eabi-10.3-2021.10\\arm-none-eabi\\include\\sys\\_locale.h"
 8238 013d 03       		.byte	0x3
 8239 013e 14       		.uleb128 0x14
 8240 013f 20       		.uleb128 0x20
 8241 0140 05       		.byte	0x5
 8242 0141 04       		.uleb128 0x4
 8243 0142 0E420000 		.4byte	.LASF994
 8244 0146 04       		.byte	0x4
 8245              		.file 33 "d:\\stm_for_vs\\gcc-arm-none-eabi-10.3-2021.10\\arm-none-eabi\\include\\strings.h"
 8246 0147 03       		.byte	0x3
 8247 0148 18       		.uleb128 0x18
 8248 0149 21       		.uleb128 0x21
 8249 014a 05       		.byte	0x5
 8250 014b 1E       		.uleb128 0x1e
 8251 014c C6A80000 		.4byte	.LASF995
 8252 0150 04       		.byte	0x4
 8253              		.file 34 "d:\\stm_for_vs\\gcc-arm-none-eabi-10.3-2021.10\\arm-none-eabi\\include\\sys\\string.h"
 8254 0151 03       		.byte	0x3
 8255 0152 AF01     		.uleb128 0xaf
 8256 0154 22       		.uleb128 0x22
 8257 0155 04       		.byte	0x4
 8258 0156 04       		.byte	0x4
 8259 0157 03       		.byte	0x3
 8260 0158 8C03     		.uleb128 0x18c
 8261 015a 0A       		.uleb128 0xa
 8262 015b 05       		.byte	0x5
 8263 015c 22       		.uleb128 0x22
 8264 015d 2F7A0000 		.4byte	.LASF996
 8265 0161 03       		.byte	0x3
 8266 0162 24       		.uleb128 0x24
 8267 0163 06       		.uleb128 0x6
ARM GAS  C:\Users\30806\AppData\Local\Temp\ccYcD1nI.s 			page 150


 8268 0164 03       		.byte	0x3
 8269 0165 29       		.uleb128 0x29
 8270 0166 08       		.uleb128 0x8
 8271 0167 07       		.byte	0x7
 8272 0168 00000000 		.4byte	.Ldebug_macro26
 8273              		.file 35 "d:\\stm_for_vs\\gcc-arm-none-eabi-10.3-2021.10\\arm-none-eabi\\include\\c++\\10.3.1\\arm
 8274 016c 03       		.byte	0x3
 8275 016d 8A04     		.uleb128 0x20a
 8276 016f 23       		.uleb128 0x23
 8277 0170 05       		.byte	0x5
 8278 0171 1F       		.uleb128 0x1f
 8279 0172 225B0000 		.4byte	.LASF1055
 8280 0176 04       		.byte	0x4
 8281              		.file 36 "d:\\stm_for_vs\\gcc-arm-none-eabi-10.3-2021.10\\arm-none-eabi\\include\\c++\\10.3.1\\arm
 8282 0177 03       		.byte	0x3
 8283 0178 8D04     		.uleb128 0x20d
 8284 017a 24       		.uleb128 0x24
 8285 017b 07       		.byte	0x7
 8286 017c 00000000 		.4byte	.Ldebug_macro27
 8287 0180 04       		.byte	0x4
 8288 0181 07       		.byte	0x7
 8289 0182 00000000 		.4byte	.Ldebug_macro28
 8290 0186 04       		.byte	0x4
 8291 0187 03       		.byte	0x3
 8292 0188 2A       		.uleb128 0x2a
 8293 0189 05       		.uleb128 0x5
 8294 018a 07       		.byte	0x7
 8295 018b 00000000 		.4byte	.Ldebug_macro29
 8296 018f 04       		.byte	0x4
 8297              		.file 37 "d:\\stm_for_vs\\gcc-arm-none-eabi-10.3-2021.10\\arm-none-eabi\\include\\c++\\10.3.1\\ext
 8298 0190 03       		.byte	0x3
 8299 0191 2B       		.uleb128 0x2b
 8300 0192 25       		.uleb128 0x25
 8301 0193 05       		.byte	0x5
 8302 0194 1E       		.uleb128 0x1e
 8303 0195 E6890000 		.4byte	.LASF1198
 8304 0199 04       		.byte	0x4
 8305 019a 05       		.byte	0x5
 8306 019b 2C       		.uleb128 0x2c
 8307 019c C3120000 		.4byte	.LASF1199
 8308 01a0 03       		.byte	0x3
 8309 01a1 2D       		.uleb128 0x2d
 8310 01a2 09       		.uleb128 0x9
 8311 01a3 05       		.byte	0x5
 8312 01a4 03       		.uleb128 0x3
 8313 01a5 6D110000 		.4byte	.LASF1200
 8314 01a9 03       		.byte	0x3
 8315 01aa 07       		.uleb128 0x7
 8316 01ab 1A       		.uleb128 0x1a
 8317 01ac 04       		.byte	0x4
 8318 01ad 07       		.byte	0x7
 8319 01ae 00000000 		.4byte	.Ldebug_macro30
 8320 01b2 04       		.byte	0x4
 8321 01b3 06       		.byte	0x6
 8322 01b4 2E       		.uleb128 0x2e
 8323 01b5 356C0000 		.4byte	.LASF1259
 8324 01b9 03       		.byte	0x3
ARM GAS  C:\Users\30806\AppData\Local\Temp\ccYcD1nI.s 			page 151


 8325 01ba 2F       		.uleb128 0x2f
 8326 01bb 07       		.uleb128 0x7
 8327 01bc 07       		.byte	0x7
 8328 01bd 00000000 		.4byte	.Ldebug_macro31
 8329              		.file 38 "d:\\stm_for_vs\\gcc-arm-none-eabi-10.3-2021.10\\arm-none-eabi\\include\\stdlib.h"
 8330 01c1 03       		.byte	0x3
 8331 01c2 26       		.uleb128 0x26
 8332 01c3 26       		.uleb128 0x26
 8333 01c4 05       		.byte	0x5
 8334 01c5 08       		.uleb128 0x8
 8335 01c6 1B0E0000 		.4byte	.LASF1261
 8336 01ca 03       		.byte	0x3
 8337 01cb 0A       		.uleb128 0xa
 8338 01cc 1A       		.uleb128 0x1a
 8339 01cd 04       		.byte	0x4
 8340 01ce 07       		.byte	0x7
 8341 01cf 00000000 		.4byte	.Ldebug_macro32
 8342 01d3 03       		.byte	0x3
 8343 01d4 10       		.uleb128 0x10
 8344 01d5 12       		.uleb128 0x12
 8345 01d6 07       		.byte	0x7
 8346 01d7 00000000 		.4byte	.Ldebug_macro25
 8347 01db 04       		.byte	0x4
 8348              		.file 39 "d:\\stm_for_vs\\gcc-arm-none-eabi-10.3-2021.10\\arm-none-eabi\\include\\machine\\stdlib.
 8349 01dc 03       		.byte	0x3
 8350 01dd 14       		.uleb128 0x14
 8351 01de 27       		.uleb128 0x27
 8352 01df 05       		.byte	0x5
 8353 01e0 02       		.uleb128 0x2
 8354 01e1 D5180000 		.4byte	.LASF1263
 8355 01e5 04       		.byte	0x4
 8356              		.file 40 "d:\\stm_for_vs\\gcc-arm-none-eabi-10.3-2021.10\\arm-none-eabi\\include\\alloca.h"
 8357 01e6 03       		.byte	0x3
 8358 01e7 16       		.uleb128 0x16
 8359 01e8 28       		.uleb128 0x28
 8360 01e9 07       		.byte	0x7
 8361 01ea 00000000 		.4byte	.Ldebug_macro33
 8362 01ee 04       		.byte	0x4
 8363 01ef 07       		.byte	0x7
 8364 01f0 00000000 		.4byte	.Ldebug_macro34
 8365 01f4 04       		.byte	0x4
 8366 01f5 07       		.byte	0x7
 8367 01f6 00000000 		.4byte	.Ldebug_macro35
 8368 01fa 04       		.byte	0x4
 8369 01fb 07       		.byte	0x7
 8370 01fc 00000000 		.4byte	.Ldebug_macro36
 8371 0200 04       		.byte	0x4
 8372 0201 04       		.byte	0x4
 8373              		.file 41 "d:\\stm_for_vs\\gcc-arm-none-eabi-10.3-2021.10\\lib\\gcc\\arm-none-eabi\\10.3.1\\include
 8374 0202 03       		.byte	0x3
 8375 0203 8D03     		.uleb128 0x18d
 8376 0205 29       		.uleb128 0x29
 8377 0206 07       		.byte	0x7
 8378 0207 00000000 		.4byte	.Ldebug_macro37
 8379 020b 04       		.byte	0x4
 8380              		.file 42 "d:\\stm_for_vs\\gcc-arm-none-eabi-10.3-2021.10\\lib\\gcc\\arm-none-eabi\\10.3.1\\include
 8381 020c 03       		.byte	0x3
ARM GAS  C:\Users\30806\AppData\Local\Temp\ccYcD1nI.s 			page 152


 8382 020d 8E03     		.uleb128 0x18e
 8383 020f 2A       		.uleb128 0x2a
 8384 0210 05       		.byte	0x5
 8385 0211 1E       		.uleb128 0x1e
 8386 0212 A87C0000 		.4byte	.LASF1465
 8387              		.file 43 "d:\\stm_for_vs\\gcc-arm-none-eabi-10.3-2021.10\\lib\\gcc\\arm-none-eabi\\10.3.1\\include
 8388 0216 03       		.byte	0x3
 8389 0217 22       		.uleb128 0x22
 8390 0218 2B       		.uleb128 0x2b
 8391 0219 05       		.byte	0x5
 8392 021a 06       		.uleb128 0x6
 8393 021b B5090000 		.4byte	.LASF1466
 8394 021f 03       		.byte	0x3
 8395 0220 07       		.uleb128 0x7
 8396 0221 2A       		.uleb128 0x2a
 8397              		.file 44 "d:\\stm_for_vs\\gcc-arm-none-eabi-10.3-2021.10\\arm-none-eabi\\include\\limits.h"
 8398 0222 03       		.byte	0x3
 8399 0223 C301     		.uleb128 0xc3
 8400 0225 2C       		.uleb128 0x2c
 8401 0226 05       		.byte	0x5
 8402 0227 02       		.uleb128 0x2
 8403 0228 BC420000 		.4byte	.LASF1467
 8404              		.file 45 "d:\\stm_for_vs\\gcc-arm-none-eabi-10.3-2021.10\\arm-none-eabi\\include\\sys\\syslimits.h
 8405 022c 03       		.byte	0x3
 8406 022d 06       		.uleb128 0x6
 8407 022e 2D       		.uleb128 0x2d
 8408 022f 07       		.byte	0x7
 8409 0230 00000000 		.4byte	.Ldebug_macro38
 8410 0234 04       		.byte	0x4
 8411 0235 07       		.byte	0x7
 8412 0236 00000000 		.4byte	.Ldebug_macro39
 8413 023a 04       		.byte	0x4
 8414 023b 04       		.byte	0x4
 8415 023c 06       		.byte	0x6
 8416 023d 08       		.uleb128 0x8
 8417 023e 44660000 		.4byte	.LASF1491
 8418 0242 04       		.byte	0x4
 8419 0243 07       		.byte	0x7
 8420 0244 00000000 		.4byte	.Ldebug_macro40
 8421 0248 04       		.byte	0x4
 8422 0249 07       		.byte	0x7
 8423 024a 00000000 		.4byte	.Ldebug_macro41
 8424 024e 04       		.byte	0x4
 8425 024f 03       		.byte	0x3
 8426 0250 04       		.uleb128 0x4
 8427 0251 0B       		.uleb128 0xb
 8428 0252 05       		.byte	0x5
 8429 0253 02       		.uleb128 0x2
 8430 0254 92B70000 		.4byte	.LASF1580
 8431 0258 04       		.byte	0x4
 8432 0259 04       		.byte	0x4
 8433 025a 00       		.byte	0
 8434              		.section	.debug_macro,"G",%progbits,wm4.0.293fd7ec76c3647a3b6758c3cb2acf65,comdat
 8435              	.Ldebug_macro2:
 8436 0000 0400     		.2byte	0x4
 8437 0002 00       		.byte	0
 8438 0003 05       		.byte	0x5
ARM GAS  C:\Users\30806\AppData\Local\Temp\ccYcD1nI.s 			page 153


 8439 0004 00       		.uleb128 0
 8440 0005 C6050000 		.4byte	.LASF0
 8441 0009 05       		.byte	0x5
 8442 000a 00       		.uleb128 0
 8443 000b 2C250000 		.4byte	.LASF1
 8444 000f 05       		.byte	0x5
 8445 0010 00       		.uleb128 0
 8446 0011 6CB60000 		.4byte	.LASF2
 8447 0015 05       		.byte	0x5
 8448 0016 00       		.uleb128 0
 8449 0017 77180000 		.4byte	.LASF3
 8450 001b 05       		.byte	0x5
 8451 001c 00       		.uleb128 0
 8452 001d 79490000 		.4byte	.LASF4
 8453 0021 05       		.byte	0x5
 8454 0022 00       		.uleb128 0
 8455 0023 56570000 		.4byte	.LASF5
 8456 0027 05       		.byte	0x5
 8457 0028 00       		.uleb128 0
 8458 0029 47B60000 		.4byte	.LASF6
 8459 002d 05       		.byte	0x5
 8460 002e 00       		.uleb128 0
 8461 002f 05230000 		.4byte	.LASF7
 8462 0033 05       		.byte	0x5
 8463 0034 00       		.uleb128 0
 8464 0035 594E0000 		.4byte	.LASF8
 8465 0039 05       		.byte	0x5
 8466 003a 00       		.uleb128 0
 8467 003b 1F510000 		.4byte	.LASF9
 8468 003f 05       		.byte	0x5
 8469 0040 00       		.uleb128 0
 8470 0041 0AB80000 		.4byte	.LASF10
 8471 0045 05       		.byte	0x5
 8472 0046 00       		.uleb128 0
 8473 0047 0F4D0000 		.4byte	.LASF11
 8474 004b 05       		.byte	0x5
 8475 004c 00       		.uleb128 0
 8476 004d 8BA90000 		.4byte	.LASF12
 8477 0051 05       		.byte	0x5
 8478 0052 00       		.uleb128 0
 8479 0053 E20F0000 		.4byte	.LASF13
 8480 0057 05       		.byte	0x5
 8481 0058 00       		.uleb128 0
 8482 0059 D59F0000 		.4byte	.LASF14
 8483 005d 05       		.byte	0x5
 8484 005e 00       		.uleb128 0
 8485 005f FB8B0000 		.4byte	.LASF15
 8486 0063 05       		.byte	0x5
 8487 0064 00       		.uleb128 0
 8488 0065 F1110000 		.4byte	.LASF16
 8489 0069 05       		.byte	0x5
 8490 006a 00       		.uleb128 0
 8491 006b 25090000 		.4byte	.LASF17
 8492 006f 05       		.byte	0x5
 8493 0070 00       		.uleb128 0
 8494 0071 CD300000 		.4byte	.LASF18
 8495 0075 05       		.byte	0x5
ARM GAS  C:\Users\30806\AppData\Local\Temp\ccYcD1nI.s 			page 154


 8496 0076 00       		.uleb128 0
 8497 0077 7A9D0000 		.4byte	.LASF19
 8498 007b 05       		.byte	0x5
 8499 007c 00       		.uleb128 0
 8500 007d 06B20000 		.4byte	.LASF20
 8501 0081 05       		.byte	0x5
 8502 0082 00       		.uleb128 0
 8503 0083 4E1F0000 		.4byte	.LASF21
 8504 0087 05       		.byte	0x5
 8505 0088 00       		.uleb128 0
 8506 0089 3EB00000 		.4byte	.LASF22
 8507 008d 05       		.byte	0x5
 8508 008e 00       		.uleb128 0
 8509 008f 275F0000 		.4byte	.LASF23
 8510 0093 05       		.byte	0x5
 8511 0094 00       		.uleb128 0
 8512 0095 1A670000 		.4byte	.LASF24
 8513 0099 05       		.byte	0x5
 8514 009a 00       		.uleb128 0
 8515 009b C0160000 		.4byte	.LASF25
 8516 009f 05       		.byte	0x5
 8517 00a0 00       		.uleb128 0
 8518 00a1 012C0000 		.4byte	.LASF26
 8519 00a5 05       		.byte	0x5
 8520 00a6 00       		.uleb128 0
 8521 00a7 DD870000 		.4byte	.LASF27
 8522 00ab 05       		.byte	0x5
 8523 00ac 00       		.uleb128 0
 8524 00ad D34C0000 		.4byte	.LASF28
 8525 00b1 05       		.byte	0x5
 8526 00b2 00       		.uleb128 0
 8527 00b3 AC360000 		.4byte	.LASF29
 8528 00b7 05       		.byte	0x5
 8529 00b8 00       		.uleb128 0
 8530 00b9 CB000000 		.4byte	.LASF30
 8531 00bd 05       		.byte	0x5
 8532 00be 00       		.uleb128 0
 8533 00bf 557D0000 		.4byte	.LASF31
 8534 00c3 05       		.byte	0x5
 8535 00c4 00       		.uleb128 0
 8536 00c5 8D9D0000 		.4byte	.LASF32
 8537 00c9 05       		.byte	0x5
 8538 00ca 00       		.uleb128 0
 8539 00cb 3DB20000 		.4byte	.LASF33
 8540 00cf 05       		.byte	0x5
 8541 00d0 00       		.uleb128 0
 8542 00d1 08770000 		.4byte	.LASF34
 8543 00d5 05       		.byte	0x5
 8544 00d6 00       		.uleb128 0
 8545 00d7 42080000 		.4byte	.LASF35
 8546 00db 05       		.byte	0x5
 8547 00dc 00       		.uleb128 0
 8548 00dd 95320000 		.4byte	.LASF36
 8549 00e1 05       		.byte	0x5
 8550 00e2 00       		.uleb128 0
 8551 00e3 49670000 		.4byte	.LASF37
 8552 00e7 05       		.byte	0x5
ARM GAS  C:\Users\30806\AppData\Local\Temp\ccYcD1nI.s 			page 155


 8553 00e8 00       		.uleb128 0
 8554 00e9 DE7D0000 		.4byte	.LASF38
 8555 00ed 05       		.byte	0x5
 8556 00ee 00       		.uleb128 0
 8557 00ef A6B30000 		.4byte	.LASF39
 8558 00f3 05       		.byte	0x5
 8559 00f4 00       		.uleb128 0
 8560 00f5 2A7C0000 		.4byte	.LASF40
 8561 00f9 05       		.byte	0x5
 8562 00fa 00       		.uleb128 0
 8563 00fb 72120000 		.4byte	.LASF41
 8564 00ff 05       		.byte	0x5
 8565 0100 00       		.uleb128 0
 8566 0101 0C980000 		.4byte	.LASF42
 8567 0105 05       		.byte	0x5
 8568 0106 00       		.uleb128 0
 8569 0107 7B3E0000 		.4byte	.LASF43
 8570 010b 05       		.byte	0x5
 8571 010c 00       		.uleb128 0
 8572 010d 478A0000 		.4byte	.LASF44
 8573 0111 05       		.byte	0x5
 8574 0112 00       		.uleb128 0
 8575 0113 2BA60000 		.4byte	.LASF45
 8576 0117 05       		.byte	0x5
 8577 0118 00       		.uleb128 0
 8578 0119 E3160000 		.4byte	.LASF46
 8579 011d 05       		.byte	0x5
 8580 011e 00       		.uleb128 0
 8581 011f D2190000 		.4byte	.LASF47
 8582 0123 05       		.byte	0x5
 8583 0124 00       		.uleb128 0
 8584 0125 ED4C0000 		.4byte	.LASF48
 8585 0129 05       		.byte	0x5
 8586 012a 00       		.uleb128 0
 8587 012b 09070000 		.4byte	.LASF49
 8588 012f 05       		.byte	0x5
 8589 0130 00       		.uleb128 0
 8590 0131 F7590000 		.4byte	.LASF50
 8591 0135 05       		.byte	0x5
 8592 0136 00       		.uleb128 0
 8593 0137 31A00000 		.4byte	.LASF51
 8594 013b 05       		.byte	0x5
 8595 013c 00       		.uleb128 0
 8596 013d 860E0000 		.4byte	.LASF52
 8597 0141 05       		.byte	0x5
 8598 0142 00       		.uleb128 0
 8599 0143 B4130000 		.4byte	.LASF53
 8600 0147 05       		.byte	0x5
 8601 0148 00       		.uleb128 0
 8602 0149 CFB20000 		.4byte	.LASF54
 8603 014d 05       		.byte	0x5
 8604 014e 00       		.uleb128 0
 8605 014f F5B60000 		.4byte	.LASF55
 8606 0153 05       		.byte	0x5
 8607 0154 00       		.uleb128 0
 8608 0155 45A70000 		.4byte	.LASF56
 8609 0159 05       		.byte	0x5
ARM GAS  C:\Users\30806\AppData\Local\Temp\ccYcD1nI.s 			page 156


 8610 015a 00       		.uleb128 0
 8611 015b 64A00000 		.4byte	.LASF57
 8612 015f 05       		.byte	0x5
 8613 0160 00       		.uleb128 0
 8614 0161 51720000 		.4byte	.LASF58
 8615 0165 05       		.byte	0x5
 8616 0166 00       		.uleb128 0
 8617 0167 D3570000 		.4byte	.LASF59
 8618 016b 05       		.byte	0x5
 8619 016c 00       		.uleb128 0
 8620 016d 7A990000 		.4byte	.LASF60
 8621 0171 05       		.byte	0x5
 8622 0172 00       		.uleb128 0
 8623 0173 AA4D0000 		.4byte	.LASF61
 8624 0177 05       		.byte	0x5
 8625 0178 00       		.uleb128 0
 8626 0179 761E0000 		.4byte	.LASF62
 8627 017d 05       		.byte	0x5
 8628 017e 00       		.uleb128 0
 8629 017f 4B110000 		.4byte	.LASF63
 8630 0183 05       		.byte	0x5
 8631 0184 00       		.uleb128 0
 8632 0185 82880000 		.4byte	.LASF64
 8633 0189 05       		.byte	0x5
 8634 018a 00       		.uleb128 0
 8635 018b 8D5D0000 		.4byte	.LASF65
 8636 018f 05       		.byte	0x5
 8637 0190 00       		.uleb128 0
 8638 0191 92380000 		.4byte	.LASF66
 8639 0195 05       		.byte	0x5
 8640 0196 00       		.uleb128 0
 8641 0197 5BB40000 		.4byte	.LASF67
 8642 019b 05       		.byte	0x5
 8643 019c 00       		.uleb128 0
 8644 019d 66250000 		.4byte	.LASF68
 8645 01a1 05       		.byte	0x5
 8646 01a2 00       		.uleb128 0
 8647 01a3 E6950000 		.4byte	.LASF69
 8648 01a7 05       		.byte	0x5
 8649 01a8 00       		.uleb128 0
 8650 01a9 7D0A0000 		.4byte	.LASF70
 8651 01ad 05       		.byte	0x5
 8652 01ae 00       		.uleb128 0
 8653 01af 5EB70000 		.4byte	.LASF71
 8654 01b3 05       		.byte	0x5
 8655 01b4 00       		.uleb128 0
 8656 01b5 995C0000 		.4byte	.LASF72
 8657 01b9 05       		.byte	0x5
 8658 01ba 00       		.uleb128 0
 8659 01bb 3E1D0000 		.4byte	.LASF73
 8660 01bf 05       		.byte	0x5
 8661 01c0 00       		.uleb128 0
 8662 01c1 B2620000 		.4byte	.LASF74
 8663 01c5 05       		.byte	0x5
 8664 01c6 00       		.uleb128 0
 8665 01c7 DBB60000 		.4byte	.LASF75
 8666 01cb 05       		.byte	0x5
ARM GAS  C:\Users\30806\AppData\Local\Temp\ccYcD1nI.s 			page 157


 8667 01cc 00       		.uleb128 0
 8668 01cd 39790000 		.4byte	.LASF76
 8669 01d1 05       		.byte	0x5
 8670 01d2 00       		.uleb128 0
 8671 01d3 E2450000 		.4byte	.LASF77
 8672 01d7 05       		.byte	0x5
 8673 01d8 00       		.uleb128 0
 8674 01d9 F0420000 		.4byte	.LASF78
 8675 01dd 05       		.byte	0x5
 8676 01de 00       		.uleb128 0
 8677 01df 43A50000 		.4byte	.LASF79
 8678 01e3 05       		.byte	0x5
 8679 01e4 00       		.uleb128 0
 8680 01e5 2B370000 		.4byte	.LASF80
 8681 01e9 05       		.byte	0x5
 8682 01ea 00       		.uleb128 0
 8683 01eb D2980000 		.4byte	.LASF81
 8684 01ef 05       		.byte	0x5
 8685 01f0 00       		.uleb128 0
 8686 01f1 F74E0000 		.4byte	.LASF82
 8687 01f5 05       		.byte	0x5
 8688 01f6 00       		.uleb128 0
 8689 01f7 46270000 		.4byte	.LASF83
 8690 01fb 05       		.byte	0x5
 8691 01fc 00       		.uleb128 0
 8692 01fd C46C0000 		.4byte	.LASF84
 8693 0201 05       		.byte	0x5
 8694 0202 00       		.uleb128 0
 8695 0203 F7430000 		.4byte	.LASF85
 8696 0207 05       		.byte	0x5
 8697 0208 00       		.uleb128 0
 8698 0209 86830000 		.4byte	.LASF86
 8699 020d 05       		.byte	0x5
 8700 020e 00       		.uleb128 0
 8701 020f 29820000 		.4byte	.LASF87
 8702 0213 05       		.byte	0x5
 8703 0214 00       		.uleb128 0
 8704 0215 98B60000 		.4byte	.LASF88
 8705 0219 05       		.byte	0x5
 8706 021a 00       		.uleb128 0
 8707 021b 9A0A0000 		.4byte	.LASF89
 8708 021f 05       		.byte	0x5
 8709 0220 00       		.uleb128 0
 8710 0221 7B750000 		.4byte	.LASF90
 8711 0225 05       		.byte	0x5
 8712 0226 00       		.uleb128 0
 8713 0227 A8910000 		.4byte	.LASF91
 8714 022b 05       		.byte	0x5
 8715 022c 00       		.uleb128 0
 8716 022d 76B10000 		.4byte	.LASF92
 8717 0231 05       		.byte	0x5
 8718 0232 00       		.uleb128 0
 8719 0233 1A6D0000 		.4byte	.LASF93
 8720 0237 05       		.byte	0x5
 8721 0238 00       		.uleb128 0
 8722 0239 0FA30000 		.4byte	.LASF94
 8723 023d 05       		.byte	0x5
ARM GAS  C:\Users\30806\AppData\Local\Temp\ccYcD1nI.s 			page 158


 8724 023e 00       		.uleb128 0
 8725 023f 8FA70000 		.4byte	.LASF95
 8726 0243 05       		.byte	0x5
 8727 0244 00       		.uleb128 0
 8728 0245 2C460000 		.4byte	.LASF96
 8729 0249 05       		.byte	0x5
 8730 024a 00       		.uleb128 0
 8731 024b 5B840000 		.4byte	.LASF97
 8732 024f 05       		.byte	0x5
 8733 0250 00       		.uleb128 0
 8734 0251 EE8C0000 		.4byte	.LASF98
 8735 0255 05       		.byte	0x5
 8736 0256 00       		.uleb128 0
 8737 0257 39350000 		.4byte	.LASF99
 8738 025b 05       		.byte	0x5
 8739 025c 00       		.uleb128 0
 8740 025d 20640000 		.4byte	.LASF100
 8741 0261 05       		.byte	0x5
 8742 0262 00       		.uleb128 0
 8743 0263 90A20000 		.4byte	.LASF101
 8744 0267 05       		.byte	0x5
 8745 0268 00       		.uleb128 0
 8746 0269 E0590000 		.4byte	.LASF102
 8747 026d 05       		.byte	0x5
 8748 026e 00       		.uleb128 0
 8749 026f 98450000 		.4byte	.LASF103
 8750 0273 05       		.byte	0x5
 8751 0274 00       		.uleb128 0
 8752 0275 720F0000 		.4byte	.LASF104
 8753 0279 05       		.byte	0x5
 8754 027a 00       		.uleb128 0
 8755 027b 5A590000 		.4byte	.LASF105
 8756 027f 05       		.byte	0x5
 8757 0280 00       		.uleb128 0
 8758 0281 5A630000 		.4byte	.LASF106
 8759 0285 05       		.byte	0x5
 8760 0286 00       		.uleb128 0
 8761 0287 2C800000 		.4byte	.LASF107
 8762 028b 05       		.byte	0x5
 8763 028c 00       		.uleb128 0
 8764 028d D8830000 		.4byte	.LASF108
 8765 0291 05       		.byte	0x5
 8766 0292 00       		.uleb128 0
 8767 0293 1D430000 		.4byte	.LASF109
 8768 0297 05       		.byte	0x5
 8769 0298 00       		.uleb128 0
 8770 0299 DF270000 		.4byte	.LASF110
 8771 029d 05       		.byte	0x5
 8772 029e 00       		.uleb128 0
 8773 029f D3410000 		.4byte	.LASF111
 8774 02a3 05       		.byte	0x5
 8775 02a4 00       		.uleb128 0
 8776 02a5 AD040000 		.4byte	.LASF112
 8777 02a9 05       		.byte	0x5
 8778 02aa 00       		.uleb128 0
 8779 02ab EE5E0000 		.4byte	.LASF113
 8780 02af 05       		.byte	0x5
ARM GAS  C:\Users\30806\AppData\Local\Temp\ccYcD1nI.s 			page 159


 8781 02b0 00       		.uleb128 0
 8782 02b1 C14C0000 		.4byte	.LASF114
 8783 02b5 05       		.byte	0x5
 8784 02b6 00       		.uleb128 0
 8785 02b7 C2400000 		.4byte	.LASF115
 8786 02bb 05       		.byte	0x5
 8787 02bc 00       		.uleb128 0
 8788 02bd B93A0000 		.4byte	.LASF116
 8789 02c1 05       		.byte	0x5
 8790 02c2 00       		.uleb128 0
 8791 02c3 6E950000 		.4byte	.LASF117
 8792 02c7 05       		.byte	0x5
 8793 02c8 00       		.uleb128 0
 8794 02c9 4F820000 		.4byte	.LASF118
 8795 02cd 05       		.byte	0x5
 8796 02ce 00       		.uleb128 0
 8797 02cf 38780000 		.4byte	.LASF119
 8798 02d3 05       		.byte	0x5
 8799 02d4 00       		.uleb128 0
 8800 02d5 E54E0000 		.4byte	.LASF120
 8801 02d9 05       		.byte	0x5
 8802 02da 00       		.uleb128 0
 8803 02db 8B260000 		.4byte	.LASF121
 8804 02df 05       		.byte	0x5
 8805 02e0 00       		.uleb128 0
 8806 02e1 622D0000 		.4byte	.LASF122
 8807 02e5 05       		.byte	0x5
 8808 02e6 00       		.uleb128 0
 8809 02e7 5F940000 		.4byte	.LASF123
 8810 02eb 05       		.byte	0x5
 8811 02ec 00       		.uleb128 0
 8812 02ed 1B5D0000 		.4byte	.LASF124
 8813 02f1 05       		.byte	0x5
 8814 02f2 00       		.uleb128 0
 8815 02f3 27380000 		.4byte	.LASF125
 8816 02f7 05       		.byte	0x5
 8817 02f8 00       		.uleb128 0
 8818 02f9 F2730000 		.4byte	.LASF126
 8819 02fd 05       		.byte	0x5
 8820 02fe 00       		.uleb128 0
 8821 02ff FF4F0000 		.4byte	.LASF127
 8822 0303 05       		.byte	0x5
 8823 0304 00       		.uleb128 0
 8824 0305 402E0000 		.4byte	.LASF128
 8825 0309 05       		.byte	0x5
 8826 030a 00       		.uleb128 0
 8827 030b FC880000 		.4byte	.LASF129
 8828 030f 05       		.byte	0x5
 8829 0310 00       		.uleb128 0
 8830 0311 26860000 		.4byte	.LASF130
 8831 0315 05       		.byte	0x5
 8832 0316 00       		.uleb128 0
 8833 0317 C7820000 		.4byte	.LASF131
 8834 031b 05       		.byte	0x5
 8835 031c 00       		.uleb128 0
 8836 031d AC330000 		.4byte	.LASF132
 8837 0321 05       		.byte	0x5
ARM GAS  C:\Users\30806\AppData\Local\Temp\ccYcD1nI.s 			page 160


 8838 0322 00       		.uleb128 0
 8839 0323 EC440000 		.4byte	.LASF133
 8840 0327 05       		.byte	0x5
 8841 0328 00       		.uleb128 0
 8842 0329 DF1C0000 		.4byte	.LASF134
 8843 032d 05       		.byte	0x5
 8844 032e 00       		.uleb128 0
 8845 032f E39D0000 		.4byte	.LASF135
 8846 0333 05       		.byte	0x5
 8847 0334 00       		.uleb128 0
 8848 0335 0FAC0000 		.4byte	.LASF136
 8849 0339 05       		.byte	0x5
 8850 033a 00       		.uleb128 0
 8851 033b 51B80000 		.4byte	.LASF137
 8852 033f 05       		.byte	0x5
 8853 0340 00       		.uleb128 0
 8854 0341 C6110000 		.4byte	.LASF138
 8855 0345 05       		.byte	0x5
 8856 0346 00       		.uleb128 0
 8857 0347 57360000 		.4byte	.LASF139
 8858 034b 05       		.byte	0x5
 8859 034c 00       		.uleb128 0
 8860 034d 601B0000 		.4byte	.LASF140
 8861 0351 05       		.byte	0x5
 8862 0352 00       		.uleb128 0
 8863 0353 3F570000 		.4byte	.LASF141
 8864 0357 05       		.byte	0x5
 8865 0358 00       		.uleb128 0
 8866 0359 89180000 		.4byte	.LASF142
 8867 035d 05       		.byte	0x5
 8868 035e 00       		.uleb128 0
 8869 035f CF9B0000 		.4byte	.LASF143
 8870 0363 05       		.byte	0x5
 8871 0364 00       		.uleb128 0
 8872 0365 400E0000 		.4byte	.LASF144
 8873 0369 05       		.byte	0x5
 8874 036a 00       		.uleb128 0
 8875 036b 605B0000 		.4byte	.LASF145
 8876 036f 05       		.byte	0x5
 8877 0370 00       		.uleb128 0
 8878 0371 AF630000 		.4byte	.LASF146
 8879 0375 05       		.byte	0x5
 8880 0376 00       		.uleb128 0
 8881 0377 1D580000 		.4byte	.LASF147
 8882 037b 05       		.byte	0x5
 8883 037c 00       		.uleb128 0
 8884 037d 304E0000 		.4byte	.LASF148
 8885 0381 05       		.byte	0x5
 8886 0382 00       		.uleb128 0
 8887 0383 DA8E0000 		.4byte	.LASF149
 8888 0387 05       		.byte	0x5
 8889 0388 00       		.uleb128 0
 8890 0389 5D500000 		.4byte	.LASF150
 8891 038d 05       		.byte	0x5
 8892 038e 00       		.uleb128 0
 8893 038f F1B70000 		.4byte	.LASF151
 8894 0393 05       		.byte	0x5
ARM GAS  C:\Users\30806\AppData\Local\Temp\ccYcD1nI.s 			page 161


 8895 0394 00       		.uleb128 0
 8896 0395 DF290000 		.4byte	.LASF152
 8897 0399 05       		.byte	0x5
 8898 039a 00       		.uleb128 0
 8899 039b 462D0000 		.4byte	.LASF153
 8900 039f 05       		.byte	0x5
 8901 03a0 00       		.uleb128 0
 8902 03a1 88130000 		.4byte	.LASF154
 8903 03a5 05       		.byte	0x5
 8904 03a6 00       		.uleb128 0
 8905 03a7 42870000 		.4byte	.LASF155
 8906 03ab 05       		.byte	0x5
 8907 03ac 00       		.uleb128 0
 8908 03ad 65240000 		.4byte	.LASF156
 8909 03b1 05       		.byte	0x5
 8910 03b2 00       		.uleb128 0
 8911 03b3 D22E0000 		.4byte	.LASF157
 8912 03b7 05       		.byte	0x5
 8913 03b8 00       		.uleb128 0
 8914 03b9 D3360000 		.4byte	.LASF158
 8915 03bd 05       		.byte	0x5
 8916 03be 00       		.uleb128 0
 8917 03bf 34230000 		.4byte	.LASF159
 8918 03c3 05       		.byte	0x5
 8919 03c4 00       		.uleb128 0
 8920 03c5 2B960000 		.4byte	.LASF160
 8921 03c9 05       		.byte	0x5
 8922 03ca 00       		.uleb128 0
 8923 03cb C6020000 		.4byte	.LASF161
 8924 03cf 05       		.byte	0x5
 8925 03d0 00       		.uleb128 0
 8926 03d1 9D0B0000 		.4byte	.LASF162
 8927 03d5 05       		.byte	0x5
 8928 03d6 00       		.uleb128 0
 8929 03d7 FA8F0000 		.4byte	.LASF163
 8930 03db 05       		.byte	0x5
 8931 03dc 00       		.uleb128 0
 8932 03dd 664D0000 		.4byte	.LASF164
 8933 03e1 05       		.byte	0x5
 8934 03e2 00       		.uleb128 0
 8935 03e3 DE100000 		.4byte	.LASF165
 8936 03e7 05       		.byte	0x5
 8937 03e8 00       		.uleb128 0
 8938 03e9 43440000 		.4byte	.LASF166
 8939 03ed 05       		.byte	0x5
 8940 03ee 00       		.uleb128 0
 8941 03ef E95F0000 		.4byte	.LASF167
 8942 03f3 05       		.byte	0x5
 8943 03f4 00       		.uleb128 0
 8944 03f5 555D0000 		.4byte	.LASF168
 8945 03f9 05       		.byte	0x5
 8946 03fa 00       		.uleb128 0
 8947 03fb BE920000 		.4byte	.LASF169
 8948 03ff 05       		.byte	0x5
 8949 0400 00       		.uleb128 0
 8950 0401 B8070000 		.4byte	.LASF170
 8951 0405 05       		.byte	0x5
ARM GAS  C:\Users\30806\AppData\Local\Temp\ccYcD1nI.s 			page 162


 8952 0406 00       		.uleb128 0
 8953 0407 4E6B0000 		.4byte	.LASF171
 8954 040b 05       		.byte	0x5
 8955 040c 00       		.uleb128 0
 8956 040d 0F7E0000 		.4byte	.LASF172
 8957 0411 05       		.byte	0x5
 8958 0412 00       		.uleb128 0
 8959 0413 299F0000 		.4byte	.LASF173
 8960 0417 05       		.byte	0x5
 8961 0418 00       		.uleb128 0
 8962 0419 E8530000 		.4byte	.LASF174
 8963 041d 05       		.byte	0x5
 8964 041e 00       		.uleb128 0
 8965 041f 4B200000 		.4byte	.LASF175
 8966 0423 05       		.byte	0x5
 8967 0424 00       		.uleb128 0
 8968 0425 D0A90000 		.4byte	.LASF176
 8969 0429 05       		.byte	0x5
 8970 042a 00       		.uleb128 0
 8971 042b F7370000 		.4byte	.LASF177
 8972 042f 05       		.byte	0x5
 8973 0430 00       		.uleb128 0
 8974 0431 36AE0000 		.4byte	.LASF178
 8975 0435 05       		.byte	0x5
 8976 0436 00       		.uleb128 0
 8977 0437 FB360000 		.4byte	.LASF179
 8978 043b 05       		.byte	0x5
 8979 043c 00       		.uleb128 0
 8980 043d E0330000 		.4byte	.LASF180
 8981 0441 05       		.byte	0x5
 8982 0442 00       		.uleb128 0
 8983 0443 752C0000 		.4byte	.LASF181
 8984 0447 05       		.byte	0x5
 8985 0448 00       		.uleb128 0
 8986 0449 6F360000 		.4byte	.LASF182
 8987 044d 05       		.byte	0x5
 8988 044e 00       		.uleb128 0
 8989 044f 75250000 		.4byte	.LASF183
 8990 0453 05       		.byte	0x5
 8991 0454 00       		.uleb128 0
 8992 0455 CB1C0000 		.4byte	.LASF184
 8993 0459 05       		.byte	0x5
 8994 045a 00       		.uleb128 0
 8995 045b A65F0000 		.4byte	.LASF185
 8996 045f 05       		.byte	0x5
 8997 0460 00       		.uleb128 0
 8998 0461 258A0000 		.4byte	.LASF186
 8999 0465 05       		.byte	0x5
 9000 0466 00       		.uleb128 0
 9001 0467 BC590000 		.4byte	.LASF187
 9002 046b 05       		.byte	0x5
 9003 046c 00       		.uleb128 0
 9004 046d 62010000 		.4byte	.LASF188
 9005 0471 05       		.byte	0x5
 9006 0472 00       		.uleb128 0
 9007 0473 0DA00000 		.4byte	.LASF189
 9008 0477 05       		.byte	0x5
ARM GAS  C:\Users\30806\AppData\Local\Temp\ccYcD1nI.s 			page 163


 9009 0478 00       		.uleb128 0
 9010 0479 64290000 		.4byte	.LASF190
 9011 047d 05       		.byte	0x5
 9012 047e 00       		.uleb128 0
 9013 047f 1D190000 		.4byte	.LASF191
 9014 0483 05       		.byte	0x5
 9015 0484 00       		.uleb128 0
 9016 0485 9EB00000 		.4byte	.LASF192
 9017 0489 05       		.byte	0x5
 9018 048a 00       		.uleb128 0
 9019 048b C90B0000 		.4byte	.LASF193
 9020 048f 05       		.byte	0x5
 9021 0490 00       		.uleb128 0
 9022 0491 9B480000 		.4byte	.LASF194
 9023 0495 05       		.byte	0x5
 9024 0496 00       		.uleb128 0
 9025 0497 06430000 		.4byte	.LASF195
 9026 049b 05       		.byte	0x5
 9027 049c 00       		.uleb128 0
 9028 049d 44260000 		.4byte	.LASF196
 9029 04a1 05       		.byte	0x5
 9030 04a2 00       		.uleb128 0
 9031 04a3 CE1E0000 		.4byte	.LASF197
 9032 04a7 05       		.byte	0x5
 9033 04a8 00       		.uleb128 0
 9034 04a9 41A40000 		.4byte	.LASF198
 9035 04ad 05       		.byte	0x5
 9036 04ae 00       		.uleb128 0
 9037 04af A2240000 		.4byte	.LASF199
 9038 04b3 05       		.byte	0x5
 9039 04b4 00       		.uleb128 0
 9040 04b5 F82C0000 		.4byte	.LASF200
 9041 04b9 05       		.byte	0x5
 9042 04ba 00       		.uleb128 0
 9043 04bb 4E070000 		.4byte	.LASF201
 9044 04bf 05       		.byte	0x5
 9045 04c0 00       		.uleb128 0
 9046 04c1 B6300000 		.4byte	.LASF202
 9047 04c5 05       		.byte	0x5
 9048 04c6 00       		.uleb128 0
 9049 04c7 E11D0000 		.4byte	.LASF203
 9050 04cb 05       		.byte	0x5
 9051 04cc 00       		.uleb128 0
 9052 04cd 293A0000 		.4byte	.LASF204
 9053 04d1 05       		.byte	0x5
 9054 04d2 00       		.uleb128 0
 9055 04d3 480C0000 		.4byte	.LASF205
 9056 04d7 05       		.byte	0x5
 9057 04d8 00       		.uleb128 0
 9058 04d9 0E010000 		.4byte	.LASF206
 9059 04dd 05       		.byte	0x5
 9060 04de 00       		.uleb128 0
 9061 04df 48A60000 		.4byte	.LASF207
 9062 04e3 05       		.byte	0x5
 9063 04e4 00       		.uleb128 0
 9064 04e5 1D760000 		.4byte	.LASF208
 9065 04e9 05       		.byte	0x5
ARM GAS  C:\Users\30806\AppData\Local\Temp\ccYcD1nI.s 			page 164


 9066 04ea 00       		.uleb128 0
 9067 04eb C50E0000 		.4byte	.LASF209
 9068 04ef 05       		.byte	0x5
 9069 04f0 00       		.uleb128 0
 9070 04f1 38AD0000 		.4byte	.LASF210
 9071 04f5 05       		.byte	0x5
 9072 04f6 00       		.uleb128 0
 9073 04f7 C9840000 		.4byte	.LASF211
 9074 04fb 05       		.byte	0x5
 9075 04fc 00       		.uleb128 0
 9076 04fd 942B0000 		.4byte	.LASF212
 9077 0501 05       		.byte	0x5
 9078 0502 00       		.uleb128 0
 9079 0503 7B240000 		.4byte	.LASF213
 9080 0507 05       		.byte	0x5
 9081 0508 00       		.uleb128 0
 9082 0509 50AD0000 		.4byte	.LASF214
 9083 050d 05       		.byte	0x5
 9084 050e 00       		.uleb128 0
 9085 050f DE920000 		.4byte	.LASF215
 9086 0513 05       		.byte	0x5
 9087 0514 00       		.uleb128 0
 9088 0515 6AA50000 		.4byte	.LASF216
 9089 0519 05       		.byte	0x5
 9090 051a 00       		.uleb128 0
 9091 051b 1F1F0000 		.4byte	.LASF217
 9092 051f 05       		.byte	0x5
 9093 0520 00       		.uleb128 0
 9094 0521 D4150000 		.4byte	.LASF218
 9095 0525 05       		.byte	0x5
 9096 0526 00       		.uleb128 0
 9097 0527 12B00000 		.4byte	.LASF219
 9098 052b 05       		.byte	0x5
 9099 052c 00       		.uleb128 0
 9100 052d 724F0000 		.4byte	.LASF220
 9101 0531 05       		.byte	0x5
 9102 0532 00       		.uleb128 0
 9103 0533 32510000 		.4byte	.LASF221
 9104 0537 05       		.byte	0x5
 9105 0538 00       		.uleb128 0
 9106 0539 A1370000 		.4byte	.LASF222
 9107 053d 05       		.byte	0x5
 9108 053e 00       		.uleb128 0
 9109 053f EE5C0000 		.4byte	.LASF223
 9110 0543 05       		.byte	0x5
 9111 0544 00       		.uleb128 0
 9112 0545 426D0000 		.4byte	.LASF224
 9113 0549 05       		.byte	0x5
 9114 054a 00       		.uleb128 0
 9115 054b 56AE0000 		.4byte	.LASF225
 9116 054f 05       		.byte	0x5
 9117 0550 00       		.uleb128 0
 9118 0551 6D830000 		.4byte	.LASF226
 9119 0555 05       		.byte	0x5
 9120 0556 00       		.uleb128 0
 9121 0557 4D1E0000 		.4byte	.LASF227
 9122 055b 05       		.byte	0x5
ARM GAS  C:\Users\30806\AppData\Local\Temp\ccYcD1nI.s 			page 165


 9123 055c 00       		.uleb128 0
 9124 055d 0F020000 		.4byte	.LASF228
 9125 0561 05       		.byte	0x5
 9126 0562 00       		.uleb128 0
 9127 0563 0C240000 		.4byte	.LASF229
 9128 0567 05       		.byte	0x5
 9129 0568 00       		.uleb128 0
 9130 0569 A1170000 		.4byte	.LASF230
 9131 056d 05       		.byte	0x5
 9132 056e 00       		.uleb128 0
 9133 056f 8A060000 		.4byte	.LASF231
 9134 0573 05       		.byte	0x5
 9135 0574 00       		.uleb128 0
 9136 0575 1D6C0000 		.4byte	.LASF232
 9137 0579 05       		.byte	0x5
 9138 057a 00       		.uleb128 0
 9139 057b 41310000 		.4byte	.LASF233
 9140 057f 05       		.byte	0x5
 9141 0580 00       		.uleb128 0
 9142 0581 D6700000 		.4byte	.LASF234
 9143 0585 05       		.byte	0x5
 9144 0586 00       		.uleb128 0
 9145 0587 311A0000 		.4byte	.LASF235
 9146 058b 05       		.byte	0x5
 9147 058c 00       		.uleb128 0
 9148 058d 3A8F0000 		.4byte	.LASF236
 9149 0591 05       		.byte	0x5
 9150 0592 00       		.uleb128 0
 9151 0593 581C0000 		.4byte	.LASF237
 9152 0597 05       		.byte	0x5
 9153 0598 00       		.uleb128 0
 9154 0599 02300000 		.4byte	.LASF238
 9155 059d 05       		.byte	0x5
 9156 059e 00       		.uleb128 0
 9157 059f 9C790000 		.4byte	.LASF239
 9158 05a3 05       		.byte	0x5
 9159 05a4 00       		.uleb128 0
 9160 05a5 46040000 		.4byte	.LASF240
 9161 05a9 05       		.byte	0x5
 9162 05aa 00       		.uleb128 0
 9163 05ab 71A90000 		.4byte	.LASF241
 9164 05af 05       		.byte	0x5
 9165 05b0 00       		.uleb128 0
 9166 05b1 710D0000 		.4byte	.LASF242
 9167 05b5 05       		.byte	0x5
 9168 05b6 00       		.uleb128 0
 9169 05b7 16030000 		.4byte	.LASF243
 9170 05bb 05       		.byte	0x5
 9171 05bc 00       		.uleb128 0
 9172 05bd D53C0000 		.4byte	.LASF244
 9173 05c1 05       		.byte	0x5
 9174 05c2 00       		.uleb128 0
 9175 05c3 60990000 		.4byte	.LASF245
 9176 05c7 05       		.byte	0x5
 9177 05c8 00       		.uleb128 0
 9178 05c9 4BAB0000 		.4byte	.LASF246
 9179 05cd 05       		.byte	0x5
ARM GAS  C:\Users\30806\AppData\Local\Temp\ccYcD1nI.s 			page 166


 9180 05ce 00       		.uleb128 0
 9181 05cf 1F6F0000 		.4byte	.LASF247
 9182 05d3 05       		.byte	0x5
 9183 05d4 00       		.uleb128 0
 9184 05d5 8A760000 		.4byte	.LASF248
 9185 05d9 05       		.byte	0x5
 9186 05da 00       		.uleb128 0
 9187 05db 109F0000 		.4byte	.LASF249
 9188 05df 05       		.byte	0x5
 9189 05e0 00       		.uleb128 0
 9190 05e1 38850000 		.4byte	.LASF250
 9191 05e5 05       		.byte	0x5
 9192 05e6 00       		.uleb128 0
 9193 05e7 D2630000 		.4byte	.LASF251
 9194 05eb 05       		.byte	0x5
 9195 05ec 00       		.uleb128 0
 9196 05ed 256B0000 		.4byte	.LASF252
 9197 05f1 05       		.byte	0x5
 9198 05f2 00       		.uleb128 0
 9199 05f3 9B820000 		.4byte	.LASF253
 9200 05f7 05       		.byte	0x5
 9201 05f8 00       		.uleb128 0
 9202 05f9 0EA70000 		.4byte	.LASF254
 9203 05fd 05       		.byte	0x5
 9204 05fe 00       		.uleb128 0
 9205 05ff 6CB00000 		.4byte	.LASF255
 9206 0603 05       		.byte	0x5
 9207 0604 00       		.uleb128 0
 9208 0605 D07F0000 		.4byte	.LASF256
 9209 0609 05       		.byte	0x5
 9210 060a 00       		.uleb128 0
 9211 060b CA580000 		.4byte	.LASF257
 9212 060f 05       		.byte	0x5
 9213 0610 00       		.uleb128 0
 9214 0611 ED390000 		.4byte	.LASF258
 9215 0615 05       		.byte	0x5
 9216 0616 00       		.uleb128 0
 9217 0617 79370000 		.4byte	.LASF259
 9218 061b 05       		.byte	0x5
 9219 061c 00       		.uleb128 0
 9220 061d 319B0000 		.4byte	.LASF260
 9221 0621 05       		.byte	0x5
 9222 0622 00       		.uleb128 0
 9223 0623 00AE0000 		.4byte	.LASF261
 9224 0627 05       		.byte	0x5
 9225 0628 00       		.uleb128 0
 9226 0629 1D1E0000 		.4byte	.LASF262
 9227 062d 05       		.byte	0x5
 9228 062e 00       		.uleb128 0
 9229 062f 0E120000 		.4byte	.LASF263
 9230 0633 05       		.byte	0x5
 9231 0634 00       		.uleb128 0
 9232 0635 073E0000 		.4byte	.LASF264
 9233 0639 05       		.byte	0x5
 9234 063a 00       		.uleb128 0
 9235 063b 36020000 		.4byte	.LASF265
 9236 063f 05       		.byte	0x5
ARM GAS  C:\Users\30806\AppData\Local\Temp\ccYcD1nI.s 			page 167


 9237 0640 00       		.uleb128 0
 9238 0641 49490000 		.4byte	.LASF266
 9239 0645 05       		.byte	0x5
 9240 0646 00       		.uleb128 0
 9241 0647 F0520000 		.4byte	.LASF267
 9242 064b 05       		.byte	0x5
 9243 064c 00       		.uleb128 0
 9244 064d 13540000 		.4byte	.LASF268
 9245 0651 05       		.byte	0x5
 9246 0652 00       		.uleb128 0
 9247 0653 36160000 		.4byte	.LASF269
 9248 0657 05       		.byte	0x5
 9249 0658 00       		.uleb128 0
 9250 0659 1D770000 		.4byte	.LASF270
 9251 065d 05       		.byte	0x5
 9252 065e 00       		.uleb128 0
 9253 065f 951A0000 		.4byte	.LASF271
 9254 0663 05       		.byte	0x5
 9255 0664 00       		.uleb128 0
 9256 0665 B5A20000 		.4byte	.LASF272
 9257 0669 05       		.byte	0x5
 9258 066a 00       		.uleb128 0
 9259 066b B52F0000 		.4byte	.LASF273
 9260 066f 05       		.byte	0x5
 9261 0670 00       		.uleb128 0
 9262 0671 CB2B0000 		.4byte	.LASF274
 9263 0675 05       		.byte	0x5
 9264 0676 00       		.uleb128 0
 9265 0677 F5610000 		.4byte	.LASF275
 9266 067b 05       		.byte	0x5
 9267 067c 00       		.uleb128 0
 9268 067d CCAE0000 		.4byte	.LASF276
 9269 0681 05       		.byte	0x5
 9270 0682 00       		.uleb128 0
 9271 0683 B99F0000 		.4byte	.LASF277
 9272 0687 05       		.byte	0x5
 9273 0688 00       		.uleb128 0
 9274 0689 07A10000 		.4byte	.LASF278
 9275 068d 05       		.byte	0x5
 9276 068e 00       		.uleb128 0
 9277 068f D5AD0000 		.4byte	.LASF279
 9278 0693 05       		.byte	0x5
 9279 0694 00       		.uleb128 0
 9280 0695 590E0000 		.4byte	.LASF280
 9281 0699 05       		.byte	0x5
 9282 069a 00       		.uleb128 0
 9283 069b 31700000 		.4byte	.LASF281
 9284 069f 05       		.byte	0x5
 9285 06a0 00       		.uleb128 0
 9286 06a1 D05C0000 		.4byte	.LASF282
 9287 06a5 05       		.byte	0x5
 9288 06a6 00       		.uleb128 0
 9289 06a7 5B440000 		.4byte	.LASF283
 9290 06ab 05       		.byte	0x5
 9291 06ac 00       		.uleb128 0
 9292 06ad EA360000 		.4byte	.LASF284
 9293 06b1 05       		.byte	0x5
ARM GAS  C:\Users\30806\AppData\Local\Temp\ccYcD1nI.s 			page 168


 9294 06b2 00       		.uleb128 0
 9295 06b3 493F0000 		.4byte	.LASF285
 9296 06b7 05       		.byte	0x5
 9297 06b8 00       		.uleb128 0
 9298 06b9 55530000 		.4byte	.LASF286
 9299 06bd 05       		.byte	0x5
 9300 06be 00       		.uleb128 0
 9301 06bf D2390000 		.4byte	.LASF287
 9302 06c3 05       		.byte	0x5
 9303 06c4 00       		.uleb128 0
 9304 06c5 05B40000 		.4byte	.LASF288
 9305 06c9 05       		.byte	0x5
 9306 06ca 00       		.uleb128 0
 9307 06cb 50AC0000 		.4byte	.LASF289
 9308 06cf 05       		.byte	0x5
 9309 06d0 00       		.uleb128 0
 9310 06d1 FC240000 		.4byte	.LASF290
 9311 06d5 05       		.byte	0x5
 9312 06d6 00       		.uleb128 0
 9313 06d7 23880000 		.4byte	.LASF291
 9314 06db 05       		.byte	0x5
 9315 06dc 00       		.uleb128 0
 9316 06dd B75E0000 		.4byte	.LASF292
 9317 06e1 05       		.byte	0x5
 9318 06e2 00       		.uleb128 0
 9319 06e3 A65A0000 		.4byte	.LASF293
 9320 06e7 05       		.byte	0x5
 9321 06e8 00       		.uleb128 0
 9322 06e9 05210000 		.4byte	.LASF294
 9323 06ed 05       		.byte	0x5
 9324 06ee 00       		.uleb128 0
 9325 06ef CF800000 		.4byte	.LASF295
 9326 06f3 05       		.byte	0x5
 9327 06f4 00       		.uleb128 0
 9328 06f5 9FB90000 		.4byte	.LASF296
 9329 06f9 05       		.byte	0x5
 9330 06fa 00       		.uleb128 0
 9331 06fb AE000000 		.4byte	.LASF297
 9332 06ff 05       		.byte	0x5
 9333 0700 00       		.uleb128 0
 9334 0701 643F0000 		.4byte	.LASF298
 9335 0705 05       		.byte	0x5
 9336 0706 00       		.uleb128 0
 9337 0707 95910000 		.4byte	.LASF299
 9338 070b 05       		.byte	0x5
 9339 070c 00       		.uleb128 0
 9340 070d 488B0000 		.4byte	.LASF300
 9341 0711 05       		.byte	0x5
 9342 0712 00       		.uleb128 0
 9343 0713 62580000 		.4byte	.LASF301
 9344 0717 05       		.byte	0x5
 9345 0718 00       		.uleb128 0
 9346 0719 F2810000 		.4byte	.LASF302
 9347 071d 05       		.byte	0x5
 9348 071e 00       		.uleb128 0
 9349 071f 98A10000 		.4byte	.LASF303
 9350 0723 05       		.byte	0x5
ARM GAS  C:\Users\30806\AppData\Local\Temp\ccYcD1nI.s 			page 169


 9351 0724 00       		.uleb128 0
 9352 0725 332D0000 		.4byte	.LASF304
 9353 0729 05       		.byte	0x5
 9354 072a 00       		.uleb128 0
 9355 072b 25240000 		.4byte	.LASF305
 9356 072f 05       		.byte	0x5
 9357 0730 00       		.uleb128 0
 9358 0731 8DB50000 		.4byte	.LASF306
 9359 0735 05       		.byte	0x5
 9360 0736 00       		.uleb128 0
 9361 0737 24440000 		.4byte	.LASF307
 9362 073b 05       		.byte	0x5
 9363 073c 00       		.uleb128 0
 9364 073d EF840000 		.4byte	.LASF308
 9365 0741 05       		.byte	0x5
 9366 0742 00       		.uleb128 0
 9367 0743 51060000 		.4byte	.LASF309
 9368 0747 05       		.byte	0x5
 9369 0748 00       		.uleb128 0
 9370 0749 382B0000 		.4byte	.LASF310
 9371 074d 05       		.byte	0x5
 9372 074e 00       		.uleb128 0
 9373 074f 86460000 		.4byte	.LASF311
 9374 0753 05       		.byte	0x5
 9375 0754 00       		.uleb128 0
 9376 0755 11AB0000 		.4byte	.LASF312
 9377 0759 05       		.byte	0x5
 9378 075a 00       		.uleb128 0
 9379 075b AA7A0000 		.4byte	.LASF313
 9380 075f 05       		.byte	0x5
 9381 0760 00       		.uleb128 0
 9382 0761 C3200000 		.4byte	.LASF314
 9383 0765 05       		.byte	0x5
 9384 0766 00       		.uleb128 0
 9385 0767 58260000 		.4byte	.LASF315
 9386 076b 05       		.byte	0x5
 9387 076c 00       		.uleb128 0
 9388 076d 2A4F0000 		.4byte	.LASF316
 9389 0771 05       		.byte	0x5
 9390 0772 00       		.uleb128 0
 9391 0773 BC640000 		.4byte	.LASF317
 9392 0777 05       		.byte	0x5
 9393 0778 00       		.uleb128 0
 9394 0779 CF280000 		.4byte	.LASF318
 9395 077d 05       		.byte	0x5
 9396 077e 00       		.uleb128 0
 9397 077f 8B8A0000 		.4byte	.LASF319
 9398 0783 05       		.byte	0x5
 9399 0784 00       		.uleb128 0
 9400 0785 AA010000 		.4byte	.LASF320
 9401 0789 05       		.byte	0x5
 9402 078a 00       		.uleb128 0
 9403 078b FF5A0000 		.4byte	.LASF321
 9404 078f 05       		.byte	0x5
 9405 0790 00       		.uleb128 0
 9406 0791 605C0000 		.4byte	.LASF322
 9407 0795 05       		.byte	0x5
ARM GAS  C:\Users\30806\AppData\Local\Temp\ccYcD1nI.s 			page 170


 9408 0796 00       		.uleb128 0
 9409 0797 F64D0000 		.4byte	.LASF323
 9410 079b 05       		.byte	0x5
 9411 079c 00       		.uleb128 0
 9412 079d A24F0000 		.4byte	.LASF324
 9413 07a1 05       		.byte	0x5
 9414 07a2 00       		.uleb128 0
 9415 07a3 93870000 		.4byte	.LASF325
 9416 07a7 05       		.byte	0x5
 9417 07a8 00       		.uleb128 0
 9418 07a9 16990000 		.4byte	.LASF326
 9419 07ad 05       		.byte	0x5
 9420 07ae 00       		.uleb128 0
 9421 07af 77380000 		.4byte	.LASF327
 9422 07b3 05       		.byte	0x5
 9423 07b4 00       		.uleb128 0
 9424 07b5 6A000000 		.4byte	.LASF328
 9425 07b9 05       		.byte	0x5
 9426 07ba 00       		.uleb128 0
 9427 07bb 61020000 		.4byte	.LASF329
 9428 07bf 05       		.byte	0x5
 9429 07c0 00       		.uleb128 0
 9430 07c1 759F0000 		.4byte	.LASF330
 9431 07c5 05       		.byte	0x5
 9432 07c6 00       		.uleb128 0
 9433 07c7 C3220000 		.4byte	.LASF331
 9434 07cb 05       		.byte	0x5
 9435 07cc 00       		.uleb128 0
 9436 07cd 4E0B0000 		.4byte	.LASF332
 9437 07d1 05       		.byte	0x5
 9438 07d2 00       		.uleb128 0
 9439 07d3 5E620000 		.4byte	.LASF333
 9440 07d7 05       		.byte	0x5
 9441 07d8 00       		.uleb128 0
 9442 07d9 A39B0000 		.4byte	.LASF334
 9443 07dd 05       		.byte	0x5
 9444 07de 00       		.uleb128 0
 9445 07df 315D0000 		.4byte	.LASF335
 9446 07e3 05       		.byte	0x5
 9447 07e4 00       		.uleb128 0
 9448 07e5 BA380000 		.4byte	.LASF336
 9449 07e9 05       		.byte	0x5
 9450 07ea 00       		.uleb128 0
 9451 07eb 1F000000 		.4byte	.LASF337
 9452 07ef 05       		.byte	0x5
 9453 07f0 00       		.uleb128 0
 9454 07f1 5E340000 		.4byte	.LASF338
 9455 07f5 05       		.byte	0x5
 9456 07f6 00       		.uleb128 0
 9457 07f7 8C350000 		.4byte	.LASF339
 9458 07fb 05       		.byte	0x5
 9459 07fc 00       		.uleb128 0
 9460 07fd 1F020000 		.4byte	.LASF340
 9461 0801 05       		.byte	0x5
 9462 0802 00       		.uleb128 0
 9463 0803 CD990000 		.4byte	.LASF341
 9464 0807 05       		.byte	0x5
ARM GAS  C:\Users\30806\AppData\Local\Temp\ccYcD1nI.s 			page 171


 9465 0808 00       		.uleb128 0
 9466 0809 C1330000 		.4byte	.LASF342
 9467 080d 05       		.byte	0x5
 9468 080e 00       		.uleb128 0
 9469 080f B2110000 		.4byte	.LASF343
 9470 0813 05       		.byte	0x5
 9471 0814 00       		.uleb128 0
 9472 0815 EB7A0000 		.4byte	.LASF344
 9473 0819 05       		.byte	0x5
 9474 081a 00       		.uleb128 0
 9475 081b 06110000 		.4byte	.LASF345
 9476 081f 05       		.byte	0x5
 9477 0820 00       		.uleb128 0
 9478 0821 AF060000 		.4byte	.LASF346
 9479 0825 05       		.byte	0x5
 9480 0826 00       		.uleb128 0
 9481 0827 B15C0000 		.4byte	.LASF347
 9482 082b 05       		.byte	0x5
 9483 082c 00       		.uleb128 0
 9484 082d 3B830000 		.4byte	.LASF348
 9485 0831 05       		.byte	0x5
 9486 0832 00       		.uleb128 0
 9487 0833 80840000 		.4byte	.LASF349
 9488 0837 05       		.byte	0x5
 9489 0838 00       		.uleb128 0
 9490 0839 E6260000 		.4byte	.LASF350
 9491 083d 05       		.byte	0x5
 9492 083e 00       		.uleb128 0
 9493 083f 4B180000 		.4byte	.LASF351
 9494 0843 05       		.byte	0x5
 9495 0844 00       		.uleb128 0
 9496 0845 E3660000 		.4byte	.LASF352
 9497 0849 05       		.byte	0x5
 9498 084a 00       		.uleb128 0
 9499 084b C6150000 		.4byte	.LASF353
 9500 084f 05       		.byte	0x5
 9501 0850 00       		.uleb128 0
 9502 0851 BA210000 		.4byte	.LASF354
 9503 0855 05       		.byte	0x5
 9504 0856 00       		.uleb128 0
 9505 0857 47370000 		.4byte	.LASF355
 9506 085b 05       		.byte	0x5
 9507 085c 00       		.uleb128 0
 9508 085d 9EA90000 		.4byte	.LASF356
 9509 0861 05       		.byte	0x5
 9510 0862 00       		.uleb128 0
 9511 0863 18380000 		.4byte	.LASF357
 9512 0867 05       		.byte	0x5
 9513 0868 00       		.uleb128 0
 9514 0869 C8600000 		.4byte	.LASF358
 9515 086d 05       		.byte	0x5
 9516 086e 00       		.uleb128 0
 9517 086f 3F0B0000 		.4byte	.LASF359
 9518 0873 05       		.byte	0x5
 9519 0874 00       		.uleb128 0
 9520 0875 19850000 		.4byte	.LASF360
 9521 0879 05       		.byte	0x5
ARM GAS  C:\Users\30806\AppData\Local\Temp\ccYcD1nI.s 			page 172


 9522 087a 00       		.uleb128 0
 9523 087b C6900000 		.4byte	.LASF361
 9524 087f 05       		.byte	0x5
 9525 0880 00       		.uleb128 0
 9526 0881 BAB10000 		.4byte	.LASF362
 9527 0885 05       		.byte	0x5
 9528 0886 00       		.uleb128 0
 9529 0887 417A0000 		.4byte	.LASF363
 9530 088b 05       		.byte	0x5
 9531 088c 00       		.uleb128 0
 9532 088d 321F0000 		.4byte	.LASF364
 9533 0891 05       		.byte	0x5
 9534 0892 00       		.uleb128 0
 9535 0893 C3410000 		.4byte	.LASF365
 9536 0897 05       		.byte	0x5
 9537 0898 00       		.uleb128 0
 9538 0899 5E610000 		.4byte	.LASF366
 9539 089d 05       		.byte	0x5
 9540 089e 00       		.uleb128 0
 9541 089f 3B720000 		.4byte	.LASF367
 9542 08a3 05       		.byte	0x5
 9543 08a4 00       		.uleb128 0
 9544 08a5 C3630000 		.4byte	.LASF368
 9545 08a9 05       		.byte	0x5
 9546 08aa 00       		.uleb128 0
 9547 08ab 8C3C0000 		.4byte	.LASF369
 9548 08af 05       		.byte	0x5
 9549 08b0 00       		.uleb128 0
 9550 08b1 17260000 		.4byte	.LASF370
 9551 08b5 05       		.byte	0x5
 9552 08b6 00       		.uleb128 0
 9553 08b7 7B780000 		.4byte	.LASF371
 9554 08bb 05       		.byte	0x5
 9555 08bc 00       		.uleb128 0
 9556 08bd 49580000 		.4byte	.LASF372
 9557 08c1 05       		.byte	0x5
 9558 08c2 00       		.uleb128 0
 9559 08c3 25470000 		.4byte	.LASF373
 9560 08c7 05       		.byte	0x5
 9561 08c8 00       		.uleb128 0
 9562 08c9 5F8B0000 		.4byte	.LASF374
 9563 08cd 05       		.byte	0x5
 9564 08ce 00       		.uleb128 0
 9565 08cf A0060000 		.4byte	.LASF375
 9566 08d3 05       		.byte	0x5
 9567 08d4 00       		.uleb128 0
 9568 08d5 74080000 		.4byte	.LASF376
 9569 08d9 05       		.byte	0x5
 9570 08da 00       		.uleb128 0
 9571 08db 2B8F0000 		.4byte	.LASF377
 9572 08df 05       		.byte	0x5
 9573 08e0 00       		.uleb128 0
 9574 08e1 A2900000 		.4byte	.LASF378
 9575 08e5 05       		.byte	0x5
 9576 08e6 00       		.uleb128 0
 9577 08e7 7CA60000 		.4byte	.LASF379
 9578 08eb 05       		.byte	0x5
ARM GAS  C:\Users\30806\AppData\Local\Temp\ccYcD1nI.s 			page 173


 9579 08ec 00       		.uleb128 0
 9580 08ed 75A80000 		.4byte	.LASF380
 9581 08f1 05       		.byte	0x5
 9582 08f2 00       		.uleb128 0
 9583 08f3 CAAA0000 		.4byte	.LASF381
 9584 08f7 05       		.byte	0x5
 9585 08f8 00       		.uleb128 0
 9586 08f9 65B50000 		.4byte	.LASF382
 9587 08fd 05       		.byte	0x5
 9588 08fe 00       		.uleb128 0
 9589 08ff D11D0000 		.4byte	.LASF383
 9590 0903 05       		.byte	0x5
 9591 0904 00       		.uleb128 0
 9592 0905 67380000 		.4byte	.LASF384
 9593 0909 05       		.byte	0x5
 9594 090a 00       		.uleb128 0
 9595 090b D9060000 		.4byte	.LASF385
 9596 090f 05       		.byte	0x5
 9597 0910 00       		.uleb128 0
 9598 0911 B4080000 		.4byte	.LASF386
 9599 0915 05       		.byte	0x5
 9600 0916 00       		.uleb128 0
 9601 0917 BE1E0000 		.4byte	.LASF387
 9602 091b 05       		.byte	0x5
 9603 091c 00       		.uleb128 0
 9604 091d 3B200000 		.4byte	.LASF388
 9605 0921 05       		.byte	0x5
 9606 0922 00       		.uleb128 0
 9607 0923 A66F0000 		.4byte	.LASF389
 9608 0927 05       		.byte	0x5
 9609 0928 00       		.uleb128 0
 9610 0929 17210000 		.4byte	.LASF390
 9611 092d 05       		.byte	0x5
 9612 092e 00       		.uleb128 0
 9613 092f 70770000 		.4byte	.LASF391
 9614 0933 05       		.byte	0x5
 9615 0934 00       		.uleb128 0
 9616 0935 6BAD0000 		.4byte	.LASF392
 9617 0939 05       		.byte	0x5
 9618 093a 00       		.uleb128 0
 9619 093b 1A450000 		.4byte	.LASF393
 9620 093f 05       		.byte	0x5
 9621 0940 00       		.uleb128 0
 9622 0941 FC480000 		.4byte	.LASF394
 9623 0945 05       		.byte	0x5
 9624 0946 00       		.uleb128 0
 9625 0947 20620000 		.4byte	.LASF395
 9626 094b 05       		.byte	0x5
 9627 094c 00       		.uleb128 0
 9628 094d 65760000 		.4byte	.LASF396
 9629 0951 05       		.byte	0x5
 9630 0952 00       		.uleb128 0
 9631 0953 6A860000 		.4byte	.LASF397
 9632 0957 05       		.byte	0x5
 9633 0958 00       		.uleb128 0
 9634 0959 DC8F0000 		.4byte	.LASF398
 9635 095d 05       		.byte	0x5
ARM GAS  C:\Users\30806\AppData\Local\Temp\ccYcD1nI.s 			page 174


 9636 095e 00       		.uleb128 0
 9637 095f 2D110000 		.4byte	.LASF399
 9638 0963 05       		.byte	0x5
 9639 0964 00       		.uleb128 0
 9640 0965 731A0000 		.4byte	.LASF400
 9641 0969 05       		.byte	0x5
 9642 096a 00       		.uleb128 0
 9643 096b 293E0000 		.4byte	.LASF401
 9644 096f 05       		.byte	0x5
 9645 0970 00       		.uleb128 0
 9646 0971 77A10000 		.4byte	.LASF402
 9647 0975 05       		.byte	0x5
 9648 0976 00       		.uleb128 0
 9649 0977 7F7C0000 		.4byte	.LASF403
 9650 097b 05       		.byte	0x5
 9651 097c 00       		.uleb128 0
 9652 097d 026F0000 		.4byte	.LASF404
 9653 0981 05       		.byte	0x5
 9654 0982 00       		.uleb128 0
 9655 0983 17410000 		.4byte	.LASF405
 9656 0987 05       		.byte	0x5
 9657 0988 00       		.uleb128 0
 9658 0989 8E810000 		.4byte	.LASF406
 9659 098d 05       		.byte	0x5
 9660 098e 00       		.uleb128 0
 9661 098f 15290000 		.4byte	.LASF407
 9662 0993 05       		.byte	0x5
 9663 0994 00       		.uleb128 0
 9664 0995 9E6B0000 		.4byte	.LASF408
 9665 0999 05       		.byte	0x5
 9666 099a 00       		.uleb128 0
 9667 099b 1B150000 		.4byte	.LASF409
 9668 099f 05       		.byte	0x5
 9669 09a0 00       		.uleb128 0
 9670 09a1 AB450000 		.4byte	.LASF410
 9671 09a5 05       		.byte	0x5
 9672 09a6 00       		.uleb128 0
 9673 09a7 98130000 		.4byte	.LASF411
 9674 09ab 05       		.byte	0x5
 9675 09ac 00       		.uleb128 0
 9676 09ad EA5A0000 		.4byte	.LASF412
 9677 09b1 05       		.byte	0x5
 9678 09b2 00       		.uleb128 0
 9679 09b3 90580000 		.4byte	.LASF413
 9680 09b7 05       		.byte	0x5
 9681 09b8 00       		.uleb128 0
 9682 09b9 ACA10000 		.4byte	.LASF414
 9683 09bd 05       		.byte	0x5
 9684 09be 00       		.uleb128 0
 9685 09bf EE780000 		.4byte	.LASF415
 9686 09c3 05       		.byte	0x5
 9687 09c4 00       		.uleb128 0
 9688 09c5 B64E0000 		.4byte	.LASF416
 9689 09c9 05       		.byte	0x5
 9690 09ca 00       		.uleb128 0
 9691 09cb 2B590000 		.4byte	.LASF417
 9692 09cf 06       		.byte	0x6
ARM GAS  C:\Users\30806\AppData\Local\Temp\ccYcD1nI.s 			page 175


 9693 09d0 00       		.uleb128 0
 9694 09d1 24790000 		.4byte	.LASF418
 9695 09d5 05       		.byte	0x5
 9696 09d6 00       		.uleb128 0
 9697 09d7 104F0000 		.4byte	.LASF419
 9698 09db 06       		.byte	0x6
 9699 09dc 00       		.uleb128 0
 9700 09dd A42B0000 		.4byte	.LASF420
 9701 09e1 06       		.byte	0x6
 9702 09e2 00       		.uleb128 0
 9703 09e3 FB8E0000 		.4byte	.LASF421
 9704 09e7 06       		.byte	0x6
 9705 09e8 00       		.uleb128 0
 9706 09e9 726A0000 		.4byte	.LASF422
 9707 09ed 06       		.byte	0x6
 9708 09ee 00       		.uleb128 0
 9709 09ef 7AA20000 		.4byte	.LASF423
 9710 09f3 05       		.byte	0x5
 9711 09f4 00       		.uleb128 0
 9712 09f5 0B510000 		.4byte	.LASF424
 9713 09f9 06       		.byte	0x6
 9714 09fa 00       		.uleb128 0
 9715 09fb DAB40000 		.4byte	.LASF425
 9716 09ff 06       		.byte	0x6
 9717 0a00 00       		.uleb128 0
 9718 0a01 F7870000 		.4byte	.LASF426
 9719 0a05 06       		.byte	0x6
 9720 0a06 00       		.uleb128 0
 9721 0a07 05870000 		.4byte	.LASF427
 9722 0a0b 05       		.byte	0x5
 9723 0a0c 00       		.uleb128 0
 9724 0a0d 47500000 		.4byte	.LASF428
 9725 0a11 05       		.byte	0x5
 9726 0a12 00       		.uleb128 0
 9727 0a13 37AB0000 		.4byte	.LASF429
 9728 0a17 06       		.byte	0x6
 9729 0a18 00       		.uleb128 0
 9730 0a19 122A0000 		.4byte	.LASF430
 9731 0a1d 05       		.byte	0x5
 9732 0a1e 00       		.uleb128 0
 9733 0a1f 9D8B0000 		.4byte	.LASF431
 9734 0a23 05       		.byte	0x5
 9735 0a24 00       		.uleb128 0
 9736 0a25 AC8E0000 		.4byte	.LASF432
 9737 0a29 05       		.byte	0x5
 9738 0a2a 00       		.uleb128 0
 9739 0a2b 5A920000 		.4byte	.LASF433
 9740 0a2f 06       		.byte	0x6
 9741 0a30 00       		.uleb128 0
 9742 0a31 909B0000 		.4byte	.LASF434
 9743 0a35 05       		.byte	0x5
 9744 0a36 00       		.uleb128 0
 9745 0a37 F0340000 		.4byte	.LASF435
 9746 0a3b 05       		.byte	0x5
 9747 0a3c 00       		.uleb128 0
 9748 0a3d 6D960000 		.4byte	.LASF436
 9749 0a41 06       		.byte	0x6
ARM GAS  C:\Users\30806\AppData\Local\Temp\ccYcD1nI.s 			page 176


 9750 0a42 00       		.uleb128 0
 9751 0a43 D8160000 		.4byte	.LASF437
 9752 0a47 05       		.byte	0x5
 9753 0a48 00       		.uleb128 0
 9754 0a49 43AC0000 		.4byte	.LASF438
 9755 0a4d 05       		.byte	0x5
 9756 0a4e 00       		.uleb128 0
 9757 0a4f 7D000000 		.4byte	.LASF439
 9758 0a53 05       		.byte	0x5
 9759 0a54 00       		.uleb128 0
 9760 0a55 833A0000 		.4byte	.LASF440
 9761 0a59 05       		.byte	0x5
 9762 0a5a 00       		.uleb128 0
 9763 0a5b C8210000 		.4byte	.LASF441
 9764 0a5f 05       		.byte	0x5
 9765 0a60 00       		.uleb128 0
 9766 0a61 13620000 		.4byte	.LASF442
 9767 0a65 05       		.byte	0x5
 9768 0a66 00       		.uleb128 0
 9769 0a67 EAB00000 		.4byte	.LASF443
 9770 0a6b 06       		.byte	0x6
 9771 0a6c 00       		.uleb128 0
 9772 0a6d D55A0000 		.4byte	.LASF444
 9773 0a71 05       		.byte	0x5
 9774 0a72 00       		.uleb128 0
 9775 0a73 1DB80000 		.4byte	.LASF445
 9776 0a77 05       		.byte	0x5
 9777 0a78 00       		.uleb128 0
 9778 0a79 02120000 		.4byte	.LASF446
 9779 0a7d 05       		.byte	0x5
 9780 0a7e 00       		.uleb128 0
 9781 0a7f D6900000 		.4byte	.LASF447
 9782 0a83 06       		.byte	0x6
 9783 0a84 00       		.uleb128 0
 9784 0a85 23800000 		.4byte	.LASF448
 9785 0a89 05       		.byte	0x5
 9786 0a8a 00       		.uleb128 0
 9787 0a8b 59710000 		.4byte	.LASF449
 9788 0a8f 06       		.byte	0x6
 9789 0a90 00       		.uleb128 0
 9790 0a91 266E0000 		.4byte	.LASF450
 9791 0a95 06       		.byte	0x6
 9792 0a96 00       		.uleb128 0
 9793 0a97 22280000 		.4byte	.LASF451
 9794 0a9b 06       		.byte	0x6
 9795 0a9c 00       		.uleb128 0
 9796 0a9d FC230000 		.4byte	.LASF452
 9797 0aa1 06       		.byte	0x6
 9798 0aa2 00       		.uleb128 0
 9799 0aa3 34730000 		.4byte	.LASF453
 9800 0aa7 06       		.byte	0x6
 9801 0aa8 00       		.uleb128 0
 9802 0aa9 98930000 		.4byte	.LASF454
 9803 0aad 06       		.byte	0x6
 9804 0aae 00       		.uleb128 0
 9805 0aaf A22D0000 		.4byte	.LASF455
 9806 0ab3 05       		.byte	0x5
ARM GAS  C:\Users\30806\AppData\Local\Temp\ccYcD1nI.s 			page 177


 9807 0ab4 00       		.uleb128 0
 9808 0ab5 67AB0000 		.4byte	.LASF456
 9809 0ab9 06       		.byte	0x6
 9810 0aba 00       		.uleb128 0
 9811 0abb 049A0000 		.4byte	.LASF457
 9812 0abf 06       		.byte	0x6
 9813 0ac0 00       		.uleb128 0
 9814 0ac1 E63C0000 		.4byte	.LASF458
 9815 0ac5 06       		.byte	0x6
 9816 0ac6 00       		.uleb128 0
 9817 0ac7 97AB0000 		.4byte	.LASF459
 9818 0acb 05       		.byte	0x5
 9819 0acc 00       		.uleb128 0
 9820 0acd DA520000 		.4byte	.LASF460
 9821 0ad1 05       		.byte	0x5
 9822 0ad2 00       		.uleb128 0
 9823 0ad3 B1AE0000 		.4byte	.LASF461
 9824 0ad7 05       		.byte	0x5
 9825 0ad8 00       		.uleb128 0
 9826 0ad9 17040000 		.4byte	.LASF462
 9827 0add 05       		.byte	0x5
 9828 0ade 00       		.uleb128 0
 9829 0adf 161C0000 		.4byte	.LASF463
 9830 0ae3 06       		.byte	0x6
 9831 0ae4 00       		.uleb128 0
 9832 0ae5 CBAB0000 		.4byte	.LASF464
 9833 0ae9 05       		.byte	0x5
 9834 0aea 00       		.uleb128 0
 9835 0aeb 755D0000 		.4byte	.LASF465
 9836 0aef 05       		.byte	0x5
 9837 0af0 00       		.uleb128 0
 9838 0af1 0D080000 		.4byte	.LASF466
 9839 0af5 05       		.byte	0x5
 9840 0af6 00       		.uleb128 0
 9841 0af7 E3900000 		.4byte	.LASF467
 9842 0afb 06       		.byte	0x6
 9843 0afc 00       		.uleb128 0
 9844 0afd 3F590000 		.4byte	.LASF468
 9845 0b01 05       		.byte	0x5
 9846 0b02 00       		.uleb128 0
 9847 0b03 A0350000 		.4byte	.LASF469
 9848 0b07 06       		.byte	0x6
 9849 0b08 00       		.uleb128 0
 9850 0b09 58860000 		.4byte	.LASF470
 9851 0b0d 06       		.byte	0x6
 9852 0b0e 00       		.uleb128 0
 9853 0b0f 74B50000 		.4byte	.LASF471
 9854 0b13 06       		.byte	0x6
 9855 0b14 00       		.uleb128 0
 9856 0b15 C1010000 		.4byte	.LASF472
 9857 0b19 06       		.byte	0x6
 9858 0b1a 00       		.uleb128 0
 9859 0b1b 9D720000 		.4byte	.LASF473
 9860 0b1f 06       		.byte	0x6
 9861 0b20 00       		.uleb128 0
 9862 0b21 C98C0000 		.4byte	.LASF474
 9863 0b25 06       		.byte	0x6
ARM GAS  C:\Users\30806\AppData\Local\Temp\ccYcD1nI.s 			page 178


 9864 0b26 00       		.uleb128 0
 9865 0b27 D5560000 		.4byte	.LASF475
 9866 0b2b 05       		.byte	0x5
 9867 0b2c 00       		.uleb128 0
 9868 0b2d 6B410000 		.4byte	.LASF476
 9869 0b31 05       		.byte	0x5
 9870 0b32 00       		.uleb128 0
 9871 0b33 6A8F0000 		.4byte	.LASF477
 9872 0b37 05       		.byte	0x5
 9873 0b38 00       		.uleb128 0
 9874 0b39 EE6E0000 		.4byte	.LASF478
 9875 0b3d 05       		.byte	0x5
 9876 0b3e 00       		.uleb128 0
 9877 0b3f B18F0000 		.4byte	.LASF479
 9878 0b43 05       		.byte	0x5
 9879 0b44 00       		.uleb128 0
 9880 0b45 1D780000 		.4byte	.LASF480
 9881 0b49 00       		.byte	0
 9882              		.section	.debug_macro,"G",%progbits,wm4.stdint.h.4.659be5aa44c4ab4eb7c7cc2b24d8ceee,comdat
 9883              	.Ldebug_macro3:
 9884 0000 0400     		.2byte	0x4
 9885 0002 00       		.byte	0
 9886 0003 06       		.byte	0x6
 9887 0004 04       		.uleb128 0x4
 9888 0005 D6B00000 		.4byte	.LASF482
 9889 0009 05       		.byte	0x5
 9890 000a 05       		.uleb128 0x5
 9891 000b 4C980000 		.4byte	.LASF483
 9892 000f 06       		.byte	0x6
 9893 0010 06       		.uleb128 0x6
 9894 0011 89960000 		.4byte	.LASF484
 9895 0015 05       		.byte	0x5
 9896 0016 07       		.uleb128 0x7
 9897 0017 67670000 		.4byte	.LASF485
 9898 001b 00       		.byte	0
 9899              		.section	.debug_macro,"G",%progbits,wm4._newlib_version.h.4.bfdf54b0af045d4a71376ae00f63a22c,comda
 9900              	.Ldebug_macro4:
 9901 0000 0400     		.2byte	0x4
 9902 0002 00       		.byte	0
 9903 0003 05       		.byte	0x5
 9904 0004 04       		.uleb128 0x4
 9905 0005 AC500000 		.4byte	.LASF489
 9906 0009 05       		.byte	0x5
 9907 000a 06       		.uleb128 0x6
 9908 000b 99660000 		.4byte	.LASF490
 9909 000f 05       		.byte	0x5
 9910 0010 07       		.uleb128 0x7
 9911 0011 48530000 		.4byte	.LASF491
 9912 0015 05       		.byte	0x5
 9913 0016 08       		.uleb128 0x8
 9914 0017 61310000 		.4byte	.LASF492
 9915 001b 05       		.byte	0x5
 9916 001c 09       		.uleb128 0x9
 9917 001d 34990000 		.4byte	.LASF493
 9918 0021 00       		.byte	0
 9919              		.section	.debug_macro,"G",%progbits,wm4.features.h.33.318b64d71e0957639cfb30f1db1f7ec8,comdat
 9920              	.Ldebug_macro5:
ARM GAS  C:\Users\30806\AppData\Local\Temp\ccYcD1nI.s 			page 179


 9921 0000 0400     		.2byte	0x4
 9922 0002 00       		.byte	0
 9923 0003 05       		.byte	0x5
 9924 0004 21       		.uleb128 0x21
 9925 0005 D37C0000 		.4byte	.LASF494
 9926 0009 05       		.byte	0x5
 9927 000a 28       		.uleb128 0x28
 9928 000b E9980000 		.4byte	.LASF495
 9929 000f 06       		.byte	0x6
 9930 0010 8301     		.uleb128 0x83
 9931 0012 5E2F0000 		.4byte	.LASF496
 9932 0016 05       		.byte	0x5
 9933 0017 8401     		.uleb128 0x84
 9934 0019 3B320000 		.4byte	.LASF497
 9935 001d 06       		.byte	0x6
 9936 001e 8801     		.uleb128 0x88
 9937 0020 93270000 		.4byte	.LASF498
 9938 0024 05       		.byte	0x5
 9939 0025 8901     		.uleb128 0x89
 9940 0027 D4A50000 		.4byte	.LASF499
 9941 002b 06       		.byte	0x6
 9942 002c 8A01     		.uleb128 0x8a
 9943 002e 10810000 		.4byte	.LASF500
 9944 0032 05       		.byte	0x5
 9945 0033 8B01     		.uleb128 0x8b
 9946 0035 1D840000 		.4byte	.LASF501
 9947 0039 06       		.byte	0x6
 9948 003a 9E01     		.uleb128 0x9e
 9949 003c 00A30000 		.4byte	.LASF502
 9950 0040 05       		.byte	0x5
 9951 0041 9F01     		.uleb128 0x9f
 9952 0043 B6980000 		.4byte	.LASF503
 9953 0047 05       		.byte	0x5
 9954 0048 F701     		.uleb128 0xf7
 9955 004a 52760000 		.4byte	.LASF504
 9956 004e 05       		.byte	0x5
 9957 004f FD01     		.uleb128 0xfd
 9958 0051 A5860000 		.4byte	.LASF505
 9959 0055 05       		.byte	0x5
 9960 0056 8502     		.uleb128 0x105
 9961 0058 88930000 		.4byte	.LASF506
 9962 005c 05       		.byte	0x5
 9963 005d 8A02     		.uleb128 0x10a
 9964 005f 5E1A0000 		.4byte	.LASF507
 9965 0063 05       		.byte	0x5
 9966 0064 9502     		.uleb128 0x115
 9967 0066 DC730000 		.4byte	.LASF508
 9968 006a 05       		.byte	0x5
 9969 006b 9902     		.uleb128 0x119
 9970 006d A8020000 		.4byte	.LASF509
 9971 0071 05       		.byte	0x5
 9972 0072 9F02     		.uleb128 0x11f
 9973 0074 1B530000 		.4byte	.LASF510
 9974 0078 05       		.byte	0x5
 9975 0079 AF02     		.uleb128 0x12f
 9976 007b D8420000 		.4byte	.LASF511
 9977 007f 05       		.byte	0x5
ARM GAS  C:\Users\30806\AppData\Local\Temp\ccYcD1nI.s 			page 180


 9978 0080 BF02     		.uleb128 0x13f
 9979 0082 4C7C0000 		.4byte	.LASF512
 9980 0086 05       		.byte	0x5
 9981 0087 CA02     		.uleb128 0x14a
 9982 0089 F5950000 		.4byte	.LASF513
 9983 008d 00       		.byte	0
 9984              		.section	.debug_macro,"G",%progbits,wm4._default_types.h.15.247e5cd201eca3442cbf5404108c4935,comda
 9985              	.Ldebug_macro6:
 9986 0000 0400     		.2byte	0x4
 9987 0002 00       		.byte	0
 9988 0003 05       		.byte	0x5
 9989 0004 0F       		.uleb128 0xf
 9990 0005 0A1F0000 		.4byte	.LASF514
 9991 0009 05       		.byte	0x5
 9992 000a 1A       		.uleb128 0x1a
 9993 000b 99040000 		.4byte	.LASF515
 9994 000f 05       		.byte	0x5
 9995 0010 21       		.uleb128 0x21
 9996 0011 B89D0000 		.4byte	.LASF516
 9997 0015 05       		.byte	0x5
 9998 0016 2F       		.uleb128 0x2f
 9999 0017 12860000 		.4byte	.LASF517
 10000 001b 05       		.byte	0x5
 10001 001c 3D       		.uleb128 0x3d
 10002 001d E20C0000 		.4byte	.LASF518
 10003 0021 05       		.byte	0x5
 10004 0022 53       		.uleb128 0x53
 10005 0023 21A20000 		.4byte	.LASF519
 10006 0027 05       		.byte	0x5
 10007 0028 6D       		.uleb128 0x6d
 10008 0029 563D0000 		.4byte	.LASF520
 10009 002d 05       		.byte	0x5
 10010 002e 8C01     		.uleb128 0x8c
 10011 0030 E6320000 		.4byte	.LASF521
 10012 0034 05       		.byte	0x5
 10013 0035 A601     		.uleb128 0xa6
 10014 0037 7E5C0000 		.4byte	.LASF522
 10015 003b 05       		.byte	0x5
 10016 003c BC01     		.uleb128 0xbc
 10017 003e 8D7D0000 		.4byte	.LASF523
 10018 0042 05       		.byte	0x5
 10019 0043 CE01     		.uleb128 0xce
 10020 0045 05640000 		.4byte	.LASF524
 10021 0049 06       		.byte	0x6
 10022 004a F401     		.uleb128 0xf4
 10023 004c F5190000 		.4byte	.LASF525
 10024 0050 00       		.byte	0
 10025              		.section	.debug_macro,"G",%progbits,wm4._intsup.h.10.48bafbb683905c4daa4565a85aeeb264,comdat
 10026              	.Ldebug_macro7:
 10027 0000 0400     		.2byte	0x4
 10028 0002 00       		.byte	0
 10029 0003 05       		.byte	0x5
 10030 0004 0A       		.uleb128 0xa
 10031 0005 96B30000 		.4byte	.LASF526
 10032 0009 05       		.byte	0x5
 10033 000a 10       		.uleb128 0x10
 10034 000b 0F8F0000 		.4byte	.LASF527
ARM GAS  C:\Users\30806\AppData\Local\Temp\ccYcD1nI.s 			page 181


 10035 000f 06       		.byte	0x6
 10036 0010 2B       		.uleb128 0x2b
 10037 0011 84260000 		.4byte	.LASF528
 10038 0015 06       		.byte	0x6
 10039 0016 2C       		.uleb128 0x2c
 10040 0017 AC730000 		.4byte	.LASF529
 10041 001b 06       		.byte	0x6
 10042 001c 2D       		.uleb128 0x2d
 10043 001d 82820000 		.4byte	.LASF530
 10044 0021 06       		.byte	0x6
 10045 0022 2E       		.uleb128 0x2e
 10046 0023 15130000 		.4byte	.LASF531
 10047 0027 02       		.byte	0x2
 10048 0028 2F       		.uleb128 0x2f
 10049 0029 696E7400 		.ascii	"int\000"
 10050 002d 06       		.byte	0x6
 10051 002e 30       		.uleb128 0x30
 10052 002f 237E0000 		.4byte	.LASF532
 10053 0033 06       		.byte	0x6
 10054 0034 31       		.uleb128 0x31
 10055 0035 35120000 		.4byte	.LASF533
 10056 0039 06       		.byte	0x6
 10057 003a 32       		.uleb128 0x32
 10058 003b C5AA0000 		.4byte	.LASF534
 10059 003f 05       		.byte	0x5
 10060 0040 33       		.uleb128 0x33
 10061 0041 F2480000 		.4byte	.LASF535
 10062 0045 05       		.byte	0x5
 10063 0046 34       		.uleb128 0x34
 10064 0047 0D0C0000 		.4byte	.LASF536
 10065 004b 05       		.byte	0x5
 10066 004c 35       		.uleb128 0x35
 10067 004d 5EA20000 		.4byte	.LASF537
 10068 0051 05       		.byte	0x5
 10069 0052 36       		.uleb128 0x36
 10070 0053 41640000 		.4byte	.LASF538
 10071 0057 05       		.byte	0x5
 10072 0058 37       		.uleb128 0x37
 10073 0059 11250000 		.4byte	.LASF539
 10074 005d 05       		.byte	0x5
 10075 005e 38       		.uleb128 0x38
 10076 005f A16C0000 		.4byte	.LASF540
 10077 0063 05       		.byte	0x5
 10078 0064 39       		.uleb128 0x39
 10079 0065 77440000 		.4byte	.LASF541
 10080 0069 05       		.byte	0x5
 10081 006a 3A       		.uleb128 0x3a
 10082 006b 20910000 		.4byte	.LASF542
 10083 006f 05       		.byte	0x5
 10084 0070 43       		.uleb128 0x43
 10085 0071 E7370000 		.4byte	.LASF543
 10086 0075 05       		.byte	0x5
 10087 0076 4A       		.uleb128 0x4a
 10088 0077 72870000 		.4byte	.LASF544
 10089 007b 05       		.byte	0x5
 10090 007c 52       		.uleb128 0x52
 10091 007d 18440000 		.4byte	.LASF545
ARM GAS  C:\Users\30806\AppData\Local\Temp\ccYcD1nI.s 			page 182


 10092 0081 05       		.byte	0x5
 10093 0082 5D       		.uleb128 0x5d
 10094 0083 EF8E0000 		.4byte	.LASF546
 10095 0087 05       		.byte	0x5
 10096 0088 68       		.uleb128 0x68
 10097 0089 59B50000 		.4byte	.LASF547
 10098 008d 05       		.byte	0x5
 10099 008e 71       		.uleb128 0x71
 10100 008f 37090000 		.4byte	.LASF548
 10101 0093 05       		.byte	0x5
 10102 0094 78       		.uleb128 0x78
 10103 0095 C52C0000 		.4byte	.LASF549
 10104 0099 05       		.byte	0x5
 10105 009a 8101     		.uleb128 0x81
 10106 009c AAA40000 		.4byte	.LASF550
 10107 00a0 05       		.byte	0x5
 10108 00a1 8801     		.uleb128 0x88
 10109 00a3 58580000 		.4byte	.LASF551
 10110 00a7 05       		.byte	0x5
 10111 00a8 9301     		.uleb128 0x93
 10112 00aa 3E860000 		.4byte	.LASF552
 10113 00ae 05       		.byte	0x5
 10114 00af 9701     		.uleb128 0x97
 10115 00b1 8E790000 		.4byte	.LASF553
 10116 00b5 05       		.byte	0x5
 10117 00b6 A201     		.uleb128 0xa2
 10118 00b8 E4020000 		.4byte	.LASF554
 10119 00bc 05       		.byte	0x5
 10120 00bd AD01     		.uleb128 0xad
 10121 00bf 792A0000 		.4byte	.LASF555
 10122 00c3 05       		.byte	0x5
 10123 00c4 B601     		.uleb128 0xb6
 10124 00c6 7BAB0000 		.4byte	.LASF556
 10125 00ca 06       		.byte	0x6
 10126 00cb B801     		.uleb128 0xb8
 10127 00cd 84260000 		.4byte	.LASF528
 10128 00d1 06       		.byte	0x6
 10129 00d2 B901     		.uleb128 0xb9
 10130 00d4 AC730000 		.4byte	.LASF529
 10131 00d8 06       		.byte	0x6
 10132 00d9 BA01     		.uleb128 0xba
 10133 00db 82820000 		.4byte	.LASF530
 10134 00df 06       		.byte	0x6
 10135 00e0 BB01     		.uleb128 0xbb
 10136 00e2 15130000 		.4byte	.LASF531
 10137 00e6 02       		.byte	0x2
 10138 00e7 BC01     		.uleb128 0xbc
 10139 00e9 696E7400 		.ascii	"int\000"
 10140 00ed 06       		.byte	0x6
 10141 00ee BD01     		.uleb128 0xbd
 10142 00f0 C5AA0000 		.4byte	.LASF534
 10143 00f4 06       		.byte	0x6
 10144 00f5 C201     		.uleb128 0xc2
 10145 00f7 237E0000 		.4byte	.LASF532
 10146 00fb 06       		.byte	0x6
 10147 00fc C301     		.uleb128 0xc3
 10148 00fe 35120000 		.4byte	.LASF533
ARM GAS  C:\Users\30806\AppData\Local\Temp\ccYcD1nI.s 			page 183


 10149 0102 00       		.byte	0
 10150              		.section	.debug_macro,"G",%progbits,wm4._stdint.h.10.c24fa3af3bc1706662bb5593a907e841,comdat
 10151              	.Ldebug_macro8:
 10152 0000 0400     		.2byte	0x4
 10153 0002 00       		.byte	0
 10154 0003 05       		.byte	0x5
 10155 0004 0A       		.uleb128 0xa
 10156 0005 888F0000 		.4byte	.LASF557
 10157 0009 05       		.byte	0x5
 10158 000a 15       		.uleb128 0x15
 10159 000b BDB20000 		.4byte	.LASF558
 10160 000f 05       		.byte	0x5
 10161 0010 19       		.uleb128 0x19
 10162 0011 BA260000 		.4byte	.LASF559
 10163 0015 05       		.byte	0x5
 10164 0016 1B       		.uleb128 0x1b
 10165 0017 94390000 		.4byte	.LASF560
 10166 001b 05       		.byte	0x5
 10167 001c 21       		.uleb128 0x21
 10168 001d 59900000 		.4byte	.LASF561
 10169 0021 05       		.byte	0x5
 10170 0022 25       		.uleb128 0x25
 10171 0023 58350000 		.4byte	.LASF562
 10172 0027 05       		.byte	0x5
 10173 0028 27       		.uleb128 0x27
 10174 0029 66090000 		.4byte	.LASF563
 10175 002d 05       		.byte	0x5
 10176 002e 2D       		.uleb128 0x2d
 10177 002f A63A0000 		.4byte	.LASF564
 10178 0033 05       		.byte	0x5
 10179 0034 31       		.uleb128 0x31
 10180 0035 66A20000 		.4byte	.LASF565
 10181 0039 05       		.byte	0x5
 10182 003a 33       		.uleb128 0x33
 10183 003b 58B60000 		.4byte	.LASF566
 10184 003f 05       		.byte	0x5
 10185 0040 39       		.uleb128 0x39
 10186 0041 D3960000 		.4byte	.LASF567
 10187 0045 05       		.byte	0x5
 10188 0046 3D       		.uleb128 0x3d
 10189 0047 9F3D0000 		.4byte	.LASF568
 10190 004b 05       		.byte	0x5
 10191 004c 3F       		.uleb128 0x3f
 10192 004d 5C550000 		.4byte	.LASF569
 10193 0051 05       		.byte	0x5
 10194 0052 44       		.uleb128 0x44
 10195 0053 C8040000 		.4byte	.LASF570
 10196 0057 05       		.byte	0x5
 10197 0058 49       		.uleb128 0x49
 10198 0059 B1900000 		.4byte	.LASF571
 10199 005d 05       		.byte	0x5
 10200 005e 4E       		.uleb128 0x4e
 10201 005f 2E870000 		.4byte	.LASF572
 10202 0063 05       		.byte	0x5
 10203 0064 53       		.uleb128 0x53
 10204 0065 7C550000 		.4byte	.LASF573
 10205 0069 00       		.byte	0
ARM GAS  C:\Users\30806\AppData\Local\Temp\ccYcD1nI.s 			page 184


 10206              		.section	.debug_macro,"G",%progbits,wm4.stdint.h.23.d53047a68f4a85177f80b422d52785ed,comdat
 10207              	.Ldebug_macro9:
 10208 0000 0400     		.2byte	0x4
 10209 0002 00       		.byte	0
 10210 0003 05       		.byte	0x5
 10211 0004 17       		.uleb128 0x17
 10212 0005 89640000 		.4byte	.LASF574
 10213 0009 05       		.byte	0x5
 10214 000a 1D       		.uleb128 0x1d
 10215 000b B5860000 		.4byte	.LASF575
 10216 000f 05       		.byte	0x5
 10217 0010 23       		.uleb128 0x23
 10218 0011 6FB90000 		.4byte	.LASF576
 10219 0015 05       		.byte	0x5
 10220 0016 29       		.uleb128 0x29
 10221 0017 6C210000 		.4byte	.LASF577
 10222 001b 05       		.byte	0x5
 10223 001c 35       		.uleb128 0x35
 10224 001d 9C3C0000 		.4byte	.LASF578
 10225 0021 05       		.byte	0x5
 10226 0022 3F       		.uleb128 0x3f
 10227 0023 F83E0000 		.4byte	.LASF579
 10228 0027 05       		.byte	0x5
 10229 0028 49       		.uleb128 0x49
 10230 0029 45620000 		.4byte	.LASF580
 10231 002d 05       		.byte	0x5
 10232 002e 53       		.uleb128 0x53
 10233 002f 8F9A0000 		.4byte	.LASF581
 10234 0033 05       		.byte	0x5
 10235 0034 8001     		.uleb128 0x80
 10236 0036 92990000 		.4byte	.LASF582
 10237 003a 05       		.byte	0x5
 10238 003b 8101     		.uleb128 0x81
 10239 003d 3F840000 		.4byte	.LASF583
 10240 0041 05       		.byte	0x5
 10241 0042 8201     		.uleb128 0x82
 10242 0044 C2500000 		.4byte	.LASF584
 10243 0048 05       		.byte	0x5
 10244 0049 9801     		.uleb128 0x98
 10245 004b 385B0000 		.4byte	.LASF585
 10246 004f 05       		.byte	0x5
 10247 0050 9901     		.uleb128 0x99
 10248 0052 AA850000 		.4byte	.LASF586
 10249 0056 05       		.byte	0x5
 10250 0057 9A01     		.uleb128 0x9a
 10251 0059 E8A10000 		.4byte	.LASF587
 10252 005d 05       		.byte	0x5
 10253 005e A201     		.uleb128 0xa2
 10254 0060 DC860000 		.4byte	.LASF588
 10255 0064 05       		.byte	0x5
 10256 0065 A301     		.uleb128 0xa3
 10257 0067 73510000 		.4byte	.LASF589
 10258 006b 05       		.byte	0x5
 10259 006c A401     		.uleb128 0xa4
 10260 006e 86330000 		.4byte	.LASF590
 10261 0072 05       		.byte	0x5
 10262 0073 AE01     		.uleb128 0xae
ARM GAS  C:\Users\30806\AppData\Local\Temp\ccYcD1nI.s 			page 185


 10263 0075 10270000 		.4byte	.LASF591
 10264 0079 05       		.byte	0x5
 10265 007a AF01     		.uleb128 0xaf
 10266 007c EB570000 		.4byte	.LASF592
 10267 0080 05       		.byte	0x5
 10268 0081 B001     		.uleb128 0xb0
 10269 0083 B2B70000 		.4byte	.LASF593
 10270 0087 05       		.byte	0x5
 10271 0088 B801     		.uleb128 0xb8
 10272 008a 39290000 		.4byte	.LASF594
 10273 008e 05       		.byte	0x5
 10274 008f B901     		.uleb128 0xb9
 10275 0091 D5AB0000 		.4byte	.LASF595
 10276 0095 05       		.byte	0x5
 10277 0096 BA01     		.uleb128 0xba
 10278 0098 61850000 		.4byte	.LASF596
 10279 009c 05       		.byte	0x5
 10280 009d C401     		.uleb128 0xc4
 10281 009f 4C470000 		.4byte	.LASF597
 10282 00a3 05       		.byte	0x5
 10283 00a4 C501     		.uleb128 0xc5
 10284 00a6 DBB90000 		.4byte	.LASF598
 10285 00aa 05       		.byte	0x5
 10286 00ab C601     		.uleb128 0xc6
 10287 00ad 98890000 		.4byte	.LASF599
 10288 00b1 05       		.byte	0x5
 10289 00b2 D401     		.uleb128 0xd4
 10290 00b4 7A8D0000 		.4byte	.LASF600
 10291 00b8 05       		.byte	0x5
 10292 00b9 D501     		.uleb128 0xd5
 10293 00bb A90F0000 		.4byte	.LASF601
 10294 00bf 05       		.byte	0x5
 10295 00c0 D601     		.uleb128 0xd6
 10296 00c2 3F170000 		.4byte	.LASF602
 10297 00c6 05       		.byte	0x5
 10298 00c7 E601     		.uleb128 0xe6
 10299 00c9 68160000 		.4byte	.LASF603
 10300 00cd 05       		.byte	0x5
 10301 00ce E701     		.uleb128 0xe7
 10302 00d0 63200000 		.4byte	.LASF604
 10303 00d4 05       		.byte	0x5
 10304 00d5 E801     		.uleb128 0xe8
 10305 00d7 B95A0000 		.4byte	.LASF605
 10306 00db 05       		.byte	0x5
 10307 00dc F601     		.uleb128 0xf6
 10308 00de B4A40000 		.4byte	.LASF606
 10309 00e2 05       		.byte	0x5
 10310 00e3 F701     		.uleb128 0xf7
 10311 00e5 40250000 		.4byte	.LASF607
 10312 00e9 05       		.byte	0x5
 10313 00ea F801     		.uleb128 0xf8
 10314 00ec 3F880000 		.4byte	.LASF608
 10315 00f0 05       		.byte	0x5
 10316 00f1 8602     		.uleb128 0x106
 10317 00f3 50A10000 		.4byte	.LASF609
 10318 00f7 05       		.byte	0x5
 10319 00f8 8702     		.uleb128 0x107
ARM GAS  C:\Users\30806\AppData\Local\Temp\ccYcD1nI.s 			page 186


 10320 00fa E63A0000 		.4byte	.LASF610
 10321 00fe 05       		.byte	0x5
 10322 00ff 8802     		.uleb128 0x108
 10323 0101 E4A50000 		.4byte	.LASF611
 10324 0105 05       		.byte	0x5
 10325 0106 9602     		.uleb128 0x116
 10326 0108 C25D0000 		.4byte	.LASF612
 10327 010c 05       		.byte	0x5
 10328 010d 9702     		.uleb128 0x117
 10329 010f 75230000 		.4byte	.LASF613
 10330 0113 05       		.byte	0x5
 10331 0114 9802     		.uleb128 0x118
 10332 0116 FF7A0000 		.4byte	.LASF614
 10333 011a 05       		.byte	0x5
 10334 011b A602     		.uleb128 0x126
 10335 011d 490F0000 		.4byte	.LASF615
 10336 0121 05       		.byte	0x5
 10337 0122 A702     		.uleb128 0x127
 10338 0124 1DAF0000 		.4byte	.LASF616
 10339 0128 05       		.byte	0x5
 10340 0129 A802     		.uleb128 0x128
 10341 012b E8820000 		.4byte	.LASF617
 10342 012f 05       		.byte	0x5
 10343 0130 B602     		.uleb128 0x136
 10344 0132 8C0C0000 		.4byte	.LASF618
 10345 0136 05       		.byte	0x5
 10346 0137 B702     		.uleb128 0x137
 10347 0139 AC7F0000 		.4byte	.LASF619
 10348 013d 05       		.byte	0x5
 10349 013e B802     		.uleb128 0x138
 10350 0140 E6960000 		.4byte	.LASF620
 10351 0144 05       		.byte	0x5
 10352 0145 C602     		.uleb128 0x146
 10353 0147 DC040000 		.4byte	.LASF621
 10354 014b 05       		.byte	0x5
 10355 014c C702     		.uleb128 0x147
 10356 014e 8C0F0000 		.4byte	.LASF622
 10357 0152 05       		.byte	0x5
 10358 0153 CF02     		.uleb128 0x14f
 10359 0155 5C8D0000 		.4byte	.LASF623
 10360 0159 05       		.byte	0x5
 10361 015a D702     		.uleb128 0x157
 10362 015c 7D910000 		.4byte	.LASF624
 10363 0160 05       		.byte	0x5
 10364 0161 DD02     		.uleb128 0x15d
 10365 0163 EE050000 		.4byte	.LASF625
 10366 0167 05       		.byte	0x5
 10367 0168 DE02     		.uleb128 0x15e
 10368 016a 1CA50000 		.4byte	.LASF626
 10369 016e 05       		.byte	0x5
 10370 016f E202     		.uleb128 0x162
 10371 0171 3E8D0000 		.4byte	.LASF627
 10372 0175 05       		.byte	0x5
 10373 0176 E602     		.uleb128 0x166
 10374 0178 51300000 		.4byte	.LASF628
 10375 017c 05       		.byte	0x5
 10376 017d EB02     		.uleb128 0x16b
ARM GAS  C:\Users\30806\AppData\Local\Temp\ccYcD1nI.s 			page 187


 10377 017f 5A4C0000 		.4byte	.LASF629
 10378 0183 05       		.byte	0x5
 10379 0184 F602     		.uleb128 0x176
 10380 0186 7B030000 		.4byte	.LASF630
 10381 018a 05       		.byte	0x5
 10382 018b 8003     		.uleb128 0x180
 10383 018d 15B90000 		.4byte	.LASF631
 10384 0191 05       		.byte	0x5
 10385 0192 8503     		.uleb128 0x185
 10386 0194 0E6E0000 		.4byte	.LASF632
 10387 0198 05       		.byte	0x5
 10388 0199 8C03     		.uleb128 0x18c
 10389 019b 777D0000 		.4byte	.LASF633
 10390 019f 05       		.byte	0x5
 10391 01a0 8D03     		.uleb128 0x18d
 10392 01a2 E8AD0000 		.4byte	.LASF634
 10393 01a6 05       		.byte	0x5
 10394 01a7 9803     		.uleb128 0x198
 10395 01a9 39300000 		.4byte	.LASF635
 10396 01ad 05       		.byte	0x5
 10397 01ae 9903     		.uleb128 0x199
 10398 01b0 74600000 		.4byte	.LASF636
 10399 01b4 05       		.byte	0x5
 10400 01b5 A403     		.uleb128 0x1a4
 10401 01b7 83080000 		.4byte	.LASF637
 10402 01bb 05       		.byte	0x5
 10403 01bc A503     		.uleb128 0x1a5
 10404 01be F65B0000 		.4byte	.LASF638
 10405 01c2 05       		.byte	0x5
 10406 01c3 B103     		.uleb128 0x1b1
 10407 01c5 E2090000 		.4byte	.LASF639
 10408 01c9 05       		.byte	0x5
 10409 01ca B203     		.uleb128 0x1b2
 10410 01cc 8B800000 		.4byte	.LASF640
 10411 01d0 05       		.byte	0x5
 10412 01d1 C103     		.uleb128 0x1c1
 10413 01d3 D8760000 		.4byte	.LASF641
 10414 01d7 05       		.byte	0x5
 10415 01d8 C203     		.uleb128 0x1c2
 10416 01da 68720000 		.4byte	.LASF642
 10417 01de 00       		.byte	0
 10418              		.section	.debug_macro,"G",%progbits,wm4.user_maths.hpp.23.d43ea7adc76b52942b068aa845f78813,comdat
 10419              	.Ldebug_macro10:
 10420 0000 0400     		.2byte	0x4
 10421 0002 00       		.byte	0
 10422 0003 05       		.byte	0x5
 10423 0004 17       		.uleb128 0x17
 10424 0005 B5730000 		.4byte	.LASF644
 10425 0009 05       		.byte	0x5
 10426 000a 1A       		.uleb128 0x1a
 10427 000b 5F280000 		.4byte	.LASF645
 10428 000f 05       		.byte	0x5
 10429 0010 20       		.uleb128 0x20
 10430 0011 06460000 		.4byte	.LASF646
 10431 0015 05       		.byte	0x5
 10432 0016 23       		.uleb128 0x23
 10433 0017 B8440000 		.4byte	.LASF647
ARM GAS  C:\Users\30806\AppData\Local\Temp\ccYcD1nI.s 			page 188


 10434 001b 05       		.byte	0x5
 10435 001c 26       		.uleb128 0x26
 10436 001d CB250000 		.4byte	.LASF648
 10437 0021 00       		.byte	0
 10438              		.section	.debug_macro,"G",%progbits,wm4.stddef.h.39.cdc2cef840622b974aa19abcc0caae93,comdat
 10439              	.Ldebug_macro11:
 10440 0000 0400     		.2byte	0x4
 10441 0002 00       		.byte	0
 10442 0003 05       		.byte	0x5
 10443 0004 27       		.uleb128 0x27
 10444 0005 0D480000 		.4byte	.LASF649
 10445 0009 05       		.byte	0x5
 10446 000a 28       		.uleb128 0x28
 10447 000b AA980000 		.4byte	.LASF650
 10448 000f 05       		.byte	0x5
 10449 0010 2A       		.uleb128 0x2a
 10450 0011 BC6D0000 		.4byte	.LASF651
 10451 0015 05       		.byte	0x5
 10452 0016 8301     		.uleb128 0x83
 10453 0018 9B2E0000 		.4byte	.LASF652
 10454 001c 05       		.byte	0x5
 10455 001d 8401     		.uleb128 0x84
 10456 001f D60D0000 		.4byte	.LASF653
 10457 0023 05       		.byte	0x5
 10458 0024 8501     		.uleb128 0x85
 10459 0026 5F8A0000 		.4byte	.LASF654
 10460 002a 05       		.byte	0x5
 10461 002b 8601     		.uleb128 0x86
 10462 002d B6780000 		.4byte	.LASF655
 10463 0031 05       		.byte	0x5
 10464 0032 8701     		.uleb128 0x87
 10465 0034 2B780000 		.4byte	.LASF656
 10466 0038 05       		.byte	0x5
 10467 0039 8801     		.uleb128 0x88
 10468 003b 4C9B0000 		.4byte	.LASF657
 10469 003f 05       		.byte	0x5
 10470 0040 8901     		.uleb128 0x89
 10471 0042 4E9C0000 		.4byte	.LASF658
 10472 0046 05       		.byte	0x5
 10473 0047 8A01     		.uleb128 0x8a
 10474 0049 1C250000 		.4byte	.LASF659
 10475 004d 05       		.byte	0x5
 10476 004e 8B01     		.uleb128 0x8b
 10477 0050 1E2C0000 		.4byte	.LASF660
 10478 0054 06       		.byte	0x6
 10479 0055 9B01     		.uleb128 0x9b
 10480 0057 0A740000 		.4byte	.LASF661
 10481 005b 05       		.byte	0x5
 10482 005c B501     		.uleb128 0xb5
 10483 005e 38660000 		.4byte	.LASF662
 10484 0062 05       		.byte	0x5
 10485 0063 B601     		.uleb128 0xb6
 10486 0065 31B20000 		.4byte	.LASF663
 10487 0069 05       		.byte	0x5
 10488 006a B701     		.uleb128 0xb7
 10489 006c 48B70000 		.4byte	.LASF664
 10490 0070 05       		.byte	0x5
ARM GAS  C:\Users\30806\AppData\Local\Temp\ccYcD1nI.s 			page 189


 10491 0071 B801     		.uleb128 0xb8
 10492 0073 60B90000 		.4byte	.LASF665
 10493 0077 05       		.byte	0x5
 10494 0078 B901     		.uleb128 0xb9
 10495 007a 271A0000 		.4byte	.LASF666
 10496 007e 05       		.byte	0x5
 10497 007f BA01     		.uleb128 0xba
 10498 0081 067E0000 		.4byte	.LASF667
 10499 0085 05       		.byte	0x5
 10500 0086 BB01     		.uleb128 0xbb
 10501 0088 6B2C0000 		.4byte	.LASF668
 10502 008c 05       		.byte	0x5
 10503 008d BC01     		.uleb128 0xbc
 10504 008f C7450000 		.4byte	.LASF669
 10505 0093 05       		.byte	0x5
 10506 0094 BD01     		.uleb128 0xbd
 10507 0096 B06A0000 		.4byte	.LASF670
 10508 009a 05       		.byte	0x5
 10509 009b BE01     		.uleb128 0xbe
 10510 009d DC780000 		.4byte	.LASF671
 10511 00a1 05       		.byte	0x5
 10512 00a2 BF01     		.uleb128 0xbf
 10513 00a4 89850000 		.4byte	.LASF672
 10514 00a8 05       		.byte	0x5
 10515 00a9 C001     		.uleb128 0xc0
 10516 00ab 8A120000 		.4byte	.LASF673
 10517 00af 05       		.byte	0x5
 10518 00b0 C101     		.uleb128 0xc1
 10519 00b2 5A210000 		.4byte	.LASF674
 10520 00b6 05       		.byte	0x5
 10521 00b7 C201     		.uleb128 0xc2
 10522 00b9 63400000 		.4byte	.LASF675
 10523 00bd 05       		.byte	0x5
 10524 00be C301     		.uleb128 0xc3
 10525 00c0 311D0000 		.4byte	.LASF676
 10526 00c4 05       		.byte	0x5
 10527 00c5 C401     		.uleb128 0xc4
 10528 00c7 03980000 		.4byte	.LASF677
 10529 00cb 05       		.byte	0x5
 10530 00cc CB01     		.uleb128 0xcb
 10531 00ce A1270000 		.4byte	.LASF678
 10532 00d2 06       		.byte	0x6
 10533 00d3 E701     		.uleb128 0xe7
 10534 00d5 63460000 		.4byte	.LASF679
 10535 00d9 05       		.byte	0x5
 10536 00da 8402     		.uleb128 0x104
 10537 00dc C7550000 		.4byte	.LASF680
 10538 00e0 05       		.byte	0x5
 10539 00e1 8502     		.uleb128 0x105
 10540 00e3 FA090000 		.4byte	.LASF681
 10541 00e7 05       		.byte	0x5
 10542 00e8 8602     		.uleb128 0x106
 10543 00ea 51230000 		.4byte	.LASF682
 10544 00ee 05       		.byte	0x5
 10545 00ef 8702     		.uleb128 0x107
 10546 00f1 74800000 		.4byte	.LASF683
 10547 00f5 05       		.byte	0x5
ARM GAS  C:\Users\30806\AppData\Local\Temp\ccYcD1nI.s 			page 190


 10548 00f6 8802     		.uleb128 0x108
 10549 00f8 175A0000 		.4byte	.LASF684
 10550 00fc 05       		.byte	0x5
 10551 00fd 8902     		.uleb128 0x109
 10552 00ff 5D9B0000 		.4byte	.LASF685
 10553 0103 05       		.byte	0x5
 10554 0104 8A02     		.uleb128 0x10a
 10555 0106 555B0000 		.4byte	.LASF686
 10556 010a 05       		.byte	0x5
 10557 010b 8B02     		.uleb128 0x10b
 10558 010d 79930000 		.4byte	.LASF687
 10559 0111 05       		.byte	0x5
 10560 0112 8C02     		.uleb128 0x10c
 10561 0114 4D320000 		.4byte	.LASF688
 10562 0118 05       		.byte	0x5
 10563 0119 8D02     		.uleb128 0x10d
 10564 011b BA760000 		.4byte	.LASF689
 10565 011f 05       		.byte	0x5
 10566 0120 8E02     		.uleb128 0x10e
 10567 0122 B1660000 		.4byte	.LASF690
 10568 0126 05       		.byte	0x5
 10569 0127 8F02     		.uleb128 0x10f
 10570 0129 F9140000 		.4byte	.LASF691
 10571 012d 05       		.byte	0x5
 10572 012e 9002     		.uleb128 0x110
 10573 0130 FF260000 		.4byte	.LASF692
 10574 0134 05       		.byte	0x5
 10575 0135 9102     		.uleb128 0x111
 10576 0137 BE430000 		.4byte	.LASF693
 10577 013b 05       		.byte	0x5
 10578 013c 9202     		.uleb128 0x112
 10579 013e 5E560000 		.4byte	.LASF694
 10580 0142 06       		.byte	0x6
 10581 0143 9F02     		.uleb128 0x11f
 10582 0145 6C450000 		.4byte	.LASF695
 10583 0149 06       		.byte	0x6
 10584 014a D402     		.uleb128 0x154
 10585 014c 168A0000 		.4byte	.LASF696
 10586 0150 06       		.byte	0x6
 10587 0151 8603     		.uleb128 0x186
 10588 0153 60420000 		.4byte	.LASF697
 10589 0157 05       		.byte	0x5
 10590 0158 8803     		.uleb128 0x188
 10591 015a CD340000 		.4byte	.LASF698
 10592 015e 06       		.byte	0x6
 10593 015f 9103     		.uleb128 0x191
 10594 0161 1A610000 		.4byte	.LASF699
 10595 0165 05       		.byte	0x5
 10596 0166 9603     		.uleb128 0x196
 10597 0168 26610000 		.4byte	.LASF700
 10598 016c 05       		.byte	0x5
 10599 016d 9B03     		.uleb128 0x19b
 10600 016f A3B10000 		.4byte	.LASF701
 10601 0173 05       		.byte	0x5
 10602 0174 B003     		.uleb128 0x1b0
 10603 0176 385E0000 		.4byte	.LASF702
 10604 017a 00       		.byte	0
ARM GAS  C:\Users\30806\AppData\Local\Temp\ccYcD1nI.s 			page 191


 10605              		.section	.debug_macro,"G",%progbits,wm4.cmsis_gcc.h.26.498d0ad17a45fc9ef20fdc01caf02259,comdat
 10606              	.Ldebug_macro12:
 10607 0000 0400     		.2byte	0x4
 10608 0002 00       		.byte	0
 10609 0003 05       		.byte	0x5
 10610 0004 1A       		.uleb128 0x1a
 10611 0005 F4330000 		.4byte	.LASF705
 10612 0009 05       		.byte	0x5
 10613 000a 29       		.uleb128 0x29
 10614 000b 6F3E0000 		.4byte	.LASF706
 10615 000f 05       		.byte	0x5
 10616 0010 2C       		.uleb128 0x2c
 10617 0011 D1050000 		.4byte	.LASF707
 10618 0015 05       		.byte	0x5
 10619 0016 2F       		.uleb128 0x2f
 10620 0017 18B40000 		.4byte	.LASF708
 10621 001b 05       		.byte	0x5
 10622 001c 32       		.uleb128 0x32
 10623 001d 84A80000 		.4byte	.LASF709
 10624 0021 05       		.byte	0x5
 10625 0022 35       		.uleb128 0x35
 10626 0023 4BB30000 		.4byte	.LASF710
 10627 0027 05       		.byte	0x5
 10628 0028 38       		.uleb128 0x38
 10629 0029 50830000 		.4byte	.LASF711
 10630 002d 05       		.byte	0x5
 10631 002e 3B       		.uleb128 0x3b
 10632 002f F9890000 		.4byte	.LASF712
 10633 0033 05       		.byte	0x5
 10634 0034 3E       		.uleb128 0x3e
 10635 0035 09160000 		.4byte	.LASF713
 10636 0039 05       		.byte	0x5
 10637 003a 41       		.uleb128 0x41
 10638 003b 7A090000 		.4byte	.LASF714
 10639 003f 05       		.byte	0x5
 10640 0040 44       		.uleb128 0x44
 10641 0041 2C030000 		.4byte	.LASF715
 10642 0045 05       		.byte	0x5
 10643 0046 4C       		.uleb128 0x4c
 10644 0047 909C0000 		.4byte	.LASF716
 10645 004b 05       		.byte	0x5
 10646 004c 54       		.uleb128 0x54
 10647 004d EA940000 		.4byte	.LASF717
 10648 0051 05       		.byte	0x5
 10649 0052 5C       		.uleb128 0x5c
 10650 0053 DE9B0000 		.4byte	.LASF718
 10651 0057 05       		.byte	0x5
 10652 0058 64       		.uleb128 0x64
 10653 0059 215A0000 		.4byte	.LASF719
 10654 005d 05       		.byte	0x5
 10655 005e 6C       		.uleb128 0x6c
 10656 005f A4880000 		.4byte	.LASF720
 10657 0063 05       		.byte	0x5
 10658 0064 6F       		.uleb128 0x6f
 10659 0065 FF0C0000 		.4byte	.LASF721
 10660 0069 05       		.byte	0x5
 10661 006a 72       		.uleb128 0x72
ARM GAS  C:\Users\30806\AppData\Local\Temp\ccYcD1nI.s 			page 192


 10662 006b 60910000 		.4byte	.LASF722
 10663 006f 05       		.byte	0x5
 10664 0070 75       		.uleb128 0x75
 10665 0071 E2280000 		.4byte	.LASF723
 10666 0075 05       		.byte	0x5
 10667 0076 A601     		.uleb128 0xa6
 10668 0078 A8050000 		.4byte	.LASF724
 10669 007c 05       		.byte	0x5
 10670 007d AA01     		.uleb128 0xaa
 10671 007f 21630000 		.4byte	.LASF725
 10672 0083 05       		.byte	0x5
 10673 0084 AE01     		.uleb128 0xae
 10674 0086 AFA50000 		.4byte	.LASF726
 10675 008a 05       		.byte	0x5
 10676 008b B201     		.uleb128 0xb2
 10677 008d 1DAE0000 		.4byte	.LASF727
 10678 0091 05       		.byte	0x5
 10679 0092 B601     		.uleb128 0xb6
 10680 0094 E38A0000 		.4byte	.LASF728
 10681 0098 05       		.byte	0x5
 10682 0099 DB01     		.uleb128 0xdb
 10683 009b 5C5F0000 		.4byte	.LASF729
 10684 009f 05       		.byte	0x5
 10685 00a0 DC01     		.uleb128 0xdc
 10686 00a2 11490000 		.4byte	.LASF730
 10687 00a6 05       		.byte	0x5
 10688 00a7 DD01     		.uleb128 0xdd
 10689 00a9 00000000 		.4byte	.LASF731
 10690 00ad 05       		.byte	0x5
 10691 00ae E401     		.uleb128 0xe4
 10692 00b0 19AD0000 		.4byte	.LASF732
 10693 00b4 05       		.byte	0x5
 10694 00b5 EA01     		.uleb128 0xea
 10695 00b7 70300000 		.4byte	.LASF733
 10696 00bb 05       		.byte	0x5
 10697 00bc F201     		.uleb128 0xf2
 10698 00be B2460000 		.4byte	.LASF734
 10699 00c2 05       		.byte	0x5
 10700 00c3 F901     		.uleb128 0xf9
 10701 00c5 46240000 		.4byte	.LASF735
 10702 00c9 05       		.byte	0x5
 10703 00ca EC02     		.uleb128 0x16c
 10704 00cc 58540000 		.4byte	.LASF736
 10705 00d0 05       		.byte	0x5
 10706 00d1 B104     		.uleb128 0x231
 10707 00d3 41AF0000 		.4byte	.LASF737
 10708 00d7 05       		.byte	0x5
 10709 00d8 C104     		.uleb128 0x241
 10710 00da E6A90000 		.4byte	.LASF738
 10711 00de 05       		.byte	0x5
 10712 00df 9D0F     		.uleb128 0x79d
 10713 00e1 597B0000 		.4byte	.LASF739
 10714 00e5 05       		.byte	0x5
 10715 00e6 A50F     		.uleb128 0x7a5
 10716 00e8 6DB80000 		.4byte	.LASF740
 10717 00ec 05       		.byte	0x5
 10718 00ed 8111     		.uleb128 0x881
ARM GAS  C:\Users\30806\AppData\Local\Temp\ccYcD1nI.s 			page 193


 10719 00ef 9B3B0000 		.4byte	.LASF741
 10720 00f3 05       		.byte	0x5
 10721 00f4 8911     		.uleb128 0x889
 10722 00f6 BB510000 		.4byte	.LASF742
 10723 00fa 00       		.byte	0
 10724              		.section	.debug_macro,"G",%progbits,wm4.newlib.h.8.7cb3972cd43265932d4782d5eb589854,comdat
 10725              	.Ldebug_macro13:
 10726 0000 0400     		.2byte	0x4
 10727 0002 00       		.byte	0
 10728 0003 05       		.byte	0x5
 10729 0004 08       		.uleb128 0x8
 10730 0005 D9820000 		.4byte	.LASF745
 10731 0009 05       		.byte	0x5
 10732 000a 12       		.uleb128 0x12
 10733 000b 9B110000 		.4byte	.LASF746
 10734 000f 05       		.byte	0x5
 10735 0010 15       		.uleb128 0x15
 10736 0011 4B910000 		.4byte	.LASF747
 10737 0015 05       		.byte	0x5
 10738 0016 18       		.uleb128 0x18
 10739 0017 700E0000 		.4byte	.LASF748
 10740 001b 05       		.byte	0x5
 10741 001c 25       		.uleb128 0x25
 10742 001d 6B3D0000 		.4byte	.LASF749
 10743 0021 05       		.byte	0x5
 10744 0022 2B       		.uleb128 0x2b
 10745 0023 DC0E0000 		.4byte	.LASF750
 10746 0027 05       		.byte	0x5
 10747 0028 35       		.uleb128 0x35
 10748 0029 C2850000 		.4byte	.LASF751
 10749 002d 05       		.byte	0x5
 10750 002e 39       		.uleb128 0x39
 10751 002f 6E330000 		.4byte	.LASF752
 10752 0033 05       		.byte	0x5
 10753 0034 3C       		.uleb128 0x3c
 10754 0035 1C4E0000 		.4byte	.LASF753
 10755 0039 05       		.byte	0x5
 10756 003a 3F       		.uleb128 0x3f
 10757 003b ED800000 		.4byte	.LASF754
 10758 003f 05       		.byte	0x5
 10759 0040 42       		.uleb128 0x42
 10760 0041 39B70000 		.4byte	.LASF755
 10761 0045 05       		.byte	0x5
 10762 0046 45       		.uleb128 0x45
 10763 0047 EC970000 		.4byte	.LASF756
 10764 004b 05       		.byte	0x5
 10765 004c 48       		.uleb128 0x48
 10766 004d 7BAE0000 		.4byte	.LASF757
 10767 0051 05       		.byte	0x5
 10768 0052 4B       		.uleb128 0x4b
 10769 0053 A7AA0000 		.4byte	.LASF758
 10770 0057 05       		.byte	0x5
 10771 0058 4E       		.uleb128 0x4e
 10772 0059 C1560000 		.4byte	.LASF759
 10773 005d 05       		.byte	0x5
 10774 005e 5F       		.uleb128 0x5f
 10775 005f CA0C0000 		.4byte	.LASF760
ARM GAS  C:\Users\30806\AppData\Local\Temp\ccYcD1nI.s 			page 194


 10776 0063 00       		.byte	0
 10777              		.section	.debug_macro,"G",%progbits,wm4.ieeefp.h.77.c88535c35f465c05b101960cf0179075,comdat
 10778              	.Ldebug_macro14:
 10779 0000 0400     		.2byte	0x4
 10780 0002 00       		.byte	0
 10781 0003 05       		.byte	0x5
 10782 0004 4D       		.uleb128 0x4d
 10783 0005 B51C0000 		.4byte	.LASF762
 10784 0009 05       		.byte	0x5
 10785 000a 5B       		.uleb128 0x5b
 10786 000b D8640000 		.4byte	.LASF763
 10787 000f 05       		.byte	0x5
 10788 0010 F003     		.uleb128 0x1f0
 10789 0012 60320000 		.4byte	.LASF764
 10790 0016 05       		.byte	0x5
 10791 0017 F303     		.uleb128 0x1f3
 10792 0019 4DA80000 		.4byte	.LASF765
 10793 001d 00       		.byte	0
 10794              		.section	.debug_macro,"G",%progbits,wm4.config.h.224.c701144a7b0518c6ee9b9b5465b79f81,comdat
 10795              	.Ldebug_macro15:
 10796 0000 0400     		.2byte	0x4
 10797 0002 00       		.byte	0
 10798 0003 05       		.byte	0x5
 10799 0004 E001     		.uleb128 0xe0
 10800 0006 7F670000 		.4byte	.LASF766
 10801 000a 06       		.byte	0x6
 10802 000b E601     		.uleb128 0xe6
 10803 000d C7980000 		.4byte	.LASF767
 10804 0011 05       		.byte	0x5
 10805 0012 EA01     		.uleb128 0xea
 10806 0014 8B370000 		.4byte	.LASF768
 10807 0018 05       		.byte	0x5
 10808 0019 FA01     		.uleb128 0xfa
 10809 001b 02780000 		.4byte	.LASF769
 10810 001f 05       		.byte	0x5
 10811 0020 FE01     		.uleb128 0xfe
 10812 0022 CAA50000 		.4byte	.LASF770
 10813 0026 05       		.byte	0x5
 10814 0027 8502     		.uleb128 0x105
 10815 0029 2C8B0000 		.4byte	.LASF771
 10816 002d 05       		.byte	0x5
 10817 002e 8B02     		.uleb128 0x10b
 10818 0030 65060000 		.4byte	.LASF772
 10819 0034 00       		.byte	0
 10820              		.section	.debug_macro,"G",%progbits,wm4._ansi.h.21.5136fa2a01d1fcd44a2e65c6c2417611,comdat
 10821              	.Ldebug_macro16:
 10822 0000 0400     		.2byte	0x4
 10823 0002 00       		.byte	0
 10824 0003 05       		.byte	0x5
 10825 0004 15       		.uleb128 0x15
 10826 0005 56370000 		.4byte	.LASF773
 10827 0009 05       		.byte	0x5
 10828 000a 16       		.uleb128 0x16
 10829 000b D6660000 		.4byte	.LASF774
 10830 000f 05       		.byte	0x5
 10831 0010 19       		.uleb128 0x19
 10832 0011 0A2E0000 		.4byte	.LASF775
ARM GAS  C:\Users\30806\AppData\Local\Temp\ccYcD1nI.s 			page 195


 10833 0015 05       		.byte	0x5
 10834 0016 25       		.uleb128 0x25
 10835 0017 CBA70000 		.4byte	.LASF776
 10836 001b 05       		.byte	0x5
 10837 001c 2B       		.uleb128 0x2b
 10838 001d 36A20000 		.4byte	.LASF777
 10839 0021 05       		.byte	0x5
 10840 0022 45       		.uleb128 0x45
 10841 0023 4D970000 		.4byte	.LASF778
 10842 0027 05       		.byte	0x5
 10843 0028 49       		.uleb128 0x49
 10844 0029 B5100000 		.4byte	.LASF779
 10845 002d 05       		.byte	0x5
 10846 002e 4A       		.uleb128 0x4a
 10847 002f 6DA70000 		.4byte	.LASF780
 10848 0033 00       		.byte	0
 10849              		.section	.debug_macro,"G",%progbits,wm4._types.h.20.dd0d04dca3800a0d2a6129b87f3adbb2,comdat
 10850              	.Ldebug_macro17:
 10851 0000 0400     		.2byte	0x4
 10852 0002 00       		.byte	0
 10853 0003 05       		.byte	0x5
 10854 0004 14       		.uleb128 0x14
 10855 0005 04630000 		.4byte	.LASF782
 10856 0009 05       		.byte	0x5
 10857 000a 16       		.uleb128 0x16
 10858 000b A9440000 		.4byte	.LASF783
 10859 000f 05       		.byte	0x5
 10860 0010 17       		.uleb128 0x17
 10861 0011 44090000 		.4byte	.LASF784
 10862 0015 00       		.byte	0
 10863              		.section	.debug_macro,"G",%progbits,wm4.stddef.h.155.7076294d263a8c080378a0849fe2c570,comdat
 10864              	.Ldebug_macro18:
 10865 0000 0400     		.2byte	0x4
 10866 0002 00       		.byte	0
 10867 0003 06       		.byte	0x6
 10868 0004 9B01     		.uleb128 0x9b
 10869 0006 0A740000 		.4byte	.LASF661
 10870 000a 06       		.byte	0x6
 10871 000b E701     		.uleb128 0xe7
 10872 000d 63460000 		.4byte	.LASF679
 10873 0011 06       		.byte	0x6
 10874 0012 D402     		.uleb128 0x154
 10875 0014 168A0000 		.4byte	.LASF696
 10876 0018 05       		.byte	0x5
 10877 0019 D902     		.uleb128 0x159
 10878 001b B2030000 		.4byte	.LASF785
 10879 001f 06       		.byte	0x6
 10880 0020 E002     		.uleb128 0x160
 10881 0022 E0500000 		.4byte	.LASF786
 10882 0026 06       		.byte	0x6
 10883 0027 8603     		.uleb128 0x186
 10884 0029 60420000 		.4byte	.LASF697
 10885 002d 05       		.byte	0x5
 10886 002e 8803     		.uleb128 0x188
 10887 0030 CD340000 		.4byte	.LASF698
 10888 0034 06       		.byte	0x6
 10889 0035 9103     		.uleb128 0x191
ARM GAS  C:\Users\30806\AppData\Local\Temp\ccYcD1nI.s 			page 196


 10890 0037 1A610000 		.4byte	.LASF699
 10891 003b 05       		.byte	0x5
 10892 003c 9603     		.uleb128 0x196
 10893 003e 26610000 		.4byte	.LASF700
 10894 0042 00       		.byte	0
 10895              		.section	.debug_macro,"G",%progbits,wm4._types.h.127.34941de1b2539d59d5cac00e0dd27a45,comdat
 10896              	.Ldebug_macro19:
 10897 0000 0400     		.2byte	0x4
 10898 0002 00       		.byte	0
 10899 0003 06       		.byte	0x6
 10900 0004 7F       		.uleb128 0x7f
 10901 0005 70370000 		.4byte	.LASF788
 10902 0009 05       		.byte	0x5
 10903 000a 9201     		.uleb128 0x92
 10904 000c 232D0000 		.4byte	.LASF789
 10905 0010 06       		.byte	0x6
 10906 0011 9401     		.uleb128 0x94
 10907 0013 AC730000 		.4byte	.LASF529
 10908 0017 05       		.byte	0x5
 10909 0018 B301     		.uleb128 0xb3
 10910 001a 81040000 		.4byte	.LASF790
 10911 001e 05       		.byte	0x5
 10912 001f BB01     		.uleb128 0xbb
 10913 0021 1B230000 		.4byte	.LASF791
 10914 0025 05       		.byte	0x5
 10915 0026 C001     		.uleb128 0xc0
 10916 0028 C56E0000 		.4byte	.LASF792
 10917 002c 05       		.byte	0x5
 10918 002d C501     		.uleb128 0xc5
 10919 002f 6D610000 		.4byte	.LASF793
 10920 0033 00       		.byte	0
 10921              		.section	.debug_macro,"G",%progbits,wm4.reent.h.17.e292bf8b0bec6c96e131a54347145a30,comdat
 10922              	.Ldebug_macro20:
 10923 0000 0400     		.2byte	0x4
 10924 0002 00       		.byte	0
 10925 0003 05       		.byte	0x5
 10926 0004 11       		.uleb128 0x11
 10927 0005 9A550000 		.4byte	.LASF794
 10928 0009 05       		.byte	0x5
 10929 000a 15       		.uleb128 0x15
 10930 000b FF550000 		.4byte	.LASF795
 10931 000f 00       		.byte	0
 10932              		.section	.debug_macro,"G",%progbits,wm4.lock.h.2.1461d1fff82dffe8bfddc23307f6484f,comdat
 10933              	.Ldebug_macro21:
 10934 0000 0400     		.2byte	0x4
 10935 0002 00       		.byte	0
 10936 0003 05       		.byte	0x5
 10937 0004 02       		.uleb128 0x2
 10938 0005 0B150000 		.4byte	.LASF796
 10939 0009 05       		.byte	0x5
 10940 000a 23       		.uleb128 0x23
 10941 000b D06A0000 		.4byte	.LASF797
 10942 000f 05       		.byte	0x5
 10943 0010 25       		.uleb128 0x25
 10944 0011 943E0000 		.4byte	.LASF798
 10945 0015 05       		.byte	0x5
 10946 0016 27       		.uleb128 0x27
ARM GAS  C:\Users\30806\AppData\Local\Temp\ccYcD1nI.s 			page 197


 10947 0017 F4920000 		.4byte	.LASF799
 10948 001b 05       		.byte	0x5
 10949 001c 2A       		.uleb128 0x2a
 10950 001d D6600000 		.4byte	.LASF800
 10951 0021 05       		.byte	0x5
 10952 0022 2C       		.uleb128 0x2c
 10953 0023 DC460000 		.4byte	.LASF801
 10954 0027 05       		.byte	0x5
 10955 0028 2E       		.uleb128 0x2e
 10956 0029 BC7A0000 		.4byte	.LASF802
 10957 002d 05       		.byte	0x5
 10958 002e 30       		.uleb128 0x30
 10959 002f 0C9D0000 		.4byte	.LASF803
 10960 0033 05       		.byte	0x5
 10961 0034 32       		.uleb128 0x32
 10962 0035 B2230000 		.4byte	.LASF804
 10963 0039 05       		.byte	0x5
 10964 003a 34       		.uleb128 0x34
 10965 003b 82B40000 		.4byte	.LASF805
 10966 003f 05       		.byte	0x5
 10967 0040 36       		.uleb128 0x36
 10968 0041 BE140000 		.4byte	.LASF806
 10969 0045 05       		.byte	0x5
 10970 0046 38       		.uleb128 0x38
 10971 0047 75190000 		.4byte	.LASF807
 10972 004b 05       		.byte	0x5
 10973 004c 3B       		.uleb128 0x3b
 10974 004d DF7E0000 		.4byte	.LASF808
 10975 0051 05       		.byte	0x5
 10976 0052 3D       		.uleb128 0x3d
 10977 0053 658E0000 		.4byte	.LASF809
 10978 0057 00       		.byte	0
 10979              		.section	.debug_macro,"G",%progbits,wm4.reent.h.77.dcd6129ff07fe81bd5636db29abe53b2,comdat
 10980              	.Ldebug_macro22:
 10981 0000 0400     		.2byte	0x4
 10982 0002 00       		.byte	0
 10983 0003 05       		.byte	0x5
 10984 0004 4D       		.uleb128 0x4d
 10985 0005 9C360000 		.4byte	.LASF810
 10986 0009 05       		.byte	0x5
 10987 000a 69       		.uleb128 0x69
 10988 000b 2E8C0000 		.4byte	.LASF811
 10989 000f 05       		.byte	0x5
 10990 0010 6F       		.uleb128 0x6f
 10991 0011 758B0000 		.4byte	.LASF812
 10992 0015 05       		.byte	0x5
 10993 0016 B701     		.uleb128 0xb7
 10994 0018 E79E0000 		.4byte	.LASF813
 10995 001c 05       		.byte	0x5
 10996 001d BD02     		.uleb128 0x13d
 10997 001f 0F940000 		.4byte	.LASF814
 10998 0023 05       		.byte	0x5
 10999 0024 BE02     		.uleb128 0x13e
 11000 0026 F2B20000 		.4byte	.LASF815
 11001 002a 05       		.byte	0x5
 11002 002b BF02     		.uleb128 0x13f
 11003 002d 39630000 		.4byte	.LASF816
ARM GAS  C:\Users\30806\AppData\Local\Temp\ccYcD1nI.s 			page 198


 11004 0031 05       		.byte	0x5
 11005 0032 C002     		.uleb128 0x140
 11006 0034 0F5F0000 		.4byte	.LASF817
 11007 0038 05       		.byte	0x5
 11008 0039 C102     		.uleb128 0x141
 11009 003b EC6B0000 		.4byte	.LASF818
 11010 003f 05       		.byte	0x5
 11011 0040 C202     		.uleb128 0x142
 11012 0042 75B30000 		.4byte	.LASF819
 11013 0046 05       		.byte	0x5
 11014 0047 C302     		.uleb128 0x143
 11015 0049 BD930000 		.4byte	.LASF820
 11016 004d 05       		.byte	0x5
 11017 004e CF02     		.uleb128 0x14f
 11018 0050 0D200000 		.4byte	.LASF821
 11019 0054 05       		.byte	0x5
 11020 0055 D002     		.uleb128 0x150
 11021 0057 CF890000 		.4byte	.LASF822
 11022 005b 05       		.byte	0x5
 11023 005c D102     		.uleb128 0x151
 11024 005e F69A0000 		.4byte	.LASF823
 11025 0062 05       		.byte	0x5
 11026 0063 A005     		.uleb128 0x2a0
 11027 0065 CC760000 		.4byte	.LASF824
 11028 0069 05       		.byte	0x5
 11029 006a BC05     		.uleb128 0x2bc
 11030 006c 19A90000 		.4byte	.LASF825
 11031 0070 05       		.byte	0x5
 11032 0071 BF05     		.uleb128 0x2bf
 11033 0073 82680000 		.4byte	.LASF826
 11034 0077 05       		.byte	0x5
 11035 0078 EF05     		.uleb128 0x2ef
 11036 007a BB490000 		.4byte	.LASF827
 11037 007e 05       		.byte	0x5
 11038 007f FD05     		.uleb128 0x2fd
 11039 0081 FC020000 		.4byte	.LASF828
 11040 0085 05       		.byte	0x5
 11041 0086 FE05     		.uleb128 0x2fe
 11042 0088 A8430000 		.4byte	.LASF829
 11043 008c 05       		.byte	0x5
 11044 008d FF05     		.uleb128 0x2ff
 11045 008f 05390000 		.4byte	.LASF830
 11046 0093 05       		.byte	0x5
 11047 0094 8006     		.uleb128 0x300
 11048 0096 83150000 		.4byte	.LASF831
 11049 009a 05       		.byte	0x5
 11050 009b 8106     		.uleb128 0x301
 11051 009d A4560000 		.4byte	.LASF832
 11052 00a1 05       		.byte	0x5
 11053 00a2 8206     		.uleb128 0x302
 11054 00a4 33910000 		.4byte	.LASF833
 11055 00a8 05       		.byte	0x5
 11056 00a9 8306     		.uleb128 0x303
 11057 00ab 5B1D0000 		.4byte	.LASF834
 11058 00af 05       		.byte	0x5
 11059 00b0 8506     		.uleb128 0x305
 11060 00b2 332C0000 		.4byte	.LASF835
ARM GAS  C:\Users\30806\AppData\Local\Temp\ccYcD1nI.s 			page 199


 11061 00b6 05       		.byte	0x5
 11062 00b7 8606     		.uleb128 0x306
 11063 00b9 76500000 		.4byte	.LASF836
 11064 00bd 05       		.byte	0x5
 11065 00be 8706     		.uleb128 0x307
 11066 00c0 113F0000 		.4byte	.LASF837
 11067 00c4 05       		.byte	0x5
 11068 00c5 8806     		.uleb128 0x308
 11069 00c7 556C0000 		.4byte	.LASF838
 11070 00cb 05       		.byte	0x5
 11071 00cc 8906     		.uleb128 0x309
 11072 00ce 022B0000 		.4byte	.LASF839
 11073 00d2 05       		.byte	0x5
 11074 00d3 8A06     		.uleb128 0x30a
 11075 00d5 C1530000 		.4byte	.LASF840
 11076 00d9 05       		.byte	0x5
 11077 00da 8B06     		.uleb128 0x30b
 11078 00dc 964C0000 		.4byte	.LASF841
 11079 00e0 05       		.byte	0x5
 11080 00e1 8C06     		.uleb128 0x30c
 11081 00e3 FC750000 		.4byte	.LASF842
 11082 00e7 05       		.byte	0x5
 11083 00e8 8D06     		.uleb128 0x30d
 11084 00ea 80950000 		.4byte	.LASF843
 11085 00ee 05       		.byte	0x5
 11086 00ef 8E06     		.uleb128 0x30e
 11087 00f1 01720000 		.4byte	.LASF844
 11088 00f5 05       		.byte	0x5
 11089 00f6 8F06     		.uleb128 0x30f
 11090 00f8 86210000 		.4byte	.LASF845
 11091 00fc 05       		.byte	0x5
 11092 00fd 9006     		.uleb128 0x310
 11093 00ff 7C5F0000 		.4byte	.LASF846
 11094 0103 05       		.byte	0x5
 11095 0104 9106     		.uleb128 0x311
 11096 0106 B92D0000 		.4byte	.LASF847
 11097 010a 05       		.byte	0x5
 11098 010b 9206     		.uleb128 0x312
 11099 010d 67170000 		.4byte	.LASF848
 11100 0111 05       		.byte	0x5
 11101 0112 9306     		.uleb128 0x313
 11102 0114 C9B30000 		.4byte	.LASF849
 11103 0118 05       		.byte	0x5
 11104 0119 9406     		.uleb128 0x314
 11105 011b 38600000 		.4byte	.LASF850
 11106 011f 05       		.byte	0x5
 11107 0120 9506     		.uleb128 0x315
 11108 0122 C4080000 		.4byte	.LASF851
 11109 0126 05       		.byte	0x5
 11110 0127 9606     		.uleb128 0x316
 11111 0129 6E1B0000 		.4byte	.LASF852
 11112 012d 05       		.byte	0x5
 11113 012e 9706     		.uleb128 0x317
 11114 0130 9F310000 		.4byte	.LASF853
 11115 0134 05       		.byte	0x5
 11116 0135 9806     		.uleb128 0x318
 11117 0137 509E0000 		.4byte	.LASF854
ARM GAS  C:\Users\30806\AppData\Local\Temp\ccYcD1nI.s 			page 200


 11118 013b 05       		.byte	0x5
 11119 013c 9906     		.uleb128 0x319
 11120 013e 28100000 		.4byte	.LASF855
 11121 0142 05       		.byte	0x5
 11122 0143 9A06     		.uleb128 0x31a
 11123 0145 DB010000 		.4byte	.LASF856
 11124 0149 05       		.byte	0x5
 11125 014a 9B06     		.uleb128 0x31b
 11126 014c A9AC0000 		.4byte	.LASF857
 11127 0150 05       		.byte	0x5
 11128 0151 9C06     		.uleb128 0x31c
 11129 0153 D5540000 		.4byte	.LASF858
 11130 0157 05       		.byte	0x5
 11131 0158 A006     		.uleb128 0x320
 11132 015a 267F0000 		.4byte	.LASF859
 11133 015e 05       		.byte	0x5
 11134 015f A806     		.uleb128 0x328
 11135 0161 08600000 		.4byte	.LASF860
 11136 0165 05       		.byte	0x5
 11137 0166 B006     		.uleb128 0x330
 11138 0168 88900000 		.4byte	.LASF861
 11139 016c 05       		.byte	0x5
 11140 016d C006     		.uleb128 0x340
 11141 016f 25600000 		.4byte	.LASF862
 11142 0173 05       		.byte	0x5
 11143 0174 C306     		.uleb128 0x343
 11144 0176 B43C0000 		.4byte	.LASF863
 11145 017a 05       		.byte	0x5
 11146 017b C906     		.uleb128 0x349
 11147 017d 886A0000 		.4byte	.LASF864
 11148 0181 00       		.byte	0
 11149              		.section	.debug_macro,"G",%progbits,wm4.cdefs.h.49.7c008c2766937177444cabb2199f8bc7,comdat
 11150              	.Ldebug_macro23:
 11151 0000 0400     		.2byte	0x4
 11152 0002 00       		.byte	0
 11153 0003 05       		.byte	0x5
 11154 0004 31       		.uleb128 0x31
 11155 0005 0C780000 		.4byte	.LASF866
 11156 0009 05       		.byte	0x5
 11157 000a 32       		.uleb128 0x32
 11158 000b 6A7D0000 		.4byte	.LASF867
 11159 000f 05       		.byte	0x5
 11160 0010 33       		.uleb128 0x33
 11161 0011 79B40000 		.4byte	.LASF868
 11162 0015 05       		.byte	0x5
 11163 0016 36       		.uleb128 0x36
 11164 0017 105C0000 		.4byte	.LASF869
 11165 001b 05       		.byte	0x5
 11166 001c 39       		.uleb128 0x39
 11167 001d C2720000 		.4byte	.LASF870
 11168 0021 05       		.byte	0x5
 11169 0022 3A       		.uleb128 0x3a
 11170 0023 621F0000 		.4byte	.LASF871
 11171 0027 05       		.byte	0x5
 11172 0028 3C       		.uleb128 0x3c
 11173 0029 2E210000 		.4byte	.LASF872
 11174 002d 05       		.byte	0x5
ARM GAS  C:\Users\30806\AppData\Local\Temp\ccYcD1nI.s 			page 201


 11175 002e 3D       		.uleb128 0x3d
 11176 002f 084E0000 		.4byte	.LASF873
 11177 0033 05       		.byte	0x5
 11178 0034 3E       		.uleb128 0x3e
 11179 0035 E99C0000 		.4byte	.LASF874
 11180 0039 05       		.byte	0x5
 11181 003a 3F       		.uleb128 0x3f
 11182 003b F42A0000 		.4byte	.LASF875
 11183 003f 05       		.byte	0x5
 11184 0040 42       		.uleb128 0x42
 11185 0041 7A320000 		.4byte	.LASF876
 11186 0045 05       		.byte	0x5
 11187 0046 43       		.uleb128 0x43
 11188 0047 330E0000 		.4byte	.LASF877
 11189 004b 05       		.byte	0x5
 11190 004c 44       		.uleb128 0x44
 11191 004d 70550000 		.4byte	.LASF878
 11192 0051 05       		.byte	0x5
 11193 0052 4E       		.uleb128 0x4e
 11194 0053 886F0000 		.4byte	.LASF879
 11195 0057 05       		.byte	0x5
 11196 0058 51       		.uleb128 0x51
 11197 0059 DC1F0000 		.4byte	.LASF880
 11198 005d 05       		.byte	0x5
 11199 005e 5B       		.uleb128 0x5b
 11200 005f 4B480000 		.4byte	.LASF881
 11201 0063 05       		.byte	0x5
 11202 0064 5C       		.uleb128 0x5c
 11203 0065 0F8E0000 		.4byte	.LASF882
 11204 0069 05       		.byte	0x5
 11205 006a 6B       		.uleb128 0x6b
 11206 006b 3D6E0000 		.4byte	.LASF883
 11207 006f 05       		.byte	0x5
 11208 0070 6C       		.uleb128 0x6c
 11209 0071 B3B00000 		.4byte	.LASF884
 11210 0075 05       		.byte	0x5
 11211 0076 70       		.uleb128 0x70
 11212 0077 5E080000 		.4byte	.LASF885
 11213 007b 05       		.byte	0x5
 11214 007c 71       		.uleb128 0x71
 11215 007d 8B290000 		.4byte	.LASF886
 11216 0081 05       		.byte	0x5
 11217 0082 72       		.uleb128 0x72
 11218 0083 F32D0000 		.4byte	.LASF887
 11219 0087 05       		.byte	0x5
 11220 0088 75       		.uleb128 0x75
 11221 0089 A0120000 		.4byte	.LASF888
 11222 008d 05       		.byte	0x5
 11223 008e 78       		.uleb128 0x78
 11224 008f 03050000 		.4byte	.LASF889
 11225 0093 05       		.byte	0x5
 11226 0094 7F       		.uleb128 0x7f
 11227 0095 D95B0000 		.4byte	.LASF890
 11228 0099 05       		.byte	0x5
 11229 009a 8001     		.uleb128 0x80
 11230 009c 6D640000 		.4byte	.LASF891
 11231 00a0 05       		.byte	0x5
ARM GAS  C:\Users\30806\AppData\Local\Temp\ccYcD1nI.s 			page 202


 11232 00a1 8101     		.uleb128 0x81
 11233 00a3 4C950000 		.4byte	.LASF892
 11234 00a7 05       		.byte	0x5
 11235 00a8 8501     		.uleb128 0x85
 11236 00aa AE340000 		.4byte	.LASF893
 11237 00ae 05       		.byte	0x5
 11238 00af 8C01     		.uleb128 0x8c
 11239 00b1 83420000 		.4byte	.LASF894
 11240 00b5 05       		.byte	0x5
 11241 00b6 9001     		.uleb128 0x90
 11242 00b8 813D0000 		.4byte	.LASF895
 11243 00bc 05       		.byte	0x5
 11244 00bd 9101     		.uleb128 0x91
 11245 00bf 12350000 		.4byte	.LASF896
 11246 00c3 05       		.byte	0x5
 11247 00c4 9401     		.uleb128 0x94
 11248 00c6 783F0000 		.4byte	.LASF897
 11249 00ca 05       		.byte	0x5
 11250 00cb 9701     		.uleb128 0x97
 11251 00cd FB290000 		.4byte	.LASF898
 11252 00d1 05       		.byte	0x5
 11253 00d2 9801     		.uleb128 0x98
 11254 00d4 021D0000 		.4byte	.LASF899
 11255 00d8 05       		.byte	0x5
 11256 00d9 9901     		.uleb128 0x99
 11257 00db 83B00000 		.4byte	.LASF900
 11258 00df 05       		.byte	0x5
 11259 00e0 9B01     		.uleb128 0x9b
 11260 00e2 689B0000 		.4byte	.LASF901
 11261 00e6 05       		.byte	0x5
 11262 00e7 9C01     		.uleb128 0x9c
 11263 00e9 351E0000 		.4byte	.LASF902
 11264 00ed 05       		.byte	0x5
 11265 00ee 9E01     		.uleb128 0x9e
 11266 00f0 736B0000 		.4byte	.LASF903
 11267 00f4 05       		.byte	0x5
 11268 00f5 A001     		.uleb128 0xa0
 11269 00f7 8B000000 		.4byte	.LASF904
 11270 00fb 05       		.byte	0x5
 11271 00fc B101     		.uleb128 0xb1
 11272 00fe 0F0B0000 		.4byte	.LASF905
 11273 0102 05       		.byte	0x5
 11274 0103 B201     		.uleb128 0xb2
 11275 0105 787E0000 		.4byte	.LASF906
 11276 0109 05       		.byte	0x5
 11277 010a B301     		.uleb128 0xb3
 11278 010c FCAC0000 		.4byte	.LASF907
 11279 0110 05       		.byte	0x5
 11280 0111 B401     		.uleb128 0xb4
 11281 0113 3CB30000 		.4byte	.LASF908
 11282 0117 05       		.byte	0x5
 11283 0118 B501     		.uleb128 0xb5
 11284 011a 988F0000 		.4byte	.LASF909
 11285 011e 05       		.byte	0x5
 11286 011f B701     		.uleb128 0xb7
 11287 0121 BA180000 		.4byte	.LASF910
 11288 0125 05       		.byte	0x5
ARM GAS  C:\Users\30806\AppData\Local\Temp\ccYcD1nI.s 			page 203


 11289 0126 B801     		.uleb128 0xb8
 11290 0128 D6950000 		.4byte	.LASF911
 11291 012c 05       		.byte	0x5
 11292 012d B901     		.uleb128 0xb9
 11293 012f 06450000 		.4byte	.LASF912
 11294 0133 05       		.byte	0x5
 11295 0134 BB01     		.uleb128 0xbb
 11296 0136 251C0000 		.4byte	.LASF913
 11297 013a 05       		.byte	0x5
 11298 013b E601     		.uleb128 0xe6
 11299 013d CC2A0000 		.4byte	.LASF914
 11300 0141 05       		.byte	0x5
 11301 0142 F301     		.uleb128 0xf3
 11302 0144 7E440000 		.4byte	.LASF915
 11303 0148 05       		.byte	0x5
 11304 0149 F401     		.uleb128 0xf4
 11305 014b 5C7C0000 		.4byte	.LASF916
 11306 014f 05       		.byte	0x5
 11307 0150 F501     		.uleb128 0xf5
 11308 0152 E89F0000 		.4byte	.LASF917
 11309 0156 05       		.byte	0x5
 11310 0157 F601     		.uleb128 0xf6
 11311 0159 E4A70000 		.4byte	.LASF918
 11312 015d 05       		.byte	0x5
 11313 015e F701     		.uleb128 0xf7
 11314 0160 85610000 		.4byte	.LASF919
 11315 0164 05       		.byte	0x5
 11316 0165 F801     		.uleb128 0xf8
 11317 0167 440D0000 		.4byte	.LASF920
 11318 016b 05       		.byte	0x5
 11319 016c F901     		.uleb128 0xf9
 11320 016e 454F0000 		.4byte	.LASF921
 11321 0172 05       		.byte	0x5
 11322 0173 FC01     		.uleb128 0xfc
 11323 0175 71560000 		.4byte	.LASF922
 11324 0179 05       		.byte	0x5
 11325 017a FD01     		.uleb128 0xfd
 11326 017c 8C2C0000 		.4byte	.LASF923
 11327 0180 05       		.byte	0x5
 11328 0181 8302     		.uleb128 0x103
 11329 0183 98970000 		.4byte	.LASF924
 11330 0187 05       		.byte	0x5
 11331 0188 9502     		.uleb128 0x115
 11332 018a DAB70000 		.4byte	.LASF925
 11333 018e 05       		.byte	0x5
 11334 018f 9D02     		.uleb128 0x11d
 11335 0191 A5800000 		.4byte	.LASF926
 11336 0195 05       		.byte	0x5
 11337 0196 AC02     		.uleb128 0x12c
 11338 0198 E5230000 		.4byte	.LASF927
 11339 019c 05       		.byte	0x5
 11340 019d B402     		.uleb128 0x134
 11341 019f 485E0000 		.4byte	.LASF928
 11342 01a3 05       		.byte	0x5
 11343 01a4 CB02     		.uleb128 0x14b
 11344 01a6 495C0000 		.4byte	.LASF929
 11345 01aa 05       		.byte	0x5
ARM GAS  C:\Users\30806\AppData\Local\Temp\ccYcD1nI.s 			page 204


 11346 01ab F002     		.uleb128 0x170
 11347 01ad 366F0000 		.4byte	.LASF930
 11348 01b1 05       		.byte	0x5
 11349 01b2 F402     		.uleb128 0x174
 11350 01b4 E4A60000 		.4byte	.LASF931
 11351 01b8 05       		.byte	0x5
 11352 01b9 F502     		.uleb128 0x175
 11353 01bb A87D0000 		.4byte	.LASF932
 11354 01bf 05       		.byte	0x5
 11355 01c0 FC02     		.uleb128 0x17c
 11356 01c2 6C7A0000 		.4byte	.LASF933
 11357 01c6 05       		.byte	0x5
 11358 01c7 8203     		.uleb128 0x182
 11359 01c9 CC4D0000 		.4byte	.LASF934
 11360 01cd 05       		.byte	0x5
 11361 01ce 8803     		.uleb128 0x188
 11362 01d0 15310000 		.4byte	.LASF935
 11363 01d4 05       		.byte	0x5
 11364 01d5 8903     		.uleb128 0x189
 11365 01d7 22970000 		.4byte	.LASF936
 11366 01db 05       		.byte	0x5
 11367 01dc 9003     		.uleb128 0x190
 11368 01de 6A100000 		.4byte	.LASF937
 11369 01e2 05       		.byte	0x5
 11370 01e3 9103     		.uleb128 0x191
 11371 01e5 947E0000 		.4byte	.LASF938
 11372 01e9 05       		.byte	0x5
 11373 01ea 9803     		.uleb128 0x198
 11374 01ec 6F530000 		.4byte	.LASF939
 11375 01f0 05       		.byte	0x5
 11376 01f1 9E03     		.uleb128 0x19e
 11377 01f3 0AB30000 		.4byte	.LASF940
 11378 01f7 05       		.byte	0x5
 11379 01f8 B003     		.uleb128 0x1b0
 11380 01fa D7A10000 		.4byte	.LASF941
 11381 01fe 05       		.byte	0x5
 11382 01ff D303     		.uleb128 0x1d3
 11383 0201 5D3C0000 		.4byte	.LASF942
 11384 0205 05       		.byte	0x5
 11385 0206 D403     		.uleb128 0x1d4
 11386 0208 69660000 		.4byte	.LASF943
 11387 020c 05       		.byte	0x5
 11388 020d DB03     		.uleb128 0x1db
 11389 020f 742D0000 		.4byte	.LASF944
 11390 0213 05       		.byte	0x5
 11391 0214 DC03     		.uleb128 0x1dc
 11392 0216 59A40000 		.4byte	.LASF945
 11393 021a 05       		.byte	0x5
 11394 021b DF03     		.uleb128 0x1df
 11395 021d 70980000 		.4byte	.LASF946
 11396 0221 05       		.byte	0x5
 11397 0222 E903     		.uleb128 0x1e9
 11398 0224 90B20000 		.4byte	.LASF947
 11399 0228 05       		.byte	0x5
 11400 0229 EA03     		.uleb128 0x1ea
 11401 022b 8BA60000 		.4byte	.LASF948
 11402 022f 05       		.byte	0x5
ARM GAS  C:\Users\30806\AppData\Local\Temp\ccYcD1nI.s 			page 205


 11403 0230 F403     		.uleb128 0x1f4
 11404 0232 81470000 		.4byte	.LASF949
 11405 0236 05       		.byte	0x5
 11406 0237 8A04     		.uleb128 0x20a
 11407 0239 49050000 		.4byte	.LASF950
 11408 023d 05       		.byte	0x5
 11409 023e 8C04     		.uleb128 0x20c
 11410 0240 DA910000 		.4byte	.LASF951
 11411 0244 05       		.byte	0x5
 11412 0245 8E04     		.uleb128 0x20e
 11413 0247 112F0000 		.4byte	.LASF952
 11414 024b 05       		.byte	0x5
 11415 024c 8F04     		.uleb128 0x20f
 11416 024e B3790000 		.4byte	.LASF953
 11417 0252 05       		.byte	0x5
 11418 0253 9104     		.uleb128 0x211
 11419 0255 D1720000 		.4byte	.LASF954
 11420 0259 05       		.byte	0x5
 11421 025a 9B04     		.uleb128 0x21b
 11422 025c 351C0000 		.4byte	.LASF955
 11423 0260 05       		.byte	0x5
 11424 0261 A004     		.uleb128 0x220
 11425 0263 34430000 		.4byte	.LASF956
 11426 0267 05       		.byte	0x5
 11427 0268 A504     		.uleb128 0x225
 11428 026a 791D0000 		.4byte	.LASF957
 11429 026e 05       		.byte	0x5
 11430 026f A804     		.uleb128 0x228
 11431 0271 8A710000 		.4byte	.LASF958
 11432 0275 05       		.byte	0x5
 11433 0276 AC04     		.uleb128 0x22c
 11434 0278 F3560000 		.4byte	.LASF959
 11435 027c 05       		.byte	0x5
 11436 027d AE04     		.uleb128 0x22e
 11437 027f 74400000 		.4byte	.LASF960
 11438 0283 05       		.byte	0x5
 11439 0284 D104     		.uleb128 0x251
 11440 0286 A0260000 		.4byte	.LASF961
 11441 028a 05       		.byte	0x5
 11442 028b D504     		.uleb128 0x255
 11443 028d 96630000 		.4byte	.LASF962
 11444 0291 05       		.byte	0x5
 11445 0292 D904     		.uleb128 0x259
 11446 0294 4D810000 		.4byte	.LASF963
 11447 0298 05       		.byte	0x5
 11448 0299 DD04     		.uleb128 0x25d
 11449 029b C28F0000 		.4byte	.LASF964
 11450 029f 05       		.byte	0x5
 11451 02a0 E104     		.uleb128 0x261
 11452 02a2 8AAA0000 		.4byte	.LASF965
 11453 02a6 05       		.byte	0x5
 11454 02a7 E504     		.uleb128 0x265
 11455 02a9 36220000 		.4byte	.LASF966
 11456 02ad 05       		.byte	0x5
 11457 02ae E904     		.uleb128 0x269
 11458 02b0 AA610000 		.4byte	.LASF967
 11459 02b4 05       		.byte	0x5
ARM GAS  C:\Users\30806\AppData\Local\Temp\ccYcD1nI.s 			page 206


 11460 02b5 ED04     		.uleb128 0x26d
 11461 02b7 941F0000 		.4byte	.LASF968
 11462 02bb 05       		.byte	0x5
 11463 02bc F404     		.uleb128 0x274
 11464 02be BF6B0000 		.4byte	.LASF969
 11465 02c2 05       		.byte	0x5
 11466 02c3 F504     		.uleb128 0x275
 11467 02c5 50B40000 		.4byte	.LASF970
 11468 02c9 05       		.byte	0x5
 11469 02ca F604     		.uleb128 0x276
 11470 02cc 20060000 		.4byte	.LASF971
 11471 02d0 05       		.byte	0x5
 11472 02d1 F704     		.uleb128 0x277
 11473 02d3 8FA40000 		.4byte	.LASF972
 11474 02d7 05       		.byte	0x5
 11475 02d8 F804     		.uleb128 0x278
 11476 02da 7EB60000 		.4byte	.LASF973
 11477 02de 05       		.byte	0x5
 11478 02df 8D05     		.uleb128 0x28d
 11479 02e1 00330000 		.4byte	.LASF974
 11480 02e5 05       		.byte	0x5
 11481 02e6 8E05     		.uleb128 0x28e
 11482 02e8 E1310000 		.4byte	.LASF975
 11483 02ec 05       		.byte	0x5
 11484 02ed A005     		.uleb128 0x2a0
 11485 02ef A3290000 		.4byte	.LASF976
 11486 02f3 05       		.byte	0x5
 11487 02f4 A605     		.uleb128 0x2a6
 11488 02f6 636F0000 		.4byte	.LASF977
 11489 02fa 05       		.byte	0x5
 11490 02fb A905     		.uleb128 0x2a9
 11491 02fd 91A00000 		.4byte	.LASF978
 11492 0301 05       		.byte	0x5
 11493 0302 AB05     		.uleb128 0x2ab
 11494 0304 705E0000 		.4byte	.LASF979
 11495 0308 05       		.byte	0x5
 11496 0309 AF05     		.uleb128 0x2af
 11497 030b D7B50000 		.4byte	.LASF980
 11498 030f 05       		.byte	0x5
 11499 0310 B105     		.uleb128 0x2b1
 11500 0312 2B7E0000 		.4byte	.LASF981
 11501 0316 05       		.byte	0x5
 11502 0317 B505     		.uleb128 0x2b5
 11503 0319 F46F0000 		.4byte	.LASF982
 11504 031d 05       		.byte	0x5
 11505 031e B805     		.uleb128 0x2b8
 11506 0320 11340000 		.4byte	.LASF983
 11507 0324 05       		.byte	0x5
 11508 0325 BA05     		.uleb128 0x2ba
 11509 0327 6E2F0000 		.4byte	.LASF984
 11510 032b 05       		.byte	0x5
 11511 032c BE05     		.uleb128 0x2be
 11512 032e 2A750000 		.4byte	.LASF985
 11513 0332 05       		.byte	0x5
 11514 0333 C005     		.uleb128 0x2c0
 11515 0335 83940000 		.4byte	.LASF986
 11516 0339 05       		.byte	0x5
ARM GAS  C:\Users\30806\AppData\Local\Temp\ccYcD1nI.s 			page 207


 11517 033a C205     		.uleb128 0x2c2
 11518 033c 78140000 		.4byte	.LASF987
 11519 0340 05       		.byte	0x5
 11520 0341 C605     		.uleb128 0x2c6
 11521 0343 F80E0000 		.4byte	.LASF988
 11522 0347 05       		.byte	0x5
 11523 0348 D105     		.uleb128 0x2d1
 11524 034a 514D0000 		.4byte	.LASF989
 11525 034e 05       		.byte	0x5
 11526 034f D205     		.uleb128 0x2d2
 11527 0351 AA8A0000 		.4byte	.LASF990
 11528 0355 05       		.byte	0x5
 11529 0356 D605     		.uleb128 0x2d6
 11530 0358 D3770000 		.4byte	.LASF991
 11531 035c 05       		.byte	0x5
 11532 035d D705     		.uleb128 0x2d7
 11533 035f 29560000 		.4byte	.LASF992
 11534 0363 00       		.byte	0
 11535              		.section	.debug_macro,"G",%progbits,wm4.string.h.15.dab3980bf35408a4c507182805e2de3a,comdat
 11536              	.Ldebug_macro24:
 11537 0000 0400     		.2byte	0x4
 11538 0002 00       		.byte	0
 11539 0003 05       		.byte	0x5
 11540 0004 0F       		.uleb128 0xf
 11541 0005 A9440000 		.4byte	.LASF783
 11542 0009 05       		.byte	0x5
 11543 000a 10       		.uleb128 0x10
 11544 000b 4CB50000 		.4byte	.LASF993
 11545 000f 00       		.byte	0
 11546              		.section	.debug_macro,"G",%progbits,wm4.stddef.h.155.6a74c971399e3775a985604de4c85627,comdat
 11547              	.Ldebug_macro25:
 11548 0000 0400     		.2byte	0x4
 11549 0002 00       		.byte	0
 11550 0003 06       		.byte	0x6
 11551 0004 9B01     		.uleb128 0x9b
 11552 0006 0A740000 		.4byte	.LASF661
 11553 000a 06       		.byte	0x6
 11554 000b E701     		.uleb128 0xe7
 11555 000d 63460000 		.4byte	.LASF679
 11556 0011 06       		.byte	0x6
 11557 0012 D402     		.uleb128 0x154
 11558 0014 168A0000 		.4byte	.LASF696
 11559 0018 06       		.byte	0x6
 11560 0019 8603     		.uleb128 0x186
 11561 001b 60420000 		.4byte	.LASF697
 11562 001f 05       		.byte	0x5
 11563 0020 8803     		.uleb128 0x188
 11564 0022 CD340000 		.4byte	.LASF698
 11565 0026 06       		.byte	0x6
 11566 0027 9103     		.uleb128 0x191
 11567 0029 1A610000 		.4byte	.LASF699
 11568 002d 05       		.byte	0x5
 11569 002e 9603     		.uleb128 0x196
 11570 0030 26610000 		.4byte	.LASF700
 11571 0034 00       		.byte	0
 11572              		.section	.debug_macro,"G",%progbits,wm4.cconfig.h.31.f1075e90bb2e9f0e48d1967b3dbcc04f,comdat
 11573              	.Ldebug_macro26:
ARM GAS  C:\Users\30806\AppData\Local\Temp\ccYcD1nI.s 			page 208


 11574 0000 0400     		.2byte	0x4
 11575 0002 00       		.byte	0
 11576 0003 05       		.byte	0x5
 11577 0004 1F       		.uleb128 0x1f
 11578 0005 70970000 		.4byte	.LASF997
 11579 0009 05       		.byte	0x5
 11580 000a 22       		.uleb128 0x22
 11581 000b B2570000 		.4byte	.LASF998
 11582 000f 05       		.byte	0x5
 11583 0010 25       		.uleb128 0x25
 11584 0011 57B00000 		.4byte	.LASF999
 11585 0015 05       		.byte	0x5
 11586 0016 2E       		.uleb128 0x2e
 11587 0017 B4870000 		.4byte	.LASF1000
 11588 001b 05       		.byte	0x5
 11589 001c 32       		.uleb128 0x32
 11590 001d 74310000 		.4byte	.LASF1001
 11591 0021 05       		.byte	0x5
 11592 0022 36       		.uleb128 0x36
 11593 0023 5F6E0000 		.4byte	.LASF1002
 11594 0027 05       		.byte	0x5
 11595 0028 43       		.uleb128 0x43
 11596 0029 BE8A0000 		.4byte	.LASF1003
 11597 002d 05       		.byte	0x5
 11598 002e 46       		.uleb128 0x46
 11599 002f 39B10000 		.4byte	.LASF1004
 11600 0033 05       		.byte	0x5
 11601 0034 54       		.uleb128 0x54
 11602 0035 4D380000 		.4byte	.LASF1005
 11603 0039 05       		.byte	0x5
 11604 003a 58       		.uleb128 0x58
 11605 003b 814E0000 		.4byte	.LASF1006
 11606 003f 05       		.byte	0x5
 11607 0040 59       		.uleb128 0x59
 11608 0041 B8350000 		.4byte	.LASF1007
 11609 0045 05       		.byte	0x5
 11610 0046 63       		.uleb128 0x63
 11611 0047 DF9A0000 		.4byte	.LASF1008
 11612 004b 05       		.byte	0x5
 11613 004c 69       		.uleb128 0x69
 11614 004d 53800000 		.4byte	.LASF1009
 11615 0051 05       		.byte	0x5
 11616 0052 6E       		.uleb128 0x6e
 11617 0053 99700000 		.4byte	.LASF1010
 11618 0057 05       		.byte	0x5
 11619 0058 75       		.uleb128 0x75
 11620 0059 8D6C0000 		.4byte	.LASF1011
 11621 005d 05       		.byte	0x5
 11622 005e 7F       		.uleb128 0x7f
 11623 005f CA370000 		.4byte	.LASF1012
 11624 0063 05       		.byte	0x5
 11625 0064 8001     		.uleb128 0x80
 11626 0066 36360000 		.4byte	.LASF1013
 11627 006a 05       		.byte	0x5
 11628 006b 8901     		.uleb128 0x89
 11629 006d 480A0000 		.4byte	.LASF1014
 11630 0071 05       		.byte	0x5
ARM GAS  C:\Users\30806\AppData\Local\Temp\ccYcD1nI.s 			page 209


 11631 0072 9301     		.uleb128 0x93
 11632 0074 7E1F0000 		.4byte	.LASF1015
 11633 0078 05       		.byte	0x5
 11634 0079 9B01     		.uleb128 0x9b
 11635 007b 944D0000 		.4byte	.LASF1016
 11636 007f 05       		.byte	0x5
 11637 0080 A301     		.uleb128 0xa3
 11638 0082 B44F0000 		.4byte	.LASF1017
 11639 0086 05       		.byte	0x5
 11640 0087 AA01     		.uleb128 0xaa
 11641 0089 7BAD0000 		.4byte	.LASF1018
 11642 008d 05       		.byte	0x5
 11643 008e AB01     		.uleb128 0xab
 11644 0090 D8850000 		.4byte	.LASF1019
 11645 0094 05       		.byte	0x5
 11646 0095 AC01     		.uleb128 0xac
 11647 0097 48190000 		.4byte	.LASF1020
 11648 009b 05       		.byte	0x5
 11649 009c AD01     		.uleb128 0xad
 11650 009e 07190000 		.4byte	.LASF1021
 11651 00a2 05       		.byte	0x5
 11652 00a3 B701     		.uleb128 0xb7
 11653 00a5 95590000 		.4byte	.LASF1022
 11654 00a9 05       		.byte	0x5
 11655 00aa BE01     		.uleb128 0xbe
 11656 00ac 19180000 		.4byte	.LASF1023
 11657 00b0 05       		.byte	0x5
 11658 00b1 C601     		.uleb128 0xc6
 11659 00b3 4D8E0000 		.4byte	.LASF1024
 11660 00b7 05       		.byte	0x5
 11661 00b8 C701     		.uleb128 0xc7
 11662 00ba 19B20000 		.4byte	.LASF1025
 11663 00be 05       		.byte	0x5
 11664 00bf D401     		.uleb128 0xd4
 11665 00c1 73220000 		.4byte	.LASF1026
 11666 00c5 05       		.byte	0x5
 11667 00c6 9002     		.uleb128 0x110
 11668 00c8 87770000 		.4byte	.LASF1027
 11669 00cc 05       		.byte	0x5
 11670 00cd 9802     		.uleb128 0x118
 11671 00cf C9090000 		.4byte	.LASF1028
 11672 00d3 05       		.byte	0x5
 11673 00d4 A402     		.uleb128 0x124
 11674 00d6 23390000 		.4byte	.LASF1029
 11675 00da 05       		.byte	0x5
 11676 00db A502     		.uleb128 0x125
 11677 00dd F13C0000 		.4byte	.LASF1030
 11678 00e1 05       		.byte	0x5
 11679 00e2 A602     		.uleb128 0x126
 11680 00e4 A2530000 		.4byte	.LASF1031
 11681 00e8 05       		.byte	0x5
 11682 00e9 A702     		.uleb128 0x127
 11683 00eb 459F0000 		.4byte	.LASF1032
 11684 00ef 05       		.byte	0x5
 11685 00f0 B002     		.uleb128 0x130
 11686 00f2 A9200000 		.4byte	.LASF1033
 11687 00f6 05       		.byte	0x5
ARM GAS  C:\Users\30806\AppData\Local\Temp\ccYcD1nI.s 			page 210


 11688 00f7 CE02     		.uleb128 0x14e
 11689 00f9 E3220000 		.4byte	.LASF1034
 11690 00fd 05       		.byte	0x5
 11691 00fe CF02     		.uleb128 0x14f
 11692 0100 22080000 		.4byte	.LASF1035
 11693 0104 05       		.byte	0x5
 11694 0105 8903     		.uleb128 0x189
 11695 0107 2DB90000 		.4byte	.LASF1036
 11696 010b 05       		.byte	0x5
 11697 010c 8A03     		.uleb128 0x18a
 11698 010e A2150000 		.4byte	.LASF1037
 11699 0112 05       		.byte	0x5
 11700 0113 8B03     		.uleb128 0x18b
 11701 0115 E02F0000 		.4byte	.LASF1038
 11702 0119 05       		.byte	0x5
 11703 011a 9403     		.uleb128 0x194
 11704 011c CC430000 		.4byte	.LASF1039
 11705 0120 05       		.byte	0x5
 11706 0121 9503     		.uleb128 0x195
 11707 0123 27040000 		.4byte	.LASF1040
 11708 0127 05       		.byte	0x5
 11709 0128 9603     		.uleb128 0x196
 11710 012a 34B80000 		.4byte	.LASF1041
 11711 012e 06       		.byte	0x6
 11712 012f 9B03     		.uleb128 0x19b
 11713 0131 6C900000 		.4byte	.LASF1042
 11714 0135 05       		.byte	0x5
 11715 0136 A703     		.uleb128 0x1a7
 11716 0138 91670000 		.4byte	.LASF1043
 11717 013c 05       		.byte	0x5
 11718 013d A803     		.uleb128 0x1a8
 11719 013f E30D0000 		.4byte	.LASF1044
 11720 0143 05       		.byte	0x5
 11721 0144 A903     		.uleb128 0x1a9
 11722 0146 981C0000 		.4byte	.LASF1045
 11723 014a 05       		.byte	0x5
 11724 014b AC03     		.uleb128 0x1ac
 11725 014d 65070000 		.4byte	.LASF1046
 11726 0151 05       		.byte	0x5
 11727 0152 AD03     		.uleb128 0x1ad
 11728 0154 29890000 		.4byte	.LASF1047
 11729 0158 05       		.byte	0x5
 11730 0159 AE03     		.uleb128 0x1ae
 11731 015b CC6D0000 		.4byte	.LASF1048
 11732 015f 05       		.byte	0x5
 11733 0160 DC03     		.uleb128 0x1dc
 11734 0162 B33D0000 		.4byte	.LASF1049
 11735 0166 05       		.byte	0x5
 11736 0167 F503     		.uleb128 0x1f5
 11737 0169 FB190000 		.4byte	.LASF1050
 11738 016d 05       		.byte	0x5
 11739 016e F803     		.uleb128 0x1f8
 11740 0170 A7390000 		.4byte	.LASF1051
 11741 0174 05       		.byte	0x5
 11742 0175 FC03     		.uleb128 0x1fc
 11743 0177 E4120000 		.4byte	.LASF1052
 11744 017b 05       		.byte	0x5
ARM GAS  C:\Users\30806\AppData\Local\Temp\ccYcD1nI.s 			page 211


 11745 017c FD03     		.uleb128 0x1fd
 11746 017e 11820000 		.4byte	.LASF1053
 11747 0182 05       		.byte	0x5
 11748 0183 FF03     		.uleb128 0x1ff
 11749 0185 45010000 		.4byte	.LASF1054
 11750 0189 00       		.byte	0
 11751              		.section	.debug_macro,"G",%progbits,wm4.cpu_defines.h.31.bf53b50a3b7882b34c717ebded187478,comdat
 11752              	.Ldebug_macro27:
 11753 0000 0400     		.2byte	0x4
 11754 0002 00       		.byte	0
 11755 0003 05       		.byte	0x5
 11756 0004 1F       		.uleb128 0x1f
 11757 0005 D29C0000 		.4byte	.LASF1056
 11758 0009 05       		.byte	0x5
 11759 000a 23       		.uleb128 0x23
 11760 000b A1160000 		.4byte	.LASF1057
 11761 000f 00       		.byte	0
 11762              		.section	.debug_macro,"G",%progbits,wm4.cconfig.h.530.b51f835d879b7340e16f29fed7cf7741,comdat
 11763              	.Ldebug_macro28:
 11764 0000 0400     		.2byte	0x4
 11765 0002 00       		.byte	0
 11766 0003 05       		.byte	0x5
 11767 0004 9204     		.uleb128 0x212
 11768 0006 02A20000 		.4byte	.LASF1058
 11769 000a 05       		.byte	0x5
 11770 000b 9904     		.uleb128 0x219
 11771 000d BB030000 		.4byte	.LASF1059
 11772 0011 05       		.byte	0x5
 11773 0012 A104     		.uleb128 0x221
 11774 0014 73630000 		.4byte	.LASF1060
 11775 0018 05       		.byte	0x5
 11776 0019 AE04     		.uleb128 0x22e
 11777 001b F8530000 		.4byte	.LASF1061
 11778 001f 05       		.byte	0x5
 11779 0020 AF04     		.uleb128 0x22f
 11780 0022 D3620000 		.4byte	.LASF1062
 11781 0026 05       		.byte	0x5
 11782 0027 C104     		.uleb128 0x241
 11783 0029 330C0000 		.4byte	.LASF1063
 11784 002d 05       		.byte	0x5
 11785 002e C804     		.uleb128 0x248
 11786 0030 C30D0000 		.4byte	.LASF1064
 11787 0034 02       		.byte	0x2
 11788 0035 CB04     		.uleb128 0x24b
 11789 0037 6D696E00 		.ascii	"min\000"
 11790 003b 02       		.byte	0x2
 11791 003c CC04     		.uleb128 0x24c
 11792 003e 6D617800 		.ascii	"max\000"
 11793 0042 05       		.byte	0x5
 11794 0043 D204     		.uleb128 0x252
 11795 0045 0B170000 		.4byte	.LASF1065
 11796 0049 05       		.byte	0x5
 11797 004a D504     		.uleb128 0x255
 11798 004c EC650000 		.4byte	.LASF1066
 11799 0050 05       		.byte	0x5
 11800 0051 D804     		.uleb128 0x258
 11801 0053 8B490000 		.4byte	.LASF1067
ARM GAS  C:\Users\30806\AppData\Local\Temp\ccYcD1nI.s 			page 212


 11802 0057 05       		.byte	0x5
 11803 0058 DB04     		.uleb128 0x25b
 11804 005a EBAE0000 		.4byte	.LASF1068
 11805 005e 05       		.byte	0x5
 11806 005f DE04     		.uleb128 0x25e
 11807 0061 35770000 		.4byte	.LASF1069
 11808 0065 05       		.byte	0x5
 11809 0066 8405     		.uleb128 0x284
 11810 0068 277D0000 		.4byte	.LASF1070
 11811 006c 05       		.byte	0x5
 11812 006d 8505     		.uleb128 0x285
 11813 006f 043A0000 		.4byte	.LASF1071
 11814 0073 05       		.byte	0x5
 11815 0074 8605     		.uleb128 0x286
 11816 0076 906E0000 		.4byte	.LASF1072
 11817 007a 05       		.byte	0x5
 11818 007b 8705     		.uleb128 0x287
 11819 007d AB270000 		.4byte	.LASF1073
 11820 0081 05       		.byte	0x5
 11821 0082 8905     		.uleb128 0x289
 11822 0084 7E7F0000 		.4byte	.LASF1074
 11823 0088 05       		.byte	0x5
 11824 0089 BD05     		.uleb128 0x2bd
 11825 008b 1B1D0000 		.4byte	.LASF1075
 11826 008f 05       		.byte	0x5
 11827 0090 C905     		.uleb128 0x2c9
 11828 0092 1B9B0000 		.4byte	.LASF1076
 11829 0096 05       		.byte	0x5
 11830 0097 CF05     		.uleb128 0x2cf
 11831 0099 77110000 		.4byte	.LASF1077
 11832 009d 05       		.byte	0x5
 11833 009e D205     		.uleb128 0x2d2
 11834 00a0 2E900000 		.4byte	.LASF1078
 11835 00a4 05       		.byte	0x5
 11836 00a5 D805     		.uleb128 0x2d8
 11837 00a7 868C0000 		.4byte	.LASF1079
 11838 00ab 05       		.byte	0x5
 11839 00ac DE05     		.uleb128 0x2de
 11840 00ae 4A640000 		.4byte	.LASF1080
 11841 00b2 05       		.byte	0x5
 11842 00b3 E705     		.uleb128 0x2e7
 11843 00b5 698C0000 		.4byte	.LASF1081
 11844 00b9 05       		.byte	0x5
 11845 00ba ED05     		.uleb128 0x2ed
 11846 00bc A2640000 		.4byte	.LASF1082
 11847 00c0 05       		.byte	0x5
 11848 00c1 F005     		.uleb128 0x2f0
 11849 00c3 83890000 		.4byte	.LASF1083
 11850 00c7 05       		.byte	0x5
 11851 00c8 F305     		.uleb128 0x2f3
 11852 00ca 1B130000 		.4byte	.LASF1084
 11853 00ce 05       		.byte	0x5
 11854 00cf 8B06     		.uleb128 0x30b
 11855 00d1 B50C0000 		.4byte	.LASF1085
 11856 00d5 05       		.byte	0x5
 11857 00d6 9106     		.uleb128 0x311
 11858 00d8 44210000 		.4byte	.LASF1086
ARM GAS  C:\Users\30806\AppData\Local\Temp\ccYcD1nI.s 			page 213


 11859 00dc 05       		.byte	0x5
 11860 00dd 9706     		.uleb128 0x317
 11861 00df D5030000 		.4byte	.LASF1087
 11862 00e3 05       		.byte	0x5
 11863 00e4 9A06     		.uleb128 0x31a
 11864 00e6 427B0000 		.4byte	.LASF1088
 11865 00ea 05       		.byte	0x5
 11866 00eb A606     		.uleb128 0x326
 11867 00ed 2B050000 		.4byte	.LASF1089
 11868 00f1 05       		.byte	0x5
 11869 00f2 A906     		.uleb128 0x329
 11870 00f4 02A90000 		.4byte	.LASF1090
 11871 00f8 05       		.byte	0x5
 11872 00f9 AF06     		.uleb128 0x32f
 11873 00fb ACA90000 		.4byte	.LASF1091
 11874 00ff 05       		.byte	0x5
 11875 0100 BB06     		.uleb128 0x33b
 11876 0102 39A10000 		.4byte	.LASF1092
 11877 0106 05       		.byte	0x5
 11878 0107 C106     		.uleb128 0x341
 11879 0109 71620000 		.4byte	.LASF1093
 11880 010d 05       		.byte	0x5
 11881 010e C406     		.uleb128 0x344
 11882 0110 19870000 		.4byte	.LASF1094
 11883 0114 05       		.byte	0x5
 11884 0115 C706     		.uleb128 0x347
 11885 0117 AE6C0000 		.4byte	.LASF1095
 11886 011b 05       		.byte	0x5
 11887 011c D006     		.uleb128 0x350
 11888 011e 32530000 		.4byte	.LASF1096
 11889 0122 05       		.byte	0x5
 11890 0123 D306     		.uleb128 0x353
 11891 0125 2AAC0000 		.4byte	.LASF1097
 11892 0129 05       		.byte	0x5
 11893 012a D606     		.uleb128 0x356
 11894 012c DD170000 		.4byte	.LASF1098
 11895 0130 05       		.byte	0x5
 11896 0131 DC06     		.uleb128 0x35c
 11897 0133 93100000 		.4byte	.LASF1099
 11898 0137 05       		.byte	0x5
 11899 0138 DF06     		.uleb128 0x35f
 11900 013a E1AC0000 		.4byte	.LASF1100
 11901 013e 05       		.byte	0x5
 11902 013f F406     		.uleb128 0x374
 11903 0141 84920000 		.4byte	.LASF1101
 11904 0145 05       		.byte	0x5
 11905 0146 F706     		.uleb128 0x377
 11906 0148 128C0000 		.4byte	.LASF1102
 11907 014c 05       		.byte	0x5
 11908 014d FA06     		.uleb128 0x37a
 11909 014f 9B030000 		.4byte	.LASF1103
 11910 0153 05       		.byte	0x5
 11911 0154 8307     		.uleb128 0x383
 11912 0156 CD260000 		.4byte	.LASF1104
 11913 015a 05       		.byte	0x5
 11914 015b 8607     		.uleb128 0x386
 11915 015d F5400000 		.4byte	.LASF1105
ARM GAS  C:\Users\30806\AppData\Local\Temp\ccYcD1nI.s 			page 214


 11916 0161 05       		.byte	0x5
 11917 0162 8907     		.uleb128 0x389
 11918 0164 7F480000 		.4byte	.LASF1106
 11919 0168 05       		.byte	0x5
 11920 0169 8C07     		.uleb128 0x38c
 11921 016b 26980000 		.4byte	.LASF1107
 11922 016f 05       		.byte	0x5
 11923 0170 8F07     		.uleb128 0x38f
 11924 0172 D7480000 		.4byte	.LASF1108
 11925 0176 05       		.byte	0x5
 11926 0177 9207     		.uleb128 0x392
 11927 0179 F27F0000 		.4byte	.LASF1109
 11928 017d 05       		.byte	0x5
 11929 017e 9E07     		.uleb128 0x39e
 11930 0180 33470000 		.4byte	.LASF1110
 11931 0184 05       		.byte	0x5
 11932 0185 A107     		.uleb128 0x3a1
 11933 0187 3B150000 		.4byte	.LASF1111
 11934 018b 05       		.byte	0x5
 11935 018c A707     		.uleb128 0x3a7
 11936 018e 63140000 		.4byte	.LASF1112
 11937 0192 05       		.byte	0x5
 11938 0193 AD07     		.uleb128 0x3ad
 11939 0195 BC170000 		.4byte	.LASF1113
 11940 0199 05       		.byte	0x5
 11941 019a B007     		.uleb128 0x3b0
 11942 019c 40B90000 		.4byte	.LASF1114
 11943 01a0 05       		.byte	0x5
 11944 01a1 B307     		.uleb128 0x3b3
 11945 01a3 1AA10000 		.4byte	.LASF1115
 11946 01a7 05       		.byte	0x5
 11947 01a8 B607     		.uleb128 0x3b6
 11948 01aa 046C0000 		.4byte	.LASF1116
 11949 01ae 05       		.byte	0x5
 11950 01af B907     		.uleb128 0x3b9
 11951 01b1 60930000 		.4byte	.LASF1117
 11952 01b5 05       		.byte	0x5
 11953 01b6 BF07     		.uleb128 0x3bf
 11954 01b8 65030000 		.4byte	.LASF1118
 11955 01bc 05       		.byte	0x5
 11956 01bd E007     		.uleb128 0x3e0
 11957 01bf 831C0000 		.4byte	.LASF1119
 11958 01c3 05       		.byte	0x5
 11959 01c4 EC07     		.uleb128 0x3ec
 11960 01c6 805B0000 		.4byte	.LASF1120
 11961 01ca 05       		.byte	0x5
 11962 01cb FB07     		.uleb128 0x3fb
 11963 01cd 71460000 		.4byte	.LASF1121
 11964 01d1 05       		.byte	0x5
 11965 01d2 FE07     		.uleb128 0x3fe
 11966 01d4 96730000 		.4byte	.LASF1122
 11967 01d8 05       		.byte	0x5
 11968 01d9 8708     		.uleb128 0x407
 11969 01db 8E9E0000 		.4byte	.LASF1123
 11970 01df 05       		.byte	0x5
 11971 01e0 8D08     		.uleb128 0x40d
 11972 01e2 A29D0000 		.4byte	.LASF1124
ARM GAS  C:\Users\30806\AppData\Local\Temp\ccYcD1nI.s 			page 215


 11973 01e6 05       		.byte	0x5
 11974 01e7 9308     		.uleb128 0x413
 11975 01e9 D78B0000 		.4byte	.LASF1125
 11976 01ed 05       		.byte	0x5
 11977 01ee 9608     		.uleb128 0x416
 11978 01f0 EA620000 		.4byte	.LASF1126
 11979 01f4 05       		.byte	0x5
 11980 01f5 9908     		.uleb128 0x419
 11981 01f7 84720000 		.4byte	.LASF1127
 11982 01fb 05       		.byte	0x5
 11983 01fc 9C08     		.uleb128 0x41c
 11984 01fe B32A0000 		.4byte	.LASF1128
 11985 0202 05       		.byte	0x5
 11986 0203 A208     		.uleb128 0x422
 11987 0205 58510000 		.4byte	.LASF1129
 11988 0209 05       		.byte	0x5
 11989 020a A508     		.uleb128 0x425
 11990 020c E4AF0000 		.4byte	.LASF1130
 11991 0210 05       		.byte	0x5
 11992 0211 A808     		.uleb128 0x428
 11993 0213 0A880000 		.4byte	.LASF1131
 11994 0217 05       		.byte	0x5
 11995 0218 AB08     		.uleb128 0x42b
 11996 021a 67570000 		.4byte	.LASF1132
 11997 021e 05       		.byte	0x5
 11998 021f B708     		.uleb128 0x437
 11999 0221 26260000 		.4byte	.LASF1133
 12000 0225 05       		.byte	0x5
 12001 0226 CD08     		.uleb128 0x44d
 12002 0228 507A0000 		.4byte	.LASF1134
 12003 022c 05       		.byte	0x5
 12004 022d D008     		.uleb128 0x450
 12005 022f CD970000 		.4byte	.LASF1135
 12006 0233 05       		.byte	0x5
 12007 0234 DF08     		.uleb128 0x45f
 12008 0236 1EB70000 		.4byte	.LASF1136
 12009 023a 05       		.byte	0x5
 12010 023b E508     		.uleb128 0x465
 12011 023d D96F0000 		.4byte	.LASF1137
 12012 0241 05       		.byte	0x5
 12013 0242 E808     		.uleb128 0x468
 12014 0244 CA3A0000 		.4byte	.LASF1138
 12015 0248 05       		.byte	0x5
 12016 0249 F108     		.uleb128 0x471
 12017 024b 358E0000 		.4byte	.LASF1139
 12018 024f 05       		.byte	0x5
 12019 0250 F408     		.uleb128 0x474
 12020 0252 EB5D0000 		.4byte	.LASF1140
 12021 0256 05       		.byte	0x5
 12022 0257 F708     		.uleb128 0x477
 12023 0259 220B0000 		.4byte	.LASF1141
 12024 025d 05       		.byte	0x5
 12025 025e 8009     		.uleb128 0x480
 12026 0260 C72F0000 		.4byte	.LASF1142
 12027 0264 05       		.byte	0x5
 12028 0265 8909     		.uleb128 0x489
 12029 0267 66480000 		.4byte	.LASF1143
ARM GAS  C:\Users\30806\AppData\Local\Temp\ccYcD1nI.s 			page 216


 12030 026b 05       		.byte	0x5
 12031 026c 8F09     		.uleb128 0x48f
 12032 026e 30490000 		.4byte	.LASF1144
 12033 0272 05       		.byte	0x5
 12034 0273 9209     		.uleb128 0x492
 12035 0275 37920000 		.4byte	.LASF1145
 12036 0279 05       		.byte	0x5
 12037 027a 9509     		.uleb128 0x495
 12038 027c 832E0000 		.4byte	.LASF1146
 12039 0280 05       		.byte	0x5
 12040 0281 9809     		.uleb128 0x498
 12041 0283 9F070000 		.4byte	.LASF1147
 12042 0287 05       		.byte	0x5
 12043 0288 9B09     		.uleb128 0x49b
 12044 028a 9E0D0000 		.4byte	.LASF1148
 12045 028e 05       		.byte	0x5
 12046 028f 9E09     		.uleb128 0x49e
 12047 0291 BC810000 		.4byte	.LASF1149
 12048 0295 05       		.byte	0x5
 12049 0296 A109     		.uleb128 0x4a1
 12050 0298 F7A40000 		.4byte	.LASF1150
 12051 029c 05       		.byte	0x5
 12052 029d A409     		.uleb128 0x4a4
 12053 029f D9340000 		.4byte	.LASF1151
 12054 02a3 05       		.byte	0x5
 12055 02a4 A709     		.uleb128 0x4a7
 12056 02a6 93780000 		.4byte	.LASF1152
 12057 02aa 05       		.byte	0x5
 12058 02ab FA0A     		.uleb128 0x57a
 12059 02ad F71E0000 		.4byte	.LASF1153
 12060 02b1 05       		.byte	0x5
 12061 02b2 800B     		.uleb128 0x580
 12062 02b4 E1550000 		.4byte	.LASF1154
 12063 02b8 05       		.byte	0x5
 12064 02b9 830B     		.uleb128 0x583
 12065 02bb E4580000 		.4byte	.LASF1155
 12066 02bf 05       		.byte	0x5
 12067 02c0 860B     		.uleb128 0x586
 12068 02c2 C4750000 		.4byte	.LASF1156
 12069 02c6 05       		.byte	0x5
 12070 02c7 890B     		.uleb128 0x589
 12071 02c9 9F770000 		.4byte	.LASF1157
 12072 02cd 05       		.byte	0x5
 12073 02ce 8C0B     		.uleb128 0x58c
 12074 02d0 DF430000 		.4byte	.LASF1158
 12075 02d4 05       		.byte	0x5
 12076 02d5 8F0B     		.uleb128 0x58f
 12077 02d7 3F120000 		.4byte	.LASF1159
 12078 02db 05       		.byte	0x5
 12079 02dc A10B     		.uleb128 0x5a1
 12080 02de DF6E0000 		.4byte	.LASF1160
 12081 02e2 05       		.byte	0x5
 12082 02e3 A80B     		.uleb128 0x5a8
 12083 02e5 08A60000 		.4byte	.LASF1161
 12084 02e9 05       		.byte	0x5
 12085 02ea B50B     		.uleb128 0x5b5
 12086 02ec 190C0000 		.4byte	.LASF1162
ARM GAS  C:\Users\30806\AppData\Local\Temp\ccYcD1nI.s 			page 217


 12087 02f0 05       		.byte	0x5
 12088 02f1 B90B     		.uleb128 0x5b9
 12089 02f3 F7830000 		.4byte	.LASF1163
 12090 02f7 05       		.byte	0x5
 12091 02f8 BD0B     		.uleb128 0x5bd
 12092 02fa FA740000 		.4byte	.LASF1164
 12093 02fe 05       		.byte	0x5
 12094 02ff C10B     		.uleb128 0x5c1
 12095 0301 243D0000 		.4byte	.LASF1165
 12096 0305 05       		.byte	0x5
 12097 0306 CA0B     		.uleb128 0x5ca
 12098 0308 DD1E0000 		.4byte	.LASF1166
 12099 030c 05       		.byte	0x5
 12100 030d CE0B     		.uleb128 0x5ce
 12101 030f 6B0B0000 		.4byte	.LASF1167
 12102 0313 05       		.byte	0x5
 12103 0314 D20B     		.uleb128 0x5d2
 12104 0316 E52B0000 		.4byte	.LASF1168
 12105 031a 05       		.byte	0x5
 12106 031b D60B     		.uleb128 0x5d6
 12107 031d 48460000 		.4byte	.LASF1169
 12108 0321 05       		.byte	0x5
 12109 0322 D90B     		.uleb128 0x5d9
 12110 0324 B4890000 		.4byte	.LASF1170
 12111 0328 05       		.byte	0x5
 12112 0329 E00B     		.uleb128 0x5e0
 12113 032b 201B0000 		.4byte	.LASF1171
 12114 032f 05       		.byte	0x5
 12115 0330 E60B     		.uleb128 0x5e6
 12116 0332 A7410000 		.4byte	.LASF1172
 12117 0336 05       		.byte	0x5
 12118 0337 EB0B     		.uleb128 0x5eb
 12119 0339 A5920000 		.4byte	.LASF1173
 12120 033d 05       		.byte	0x5
 12121 033e F10B     		.uleb128 0x5f1
 12122 0340 1A360000 		.4byte	.LASF1174
 12123 0344 05       		.byte	0x5
 12124 0345 F70B     		.uleb128 0x5f7
 12125 0347 840D0000 		.4byte	.LASF1175
 12126 034b 05       		.byte	0x5
 12127 034c FA0B     		.uleb128 0x5fa
 12128 034e BC8B0000 		.4byte	.LASF1176
 12129 0352 05       		.byte	0x5
 12130 0353 FD0B     		.uleb128 0x5fd
 12131 0355 59730000 		.4byte	.LASF1177
 12132 0359 05       		.byte	0x5
 12133 035a 800C     		.uleb128 0x600
 12134 035c D45E0000 		.4byte	.LASF1178
 12135 0360 05       		.byte	0x5
 12136 0361 A00C     		.uleb128 0x620
 12137 0363 6B650000 		.4byte	.LASF1179
 12138 0367 05       		.byte	0x5
 12139 0368 A40C     		.uleb128 0x624
 12140 036a 6C130000 		.4byte	.LASF1180
 12141 036e 05       		.byte	0x5
 12142 036f A80C     		.uleb128 0x628
 12143 0371 85540000 		.4byte	.LASF1181
ARM GAS  C:\Users\30806\AppData\Local\Temp\ccYcD1nI.s 			page 218


 12144 0375 05       		.byte	0x5
 12145 0376 AC0C     		.uleb128 0x62c
 12146 0378 224D0000 		.4byte	.LASF1182
 12147 037c 05       		.byte	0x5
 12148 037d B00C     		.uleb128 0x630
 12149 037f 7E570000 		.4byte	.LASF1183
 12150 0383 05       		.byte	0x5
 12151 0384 B40C     		.uleb128 0x634
 12152 0386 BDB60000 		.4byte	.LASF1184
 12153 038a 05       		.byte	0x5
 12154 038b C90C     		.uleb128 0x649
 12155 038d 04670000 		.4byte	.LASF1185
 12156 0391 05       		.byte	0x5
 12157 0392 CC0C     		.uleb128 0x64c
 12158 0394 179A0000 		.4byte	.LASF1186
 12159 0398 05       		.byte	0x5
 12160 0399 CF0C     		.uleb128 0x64f
 12161 039b BD5B0000 		.4byte	.LASF1187
 12162 039f 05       		.byte	0x5
 12163 03a0 DB0C     		.uleb128 0x65b
 12164 03a2 602A0000 		.4byte	.LASF1188
 12165 03a6 05       		.byte	0x5
 12166 03a7 810D     		.uleb128 0x681
 12167 03a9 73730000 		.4byte	.LASF1189
 12168 03ad 05       		.byte	0x5
 12169 03ae 8A0D     		.uleb128 0x68a
 12170 03b0 3F3D0000 		.4byte	.LASF1190
 12171 03b4 05       		.byte	0x5
 12172 03b5 900D     		.uleb128 0x690
 12173 03b7 005E0000 		.4byte	.LASF1191
 12174 03bb 05       		.byte	0x5
 12175 03bc 9A0D     		.uleb128 0x69a
 12176 03be 099E0000 		.4byte	.LASF1192
 12177 03c2 05       		.byte	0x5
 12178 03c3 9D0D     		.uleb128 0x69d
 12179 03c5 2B8D0000 		.4byte	.LASF1193
 12180 03c9 05       		.byte	0x5
 12181 03ca A60D     		.uleb128 0x6a6
 12182 03cc 74270000 		.4byte	.LASF1194
 12183 03d0 00       		.byte	0
 12184              		.section	.debug_macro,"G",%progbits,wm4.cpp_type_traits.h.33.1347139df156938d2b4c9385225deb4d,comd
 12185              	.Ldebug_macro29:
 12186 0000 0400     		.2byte	0x4
 12187 0002 00       		.byte	0
 12188 0003 05       		.byte	0x5
 12189 0004 21       		.uleb128 0x21
 12190 0005 E4300000 		.4byte	.LASF1195
 12191 0009 05       		.byte	0x5
 12192 000a FF01     		.uleb128 0xff
 12193 000c 943F0000 		.4byte	.LASF1196
 12194 0010 06       		.byte	0x6
 12195 0011 9A02     		.uleb128 0x11a
 12196 0013 2C9E0000 		.4byte	.LASF1197
 12197 0017 00       		.byte	0
 12198              		.section	.debug_macro,"G",%progbits,wm4.math.h.13.603f363c77424d37f52e1021ba0304f5,comdat
 12199              	.Ldebug_macro30:
 12200 0000 0400     		.2byte	0x4
ARM GAS  C:\Users\30806\AppData\Local\Temp\ccYcD1nI.s 			page 219


 12201 0002 00       		.byte	0
 12202 0003 05       		.byte	0x5
 12203 0004 0D       		.uleb128 0xd
 12204 0005 F8270000 		.4byte	.LASF1201
 12205 0009 05       		.byte	0x5
 12206 000a 13       		.uleb128 0x13
 12207 000b 29670000 		.4byte	.LASF1202
 12208 000f 05       		.byte	0x5
 12209 0010 17       		.uleb128 0x17
 12210 0011 C74F0000 		.4byte	.LASF1203
 12211 0015 05       		.byte	0x5
 12212 0016 1B       		.uleb128 0x1b
 12213 0017 5F040000 		.4byte	.LASF1204
 12214 001b 05       		.byte	0x5
 12215 001c 1F       		.uleb128 0x1f
 12216 001d 31A80000 		.4byte	.LASF1205
 12217 0021 05       		.byte	0x5
 12218 0022 23       		.uleb128 0x23
 12219 0023 91010000 		.4byte	.LASF1206
 12220 0027 05       		.byte	0x5
 12221 0028 9101     		.uleb128 0x91
 12222 002a D42C0000 		.4byte	.LASF1207
 12223 002e 05       		.byte	0x5
 12224 002f 9201     		.uleb128 0x92
 12225 0031 F7410000 		.4byte	.LASF1208
 12226 0035 06       		.byte	0x6
 12227 0036 A801     		.uleb128 0xa8
 12228 0038 85320000 		.4byte	.LASF1209
 12229 003c 05       		.byte	0x5
 12230 003d AB01     		.uleb128 0xab
 12231 003f F28B0000 		.4byte	.LASF1210
 12232 0043 05       		.byte	0x5
 12233 0044 AC01     		.uleb128 0xac
 12234 0046 EA0E0000 		.4byte	.LASF1211
 12235 004a 05       		.byte	0x5
 12236 004b AD01     		.uleb128 0xad
 12237 004d 80710000 		.4byte	.LASF1212
 12238 0051 05       		.byte	0x5
 12239 0052 AE01     		.uleb128 0xae
 12240 0054 819C0000 		.4byte	.LASF1213
 12241 0058 05       		.byte	0x5
 12242 0059 AF01     		.uleb128 0xaf
 12243 005b 01320000 		.4byte	.LASF1214
 12244 005f 05       		.byte	0x5
 12245 0060 B201     		.uleb128 0xb2
 12246 0062 020E0000 		.4byte	.LASF1215
 12247 0066 05       		.byte	0x5
 12248 0067 B501     		.uleb128 0xb5
 12249 0069 AD9E0000 		.4byte	.LASF1216
 12250 006d 05       		.byte	0x5
 12251 006e B901     		.uleb128 0xb9
 12252 0070 C6570000 		.4byte	.LASF1217
 12253 0074 05       		.byte	0x5
 12254 0075 BC01     		.uleb128 0xbc
 12255 0077 FC0B0000 		.4byte	.LASF1218
 12256 007b 05       		.byte	0x5
 12257 007c C201     		.uleb128 0xc2
ARM GAS  C:\Users\30806\AppData\Local\Temp\ccYcD1nI.s 			page 220


 12258 007e E2380000 		.4byte	.LASF1219
 12259 0082 05       		.byte	0x5
 12260 0083 C501     		.uleb128 0xc5
 12261 0085 BC240000 		.4byte	.LASF1220
 12262 0089 05       		.byte	0x5
 12263 008a C901     		.uleb128 0xc9
 12264 008c ED130000 		.4byte	.LASF1221
 12265 0090 05       		.byte	0x5
 12266 0091 DD01     		.uleb128 0xdd
 12267 0093 586D0000 		.4byte	.LASF1222
 12268 0097 05       		.byte	0x5
 12269 0098 E101     		.uleb128 0xe1
 12270 009a D4210000 		.4byte	.LASF1223
 12271 009e 05       		.byte	0x5
 12272 009f E401     		.uleb128 0xe4
 12273 00a1 B7290000 		.4byte	.LASF1224
 12274 00a5 05       		.byte	0x5
 12275 00a6 E701     		.uleb128 0xe7
 12276 00a8 835A0000 		.4byte	.LASF1225
 12277 00ac 05       		.byte	0x5
 12278 00ad E901     		.uleb128 0xe9
 12279 00af 58700000 		.4byte	.LASF1226
 12280 00b3 05       		.byte	0x5
 12281 00b4 FE01     		.uleb128 0xfe
 12282 00b6 1B740000 		.4byte	.LASF1227
 12283 00ba 05       		.byte	0x5
 12284 00bb 8E02     		.uleb128 0x10e
 12285 00bd 264C0000 		.4byte	.LASF1228
 12286 00c1 05       		.byte	0x5
 12287 00c2 8F02     		.uleb128 0x10f
 12288 00c4 F5640000 		.4byte	.LASF1229
 12289 00c8 05       		.byte	0x5
 12290 00c9 9002     		.uleb128 0x110
 12291 00cb 33A30000 		.4byte	.LASF1230
 12292 00cf 05       		.byte	0x5
 12293 00d0 9102     		.uleb128 0x111
 12294 00d2 58B20000 		.4byte	.LASF1231
 12295 00d6 05       		.byte	0x5
 12296 00d7 9202     		.uleb128 0x112
 12297 00d9 72340000 		.4byte	.LASF1232
 12298 00dd 05       		.byte	0x5
 12299 00de 9302     		.uleb128 0x113
 12300 00e0 D9AA0000 		.4byte	.LASF1233
 12301 00e4 05       		.byte	0x5
 12302 00e5 BE04     		.uleb128 0x23e
 12303 00e7 2F270000 		.4byte	.LASF1234
 12304 00eb 05       		.byte	0x5
 12305 00ec C204     		.uleb128 0x242
 12306 00ee 31130000 		.4byte	.LASF1235
 12307 00f2 05       		.byte	0x5
 12308 00f3 C904     		.uleb128 0x249
 12309 00f5 9B080000 		.4byte	.LASF1236
 12310 00f9 05       		.byte	0x5
 12311 00fa CB04     		.uleb128 0x24b
 12312 00fc 40280000 		.4byte	.LASF1237
 12313 0100 05       		.byte	0x5
 12314 0101 CC04     		.uleb128 0x24c
ARM GAS  C:\Users\30806\AppData\Local\Temp\ccYcD1nI.s 			page 221


 12315 0103 27940000 		.4byte	.LASF1238
 12316 0107 05       		.byte	0x5
 12317 0108 CD04     		.uleb128 0x24d
 12318 010a 9C8C0000 		.4byte	.LASF1239
 12319 010e 05       		.byte	0x5
 12320 010f CE04     		.uleb128 0x24e
 12321 0111 BC8C0000 		.4byte	.LASF1240
 12322 0115 05       		.byte	0x5
 12323 0116 CF04     		.uleb128 0x24f
 12324 0118 33650000 		.4byte	.LASF1241
 12325 011c 05       		.byte	0x5
 12326 011d D004     		.uleb128 0x250
 12327 011f 07800000 		.4byte	.LASF1242
 12328 0123 05       		.byte	0x5
 12329 0124 D104     		.uleb128 0x251
 12330 0126 BB6F0000 		.4byte	.LASF1243
 12331 012a 05       		.byte	0x5
 12332 012b D204     		.uleb128 0x252
 12333 012d 62AC0000 		.4byte	.LASF1244
 12334 0131 05       		.byte	0x5
 12335 0132 D304     		.uleb128 0x253
 12336 0134 0B560000 		.4byte	.LASF1245
 12337 0138 05       		.byte	0x5
 12338 0139 D404     		.uleb128 0x254
 12339 013b A5220000 		.4byte	.LASF1246
 12340 013f 05       		.byte	0x5
 12341 0140 D504     		.uleb128 0x255
 12342 0142 B59A0000 		.4byte	.LASF1247
 12343 0146 05       		.byte	0x5
 12344 0147 D604     		.uleb128 0x256
 12345 0149 872A0000 		.4byte	.LASF1248
 12346 014d 05       		.byte	0x5
 12347 014e D704     		.uleb128 0x257
 12348 0150 96AD0000 		.4byte	.LASF1249
 12349 0154 05       		.byte	0x5
 12350 0155 DD04     		.uleb128 0x25d
 12351 0157 E7240000 		.4byte	.LASF1250
 12352 015b 05       		.byte	0x5
 12353 015c DE04     		.uleb128 0x25e
 12354 015e 32760000 		.4byte	.LASF1251
 12355 0162 05       		.byte	0x5
 12356 0163 DF04     		.uleb128 0x25f
 12357 0165 C96B0000 		.4byte	.LASF1252
 12358 0169 05       		.byte	0x5
 12359 016a E004     		.uleb128 0x260
 12360 016c 4B780000 		.4byte	.LASF1253
 12361 0170 05       		.byte	0x5
 12362 0171 E104     		.uleb128 0x261
 12363 0173 3B5F0000 		.4byte	.LASF1254
 12364 0177 05       		.byte	0x5
 12365 0178 E204     		.uleb128 0x262
 12366 017a 90A50000 		.4byte	.LASF1255
 12367 017e 05       		.byte	0x5
 12368 017f E304     		.uleb128 0x263
 12369 0181 D5B10000 		.4byte	.LASF1256
 12370 0185 05       		.byte	0x5
 12371 0186 E404     		.uleb128 0x264
ARM GAS  C:\Users\30806\AppData\Local\Temp\ccYcD1nI.s 			page 222


 12372 0188 CF7E0000 		.4byte	.LASF1257
 12373 018c 05       		.byte	0x5
 12374 018d E504     		.uleb128 0x265
 12375 018f 2F330000 		.4byte	.LASF1258
 12376 0193 00       		.byte	0
 12377              		.section	.debug_macro,"G",%progbits,wm4.std_abs.h.31.040e5b5b1580bc5021e41927de41d0b5,comdat
 12378              	.Ldebug_macro31:
 12379 0000 0400     		.2byte	0x4
 12380 0002 00       		.byte	0
 12381 0003 05       		.byte	0x5
 12382 0004 1F       		.uleb128 0x1f
 12383 0005 99230000 		.4byte	.LASF1260
 12384 0009 05       		.byte	0x5
 12385 000a 25       		.uleb128 0x25
 12386 000b C3120000 		.4byte	.LASF1199
 12387 000f 00       		.byte	0
 12388              		.section	.debug_macro,"G",%progbits,wm4.stdlib.h.13.4ed386f5c1a80d71e72172885d946ef2,comdat
 12389              	.Ldebug_macro32:
 12390 0000 0400     		.2byte	0x4
 12391 0002 00       		.byte	0
 12392 0003 05       		.byte	0x5
 12393 0004 0D       		.uleb128 0xd
 12394 0005 A9440000 		.4byte	.LASF783
 12395 0009 05       		.byte	0x5
 12396 000a 0E       		.uleb128 0xe
 12397 000b C3960000 		.4byte	.LASF1262
 12398 000f 05       		.byte	0x5
 12399 0010 0F       		.uleb128 0xf
 12400 0011 4CB50000 		.4byte	.LASF993
 12401 0015 00       		.byte	0
 12402              		.section	.debug_macro,"G",%progbits,wm4.alloca.h.8.dfc0c703c47ec3e69746825b17d9e66d,comdat
 12403              	.Ldebug_macro33:
 12404 0000 0400     		.2byte	0x4
 12405 0002 00       		.byte	0
 12406 0003 05       		.byte	0x5
 12407 0004 08       		.uleb128 0x8
 12408 0005 02790000 		.4byte	.LASF1264
 12409 0009 06       		.byte	0x6
 12410 000a 0D       		.uleb128 0xd
 12411 000b 3E010000 		.4byte	.LASF1265
 12412 000f 05       		.byte	0x5
 12413 0010 10       		.uleb128 0x10
 12414 0011 4B3E0000 		.4byte	.LASF1266
 12415 0015 00       		.byte	0
 12416              		.section	.debug_macro,"G",%progbits,wm4.stdlib.h.56.f4862cfbf4363a1db01842d5bdf72c18,comdat
 12417              	.Ldebug_macro34:
 12418 0000 0400     		.2byte	0x4
 12419 0002 00       		.byte	0
 12420 0003 05       		.byte	0x5
 12421 0004 38       		.uleb128 0x38
 12422 0005 A3760000 		.4byte	.LASF1267
 12423 0009 05       		.byte	0x5
 12424 000a 3C       		.uleb128 0x3c
 12425 000b B6AA0000 		.4byte	.LASF1268
 12426 000f 05       		.byte	0x5
 12427 0010 3D       		.uleb128 0x3d
 12428 0011 CD780000 		.4byte	.LASF1269
ARM GAS  C:\Users\30806\AppData\Local\Temp\ccYcD1nI.s 			page 223


 12429 0015 05       		.byte	0x5
 12430 0016 3F       		.uleb128 0x3f
 12431 0017 27830000 		.4byte	.LASF1270
 12432 001b 05       		.byte	0x5
 12433 001c 43       		.uleb128 0x43
 12434 001d A40E0000 		.4byte	.LASF1271
 12435 0021 05       		.byte	0x5
 12436 0022 A801     		.uleb128 0xa8
 12437 0024 D49D0000 		.4byte	.LASF1272
 12438 0028 00       		.byte	0
 12439              		.section	.debug_macro,"G",%progbits,wm4.std_abs.h.42.301267e565a27b578b118540cf0e4de0,comdat
 12440              	.Ldebug_macro35:
 12441 0000 0400     		.2byte	0x4
 12442 0002 00       		.byte	0
 12443 0003 06       		.byte	0x6
 12444 0004 2A       		.uleb128 0x2a
 12445 0005 356C0000 		.4byte	.LASF1259
 12446 0009 02       		.byte	0x2
 12447 000a 2C       		.uleb128 0x2c
 12448 000b 61627300 		.ascii	"abs\000"
 12449 000f 00       		.byte	0
 12450              		.section	.debug_macro,"G",%progbits,wm4.cmath.50.11a1e578194018fe11be5eaded245320,comdat
 12451              	.Ldebug_macro36:
 12452 0000 0400     		.2byte	0x4
 12453 0002 00       		.byte	0
 12454 0003 05       		.byte	0x5
 12455 0004 32       		.uleb128 0x32
 12456 0005 A6960000 		.4byte	.LASF1273
 12457 0009 02       		.byte	0x2
 12458 000a 35       		.uleb128 0x35
 12459 000b 64697600 		.ascii	"div\000"
 12460 000f 06       		.byte	0x6
 12461 0010 36       		.uleb128 0x36
 12462 0011 62570000 		.4byte	.LASF1274
 12463 0015 06       		.byte	0x6
 12464 0016 37       		.uleb128 0x37
 12465 0017 32AB0000 		.4byte	.LASF1275
 12466 001b 06       		.byte	0x6
 12467 001c 38       		.uleb128 0x38
 12468 001d FBA20000 		.4byte	.LASF1276
 12469 0021 06       		.byte	0x6
 12470 0022 39       		.uleb128 0x39
 12471 0023 DC450000 		.4byte	.LASF1277
 12472 0027 06       		.byte	0x6
 12473 0028 3A       		.uleb128 0x3a
 12474 0029 00640000 		.4byte	.LASF1278
 12475 002d 02       		.byte	0x2
 12476 002e 3B       		.uleb128 0x3b
 12477 002f 636F7300 		.ascii	"cos\000"
 12478 0033 06       		.byte	0x6
 12479 0034 3C       		.uleb128 0x3c
 12480 0035 507D0000 		.4byte	.LASF1279
 12481 0039 02       		.byte	0x2
 12482 003a 3D       		.uleb128 0x3d
 12483 003b 65787000 		.ascii	"exp\000"
 12484 003f 06       		.byte	0x6
 12485 0040 3E       		.uleb128 0x3e
ARM GAS  C:\Users\30806\AppData\Local\Temp\ccYcD1nI.s 			page 224


 12486 0041 36580000 		.4byte	.LASF1280
 12487 0045 06       		.byte	0x6
 12488 0046 3F       		.uleb128 0x3f
 12489 0047 39170000 		.4byte	.LASF1281
 12490 004b 06       		.byte	0x6
 12491 004c 40       		.uleb128 0x40
 12492 004d 629C0000 		.4byte	.LASF1282
 12493 0051 06       		.byte	0x6
 12494 0052 41       		.uleb128 0x41
 12495 0053 6C6A0000 		.4byte	.LASF1283
 12496 0057 06       		.byte	0x6
 12497 0058 42       		.uleb128 0x42
 12498 0059 43050000 		.4byte	.LASF1284
 12499 005d 02       		.byte	0x2
 12500 005e 43       		.uleb128 0x43
 12501 005f 6C6F6700 		.ascii	"log\000"
 12502 0063 06       		.byte	0x6
 12503 0064 44       		.uleb128 0x44
 12504 0065 3C000000 		.4byte	.LASF1285
 12505 0069 06       		.byte	0x6
 12506 006a 45       		.uleb128 0x45
 12507 006b 5A280000 		.4byte	.LASF1286
 12508 006f 02       		.byte	0x2
 12509 0070 46       		.uleb128 0x46
 12510 0071 706F7700 		.ascii	"pow\000"
 12511 0075 02       		.byte	0x2
 12512 0076 47       		.uleb128 0x47
 12513 0077 73696E00 		.ascii	"sin\000"
 12514 007b 06       		.byte	0x6
 12515 007c 48       		.uleb128 0x48
 12516 007d FB180000 		.4byte	.LASF1287
 12517 0081 06       		.byte	0x6
 12518 0082 49       		.uleb128 0x49
 12519 0083 ACB60000 		.4byte	.LASF1288
 12520 0087 02       		.byte	0x2
 12521 0088 4A       		.uleb128 0x4a
 12522 0089 74616E00 		.ascii	"tan\000"
 12523 008d 06       		.byte	0x6
 12524 008e 4B       		.uleb128 0x4b
 12525 008f 349E0000 		.4byte	.LASF1289
 12526 0093 06       		.byte	0x6
 12527 0094 8804     		.uleb128 0x208
 12528 0096 A5540000 		.4byte	.LASF1290
 12529 009a 06       		.byte	0x6
 12530 009b 8904     		.uleb128 0x209
 12531 009d 8DB30000 		.4byte	.LASF1291
 12532 00a1 06       		.byte	0x6
 12533 00a2 8A04     		.uleb128 0x20a
 12534 00a4 6F230000 		.4byte	.LASF1292
 12535 00a8 06       		.byte	0x6
 12536 00a9 8B04     		.uleb128 0x20b
 12537 00ab A4580000 		.4byte	.LASF1293
 12538 00af 06       		.byte	0x6
 12539 00b0 8C04     		.uleb128 0x20c
 12540 00b2 C4770000 		.4byte	.LASF1294
 12541 00b6 06       		.byte	0x6
 12542 00b7 8D04     		.uleb128 0x20d
ARM GAS  C:\Users\30806\AppData\Local\Temp\ccYcD1nI.s 			page 225


 12543 00b9 F70C0000 		.4byte	.LASF1295
 12544 00bd 06       		.byte	0x6
 12545 00be 8E04     		.uleb128 0x20e
 12546 00c0 B50B0000 		.4byte	.LASF1296
 12547 00c4 06       		.byte	0x6
 12548 00c5 8F04     		.uleb128 0x20f
 12549 00c7 7C8A0000 		.4byte	.LASF1297
 12550 00cb 06       		.byte	0x6
 12551 00cc 9004     		.uleb128 0x210
 12552 00ce 7F8C0000 		.4byte	.LASF1298
 12553 00d2 06       		.byte	0x6
 12554 00d3 9104     		.uleb128 0x211
 12555 00d5 C46A0000 		.4byte	.LASF1299
 12556 00d9 06       		.byte	0x6
 12557 00da 9204     		.uleb128 0x212
 12558 00dc C97D0000 		.4byte	.LASF1300
 12559 00e0 06       		.byte	0x6
 12560 00e1 9304     		.uleb128 0x213
 12561 00e3 E60A0000 		.4byte	.LASF1301
 12562 00e7 06       		.byte	0x6
 12563 00e8 BC07     		.uleb128 0x3bc
 12564 00ea 297A0000 		.4byte	.LASF1302
 12565 00ee 06       		.byte	0x6
 12566 00ef BD07     		.uleb128 0x3bd
 12567 00f1 32350000 		.4byte	.LASF1303
 12568 00f5 06       		.byte	0x6
 12569 00f6 BE07     		.uleb128 0x3be
 12570 00f8 6C350000 		.4byte	.LASF1304
 12571 00fc 06       		.byte	0x6
 12572 00fd BF07     		.uleb128 0x3bf
 12573 00ff 12840000 		.4byte	.LASF1305
 12574 0103 06       		.byte	0x6
 12575 0104 C007     		.uleb128 0x3c0
 12576 0106 98250000 		.4byte	.LASF1306
 12577 010a 06       		.byte	0x6
 12578 010b C107     		.uleb128 0x3c1
 12579 010d FEAF0000 		.4byte	.LASF1307
 12580 0111 06       		.byte	0x6
 12581 0112 C207     		.uleb128 0x3c2
 12582 0114 BD480000 		.4byte	.LASF1308
 12583 0118 06       		.byte	0x6
 12584 0119 C307     		.uleb128 0x3c3
 12585 011b 1E470000 		.4byte	.LASF1309
 12586 011f 06       		.byte	0x6
 12587 0120 C407     		.uleb128 0x3c4
 12588 0122 DA940000 		.4byte	.LASF1310
 12589 0126 06       		.byte	0x6
 12590 0127 C507     		.uleb128 0x3c5
 12591 0129 A4440000 		.4byte	.LASF1311
 12592 012d 06       		.byte	0x6
 12593 012e C607     		.uleb128 0x3c6
 12594 0130 38B00000 		.4byte	.LASF1312
 12595 0134 06       		.byte	0x6
 12596 0135 C707     		.uleb128 0x3c7
 12597 0137 860F0000 		.4byte	.LASF1313
 12598 013b 06       		.byte	0x6
 12599 013c C807     		.uleb128 0x3c8
ARM GAS  C:\Users\30806\AppData\Local\Temp\ccYcD1nI.s 			page 226


 12600 013e B95D0000 		.4byte	.LASF1314
 12601 0142 06       		.byte	0x6
 12602 0143 C907     		.uleb128 0x3c9
 12603 0145 E3130000 		.4byte	.LASF1315
 12604 0149 06       		.byte	0x6
 12605 014a CA07     		.uleb128 0x3ca
 12606 014c 7A260000 		.4byte	.LASF1316
 12607 0150 02       		.byte	0x2
 12608 0151 CB07     		.uleb128 0x3cb
 12609 0153 65726600 		.ascii	"erf\000"
 12610 0157 06       		.byte	0x6
 12611 0158 CC07     		.uleb128 0x3cc
 12612 015a B5B10000 		.4byte	.LASF1317
 12613 015e 06       		.byte	0x6
 12614 015f CD07     		.uleb128 0x3cd
 12615 0161 18840000 		.4byte	.LASF1318
 12616 0165 06       		.byte	0x6
 12617 0166 CE07     		.uleb128 0x3ce
 12618 0168 F2830000 		.4byte	.LASF1319
 12619 016c 06       		.byte	0x6
 12620 016d CF07     		.uleb128 0x3cf
 12621 016f CEB70000 		.4byte	.LASF1320
 12622 0173 06       		.byte	0x6
 12623 0174 D007     		.uleb128 0x3d0
 12624 0176 D4B70000 		.4byte	.LASF1321
 12625 017a 06       		.byte	0x6
 12626 017b D107     		.uleb128 0x3d1
 12627 017d 9D4F0000 		.4byte	.LASF1322
 12628 0181 06       		.byte	0x6
 12629 0182 D207     		.uleb128 0x3d2
 12630 0184 14360000 		.4byte	.LASF1323
 12631 0188 06       		.byte	0x6
 12632 0189 D307     		.uleb128 0x3d3
 12633 018b 420A0000 		.4byte	.LASF1324
 12634 018f 06       		.byte	0x6
 12635 0190 D407     		.uleb128 0x3d4
 12636 0192 64000000 		.4byte	.LASF1325
 12637 0196 06       		.byte	0x6
 12638 0197 D507     		.uleb128 0x3d5
 12639 0199 12850000 		.4byte	.LASF1326
 12640 019d 06       		.byte	0x6
 12641 019e D607     		.uleb128 0x3d6
 12642 01a0 31850000 		.4byte	.LASF1327
 12643 01a4 06       		.byte	0x6
 12644 01a5 D707     		.uleb128 0x3d7
 12645 01a7 E3A10000 		.4byte	.LASF1328
 12646 01ab 06       		.byte	0x6
 12647 01ac D807     		.uleb128 0x3d8
 12648 01ae 87160000 		.4byte	.LASF1329
 12649 01b2 06       		.byte	0x6
 12650 01b3 D907     		.uleb128 0x3d9
 12651 01b5 8B010000 		.4byte	.LASF1330
 12652 01b9 02       		.byte	0x2
 12653 01ba DA07     		.uleb128 0x3da
 12654 01bc 666D6100 		.ascii	"fma\000"
 12655 01c0 06       		.byte	0x6
 12656 01c1 DB07     		.uleb128 0x3db
ARM GAS  C:\Users\30806\AppData\Local\Temp\ccYcD1nI.s 			page 227


 12657 01c3 FF990000 		.4byte	.LASF1331
 12658 01c7 06       		.byte	0x6
 12659 01c8 DC07     		.uleb128 0x3dc
 12660 01ca 16750000 		.4byte	.LASF1332
 12661 01ce 06       		.byte	0x6
 12662 01cf DD07     		.uleb128 0x3dd
 12663 01d1 98750000 		.4byte	.LASF1333
 12664 01d5 06       		.byte	0x6
 12665 01d6 DE07     		.uleb128 0x3de
 12666 01d8 D48E0000 		.4byte	.LASF1334
 12667 01dc 06       		.byte	0x6
 12668 01dd DF07     		.uleb128 0x3df
 12669 01df 0FA50000 		.4byte	.LASF1335
 12670 01e3 06       		.byte	0x6
 12671 01e4 E007     		.uleb128 0x3e0
 12672 01e6 D28B0000 		.4byte	.LASF1336
 12673 01ea 06       		.byte	0x6
 12674 01eb E107     		.uleb128 0x3e1
 12675 01ed EB110000 		.4byte	.LASF1337
 12676 01f1 06       		.byte	0x6
 12677 01f2 E207     		.uleb128 0x3e2
 12678 01f4 17430000 		.4byte	.LASF1338
 12679 01f8 06       		.byte	0x6
 12680 01f9 E307     		.uleb128 0x3e3
 12681 01fb 54590000 		.4byte	.LASF1339
 12682 01ff 06       		.byte	0x6
 12683 0200 E407     		.uleb128 0x3e4
 12684 0202 A3980000 		.4byte	.LASF1340
 12685 0206 06       		.byte	0x6
 12686 0207 E507     		.uleb128 0x3e5
 12687 0209 E8840000 		.4byte	.LASF1341
 12688 020d 06       		.byte	0x6
 12689 020e E607     		.uleb128 0x3e6
 12690 0210 35320000 		.4byte	.LASF1342
 12691 0214 06       		.byte	0x6
 12692 0215 E707     		.uleb128 0x3e7
 12693 0217 380B0000 		.4byte	.LASF1343
 12694 021b 06       		.byte	0x6
 12695 021c E807     		.uleb128 0x3e8
 12696 021e 19910000 		.4byte	.LASF1344
 12697 0222 06       		.byte	0x6
 12698 0223 E907     		.uleb128 0x3e9
 12699 0225 3EA70000 		.4byte	.LASF1345
 12700 0229 06       		.byte	0x6
 12701 022a EA07     		.uleb128 0x3ea
 12702 022c B48B0000 		.4byte	.LASF1346
 12703 0230 06       		.byte	0x6
 12704 0231 EB07     		.uleb128 0x3eb
 12705 0233 075F0000 		.4byte	.LASF1347
 12706 0237 06       		.byte	0x6
 12707 0238 ED07     		.uleb128 0x3ed
 12708 023a 67330000 		.4byte	.LASF1348
 12709 023e 06       		.byte	0x6
 12710 023f EE07     		.uleb128 0x3ee
 12711 0241 213E0000 		.4byte	.LASF1349
 12712 0245 06       		.byte	0x6
 12713 0246 EF07     		.uleb128 0x3ef
ARM GAS  C:\Users\30806\AppData\Local\Temp\ccYcD1nI.s 			page 228


 12714 0248 DD2B0000 		.4byte	.LASF1350
 12715 024c 06       		.byte	0x6
 12716 024d F007     		.uleb128 0x3f0
 12717 024f F7990000 		.4byte	.LASF1351
 12718 0253 06       		.byte	0x6
 12719 0254 F107     		.uleb128 0x3f1
 12720 0256 B51E0000 		.4byte	.LASF1352
 12721 025a 06       		.byte	0x6
 12722 025b F207     		.uleb128 0x3f2
 12723 025d 999D0000 		.4byte	.LASF1353
 12724 0261 06       		.byte	0x6
 12725 0262 F407     		.uleb128 0x3f4
 12726 0264 95030000 		.4byte	.LASF1354
 12727 0268 06       		.byte	0x6
 12728 0269 F507     		.uleb128 0x3f5
 12729 026b 51650000 		.4byte	.LASF1355
 12730 026f 06       		.byte	0x6
 12731 0270 F607     		.uleb128 0x3f6
 12732 0272 976B0000 		.4byte	.LASF1356
 12733 0276 06       		.byte	0x6
 12734 0277 F707     		.uleb128 0x3f7
 12735 0279 2E930000 		.4byte	.LASF1357
 12736 027d 06       		.byte	0x6
 12737 027e F807     		.uleb128 0x3f8
 12738 0280 1A060000 		.4byte	.LASF1358
 12739 0284 06       		.byte	0x6
 12740 0285 F907     		.uleb128 0x3f9
 12741 0287 2DA30000 		.4byte	.LASF1359
 12742 028b 06       		.byte	0x6
 12743 028c FA07     		.uleb128 0x3fa
 12744 028e 69950000 		.4byte	.LASF1360
 12745 0292 06       		.byte	0x6
 12746 0293 FB07     		.uleb128 0x3fb
 12747 0295 E5AE0000 		.4byte	.LASF1361
 12748 0299 06       		.byte	0x6
 12749 029a FC07     		.uleb128 0x3fc
 12750 029c 119A0000 		.4byte	.LASF1362
 12751 02a0 06       		.byte	0x6
 12752 02a1 FD07     		.uleb128 0x3fd
 12753 02a3 8E7E0000 		.4byte	.LASF1363
 12754 02a7 06       		.byte	0x6
 12755 02a8 FE07     		.uleb128 0x3fe
 12756 02aa 8C780000 		.4byte	.LASF1364
 12757 02ae 06       		.byte	0x6
 12758 02af FF07     		.uleb128 0x3ff
 12759 02b1 4A4D0000 		.4byte	.LASF1365
 12760 02b5 06       		.byte	0x6
 12761 02b6 8008     		.uleb128 0x400
 12762 02b8 15A50000 		.4byte	.LASF1366
 12763 02bc 06       		.byte	0x6
 12764 02bd 8108     		.uleb128 0x401
 12765 02bf BE540000 		.4byte	.LASF1367
 12766 02c3 06       		.byte	0x6
 12767 02c4 8208     		.uleb128 0x402
 12768 02c6 59310000 		.4byte	.LASF1368
 12769 02ca 02       		.byte	0x2
 12770 02cb 8308     		.uleb128 0x403
ARM GAS  C:\Users\30806\AppData\Local\Temp\ccYcD1nI.s 			page 229


 12771 02cd 6E616E00 		.ascii	"nan\000"
 12772 02d1 06       		.byte	0x6
 12773 02d2 8408     		.uleb128 0x404
 12774 02d4 25AC0000 		.4byte	.LASF1369
 12775 02d8 06       		.byte	0x6
 12776 02d9 8508     		.uleb128 0x405
 12777 02db 80AC0000 		.4byte	.LASF1370
 12778 02df 06       		.byte	0x6
 12779 02e0 8608     		.uleb128 0x406
 12780 02e2 46390000 		.4byte	.LASF1371
 12781 02e6 06       		.byte	0x6
 12782 02e7 8708     		.uleb128 0x407
 12783 02e9 059F0000 		.4byte	.LASF1372
 12784 02ed 06       		.byte	0x6
 12785 02ee 8808     		.uleb128 0x408
 12786 02f0 A19F0000 		.4byte	.LASF1373
 12787 02f4 06       		.byte	0x6
 12788 02f5 8908     		.uleb128 0x409
 12789 02f7 10610000 		.4byte	.LASF1374
 12790 02fb 06       		.byte	0x6
 12791 02fc 8A08     		.uleb128 0x40a
 12792 02fe 686B0000 		.4byte	.LASF1375
 12793 0302 06       		.byte	0x6
 12794 0303 8B08     		.uleb128 0x40b
 12795 0305 D1450000 		.4byte	.LASF1376
 12796 0309 06       		.byte	0x6
 12797 030a 8C08     		.uleb128 0x40c
 12798 030c 54940000 		.4byte	.LASF1377
 12799 0310 06       		.byte	0x6
 12800 0311 8D08     		.uleb128 0x40d
 12801 0313 C89D0000 		.4byte	.LASF1378
 12802 0317 06       		.byte	0x6
 12803 0318 8E08     		.uleb128 0x40e
 12804 031a 209E0000 		.4byte	.LASF1379
 12805 031e 06       		.byte	0x6
 12806 031f 8F08     		.uleb128 0x40f
 12807 0321 9E7C0000 		.4byte	.LASF1380
 12808 0325 06       		.byte	0x6
 12809 0326 9008     		.uleb128 0x410
 12810 0328 C72E0000 		.4byte	.LASF1381
 12811 032c 06       		.byte	0x6
 12812 032d 9108     		.uleb128 0x411
 12813 032f 17280000 		.4byte	.LASF1382
 12814 0333 06       		.byte	0x6
 12815 0334 9208     		.uleb128 0x412
 12816 0336 E9420000 		.4byte	.LASF1383
 12817 033a 06       		.byte	0x6
 12818 033b 9308     		.uleb128 0x413
 12819 033d 6D8B0000 		.4byte	.LASF1384
 12820 0341 06       		.byte	0x6
 12821 0342 9408     		.uleb128 0x414
 12822 0344 31300000 		.4byte	.LASF1385
 12823 0348 06       		.byte	0x6
 12824 0349 9508     		.uleb128 0x415
 12825 034b 278B0000 		.4byte	.LASF1386
 12826 034f 06       		.byte	0x6
 12827 0350 9608     		.uleb128 0x416
ARM GAS  C:\Users\30806\AppData\Local\Temp\ccYcD1nI.s 			page 230


 12828 0352 AF250000 		.4byte	.LASF1387
 12829 0356 06       		.byte	0x6
 12830 0357 9708     		.uleb128 0x417
 12831 0359 3E260000 		.4byte	.LASF1388
 12832 035d 06       		.byte	0x6
 12833 035e 9808     		.uleb128 0x418
 12834 0360 21830000 		.4byte	.LASF1389
 12835 0364 06       		.byte	0x6
 12836 0365 9908     		.uleb128 0x419
 12837 0367 D2930000 		.4byte	.LASF1390
 12838 036b 06       		.byte	0x6
 12839 036c 9A08     		.uleb128 0x41a
 12840 036e 08940000 		.4byte	.LASF1391
 12841 0372 06       		.byte	0x6
 12842 0373 9B08     		.uleb128 0x41b
 12843 0375 995B0000 		.4byte	.LASF1392
 12844 0379 06       		.byte	0x6
 12845 037a 9C08     		.uleb128 0x41c
 12846 037c 3A3B0000 		.4byte	.LASF1393
 12847 0380 06       		.byte	0x6
 12848 0381 9D08     		.uleb128 0x41d
 12849 0383 923B0000 		.4byte	.LASF1394
 12850 0387 06       		.byte	0x6
 12851 0388 9E08     		.uleb128 0x41e
 12852 038a 00190000 		.4byte	.LASF1395
 12853 038e 06       		.byte	0x6
 12854 038f 9F08     		.uleb128 0x41f
 12855 0391 ED610000 		.4byte	.LASF1396
 12856 0395 06       		.byte	0x6
 12857 0396 A008     		.uleb128 0x420
 12858 0398 628F0000 		.4byte	.LASF1397
 12859 039c 06       		.byte	0x6
 12860 039d A108     		.uleb128 0x421
 12861 039f D77D0000 		.4byte	.LASF1398
 12862 03a3 06       		.byte	0x6
 12863 03a4 A208     		.uleb128 0x422
 12864 03a6 23050000 		.4byte	.LASF1399
 12865 03aa 06       		.byte	0x6
 12866 03ab A308     		.uleb128 0x423
 12867 03ad 0B540000 		.4byte	.LASF1400
 12868 03b1 06       		.byte	0x6
 12869 03b2 A408     		.uleb128 0x424
 12870 03b4 828F0000 		.4byte	.LASF1401
 12871 03b8 06       		.byte	0x6
 12872 03b9 A508     		.uleb128 0x425
 12873 03bb 73820000 		.4byte	.LASF1402
 12874 03bf 06       		.byte	0x6
 12875 03c0 A608     		.uleb128 0x426
 12876 03c2 79840000 		.4byte	.LASF1403
 12877 03c6 00       		.byte	0
 12878              		.section	.debug_macro,"G",%progbits,wm4.float.h.29.cae0b78251c51e3ff449cb238a29ed5b,comdat
 12879              	.Ldebug_macro37:
 12880 0000 0400     		.2byte	0x4
 12881 0002 00       		.byte	0
 12882 0003 05       		.byte	0x5
 12883 0004 1D       		.uleb128 0x1d
 12884 0005 A5B70000 		.4byte	.LASF1404
ARM GAS  C:\Users\30806\AppData\Local\Temp\ccYcD1nI.s 			page 231


 12885 0009 06       		.byte	0x6
 12886 000a 20       		.uleb128 0x20
 12887 000b F2020000 		.4byte	.LASF1405
 12888 000f 05       		.byte	0x5
 12889 0010 21       		.uleb128 0x21
 12890 0011 05580000 		.4byte	.LASF1406
 12891 0015 06       		.byte	0x6
 12892 0016 24       		.uleb128 0x24
 12893 0017 D4550000 		.4byte	.LASF1407
 12894 001b 06       		.byte	0x6
 12895 001c 25       		.uleb128 0x25
 12896 001d 411F0000 		.4byte	.LASF1408
 12897 0021 06       		.byte	0x6
 12898 0022 26       		.uleb128 0x26
 12899 0023 19710000 		.4byte	.LASF1409
 12900 0027 05       		.byte	0x5
 12901 0028 27       		.uleb128 0x27
 12902 0029 EF1F0000 		.4byte	.LASF1410
 12903 002d 05       		.byte	0x5
 12904 002e 28       		.uleb128 0x28
 12905 002f 65420000 		.4byte	.LASF1411
 12906 0033 05       		.byte	0x5
 12907 0034 29       		.uleb128 0x29
 12908 0035 B7B50000 		.4byte	.LASF1412
 12909 0039 06       		.byte	0x6
 12910 003a 32       		.uleb128 0x32
 12911 003b 82060000 		.4byte	.LASF1413
 12912 003f 06       		.byte	0x6
 12913 0040 33       		.uleb128 0x33
 12914 0041 C4AE0000 		.4byte	.LASF1414
 12915 0045 06       		.byte	0x6
 12916 0046 34       		.uleb128 0x34
 12917 0047 01B10000 		.4byte	.LASF1415
 12918 004b 05       		.byte	0x5
 12919 004c 35       		.uleb128 0x35
 12920 004d 4C990000 		.4byte	.LASF1416
 12921 0051 05       		.byte	0x5
 12922 0052 36       		.uleb128 0x36
 12923 0053 ED030000 		.4byte	.LASF1417
 12924 0057 05       		.byte	0x5
 12925 0058 37       		.uleb128 0x37
 12926 0059 7D200000 		.4byte	.LASF1418
 12927 005d 06       		.byte	0x6
 12928 005e 3A       		.uleb128 0x3a
 12929 005f 90AC0000 		.4byte	.LASF1419
 12930 0063 06       		.byte	0x6
 12931 0064 3B       		.uleb128 0x3b
 12932 0065 BC5F0000 		.4byte	.LASF1420
 12933 0069 06       		.byte	0x6
 12934 006a 3C       		.uleb128 0x3c
 12935 006b 28120000 		.4byte	.LASF1421
 12936 006f 05       		.byte	0x5
 12937 0070 3D       		.uleb128 0x3d
 12938 0071 0C100000 		.4byte	.LASF1422
 12939 0075 05       		.byte	0x5
 12940 0076 3E       		.uleb128 0x3e
 12941 0077 E00B0000 		.4byte	.LASF1423
ARM GAS  C:\Users\30806\AppData\Local\Temp\ccYcD1nI.s 			page 232


 12942 007b 05       		.byte	0x5
 12943 007c 3F       		.uleb128 0x3f
 12944 007d 7A450000 		.4byte	.LASF1424
 12945 0081 06       		.byte	0x6
 12946 0082 46       		.uleb128 0x46
 12947 0083 61980000 		.4byte	.LASF1425
 12948 0087 06       		.byte	0x6
 12949 0088 47       		.uleb128 0x47
 12950 0089 312E0000 		.4byte	.LASF1426
 12951 008d 06       		.byte	0x6
 12952 008e 48       		.uleb128 0x48
 12953 008f 88970000 		.4byte	.LASF1427
 12954 0093 05       		.byte	0x5
 12955 0094 49       		.uleb128 0x49
 12956 0095 744C0000 		.4byte	.LASF1428
 12957 0099 05       		.byte	0x5
 12958 009a 4A       		.uleb128 0x4a
 12959 009b B0320000 		.4byte	.LASF1429
 12960 009f 05       		.byte	0x5
 12961 00a0 4B       		.uleb128 0x4b
 12962 00a1 F5170000 		.4byte	.LASF1430
 12963 00a5 06       		.byte	0x6
 12964 00a6 4E       		.uleb128 0x4e
 12965 00a7 007C0000 		.4byte	.LASF1431
 12966 00ab 06       		.byte	0x6
 12967 00ac 4F       		.uleb128 0x4f
 12968 00ad CE940000 		.4byte	.LASF1432
 12969 00b1 06       		.byte	0x6
 12970 00b2 50       		.uleb128 0x50
 12971 00b3 CF860000 		.4byte	.LASF1433
 12972 00b7 05       		.byte	0x5
 12973 00b8 51       		.uleb128 0x51
 12974 00b9 BFB90000 		.4byte	.LASF1434
 12975 00bd 05       		.byte	0x5
 12976 00be 52       		.uleb128 0x52
 12977 00bf 280D0000 		.4byte	.LASF1435
 12978 00c3 05       		.byte	0x5
 12979 00c4 53       		.uleb128 0x53
 12980 00c5 30070000 		.4byte	.LASF1436
 12981 00c9 06       		.byte	0x6
 12982 00ca 5A       		.uleb128 0x5a
 12983 00cb C6540000 		.4byte	.LASF1437
 12984 00cf 06       		.byte	0x6
 12985 00d0 5B       		.uleb128 0x5b
 12986 00d1 D3A80000 		.4byte	.LASF1438
 12987 00d5 06       		.byte	0x6
 12988 00d6 5C       		.uleb128 0x5c
 12989 00d7 3CB50000 		.4byte	.LASF1439
 12990 00db 05       		.byte	0x5
 12991 00dc 5D       		.uleb128 0x5d
 12992 00dd C59E0000 		.4byte	.LASF1440
 12993 00e1 05       		.byte	0x5
 12994 00e2 5E       		.uleb128 0x5e
 12995 00e3 2F2A0000 		.4byte	.LASF1441
 12996 00e7 05       		.byte	0x5
 12997 00e8 5F       		.uleb128 0x5f
 12998 00e9 A7A70000 		.4byte	.LASF1442
ARM GAS  C:\Users\30806\AppData\Local\Temp\ccYcD1nI.s 			page 233


 12999 00ed 06       		.byte	0x6
 13000 00ee 65       		.uleb128 0x65
 13001 00ef 9D920000 		.4byte	.LASF1443
 13002 00f3 06       		.byte	0x6
 13003 00f4 66       		.uleb128 0x66
 13004 00f5 7A820000 		.4byte	.LASF1444
 13005 00f9 06       		.byte	0x6
 13006 00fa 67       		.uleb128 0x67
 13007 00fb E97F0000 		.4byte	.LASF1445
 13008 00ff 05       		.byte	0x5
 13009 0100 68       		.uleb128 0x68
 13010 0101 5B230000 		.4byte	.LASF1446
 13011 0105 05       		.byte	0x5
 13012 0106 69       		.uleb128 0x69
 13013 0107 FD2E0000 		.4byte	.LASF1447
 13014 010b 05       		.byte	0x5
 13015 010c 6A       		.uleb128 0x6a
 13016 010d 0F6B0000 		.4byte	.LASF1448
 13017 0111 06       		.byte	0x6
 13018 0112 6E       		.uleb128 0x6e
 13019 0113 B7960000 		.4byte	.LASF1449
 13020 0117 06       		.byte	0x6
 13021 0118 6F       		.uleb128 0x6f
 13022 0119 40980000 		.4byte	.LASF1450
 13023 011d 06       		.byte	0x6
 13024 011e 70       		.uleb128 0x70
 13025 011f 43B40000 		.4byte	.LASF1451
 13026 0123 05       		.byte	0x5
 13027 0124 71       		.uleb128 0x71
 13028 0125 79590000 		.4byte	.LASF1452
 13029 0129 05       		.byte	0x5
 13030 012a 72       		.uleb128 0x72
 13031 012b 9A300000 		.4byte	.LASF1453
 13032 012f 05       		.byte	0x5
 13033 0130 73       		.uleb128 0x73
 13034 0131 D4810000 		.4byte	.LASF1454
 13035 0135 06       		.byte	0x6
 13036 0136 76       		.uleb128 0x76
 13037 0137 43480000 		.4byte	.LASF1455
 13038 013b 06       		.byte	0x6
 13039 013c 77       		.uleb128 0x77
 13040 013d C32B0000 		.4byte	.LASF1456
 13041 0141 06       		.byte	0x6
 13042 0142 78       		.uleb128 0x78
 13043 0143 E1940000 		.4byte	.LASF1457
 13044 0147 05       		.byte	0x5
 13045 0148 79       		.uleb128 0x79
 13046 0149 A6380000 		.4byte	.LASF1458
 13047 014d 05       		.byte	0x5
 13048 014e 7A       		.uleb128 0x7a
 13049 014f 17590000 		.4byte	.LASF1459
 13050 0153 05       		.byte	0x5
 13051 0154 7B       		.uleb128 0x7b
 13052 0155 F2760000 		.4byte	.LASF1460
 13053 0159 06       		.byte	0x6
 13054 015a 7F       		.uleb128 0x7f
 13055 015b F8040000 		.4byte	.LASF1461
ARM GAS  C:\Users\30806\AppData\Local\Temp\ccYcD1nI.s 			page 234


 13056 015f 05       		.byte	0x5
 13057 0160 8001     		.uleb128 0x80
 13058 0162 51B70000 		.4byte	.LASF1462
 13059 0166 06       		.byte	0x6
 13060 0167 C101     		.uleb128 0xc1
 13061 0169 85320000 		.4byte	.LASF1209
 13062 016d 05       		.byte	0x5
 13063 016e C501     		.uleb128 0xc5
 13064 0170 D42C0000 		.4byte	.LASF1207
 13065 0174 06       		.byte	0x6
 13066 0175 D001     		.uleb128 0xd0
 13067 0177 3B8A0000 		.4byte	.LASF1463
 13068 017b 05       		.byte	0x5
 13069 017c D101     		.uleb128 0xd1
 13070 017e 2B500000 		.4byte	.LASF1464
 13071 0182 00       		.byte	0
 13072              		.section	.debug_macro,"G",%progbits,wm4.syslimits.h.34.de5cbd310098bc5895998b6bde577ed2,comdat
 13073              	.Ldebug_macro38:
 13074 0000 0400     		.2byte	0x4
 13075 0002 00       		.byte	0
 13076 0003 05       		.byte	0x5
 13077 0004 22       		.uleb128 0x22
 13078 0005 360F0000 		.4byte	.LASF1468
 13079 0009 05       		.byte	0x5
 13080 000a 24       		.uleb128 0x24
 13081 000b 03340000 		.4byte	.LASF1469
 13082 000f 05       		.byte	0x5
 13083 0010 26       		.uleb128 0x26
 13084 0011 05B00000 		.4byte	.LASF1470
 13085 0015 05       		.byte	0x5
 13086 0016 28       		.uleb128 0x28
 13087 0017 45940000 		.4byte	.LASF1471
 13088 001b 05       		.byte	0x5
 13089 001c 29       		.uleb128 0x29
 13090 001d 6D780000 		.4byte	.LASF1472
 13091 0021 05       		.byte	0x5
 13092 0022 2A       		.uleb128 0x2a
 13093 0023 3B580000 		.4byte	.LASF1473
 13094 0027 05       		.byte	0x5
 13095 0028 2B       		.uleb128 0x2b
 13096 0029 E1930000 		.4byte	.LASF1474
 13097 002d 05       		.byte	0x5
 13098 002e 2C       		.uleb128 0x2c
 13099 002f 4F2F0000 		.4byte	.LASF1475
 13100 0033 05       		.byte	0x5
 13101 0034 2E       		.uleb128 0x2e
 13102 0035 B1B60000 		.4byte	.LASF1476
 13103 0039 05       		.byte	0x5
 13104 003a 30       		.uleb128 0x30
 13105 003b 752E0000 		.4byte	.LASF1477
 13106 003f 05       		.byte	0x5
 13107 0040 31       		.uleb128 0x31
 13108 0041 AC9F0000 		.4byte	.LASF1478
 13109 0045 05       		.byte	0x5
 13110 0046 32       		.uleb128 0x32
 13111 0047 66820000 		.4byte	.LASF1479
 13112 004b 05       		.byte	0x5
ARM GAS  C:\Users\30806\AppData\Local\Temp\ccYcD1nI.s 			page 235


 13113 004c 34       		.uleb128 0x34
 13114 004d 0E1E0000 		.4byte	.LASF1480
 13115 0051 05       		.byte	0x5
 13116 0052 35       		.uleb128 0x35
 13117 0053 9A850000 		.4byte	.LASF1481
 13118 0057 05       		.byte	0x5
 13119 0058 36       		.uleb128 0x36
 13120 0059 D4400000 		.4byte	.LASF1482
 13121 005d 05       		.byte	0x5
 13122 005e 37       		.uleb128 0x37
 13123 005f 71920000 		.4byte	.LASF1483
 13124 0063 05       		.byte	0x5
 13125 0064 38       		.uleb128 0x38
 13126 0065 7C9A0000 		.4byte	.LASF1484
 13127 0069 05       		.byte	0x5
 13128 006a 39       		.uleb128 0x39
 13129 006b 32480000 		.4byte	.LASF1485
 13130 006f 05       		.byte	0x5
 13131 0070 3A       		.uleb128 0x3a
 13132 0071 B0540000 		.4byte	.LASF1486
 13133 0075 05       		.byte	0x5
 13134 0076 3B       		.uleb128 0x3b
 13135 0077 0A710000 		.4byte	.LASF1487
 13136 007b 00       		.byte	0
 13137              		.section	.debug_macro,"G",%progbits,wm4.limits.h.9.70fb0ada6f71b16202a66baaa6d8ea70,comdat
 13138              	.Ldebug_macro39:
 13139 0000 0400     		.2byte	0x4
 13140 0002 00       		.byte	0
 13141 0003 05       		.byte	0x5
 13142 0004 09       		.uleb128 0x9
 13143 0005 56960000 		.4byte	.LASF1488
 13144 0009 05       		.byte	0x5
 13145 000a 10       		.uleb128 0x10
 13146 000b C8180000 		.4byte	.LASF1489
 13147 000f 05       		.byte	0x5
 13148 0010 8A01     		.uleb128 0x8a
 13149 0012 58790000 		.4byte	.LASF1490
 13150 0016 00       		.byte	0
 13151              		.section	.debug_macro,"G",%progbits,wm4.limits.h.60.a7abcffe79f1387d61d92dd90bd582e0,comdat
 13152              	.Ldebug_macro40:
 13153 0000 0400     		.2byte	0x4
 13154 0002 00       		.byte	0
 13155 0003 05       		.byte	0x5
 13156 0004 3C       		.uleb128 0x3c
 13157 0005 D80A0000 		.4byte	.LASF1492
 13158 0009 06       		.byte	0x6
 13159 000a 3F       		.uleb128 0x3f
 13160 000b C69B0000 		.4byte	.LASF1493
 13161 000f 05       		.byte	0x5
 13162 0010 40       		.uleb128 0x40
 13163 0011 B5250000 		.4byte	.LASF1494
 13164 0015 06       		.byte	0x6
 13165 0016 48       		.uleb128 0x48
 13166 0017 C3990000 		.4byte	.LASF1495
 13167 001b 05       		.byte	0x5
 13168 001c 49       		.uleb128 0x49
 13169 001d B87C0000 		.4byte	.LASF1496
ARM GAS  C:\Users\30806\AppData\Local\Temp\ccYcD1nI.s 			page 236


 13170 0021 06       		.byte	0x6
 13171 0022 4A       		.uleb128 0x4a
 13172 0023 C3780000 		.4byte	.LASF1497
 13173 0027 05       		.byte	0x5
 13174 0028 4B       		.uleb128 0x4b
 13175 0029 C00A0000 		.4byte	.LASF1498
 13176 002d 06       		.byte	0x6
 13177 002e 4E       		.uleb128 0x4e
 13178 002f 35840000 		.4byte	.LASF1499
 13179 0033 05       		.byte	0x5
 13180 0034 52       		.uleb128 0x52
 13181 0035 33060000 		.4byte	.LASF1500
 13182 0039 06       		.byte	0x6
 13183 003a 57       		.uleb128 0x57
 13184 003b 05A80000 		.4byte	.LASF1501
 13185 003f 05       		.byte	0x5
 13186 0040 5B       		.uleb128 0x5b
 13187 0041 00170000 		.4byte	.LASF1502
 13188 0045 06       		.byte	0x6
 13189 0046 5D       		.uleb128 0x5d
 13190 0047 0D320000 		.4byte	.LASF1503
 13191 004b 05       		.byte	0x5
 13192 004c 5E       		.uleb128 0x5e
 13193 004d F69D0000 		.4byte	.LASF1504
 13194 0051 06       		.byte	0x6
 13195 0052 67       		.uleb128 0x67
 13196 0053 D2320000 		.4byte	.LASF1505
 13197 0057 05       		.byte	0x5
 13198 0058 68       		.uleb128 0x68
 13199 0059 AE2E0000 		.4byte	.LASF1506
 13200 005d 06       		.byte	0x6
 13201 005e 69       		.uleb128 0x69
 13202 005f A49E0000 		.4byte	.LASF1507
 13203 0063 05       		.byte	0x5
 13204 0064 6A       		.uleb128 0x6a
 13205 0065 74020000 		.4byte	.LASF1508
 13206 0069 06       		.byte	0x6
 13207 006a 6D       		.uleb128 0x6d
 13208 006b 4CAE0000 		.4byte	.LASF1509
 13209 006f 05       		.byte	0x5
 13210 0070 71       		.uleb128 0x71
 13211 0071 257B0000 		.4byte	.LASF1510
 13212 0075 06       		.byte	0x6
 13213 0076 75       		.uleb128 0x75
 13214 0077 1B390000 		.4byte	.LASF1511
 13215 007b 05       		.byte	0x5
 13216 007c 76       		.uleb128 0x76
 13217 007d 750C0000 		.4byte	.LASF1512
 13218 0081 06       		.byte	0x6
 13219 0082 77       		.uleb128 0x77
 13220 0083 D79A0000 		.4byte	.LASF1513
 13221 0087 05       		.byte	0x5
 13222 0088 78       		.uleb128 0x78
 13223 0089 6F890000 		.4byte	.LASF1514
 13224 008d 06       		.byte	0x6
 13225 008e 7B       		.uleb128 0x7b
 13226 008f 61A50000 		.4byte	.LASF1515
ARM GAS  C:\Users\30806\AppData\Local\Temp\ccYcD1nI.s 			page 237


 13227 0093 05       		.byte	0x5
 13228 0094 7C       		.uleb128 0x7c
 13229 0095 F20A0000 		.4byte	.LASF1516
 13230 0099 06       		.byte	0x6
 13231 009a 8001     		.uleb128 0x80
 13232 009c 4E6E0000 		.4byte	.LASF1517
 13233 00a0 05       		.byte	0x5
 13234 00a1 8101     		.uleb128 0x81
 13235 00a3 AD550000 		.4byte	.LASF1518
 13236 00a7 06       		.byte	0x6
 13237 00a8 8201     		.uleb128 0x82
 13238 00aa 91550000 		.4byte	.LASF1519
 13239 00ae 05       		.byte	0x5
 13240 00af 8301     		.uleb128 0x83
 13241 00b1 E94F0000 		.4byte	.LASF1520
 13242 00b5 06       		.byte	0x6
 13243 00b6 8601     		.uleb128 0x86
 13244 00b8 6D440000 		.4byte	.LASF1521
 13245 00bc 05       		.byte	0x5
 13246 00bd 8701     		.uleb128 0x87
 13247 00bf 083B0000 		.4byte	.LASF1522
 13248 00c3 06       		.byte	0x6
 13249 00c4 9701     		.uleb128 0x97
 13250 00c6 82A50000 		.4byte	.LASF1523
 13251 00ca 05       		.byte	0x5
 13252 00cb 9801     		.uleb128 0x98
 13253 00cd 4CA90000 		.4byte	.LASF1524
 13254 00d1 06       		.byte	0x6
 13255 00d2 9901     		.uleb128 0x99
 13256 00d4 748F0000 		.4byte	.LASF1525
 13257 00d8 05       		.byte	0x5
 13258 00d9 9A01     		.uleb128 0x9a
 13259 00db 401B0000 		.4byte	.LASF1526
 13260 00df 06       		.byte	0x6
 13261 00e0 9D01     		.uleb128 0x9d
 13262 00e2 E2070000 		.4byte	.LASF1527
 13263 00e6 05       		.byte	0x5
 13264 00e7 9E01     		.uleb128 0x9e
 13265 00e9 20810000 		.4byte	.LASF1528
 13266 00ed 00       		.byte	0
 13267              		.section	.debug_macro,"G",%progbits,wm4.arm_math.h.401.1e79f85c1d8d31c47d3b7cad9ff64f5b,comdat
 13268              	.Ldebug_macro41:
 13269 0000 0400     		.2byte	0x4
 13270 0002 00       		.byte	0
 13271 0003 05       		.byte	0x5
 13272 0004 9103     		.uleb128 0x191
 13273 0006 EC150000 		.4byte	.LASF1529
 13274 000a 05       		.byte	0x5
 13275 000b 9203     		.uleb128 0x192
 13276 000d EE500000 		.4byte	.LASF1530
 13277 0011 05       		.byte	0x5
 13278 0012 9803     		.uleb128 0x198
 13279 0014 631E0000 		.4byte	.LASF1531
 13280 0018 05       		.byte	0x5
 13281 0019 9903     		.uleb128 0x199
 13282 001b C85F0000 		.4byte	.LASF1532
 13283 001f 05       		.byte	0x5
ARM GAS  C:\Users\30806\AppData\Local\Temp\ccYcD1nI.s 			page 238


 13284 0020 9F03     		.uleb128 0x19f
 13285 0022 E2A80000 		.4byte	.LASF1533
 13286 0026 05       		.byte	0x5
 13287 0027 A003     		.uleb128 0x1a0
 13288 0029 0B370000 		.4byte	.LASF1534
 13289 002d 05       		.byte	0x5
 13290 002e A603     		.uleb128 0x1a6
 13291 0030 0CB50000 		.4byte	.LASF1535
 13292 0034 05       		.byte	0x5
 13293 0035 A703     		.uleb128 0x1a7
 13294 0037 64710000 		.4byte	.LASF1536
 13295 003b 05       		.byte	0x5
 13296 003c AD03     		.uleb128 0x1ad
 13297 003e 6F790000 		.4byte	.LASF1537
 13298 0042 05       		.byte	0x5
 13299 0043 AE03     		.uleb128 0x1ae
 13300 0045 679C0000 		.4byte	.LASF1538
 13301 0049 05       		.byte	0x5
 13302 004a AF03     		.uleb128 0x1af
 13303 004c 7CB70000 		.4byte	.LASF1539
 13304 0050 05       		.byte	0x5
 13305 0051 B003     		.uleb128 0x1b0
 13306 0053 16320000 		.4byte	.LASF1540
 13307 0057 05       		.byte	0x5
 13308 0058 B103     		.uleb128 0x1b1
 13309 005a 165E0000 		.4byte	.LASF1541
 13310 005e 05       		.byte	0x5
 13311 005f B203     		.uleb128 0x1b2
 13312 0061 0C970000 		.4byte	.LASF1542
 13313 0065 05       		.byte	0x5
 13314 0066 B403     		.uleb128 0x1b4
 13315 0068 42000000 		.4byte	.LASF1543
 13316 006c 05       		.byte	0x5
 13317 006d B503     		.uleb128 0x1b5
 13318 006f 512B0000 		.4byte	.LASF1544
 13319 0073 05       		.byte	0x5
 13320 0074 B603     		.uleb128 0x1b6
 13321 0076 73350000 		.4byte	.LASF1545
 13322 007a 05       		.byte	0x5
 13323 007b B703     		.uleb128 0x1b7
 13324 007d AA580000 		.4byte	.LASF1546
 13325 0081 05       		.byte	0x5
 13326 0082 B803     		.uleb128 0x1b8
 13327 0084 E5180000 		.4byte	.LASF1547
 13328 0088 05       		.byte	0x5
 13329 0089 B903     		.uleb128 0x1b9
 13330 008b C6910000 		.4byte	.LASF1548
 13331 008f 05       		.byte	0x5
 13332 0090 BD03     		.uleb128 0x1bd
 13333 0092 1B750000 		.4byte	.LASF1549
 13334 0096 05       		.byte	0x5
 13335 0097 D703     		.uleb128 0x1d7
 13336 0099 486F0000 		.4byte	.LASF1550
 13337 009d 05       		.byte	0x5
 13338 009e D803     		.uleb128 0x1d8
 13339 00a0 50330000 		.4byte	.LASF1551
 13340 00a4 05       		.byte	0x5
ARM GAS  C:\Users\30806\AppData\Local\Temp\ccYcD1nI.s 			page 239


 13341 00a5 D903     		.uleb128 0x1d9
 13342 00a7 2F9A0000 		.4byte	.LASF1552
 13343 00ab 05       		.byte	0x5
 13344 00ac DB03     		.uleb128 0x1db
 13345 00ae 147A0000 		.4byte	.LASF1553
 13346 00b2 05       		.byte	0x5
 13347 00b3 E203     		.uleb128 0x1e2
 13348 00b5 EA6A0000 		.4byte	.LASF1554
 13349 00b9 05       		.byte	0x5
 13350 00ba E303     		.uleb128 0x1e3
 13351 00bc B7AD0000 		.4byte	.LASF1555
 13352 00c0 05       		.byte	0x5
 13353 00c1 E403     		.uleb128 0x1e4
 13354 00c3 8A020000 		.4byte	.LASF1556
 13355 00c7 05       		.byte	0x5
 13356 00c8 E503     		.uleb128 0x1e5
 13357 00ca A6750000 		.4byte	.LASF1557
 13358 00ce 05       		.byte	0x5
 13359 00cf E603     		.uleb128 0x1e6
 13360 00d1 0AB10000 		.4byte	.LASF1558
 13361 00d5 05       		.byte	0x5
 13362 00d6 E703     		.uleb128 0x1e7
 13363 00d8 860B0000 		.4byte	.LASF1559
 13364 00dc 05       		.byte	0x5
 13365 00dd EE03     		.uleb128 0x1ee
 13366 00df 8E220000 		.4byte	.LASF1560
 13367 00e3 05       		.byte	0x5
 13368 00e4 F503     		.uleb128 0x1f5
 13369 00e6 04610000 		.4byte	.LASF1561
 13370 00ea 05       		.byte	0x5
 13371 00eb E806     		.uleb128 0x368
 13372 00ed 56130000 		.4byte	.LASF1562
 13373 00f1 05       		.byte	0x5
 13374 00f2 F706     		.uleb128 0x377
 13375 00f4 FD210000 		.4byte	.LASF1563
 13376 00f8 05       		.byte	0x5
 13377 00f9 F806     		.uleb128 0x378
 13378 00fb A6830000 		.4byte	.LASF1564
 13379 00ff 05       		.byte	0x5
 13380 0100 F906     		.uleb128 0x379
 13381 0102 2A550000 		.4byte	.LASF1565
 13382 0106 05       		.byte	0x5
 13383 0107 FA06     		.uleb128 0x37a
 13384 0109 DEA00000 		.4byte	.LASF1566
 13385 010d 05       		.byte	0x5
 13386 010e FC06     		.uleb128 0x37c
 13387 0110 BD660000 		.4byte	.LASF1567
 13388 0114 05       		.byte	0x5
 13389 0115 FD06     		.uleb128 0x37d
 13390 0117 77960000 		.4byte	.LASF1568
 13391 011b 05       		.byte	0x5
 13392 011c F608     		.uleb128 0x476
 13393 011e 6BA30000 		.4byte	.LASF1569
 13394 0122 05       		.byte	0x5
 13395 0123 FB44     		.uleb128 0x227b
 13396 0125 A58D0000 		.4byte	.LASF1570
 13397 0129 05       		.byte	0x5
ARM GAS  C:\Users\30806\AppData\Local\Temp\ccYcD1nI.s 			page 240


 13398 012a FF44     		.uleb128 0x227f
 13399 012c AC1B0000 		.4byte	.LASF1571
 13400 0130 05       		.byte	0x5
 13401 0131 8345     		.uleb128 0x2283
 13402 0133 433B0000 		.4byte	.LASF1572
 13403 0137 05       		.byte	0x5
 13404 0138 8745     		.uleb128 0x2287
 13405 013a B9740000 		.4byte	.LASF1573
 13406 013e 05       		.byte	0x5
 13407 013f 8B45     		.uleb128 0x228b
 13408 0141 E54B0000 		.4byte	.LASF1574
 13409 0145 05       		.byte	0x5
 13410 0146 8F45     		.uleb128 0x228f
 13411 0148 2E450000 		.4byte	.LASF1575
 13412 014c 05       		.byte	0x5
 13413 014d B245     		.uleb128 0x22b2
 13414 014f 8E600000 		.4byte	.LASF1576
 13415 0153 05       		.byte	0x5
 13416 0154 B445     		.uleb128 0x22b4
 13417 0156 52150000 		.4byte	.LASF1577
 13418 015a 05       		.byte	0x5
 13419 015b B545     		.uleb128 0x22b5
 13420 015d 6D810000 		.4byte	.LASF1578
 13421 0161 05       		.byte	0x5
 13422 0162 B645     		.uleb128 0x22b6
 13423 0164 E9060000 		.4byte	.LASF1579
 13424 0168 00       		.byte	0
 13425              		.section	.debug_line,"",%progbits
 13426              	.Ldebug_line0:
 13427 0000 AA0A0000 		.section	.debug_str,"MS",%progbits,1
 13427      03000706 
 13427      00000201 
 13427      FB0E0D00 
 13427      01010101 
 13428              	.LASF731:
 13429 0000 5F5F434D 		.ascii	"__CMSIS_GCC_USE_REG(r) \"r\" (r)\000"
 13429      5349535F 
 13429      4743435F 
 13429      5553455F 
 13429      52454728 
 13430              	.LASF337:
 13431 001f 5F5F4C41 		.ascii	"__LACCUM_EPSILON__ 0x1P-31LK\000"
 13431      4343554D 
 13431      5F455053 
 13431      494C4F4E 
 13431      5F5F2030 
 13432              	.LASF1285:
 13433 003c 6C6F6731 		.ascii	"log10\000"
 13433      3000
 13434              	.LASF1543:
 13435 0042 5133315F 		.ascii	"Q31_ABSMAX ((q31_t)(0x7FFFFFFFL))\000"
 13435      4142534D 
 13435      41582028 
 13435      28713331 
 13435      5F742928 
 13436              	.LASF1325:
 13437 0064 6578706D 		.ascii	"expm1\000"
ARM GAS  C:\Users\30806\AppData\Local\Temp\ccYcD1nI.s 			page 241


 13437      3100
 13438              	.LASF328:
 13439 006a 5F5F5541 		.ascii	"__UACCUM_FBIT__ 16\000"
 13439      4343554D 
 13439      5F464249 
 13439      545F5F20 
 13439      313600
 13440              	.LASF439:
 13441 007d 5F5F4150 		.ascii	"__APCS_32__ 1\000"
 13441      43535F33 
 13441      325F5F20 
 13441      3100
 13442              	.LASF904:
 13443 008b 5F5F4343 		.ascii	"__CC_SUPPORTS_DYNAMIC_ARRAY_INIT 1\000"
 13443      5F535550 
 13443      504F5254 
 13443      535F4459 
 13443      4E414D49 
 13444              	.LASF297:
 13445 00ae 5F5F4C46 		.ascii	"__LFRACT_EPSILON__ 0x1P-31LR\000"
 13445      52414354 
 13445      5F455053 
 13445      494C4F4E 
 13445      5F5F2030 
 13446              	.LASF30:
 13447 00cb 5F5F464C 		.ascii	"__FLOAT_WORD_ORDER__ __ORDER_LITTLE_ENDIAN__\000"
 13447      4F41545F 
 13447      574F5244 
 13447      5F4F5244 
 13447      45525F5F 
 13448              	.LASF1711:
 13449 00f8 5F5A5374 		.ascii	"_ZSt13islessgreaterdd\000"
 13449      31336973 
 13449      6C657373 
 13449      67726561 
 13449      74657264 
 13450              	.LASF206:
 13451 010e 5F5F4442 		.ascii	"__DBL_EPSILON__ double(2.2204460492503131e-16L)\000"
 13451      4C5F4550 
 13451      53494C4F 
 13451      4E5F5F20 
 13451      646F7562 
 13452              	.LASF1265:
 13453 013e 616C6C6F 		.ascii	"alloca\000"
 13453      636100
 13454              	.LASF1054:
 13455 0145 5F474C49 		.ascii	"_GLIBCXX_USE_ALLOCATOR_NEW 1\000"
 13455      42435858 
 13455      5F555345 
 13455      5F414C4C 
 13455      4F434154 
 13456              	.LASF188:
 13457 0162 5F5F464C 		.ascii	"__FLT_NORM_MAX__ 3.4028234663852886e+38F\000"
 13457      545F4E4F 
 13457      524D5F4D 
 13457      41585F5F 
 13457      20332E34 
ARM GAS  C:\Users\30806\AppData\Local\Temp\ccYcD1nI.s 			page 242


 13458              	.LASF1330:
 13459 018b 6664696D 		.ascii	"fdiml\000"
 13459      6C00
 13460              	.LASF1206:
 13461 0191 4E414E20 		.ascii	"NAN (__builtin_nanf(\"\"))\000"
 13461      285F5F62 
 13461      75696C74 
 13461      696E5F6E 
 13461      616E6628 
 13462              	.LASF320:
 13463 01aa 5F5F5553 		.ascii	"__USACCUM_MIN__ 0.0UHK\000"
 13463      41434355 
 13463      4D5F4D49 
 13463      4E5F5F20 
 13463      302E3055 
 13464              	.LASF472:
 13465 01c1 5F5F4152 		.ascii	"__ARM_FEATURE_MATMUL_INT8\000"
 13465      4D5F4645 
 13465      41545552 
 13465      455F4D41 
 13465      544D554C 
 13466              	.LASF856:
 13467 01db 5F524545 		.ascii	"_REENT_L64A_BUF(ptr) ((ptr)->_new._reent._l64a_buf)"
 13467      4E545F4C 
 13467      3634415F 
 13467      42554628 
 13467      70747229 
 13468 020e 00       		.ascii	"\000"
 13469              	.LASF228:
 13470 020f 5F5F464C 		.ascii	"__FLT32_DIG__ 6\000"
 13470      5433325F 
 13470      4449475F 
 13470      5F203600 
 13471              	.LASF340:
 13472 021f 5F5F554C 		.ascii	"__ULACCUM_MIN__ 0.0ULK\000"
 13472      41434355 
 13472      4D5F4D49 
 13472      4E5F5F20 
 13472      302E3055 
 13473              	.LASF265:
 13474 0236 5F5F464C 		.ascii	"__FLT32X_MAX__ 1.7976931348623157e+308F32x\000"
 13474      54333258 
 13474      5F4D4158 
 13474      5F5F2031 
 13474      2E373937 
 13475              	.LASF329:
 13476 0261 5F5F5541 		.ascii	"__UACCUM_IBIT__ 16\000"
 13476      4343554D 
 13476      5F494249 
 13476      545F5F20 
 13476      313600
 13477              	.LASF1508:
 13478 0274 53485254 		.ascii	"SHRT_MAX __SHRT_MAX__\000"
 13478      5F4D4158 
 13478      205F5F53 
 13478      4852545F 
 13478      4D41585F 
ARM GAS  C:\Users\30806\AppData\Local\Temp\ccYcD1nI.s 			page 243


 13479              	.LASF1556:
 13480 028a 46415354 		.ascii	"FAST_MATH_Q15_SHIFT (16 - 10)\000"
 13480      5F4D4154 
 13480      485F5131 
 13480      355F5348 
 13480      49465420 
 13481              	.LASF509:
 13482 02a8 5F5F4D49 		.ascii	"__MISC_VISIBLE 1\000"
 13482      53435F56 
 13482      49534942 
 13482      4C452031 
 13482      00
 13483              	.LASF1642:
 13484 02b9 5F5A5374 		.ascii	"_ZSt5atan2ee\000"
 13484      35617461 
 13484      6E326565 
 13484      00
 13485              	.LASF161:
 13486 02c6 5F5F494E 		.ascii	"__INT_FAST16_MAX__ 0x7fffffff\000"
 13486      545F4641 
 13486      53543136 
 13486      5F4D4158 
 13486      5F5F2030 
 13487              	.LASF554:
 13488 02e4 5F5F4C45 		.ascii	"__LEAST16 \"h\"\000"
 13488      41535431 
 13488      36202268 
 13488      2200
 13489              	.LASF1405:
 13490 02f2 464C545F 		.ascii	"FLT_RADIX\000"
 13490      52414449 
 13490      5800
 13491              	.LASF828:
 13492 02fc 5F524545 		.ascii	"_REENT_CHECK_RAND48(ptr) \000"
 13492      4E545F43 
 13492      4845434B 
 13492      5F52414E 
 13492      44343828 
 13493              	.LASF243:
 13494 0316 5F5F464C 		.ascii	"__FLT64_MANT_DIG__ 53\000"
 13494      5436345F 
 13494      4D414E54 
 13494      5F444947 
 13494      5F5F2035 
 13495              	.LASF715:
 13496 032c 5F5F5041 		.ascii	"__PACKED_UNION union __attribute__((packed, aligned"
 13496      434B4544 
 13496      5F554E49 
 13496      4F4E2075 
 13496      6E696F6E 
 13497 035f 28312929 		.ascii	"(1)))\000"
 13497      2900
 13498              	.LASF1118:
 13499 0365 5F474C49 		.ascii	"_GLIBCXX_HAVE_MODFF 1\000"
 13499      42435858 
 13499      5F484156 
 13499      455F4D4F 
ARM GAS  C:\Users\30806\AppData\Local\Temp\ccYcD1nI.s 			page 244


 13499      44464620 
 13500              	.LASF630:
 13501 037b 57434841 		.ascii	"WCHAR_MAX (__WCHAR_MAX__)\000"
 13501      525F4D41 
 13501      5820285F 
 13501      5F574348 
 13501      41525F4D 
 13502              	.LASF1354:
 13503 0395 6C6F6731 		.ascii	"log1p\000"
 13503      7000
 13504              	.LASF1103:
 13505 039b 5F474C49 		.ascii	"_GLIBCXX_HAVE_LDEXPF 1\000"
 13505      42435858 
 13505      5F484156 
 13505      455F4C44 
 13505      45585046 
 13506              	.LASF785:
 13507 03b2 5F57494E 		.ascii	"_WINT_T \000"
 13507      545F5420 
 13507      00
 13508              	.LASF1059:
 13509 03bb 5F474C49 		.ascii	"_GLIBCXX_WEAK_DEFINITION \000"
 13509      42435858 
 13509      5F574541 
 13509      4B5F4445 
 13509      46494E49 
 13510              	.LASF1087:
 13511 03d5 5F474C49 		.ascii	"_GLIBCXX_HAVE_FCNTL_H 1\000"
 13511      42435858 
 13511      5F484156 
 13511      455F4643 
 13511      4E544C5F 
 13512              	.LASF1417:
 13513 03ed 44424C5F 		.ascii	"DBL_DIG __DBL_DIG__\000"
 13513      44494720 
 13513      5F5F4442 
 13513      4C5F4449 
 13513      475F5F00 
 13514              	.LASF1710:
 13515 0401 5F5A5374 		.ascii	"_ZSt13islessgreateree\000"
 13515      31336973 
 13515      6C657373 
 13515      67726561 
 13515      74657265 
 13516              	.LASF462:
 13517 0417 5F5F4152 		.ascii	"__ARM_PCS_VFP 1\000"
 13517      4D5F5043 
 13517      535F5646 
 13517      50203100 
 13518              	.LASF1040:
 13519 0427 5F474C49 		.ascii	"_GLIBCXX_BEGIN_NAMESPACE_ALGO \000"
 13519      42435858 
 13519      5F424547 
 13519      494E5F4E 
 13519      414D4553 
 13520              	.LASF240:
 13521 0446 5F5F464C 		.ascii	"__FLT32_HAS_INFINITY__ 1\000"
ARM GAS  C:\Users\30806\AppData\Local\Temp\ccYcD1nI.s 			page 245


 13521      5433325F 
 13521      4841535F 
 13521      494E4649 
 13521      4E495459 
 13522              	.LASF1204:
 13523 045f 48554745 		.ascii	"HUGE_VALL (__builtin_huge_vall())\000"
 13523      5F56414C 
 13523      4C20285F 
 13523      5F627569 
 13523      6C74696E 
 13524              	.LASF790:
 13525 0481 5F434C4F 		.ascii	"_CLOCK_T_ unsigned long\000"
 13525      434B5F54 
 13525      5F20756E 
 13525      7369676E 
 13525      6564206C 
 13526              	.LASF515:
 13527 0499 5F5F6861 		.ascii	"__have_longlong64 1\000"
 13527      76655F6C 
 13527      6F6E676C 
 13527      6F6E6736 
 13527      34203100 
 13528              	.LASF112:
 13529 04ad 5F5F5054 		.ascii	"__PTRDIFF_MAX__ 0x7fffffff\000"
 13529      52444946 
 13529      465F4D41 
 13529      585F5F20 
 13529      30783766 
 13530              	.LASF570:
 13531 04c8 5F494E54 		.ascii	"_INTMAX_T_DECLARED \000"
 13531      4D41585F 
 13531      545F4445 
 13531      434C4152 
 13531      45442000 
 13532              	.LASF621:
 13533 04dc 494E544D 		.ascii	"INTMAX_MAX (__INTMAX_MAX__)\000"
 13533      41585F4D 
 13533      41582028 
 13533      5F5F494E 
 13533      544D4158 
 13534              	.LASF1461:
 13535 04f8 464C545F 		.ascii	"FLT_ROUNDS\000"
 13535      524F554E 
 13535      445300
 13536              	.LASF889:
 13537 0503 5F5F474E 		.ascii	"__GNUCLIKE_BUILTIN_CONSTANT_P 1\000"
 13537      55434C49 
 13537      4B455F42 
 13537      55494C54 
 13537      494E5F43 
 13538              	.LASF1399:
 13539 0523 7467616D 		.ascii	"tgammaf\000"
 13539      6D616600 
 13540              	.LASF1089:
 13541 052b 5F474C49 		.ascii	"_GLIBCXX_HAVE_FLOAT_H 1\000"
 13541      42435858 
 13541      5F484156 
ARM GAS  C:\Users\30806\AppData\Local\Temp\ccYcD1nI.s 			page 246


 13541      455F464C 
 13541      4F41545F 
 13542              	.LASF1284:
 13543 0543 6C646578 		.ascii	"ldexp\000"
 13543      7000
 13544              	.LASF950:
 13545 0549 5F5F7072 		.ascii	"__printflike(fmtarg,firstvararg) __attribute__((__f"
 13545      696E7466 
 13545      6C696B65 
 13545      28666D74 
 13545      6172672C 
 13546 057c 6F726D61 		.ascii	"ormat__ (__printf__, fmtarg, firstvararg)))\000"
 13546      745F5F20 
 13546      285F5F70 
 13546      72696E74 
 13546      665F5F2C 
 13547              	.LASF724:
 13548 05a8 5F5F5052 		.ascii	"__PROGRAM_START __cmsis_start\000"
 13548      4F475241 
 13548      4D5F5354 
 13548      41525420 
 13548      5F5F636D 
 13549              	.LASF0:
 13550 05c6 5F5F5354 		.ascii	"__STDC__ 1\000"
 13550      44435F5F 
 13550      203100
 13551              	.LASF707:
 13552 05d1 5F5F494E 		.ascii	"__INLINE inline\000"
 13552      4C494E45 
 13552      20696E6C 
 13552      696E6500 
 13553              	.LASF1643:
 13554 05e1 5F5A5374 		.ascii	"_ZSt5atan2ff\000"
 13554      35617461 
 13554      6E326666 
 13554      00
 13555              	.LASF625:
 13556 05ee 5349475F 		.ascii	"SIG_ATOMIC_MIN (-__STDINT_EXP(INT_MAX) - 1)\000"
 13556      41544F4D 
 13556      49435F4D 
 13556      494E2028 
 13556      2D5F5F53 
 13557              	.LASF1358:
 13558 061a 6C6F6732 		.ascii	"log2f\000"
 13558      6600
 13559              	.LASF971:
 13560 0620 5F4E756C 		.ascii	"_Null_unspecified \000"
 13560      6C5F756E 
 13560      73706563 
 13560      69666965 
 13560      642000
 13561              	.LASF1500:
 13562 0633 55434841 		.ascii	"UCHAR_MAX (SCHAR_MAX * 2 + 1)\000"
 13562      525F4D41 
 13562      58202853 
 13562      43484152 
 13562      5F4D4158 
ARM GAS  C:\Users\30806\AppData\Local\Temp\ccYcD1nI.s 			page 247


 13563              	.LASF309:
 13564 0651 5F5F554C 		.ascii	"__ULLFRACT_IBIT__ 0\000"
 13564      4C465241 
 13564      43545F49 
 13564      4249545F 
 13564      5F203000 
 13565              	.LASF772:
 13566 0665 5F524541 		.ascii	"_READ_WRITE_BUFSIZE_TYPE int\000"
 13566      445F5752 
 13566      4954455F 
 13566      42554653 
 13566      495A455F 
 13567              	.LASF1413:
 13568 0682 464C545F 		.ascii	"FLT_DIG\000"
 13568      44494700 
 13569              	.LASF231:
 13570 068a 5F5F464C 		.ascii	"__FLT32_MAX_EXP__ 128\000"
 13570      5433325F 
 13570      4D41585F 
 13570      4558505F 
 13570      5F203132 
 13571              	.LASF375:
 13572 06a0 5F5F5341 		.ascii	"__SA_FBIT__ 15\000"
 13572      5F464249 
 13572      545F5F20 
 13572      313500
 13573              	.LASF346:
 13574 06af 5F5F4C4C 		.ascii	"__LLACCUM_MAX__ 0X7FFFFFFFFFFFFFFFP-31LLK\000"
 13574      41434355 
 13574      4D5F4D41 
 13574      585F5F20 
 13574      30583746 
 13575              	.LASF385:
 13576 06d9 5F5F5544 		.ascii	"__UDA_FBIT__ 32\000"
 13576      415F4642 
 13576      49545F5F 
 13576      20333200 
 13577              	.LASF1579:
 13578 06e9 4941525F 		.ascii	"IAR_ONLY_LOW_OPTIMIZATION_EXIT \000"
 13578      4F4E4C59 
 13578      5F4C4F57 
 13578      5F4F5054 
 13578      494D495A 
 13579              	.LASF49:
 13580 0709 5F5F5549 		.ascii	"__UINT64_TYPE__ long long unsigned int\000"
 13580      4E543634 
 13580      5F545950 
 13580      455F5F20 
 13580      6C6F6E67 
 13581              	.LASF1436:
 13582 0730 4C44424C 		.ascii	"LDBL_MAX_EXP __LDBL_MAX_EXP__\000"
 13582      5F4D4158 
 13582      5F455850 
 13582      205F5F4C 
 13582      44424C5F 
 13583              	.LASF201:
 13584 074e 5F5F4442 		.ascii	"__DBL_MAX_10_EXP__ 308\000"
ARM GAS  C:\Users\30806\AppData\Local\Temp\ccYcD1nI.s 			page 248


 13584      4C5F4D41 
 13584      585F3130 
 13584      5F455850 
 13584      5F5F2033 
 13585              	.LASF1046:
 13586 0765 5F474C49 		.ascii	"_GLIBCXX_NAMESPACE_LDBL_OR_CXX11 _GLIBCXX_NAMESPACE"
 13586      42435858 
 13586      5F4E414D 
 13586      45535041 
 13586      43455F4C 
 13587 0798 5F435858 		.ascii	"_CXX11\000"
 13587      313100
 13588              	.LASF1147:
 13589 079f 5F474C49 		.ascii	"_GLIBCXX_HAVE_VFWSCANF 1\000"
 13589      42435858 
 13589      5F484156 
 13589      455F5646 
 13589      57534341 
 13590              	.LASF170:
 13591 07b8 5F5F5549 		.ascii	"__UINT_FAST64_MAX__ 0xffffffffffffffffULL\000"
 13591      4E545F46 
 13591      41535436 
 13591      345F4D41 
 13591      585F5F20 
 13592              	.LASF1527:
 13593 07e2 554C4F4E 		.ascii	"ULONG_LONG_MAX\000"
 13593      475F4C4F 
 13593      4E475F4D 
 13593      415800
 13594              	.LASF1603:
 13595 07f1 5F5A4E31 		.ascii	"_ZN12user_maths_c7invSqrtEf\000"
 13595      32757365 
 13595      725F6D61 
 13595      7468735F 
 13595      6337696E 
 13596              	.LASF466:
 13597 080d 5F5F4152 		.ascii	"__ARM_FEATURE_IDIV 1\000"
 13597      4D5F4645 
 13597      41545552 
 13597      455F4944 
 13597      49562031 
 13598              	.LASF1035:
 13599 0822 5F474C49 		.ascii	"_GLIBCXX_END_NAMESPACE_VERSION \000"
 13599      42435858 
 13599      5F454E44 
 13599      5F4E414D 
 13599      45535041 
 13600              	.LASF35:
 13601 0842 5F5F5743 		.ascii	"__WCHAR_TYPE__ unsigned int\000"
 13601      4841525F 
 13601      54595045 
 13601      5F5F2075 
 13601      6E736967 
 13602              	.LASF885:
 13603 085e 5F5F474E 		.ascii	"__GNUCLIKE___TYPEOF 1\000"
 13603      55434C49 
 13603      4B455F5F 
ARM GAS  C:\Users\30806\AppData\Local\Temp\ccYcD1nI.s 			page 249


 13603      5F545950 
 13603      454F4620 
 13604              	.LASF376:
 13605 0874 5F5F5341 		.ascii	"__SA_IBIT__ 16\000"
 13605      5F494249 
 13605      545F5F20 
 13605      313600
 13606              	.LASF637:
 13607 0883 494E5433 		.ascii	"INT32_C(x) __INT32_C(x)\000"
 13607      325F4328 
 13607      7829205F 
 13607      5F494E54 
 13607      33325F43 
 13608              	.LASF1236:
 13609 089b 4D415846 		.ascii	"MAXFLOAT 3.40282347e+38F\000"
 13609      4C4F4154 
 13609      20332E34 
 13609      30323832 
 13609      33343765 
 13610              	.LASF386:
 13611 08b4 5F5F5544 		.ascii	"__UDA_IBIT__ 32\000"
 13611      415F4942 
 13611      49545F5F 
 13611      20333200 
 13612              	.LASF851:
 13613 08c4 5F524545 		.ascii	"_REENT_MBRLEN_STATE(ptr) ((ptr)->_new._reent._mbrle"
 13613      4E545F4D 
 13613      42524C45 
 13613      4E5F5354 
 13613      41544528 
 13614 08f7 6E5F7374 		.ascii	"n_state)\000"
 13614      61746529 
 13614      00
 13615              	.LASF1668:
 13616 0900 5F5A5374 		.ascii	"_ZSt3powee\000"
 13616      33706F77 
 13616      656500
 13617              	.LASF1620:
 13618 090b 6C696D69 		.ascii	"limiting_filter\000"
 13618      74696E67 
 13618      5F66696C 
 13618      74657200 
 13619              	.LASF1596:
 13620 091b 6163635F 		.ascii	"acc_limit\000"
 13620      6C696D69 
 13620      7400
 13621              	.LASF17:
 13622 0925 5F5F5349 		.ascii	"__SIZEOF_LONG__ 4\000"
 13622      5A454F46 
 13622      5F4C4F4E 
 13622      475F5F20 
 13622      3400
 13623              	.LASF548:
 13624 0937 5F5F494E 		.ascii	"__INT64 \"ll\"\000"
 13624      54363420 
 13624      226C6C22 
 13624      00
ARM GAS  C:\Users\30806\AppData\Local\Temp\ccYcD1nI.s 			page 250


 13625              	.LASF784:
 13626 0944 5F5F6E65 		.ascii	"__need_wint_t \000"
 13626      65645F77 
 13626      696E745F 
 13626      742000
 13627              	.LASF1819:
 13628 0953 5F5F676E 		.ascii	"__gnu_cxx\000"
 13628      755F6378 
 13628      7800
 13629              	.LASF1804:
 13630 095d 6C617374 		.ascii	"last_num\000"
 13630      5F6E756D 
 13630      00
 13631              	.LASF563:
 13632 0966 5F5F696E 		.ascii	"__int16_t_defined 1\000"
 13632      7431365F 
 13632      745F6465 
 13632      66696E65 
 13632      64203100 
 13633              	.LASF714:
 13634 097a 5F5F5041 		.ascii	"__PACKED_STRUCT struct __attribute__((packed, align"
 13634      434B4544 
 13634      5F535452 
 13634      55435420 
 13634      73747275 
 13635 09ad 65642831 		.ascii	"ed(1)))\000"
 13635      29292900 
 13636              	.LASF1466:
 13637 09b5 5F474343 		.ascii	"_GCC_NEXT_LIMITS_H \000"
 13637      5F4E4558 
 13637      545F4C49 
 13637      4D495453 
 13637      5F482000 
 13638              	.LASF1028:
 13639 09c9 5F474C49 		.ascii	"_GLIBCXX_USE_CXX11_ABI 1\000"
 13639      42435858 
 13639      5F555345 
 13639      5F435858 
 13639      31315F41 
 13640              	.LASF639:
 13641 09e2 494E5436 		.ascii	"INT64_C(x) __INT64_C(x)\000"
 13641      345F4328 
 13641      7829205F 
 13641      5F494E54 
 13641      36345F43 
 13642              	.LASF681:
 13643 09fa 5F5F5743 		.ascii	"__WCHAR_T__ \000"
 13643      4841525F 
 13643      545F5F20 
 13643      00
 13644              	.LASF1814:
 13645 0a07 443A5C50 		.ascii	"D:\\Project\\ACE\\F405_INFANTRY_2YAW\\SMALL_YAW\\f4"
 13645      726F6A65 
 13645      63745C41 
 13645      43455C46 
 13645      3430355F 
 13646 0a35 30355F63 		.ascii	"05_cpp_frame\000"
ARM GAS  C:\Users\30806\AppData\Local\Temp\ccYcD1nI.s 			page 251


 13646      70705F66 
 13646      72616D65 
 13646      00
 13647              	.LASF1324:
 13648 0a42 65787032 		.ascii	"exp2l\000"
 13648      6C00
 13649              	.LASF1014:
 13650 0a48 5F474C49 		.ascii	"_GLIBCXX14_CONSTEXPR constexpr\000"
 13650      42435858 
 13650      31345F43 
 13650      4F4E5354 
 13650      45585052 
 13651              	.LASF1638:
 13652 0a67 5F5A5374 		.ascii	"_ZSt4asine\000"
 13652      34617369 
 13652      6E6500
 13653              	.LASF1639:
 13654 0a72 5F5A5374 		.ascii	"_ZSt4asinf\000"
 13654      34617369 
 13654      6E6600
 13655              	.LASF70:
 13656 0a7d 5F5F4758 		.ascii	"__GXX_EXPERIMENTAL_CXX0X__ 1\000"
 13656      585F4558 
 13656      50455249 
 13656      4D454E54 
 13656      414C5F43 
 13657              	.LASF89:
 13658 0a9a 5F5F6370 		.ascii	"__cpp_inheriting_constructors 201511L\000"
 13658      705F696E 
 13658      68657269 
 13658      74696E67 
 13658      5F636F6E 
 13659              	.LASF1498:
 13660 0ac0 53434841 		.ascii	"SCHAR_MAX __SCHAR_MAX__\000"
 13660      525F4D41 
 13660      58205F5F 
 13660      53434841 
 13660      525F4D41 
 13661              	.LASF1492:
 13662 0ad8 5F4C494D 		.ascii	"_LIMITS_H___ \000"
 13662      4954535F 
 13662      485F5F5F 
 13662      2000
 13663              	.LASF1301:
 13664 0ae6 6973756E 		.ascii	"isunordered\000"
 13664      6F726465 
 13664      72656400 
 13665              	.LASF1516:
 13666 0af2 55494E54 		.ascii	"UINT_MAX (INT_MAX * 2U + 1U)\000"
 13666      5F4D4158 
 13666      2028494E 
 13666      545F4D41 
 13666      58202A20 
 13667              	.LASF905:
 13668 0b0f 5F5F5028 		.ascii	"__P(protos) protos\000"
 13668      70726F74 
 13668      6F732920 
ARM GAS  C:\Users\30806\AppData\Local\Temp\ccYcD1nI.s 			page 252


 13668      70726F74 
 13668      6F7300
 13669              	.LASF1141:
 13670 0b22 5F474C49 		.ascii	"_GLIBCXX_HAVE_TANHF 1\000"
 13670      42435858 
 13670      5F484156 
 13670      455F5441 
 13670      4E484620 
 13671              	.LASF1343:
 13672 0b38 696C6F67 		.ascii	"ilogbf\000"
 13672      626600
 13673              	.LASF359:
 13674 0b3f 5F5F4451 		.ascii	"__DQ_FBIT__ 63\000"
 13674      5F464249 
 13674      545F5F20 
 13674      363300
 13675              	.LASF332:
 13676 0b4e 5F5F5541 		.ascii	"__UACCUM_EPSILON__ 0x1P-16UK\000"
 13676      4343554D 
 13676      5F455053 
 13676      494C4F4E 
 13676      5F5F2030 
 13677              	.LASF1167:
 13678 0b6b 5F474C49 		.ascii	"_GLIBCXX98_USE_C99_STDIO 1\000"
 13678      42435858 
 13678      39385F55 
 13678      53455F43 
 13678      39395F53 
 13679              	.LASF1559:
 13680 0b86 5441424C 		.ascii	"TABLE_SPACING_Q15 0x80\000"
 13680      455F5350 
 13680      4143494E 
 13680      475F5131 
 13680      35203078 
 13681              	.LASF162:
 13682 0b9d 5F5F494E 		.ascii	"__INT_FAST16_WIDTH__ 32\000"
 13682      545F4641 
 13682      53543136 
 13682      5F574944 
 13682      54485F5F 
 13683              	.LASF1296:
 13684 0bb5 69736772 		.ascii	"isgreater\000"
 13684      65617465 
 13684      7200
 13685              	.LASF1662:
 13686 0bbf 5F5A5374 		.ascii	"_ZSt3loge\000"
 13686      336C6F67 
 13686      6500
 13687              	.LASF193:
 13688 0bc9 5F5F464C 		.ascii	"__FLT_HAS_INFINITY__ 1\000"
 13688      545F4841 
 13688      535F494E 
 13688      46494E49 
 13688      54595F5F 
 13689              	.LASF1423:
 13690 0be0 44424C5F 		.ascii	"DBL_MIN_EXP __DBL_MIN_EXP__\000"
 13690      4D494E5F 
ARM GAS  C:\Users\30806\AppData\Local\Temp\ccYcD1nI.s 			page 253


 13690      45585020 
 13690      5F5F4442 
 13690      4C5F4D49 
 13691              	.LASF1218:
 13692 0bfc 4D415448 		.ascii	"MATH_ERREXCEPT 2\000"
 13692      5F455252 
 13692      45584345 
 13692      50542032 
 13692      00
 13693              	.LASF536:
 13694 0c0d 756E7369 		.ascii	"unsigned +0\000"
 13694      676E6564 
 13694      202B3000 
 13695              	.LASF1162:
 13696 0c19 5F474C49 		.ascii	"_GLIBCXX11_USE_C99_MATH 1\000"
 13696      42435858 
 13696      31315F55 
 13696      53455F43 
 13696      39395F4D 
 13697              	.LASF1063:
 13698 0c33 5F474C49 		.ascii	"_GLIBCXX_FAST_MATH 0\000"
 13698      42435858 
 13698      5F464153 
 13698      545F4D41 
 13698      54482030 
 13699              	.LASF205:
 13700 0c48 5F5F4442 		.ascii	"__DBL_MIN__ double(2.2250738585072014e-308L)\000"
 13700      4C5F4D49 
 13700      4E5F5F20 
 13700      646F7562 
 13700      6C652832 
 13701              	.LASF1512:
 13702 0c75 494E545F 		.ascii	"INT_MIN (-INT_MAX - 1)\000"
 13702      4D494E20 
 13702      282D494E 
 13702      545F4D41 
 13702      58202D20 
 13703              	.LASF618:
 13704 0c8c 494E545F 		.ascii	"INT_FAST64_MIN (-__INT_FAST64_MAX__ - 1)\000"
 13704      46415354 
 13704      36345F4D 
 13704      494E2028 
 13704      2D5F5F49 
 13705              	.LASF1085:
 13706 0cb5 5F474C49 		.ascii	"_GLIBCXX_HAVE_EXPF 1\000"
 13706      42435858 
 13706      5F484156 
 13706      455F4558 
 13706      50462031 
 13707              	.LASF760:
 13708 0cca 5F524554 		.ascii	"_RETARGETABLE_LOCKING 1\000"
 13708      41524745 
 13708      5441424C 
 13708      455F4C4F 
 13708      434B494E 
 13709              	.LASF518:
 13710 0ce2 5F5F5F69 		.ascii	"___int16_t_defined 1\000"
ARM GAS  C:\Users\30806\AppData\Local\Temp\ccYcD1nI.s 			page 254


 13710      6E743136 
 13710      5F745F64 
 13710      6566696E 
 13710      65642031 
 13711              	.LASF1295:
 13712 0cf7 7369676E 		.ascii	"signbit\000"
 13712      62697400 
 13713              	.LASF721:
 13714 0cff 5F5F414C 		.ascii	"__ALIGNED(x) __attribute__((aligned(x)))\000"
 13714      49474E45 
 13714      44287829 
 13714      205F5F61 
 13714      74747269 
 13715              	.LASF1435:
 13716 0d28 44424C5F 		.ascii	"DBL_MAX_EXP __DBL_MAX_EXP__\000"
 13716      4D41585F 
 13716      45585020 
 13716      5F5F4442 
 13716      4C5F4D41 
 13717              	.LASF920:
 13718 0d44 5F5F616C 		.ascii	"__aligned(x) __attribute__((__aligned__(x)))\000"
 13718      69676E65 
 13718      64287829 
 13718      205F5F61 
 13718      74747269 
 13719              	.LASF242:
 13720 0d71 5F5F4650 		.ascii	"__FP_FAST_FMAF32 1\000"
 13720      5F464153 
 13720      545F464D 
 13720      41463332 
 13720      203100
 13721              	.LASF1175:
 13722 0d84 5F474C49 		.ascii	"_GLIBCXX_SIZE_T_IS_UINT 1\000"
 13722      42435858 
 13722      5F53495A 
 13722      455F545F 
 13722      49535F55 
 13723              	.LASF1148:
 13724 0d9e 5F474C49 		.ascii	"_GLIBCXX_HAVE_VSWSCANF 1\000"
 13724      42435858 
 13724      5F484156 
 13724      455F5653 
 13724      57534341 
 13725              	.LASF1735:
 13726 0db7 5F5A5374 		.ascii	"_ZSt4fdimff\000"
 13726      34666469 
 13726      6D666600 
 13727              	.LASF1064:
 13728 0dc3 5F5F4E28 		.ascii	"__N(msgid) (msgid)\000"
 13728      6D736769 
 13728      64292028 
 13728      6D736769 
 13728      642900
 13729              	.LASF653:
 13730 0dd6 5F545F50 		.ascii	"_T_PTRDIFF_ \000"
 13730      54524449 
 13730      46465F20 
ARM GAS  C:\Users\30806\AppData\Local\Temp\ccYcD1nI.s 			page 255


 13730      00
 13731              	.LASF1044:
 13732 0de3 5F474C49 		.ascii	"_GLIBCXX_BEGIN_NAMESPACE_LDBL \000"
 13732      42435858 
 13732      5F424547 
 13732      494E5F4E 
 13732      414D4553 
 13733              	.LASF1215:
 13734 0e02 46505F49 		.ascii	"FP_ILOGB0 (-__INT_MAX__)\000"
 13734      4C4F4742 
 13734      3020282D 
 13734      5F5F494E 
 13734      545F4D41 
 13735              	.LASF1261:
 13736 0e1b 5F535444 		.ascii	"_STDLIB_H_ \000"
 13736      4C49425F 
 13736      485F2000 
 13737              	.LASF1740:
 13738 0e27 5F5A5374 		.ascii	"_ZSt4fminee\000"
 13738      34666D69 
 13738      6E656500 
 13739              	.LASF877:
 13740 0e33 5F5F756E 		.ascii	"__unbounded \000"
 13740      626F756E 
 13740      64656420 
 13740      00
 13741              	.LASF144:
 13742 0e40 5F5F494E 		.ascii	"__INT_LEAST16_WIDTH__ 16\000"
 13742      545F4C45 
 13742      41535431 
 13742      365F5749 
 13742      4454485F 
 13743              	.LASF280:
 13744 0e59 5F5F5553 		.ascii	"__USFRACT_MIN__ 0.0UHR\000"
 13744      46524143 
 13744      545F4D49 
 13744      4E5F5F20 
 13744      302E3055 
 13745              	.LASF748:
 13746 0e70 5F57414E 		.ascii	"_WANT_REGISTER_FINI 1\000"
 13746      545F5245 
 13746      47495354 
 13746      45525F46 
 13746      494E4920 
 13747              	.LASF52:
 13748 0e86 5F5F494E 		.ascii	"__INT_LEAST32_TYPE__ long int\000"
 13748      545F4C45 
 13748      41535433 
 13748      325F5459 
 13748      50455F5F 
 13749              	.LASF1271:
 13750 0ea4 4D425F43 		.ascii	"MB_CUR_MAX __locale_mb_cur_max()\000"
 13750      55525F4D 
 13750      4158205F 
 13750      5F6C6F63 
 13750      616C655F 
 13751              	.LASF209:
ARM GAS  C:\Users\30806\AppData\Local\Temp\ccYcD1nI.s 			page 256


 13752 0ec5 5F5F4442 		.ascii	"__DBL_HAS_INFINITY__ 1\000"
 13752      4C5F4841 
 13752      535F494E 
 13752      46494E49 
 13752      54595F5F 
 13753              	.LASF750:
 13754 0edc 5F4D425F 		.ascii	"_MB_LEN_MAX 1\000"
 13754      4C454E5F 
 13754      4D415820 
 13754      3100
 13755              	.LASF1211:
 13756 0eea 46505F49 		.ascii	"FP_INFINITE 1\000"
 13756      4E46494E 
 13756      49544520 
 13756      3100
 13757              	.LASF988:
 13758 0ef8 5F5F6E6F 		.ascii	"__no_lock_analysis __lock_annotate(no_thread_safety"
 13758      5F6C6F63 
 13758      6B5F616E 
 13758      616C7973 
 13758      6973205F 
 13759 0f2b 5F616E61 		.ascii	"_analysis)\000"
 13759      6C797369 
 13759      732900
 13760              	.LASF1468:
 13761 0f36 5F535953 		.ascii	"_SYS_SYSLIMITS_H_ \000"
 13761      5F535953 
 13761      4C494D49 
 13761      54535F48 
 13761      5F2000
 13762              	.LASF615:
 13763 0f49 494E545F 		.ascii	"INT_FAST32_MIN (-__INT_FAST32_MAX__ - 1)\000"
 13763      46415354 
 13763      33325F4D 
 13763      494E2028 
 13763      2D5F5F49 
 13764              	.LASF104:
 13765 0f72 5F5F5348 		.ascii	"__SHRT_MAX__ 0x7fff\000"
 13765      52545F4D 
 13765      41585F5F 
 13765      20307837 
 13765      66666600 
 13766              	.LASF1313:
 13767 0f86 63627274 		.ascii	"cbrtl\000"
 13767      6C00
 13768              	.LASF622:
 13769 0f8c 494E544D 		.ascii	"INTMAX_MIN (-INTMAX_MAX - 1)\000"
 13769      41585F4D 
 13769      494E2028 
 13769      2D494E54 
 13769      4D41585F 
 13770              	.LASF601:
 13771 0fa9 494E545F 		.ascii	"INT_LEAST32_MAX (__INT_LEAST32_MAX__)\000"
 13771      4C454153 
 13771      5433325F 
 13771      4D415820 
 13771      285F5F49 
ARM GAS  C:\Users\30806\AppData\Local\Temp\ccYcD1nI.s 			page 257


 13772              	.LASF1604:
 13773 0fcf 666C6F61 		.ascii	"float_min_distance\000"
 13773      745F6D69 
 13773      6E5F6469 
 13773      7374616E 
 13773      636500
 13774              	.LASF13:
 13775 0fe2 5F5F4154 		.ascii	"__ATOMIC_ACQ_REL 4\000"
 13775      4F4D4943 
 13775      5F414351 
 13775      5F52454C 
 13775      203400
 13776              	.LASF1672:
 13777 0ff5 5F5A5374 		.ascii	"_ZSt4ceile\000"
 13777      34636569 
 13777      6C6500
 13778              	.LASF1676:
 13779 1000 5F5A5374 		.ascii	"_ZSt5floore\000"
 13779      35666C6F 
 13779      6F726500 
 13780              	.LASF1422:
 13781 100c 464C545F 		.ascii	"FLT_MIN_EXP __FLT_MIN_EXP__\000"
 13781      4D494E5F 
 13781      45585020 
 13781      5F5F464C 
 13781      545F4D49 
 13782              	.LASF855:
 13783 1028 5F524545 		.ascii	"_REENT_WCSRTOMBS_STATE(ptr) ((ptr)->_new._reent._wc"
 13783      4E545F57 
 13783      43535254 
 13783      4F4D4253 
 13783      5F535441 
 13784 105b 7372746F 		.ascii	"srtombs_state)\000"
 13784      6D62735F 
 13784      73746174 
 13784      652900
 13785              	.LASF937:
 13786 106a 5F5F6661 		.ascii	"__fastcall __attribute__((__fastcall__))\000"
 13786      73746361 
 13786      6C6C205F 
 13786      5F617474 
 13786      72696275 
 13787              	.LASF1099:
 13788 1093 5F474C49 		.ascii	"_GLIBCXX_HAVE_INT64_T_LONG_LONG 1\000"
 13788      42435858 
 13788      5F484156 
 13788      455F494E 
 13788      5436345F 
 13789              	.LASF779:
 13790 10b5 5F4E4F49 		.ascii	"_NOINLINE __attribute__ ((__noinline__))\000"
 13790      4E4C494E 
 13790      45205F5F 
 13790      61747472 
 13790      69627574 
 13791              	.LASF165:
 13792 10de 5F5F494E 		.ascii	"__INT_FAST64_MAX__ 0x7fffffffffffffffLL\000"
 13792      545F4641 
ARM GAS  C:\Users\30806\AppData\Local\Temp\ccYcD1nI.s 			page 258


 13792      53543634 
 13792      5F4D4158 
 13792      5F5F2030 
 13793              	.LASF345:
 13794 1106 5F5F4C4C 		.ascii	"__LLACCUM_MIN__ (-0X1P31LLK-0X1P31LLK)\000"
 13794      41434355 
 13794      4D5F4D49 
 13794      4E5F5F20 
 13794      282D3058 
 13795              	.LASF399:
 13796 112d 5F5F4743 		.ascii	"__GCC_ATOMIC_CHAR_LOCK_FREE 2\000"
 13796      435F4154 
 13796      4F4D4943 
 13796      5F434841 
 13796      525F4C4F 
 13797              	.LASF63:
 13798 114b 5F5F5549 		.ascii	"__UINT_FAST16_TYPE__ unsigned int\000"
 13798      4E545F46 
 13798      41535431 
 13798      365F5459 
 13798      50455F5F 
 13799              	.LASF1200:
 13800 116d 5F4D4154 		.ascii	"_MATH_H_ \000"
 13800      485F485F 
 13800      2000
 13801              	.LASF1077:
 13802 1177 5F474C49 		.ascii	"_GLIBCXX_HAVE_AS_SYMVER_DIRECTIVE 1\000"
 13802      42435858 
 13802      5F484156 
 13802      455F4153 
 13802      5F53594D 
 13803              	.LASF746:
 13804 119b 5F57414E 		.ascii	"_WANT_IO_C99_FORMATS 1\000"
 13804      545F494F 
 13804      5F433939 
 13804      5F464F52 
 13804      4D415453 
 13805              	.LASF343:
 13806 11b2 5F5F4C4C 		.ascii	"__LLACCUM_FBIT__ 31\000"
 13806      41434355 
 13806      4D5F4642 
 13806      49545F5F 
 13806      20333100 
 13807              	.LASF138:
 13808 11c6 5F5F5549 		.ascii	"__UINT64_MAX__ 0xffffffffffffffffULL\000"
 13808      4E543634 
 13808      5F4D4158 
 13808      5F5F2030 
 13808      78666666 
 13809              	.LASF1337:
 13810 11eb 666D696E 		.ascii	"fminf\000"
 13810      6600
 13811              	.LASF16:
 13812 11f1 5F5F5349 		.ascii	"__SIZEOF_INT__ 4\000"
 13812      5A454F46 
 13812      5F494E54 
 13812      5F5F2034 
ARM GAS  C:\Users\30806\AppData\Local\Temp\ccYcD1nI.s 			page 259


 13812      00
 13813              	.LASF446:
 13814 1202 5F5F4152 		.ascii	"__ARMEL__ 1\000"
 13814      4D454C5F 
 13814      5F203100 
 13815              	.LASF263:
 13816 120e 5F5F464C 		.ascii	"__FLT32X_MAX_10_EXP__ 308\000"
 13816      54333258 
 13816      5F4D4158 
 13816      5F31305F 
 13816      4558505F 
 13817              	.LASF1421:
 13818 1228 4C44424C 		.ascii	"LDBL_MIN_EXP\000"
 13818      5F4D494E 
 13818      5F455850 
 13818      00
 13819              	.LASF533:
 13820 1235 5F5F696E 		.ascii	"__int20__\000"
 13820      7432305F 
 13820      5F00
 13821              	.LASF1159:
 13822 123f 5F474C49 		.ascii	"_GLIBCXX_PACKAGE__GLIBCXX_VERSION \"version-unused\""
 13822      42435858 
 13822      5F504143 
 13822      4B414745 
 13822      5F5F474C 
 13823 1271 00       		.ascii	"\000"
 13824              	.LASF41:
 13825 1272 5F5F5349 		.ascii	"__SIG_ATOMIC_TYPE__ int\000"
 13825      475F4154 
 13825      4F4D4943 
 13825      5F545950 
 13825      455F5F20 
 13826              	.LASF673:
 13827 128a 5F425344 		.ascii	"_BSD_SIZE_T_DEFINED_ \000"
 13827      5F53495A 
 13827      455F545F 
 13827      44454649 
 13827      4E45445F 
 13828              	.LASF888:
 13829 12a0 5F5F474E 		.ascii	"__GNUCLIKE_CTOR_SECTION_HANDLING 1\000"
 13829      55434C49 
 13829      4B455F43 
 13829      544F525F 
 13829      53454354 
 13830              	.LASF1199:
 13831 12c3 5F474C49 		.ascii	"_GLIBCXX_INCLUDE_NEXT_C_HEADERS \000"
 13831      42435858 
 13831      5F494E43 
 13831      4C554445 
 13831      5F4E4558 
 13832              	.LASF1052:
 13833 12e4 5F474C49 		.ascii	"_GLIBCXX_BEGIN_EXTERN_C extern \"C\" {\000"
 13833      42435858 
 13833      5F424547 
 13833      494E5F45 
 13833      58544552 
ARM GAS  C:\Users\30806\AppData\Local\Temp\ccYcD1nI.s 			page 260


 13834              	.LASF1744:
 13835 1309 5F5A5374 		.ascii	"_ZSt5ilogbe\000"
 13835      35696C6F 
 13835      67626500 
 13836              	.LASF531:
 13837 1315 73686F72 		.ascii	"short\000"
 13837      7400
 13838              	.LASF1084:
 13839 131b 5F474C49 		.ascii	"_GLIBCXX_HAVE_COSHF 1\000"
 13839      42435858 
 13839      5F484156 
 13839      455F434F 
 13839      53484620 
 13840              	.LASF1235:
 13841 1331 5F5F7369 		.ascii	"__signgam_r(ptr) _REENT_SIGNGAM(ptr)\000"
 13841      676E6761 
 13841      6D5F7228 
 13841      70747229 
 13841      205F5245 
 13842              	.LASF1562:
 13843 1356 5F5F5349 		.ascii	"__SIMD32_TYPE int32_t\000"
 13843      4D443332 
 13843      5F545950 
 13843      4520696E 
 13843      7433325F 
 13844              	.LASF1180:
 13845 136c 5F474C49 		.ascii	"_GLIBCXX_USE_C99_FENV_TR1 1\000"
 13845      42435858 
 13845      5F555345 
 13845      5F433939 
 13845      5F46454E 
 13846              	.LASF154:
 13847 1388 5F5F5549 		.ascii	"__UINT16_C(c) c\000"
 13847      4E543136 
 13847      5F432863 
 13847      29206300 
 13848              	.LASF411:
 13849 1398 5F5F5052 		.ascii	"__PRAGMA_REDEFINE_EXTNAME 1\000"
 13849      41474D41 
 13849      5F524544 
 13849      4546494E 
 13849      455F4558 
 13850              	.LASF53:
 13851 13b4 5F5F494E 		.ascii	"__INT_LEAST64_TYPE__ long long int\000"
 13851      545F4C45 
 13851      41535436 
 13851      345F5459 
 13851      50455F5F 
 13852              	.LASF1626:
 13853 13d7 6C6F6E67 		.ascii	"long double\000"
 13853      20646F75 
 13853      626C6500 
 13854              	.LASF1315:
 13855 13e3 636F7079 		.ascii	"copysignf\000"
 13855      7369676E 
 13855      6600
 13856              	.LASF1221:
ARM GAS  C:\Users\30806\AppData\Local\Temp\ccYcD1nI.s 			page 261


 13857 13ed 6D617468 		.ascii	"math_errhandling (_MATH_ERRHANDLING_ERRNO | _MATH_E"
 13857      5F657272 
 13857      68616E64 
 13857      6C696E67 
 13857      20285F4D 
 13858 1420 52524841 		.ascii	"RRHANDLING_ERREXCEPT)\000"
 13858      4E444C49 
 13858      4E475F45 
 13858      52524558 
 13858      43455054 
 13859              	.LASF1693:
 13860 1436 5F5A5374 		.ascii	"_ZSt8isnormald\000"
 13860      3869736E 
 13860      6F726D61 
 13860      6C6400
 13861              	.LASF1692:
 13862 1445 5F5A5374 		.ascii	"_ZSt8isnormale\000"
 13862      3869736E 
 13862      6F726D61 
 13862      6C6500
 13863              	.LASF1694:
 13864 1454 5F5A5374 		.ascii	"_ZSt8isnormalf\000"
 13864      3869736E 
 13864      6F726D61 
 13864      6C6600
 13865              	.LASF1112:
 13866 1463 5F474C49 		.ascii	"_GLIBCXX_HAVE_LOGF 1\000"
 13866      42435858 
 13866      5F484156 
 13866      455F4C4F 
 13866      47462031 
 13867              	.LASF987:
 13868 1478 5F5F7265 		.ascii	"__requires_unlocked(...) __lock_annotate(locks_excl"
 13868      71756972 
 13868      65735F75 
 13868      6E6C6F63 
 13868      6B656428 
 13869 14ab 75646564 		.ascii	"uded(__VA_ARGS__))\000"
 13869      285F5F56 
 13869      415F4152 
 13869      47535F5F 
 13869      292900
 13870              	.LASF806:
 13871 14be 5F5F6C6F 		.ascii	"__lock_try_acquire(lock) __retarget_lock_try_acquir"
 13871      636B5F74 
 13871      72795F61 
 13871      63717569 
 13871      7265286C 
 13872 14f1 65286C6F 		.ascii	"e(lock)\000"
 13872      636B2900 
 13873              	.LASF691:
 13874 14f9 5F5F5F69 		.ascii	"___int_wchar_t_h \000"
 13874      6E745F77 
 13874      63686172 
 13874      5F745F68 
 13874      2000
 13875              	.LASF796:
ARM GAS  C:\Users\30806\AppData\Local\Temp\ccYcD1nI.s 			page 262


 13876 150b 5F5F5359 		.ascii	"__SYS_LOCK_H__ \000"
 13876      535F4C4F 
 13876      434B5F48 
 13876      5F5F2000 
 13877              	.LASF409:
 13878 151b 5F5F4841 		.ascii	"__HAVE_SPECULATION_SAFE_VALUE 1\000"
 13878      56455F53 
 13878      50454355 
 13878      4C415449 
 13878      4F4E5F53 
 13879              	.LASF1111:
 13880 153b 5F474C49 		.ascii	"_GLIBCXX_HAVE_LOG10F 1\000"
 13880      42435858 
 13880      5F484156 
 13880      455F4C4F 
 13880      47313046 
 13881              	.LASF1577:
 13882 1552 4C4F575F 		.ascii	"LOW_OPTIMIZATION_EXIT \000"
 13882      4F505449 
 13882      4D495A41 
 13882      54494F4E 
 13882      5F455849 
 13883              	.LASF1780:
 13884 1569 5F5A5374 		.ascii	"_ZSt6tgammae\000"
 13884      36746761 
 13884      6D6D6165 
 13884      00
 13885              	.LASF1781:
 13886 1576 5F5A5374 		.ascii	"_ZSt6tgammaf\000"
 13886      36746761 
 13886      6D6D6166 
 13886      00
 13887              	.LASF831:
 13888 1583 5F524545 		.ascii	"_REENT_CHECK_ASCTIME_BUF(ptr) \000"
 13888      4E545F43 
 13888      4845434B 
 13888      5F415343 
 13888      54494D45 
 13889              	.LASF1037:
 13890 15a2 5F474C49 		.ascii	"_GLIBCXX_BEGIN_NAMESPACE_CONTAINER \000"
 13890      42435858 
 13890      5F424547 
 13890      494E5F4E 
 13890      414D4553 
 13891              	.LASF353:
 13892 15c6 5F5F5151 		.ascii	"__QQ_FBIT__ 7\000"
 13892      5F464249 
 13892      545F5F20 
 13892      3700
 13893              	.LASF218:
 13894 15d4 5F5F4C44 		.ascii	"__LDBL_DECIMAL_DIG__ 17\000"
 13894      424C5F44 
 13894      4543494D 
 13894      414C5F44 
 13894      49475F5F 
 13895              	.LASF1529:
 13896 15ec 4636345F 		.ascii	"F64_MAX ((float64_t)DBL_MAX)\000"
ARM GAS  C:\Users\30806\AppData\Local\Temp\ccYcD1nI.s 			page 263


 13896      4D415820 
 13896      2828666C 
 13896      6F617436 
 13896      345F7429 
 13897              	.LASF713:
 13898 1609 5F5F5041 		.ascii	"__PACKED __attribute__((packed, aligned(1)))\000"
 13898      434B4544 
 13898      205F5F61 
 13898      74747269 
 13898      62757465 
 13899              	.LASF269:
 13900 1636 5F5F464C 		.ascii	"__FLT32X_DENORM_MIN__ 4.9406564584124654e-324F32x\000"
 13900      54333258 
 13900      5F44454E 
 13900      4F524D5F 
 13900      4D494E5F 
 13901              	.LASF603:
 13902 1668 494E5436 		.ascii	"INT64_MIN (-__INT64_MAX__ - 1)\000"
 13902      345F4D49 
 13902      4E20282D 
 13902      5F5F494E 
 13902      5436345F 
 13903              	.LASF1329:
 13904 1687 6664696D 		.ascii	"fdimf\000"
 13904      6600
 13905              	.LASF704:
 13906 168d 5F5F434D 		.ascii	"__CMSIS_COMPILER_H \000"
 13906      5349535F 
 13906      434F4D50 
 13906      494C4552 
 13906      5F482000 
 13907              	.LASF1057:
 13908 16a1 5F5F676C 		.ascii	"__glibcxx_integral_traps false\000"
 13908      69626378 
 13908      785F696E 
 13908      74656772 
 13908      616C5F74 
 13909              	.LASF25:
 13910 16c0 5F5F4249 		.ascii	"__BIGGEST_ALIGNMENT__ 8\000"
 13910      47474553 
 13910      545F414C 
 13910      49474E4D 
 13910      454E545F 
 13911              	.LASF437:
 13912 16d8 5F5F4152 		.ascii	"__ARM_ARCH\000"
 13912      4D5F4152 
 13912      434800
 13913              	.LASF46:
 13914 16e3 5F5F5549 		.ascii	"__UINT8_TYPE__ unsigned char\000"
 13914      4E54385F 
 13914      54595045 
 13914      5F5F2075 
 13914      6E736967 
 13915              	.LASF1502:
 13916 1700 43484152 		.ascii	"CHAR_MIN 0\000"
 13916      5F4D494E 
 13916      203000
ARM GAS  C:\Users\30806\AppData\Local\Temp\ccYcD1nI.s 			page 264


 13917              	.LASF1065:
 13918 170b 5F474C49 		.ascii	"_GLIBCXX_USE_C99_MATH _GLIBCXX11_USE_C99_MATH\000"
 13918      42435858 
 13918      5F555345 
 13918      5F433939 
 13918      5F4D4154 
 13919              	.LASF1281:
 13920 1739 666C6F6F 		.ascii	"floor\000"
 13920      7200
 13921              	.LASF602:
 13922 173f 55494E54 		.ascii	"UINT_LEAST32_MAX (__UINT_LEAST32_MAX__)\000"
 13922      5F4C4541 
 13922      53543332 
 13922      5F4D4158 
 13922      20285F5F 
 13923              	.LASF848:
 13924 1767 5F524545 		.ascii	"_REENT_MBLEN_STATE(ptr) ((ptr)->_new._reent._mblen_"
 13924      4E545F4D 
 13924      424C454E 
 13924      5F535441 
 13924      54452870 
 13925 179a 73746174 		.ascii	"state)\000"
 13925      652900
 13926              	.LASF230:
 13927 17a1 5F5F464C 		.ascii	"__FLT32_MIN_10_EXP__ (-37)\000"
 13927      5433325F 
 13927      4D494E5F 
 13927      31305F45 
 13927      58505F5F 
 13928              	.LASF1113:
 13929 17bc 5F474C49 		.ascii	"_GLIBCXX_HAVE_MACHINE_ENDIAN_H 1\000"
 13929      42435858 
 13929      5F484156 
 13929      455F4D41 
 13929      4348494E 
 13930              	.LASF1098:
 13931 17dd 5F474C49 		.ascii	"_GLIBCXX_HAVE_INT64_T 1\000"
 13931      42435858 
 13931      5F484156 
 13931      455F494E 
 13931      5436345F 
 13932              	.LASF1430:
 13933 17f5 4C44424C 		.ascii	"LDBL_MIN_10_EXP __LDBL_MIN_10_EXP__\000"
 13933      5F4D494E 
 13933      5F31305F 
 13933      45585020 
 13933      5F5F4C44 
 13934              	.LASF1023:
 13935 1819 5F474C49 		.ascii	"_GLIBCXX_THROW_OR_ABORT(_EXC) (__builtin_abort())\000"
 13935      42435858 
 13935      5F544852 
 13935      4F575F4F 
 13935      525F4142 
 13936              	.LASF351:
 13937 184b 5F5F554C 		.ascii	"__ULLACCUM_MAX__ 0XFFFFFFFFFFFFFFFFP-32ULLK\000"
 13937      4C414343 
 13937      554D5F4D 
ARM GAS  C:\Users\30806\AppData\Local\Temp\ccYcD1nI.s 			page 265


 13937      41585F5F 
 13937      20305846 
 13938              	.LASF3:
 13939 1877 5F5F5354 		.ascii	"__STDC_UTF_32__ 1\000"
 13939      44435F55 
 13939      54465F33 
 13939      325F5F20 
 13939      3100
 13940              	.LASF142:
 13941 1889 5F5F494E 		.ascii	"__INT_LEAST16_MAX__ 0x7fff\000"
 13941      545F4C45 
 13941      41535431 
 13941      365F4D41 
 13941      585F5F20 
 13942              	.LASF1772:
 13943 18a4 5F5A5374 		.ascii	"_ZSt4rinte\000"
 13943      3472696E 
 13943      746500
 13944              	.LASF1773:
 13945 18af 5F5A5374 		.ascii	"_ZSt4rintf\000"
 13945      3472696E 
 13945      746600
 13946              	.LASF910:
 13947 18ba 5F5F636F 		.ascii	"__const const\000"
 13947      6E737420 
 13947      636F6E73 
 13947      7400
 13948              	.LASF1489:
 13949 18c8 4E4C5F41 		.ascii	"NL_ARGMAX 32\000"
 13949      52474D41 
 13949      58203332 
 13949      00
 13950              	.LASF1263:
 13951 18d5 5F4D4143 		.ascii	"_MACHSTDLIB_H_ \000"
 13951      48535444 
 13951      4C49425F 
 13951      485F2000 
 13952              	.LASF1547:
 13953 18e5 5131355F 		.ascii	"Q15_ABSMIN ((q15_t)0)\000"
 13953      4142534D 
 13953      494E2028 
 13953      28713135 
 13953      5F742930 
 13954              	.LASF1287:
 13955 18fb 73696E68 		.ascii	"sinh\000"
 13955      00
 13956              	.LASF1395:
 13957 1900 7363616C 		.ascii	"scalbn\000"
 13957      626E00
 13958              	.LASF1021:
 13959 1907 5F474C49 		.ascii	"_GLIBCXX_THROW(_EXC) \000"
 13959      42435858 
 13959      5F544852 
 13959      4F57285F 
 13959      45584329 
 13960              	.LASF191:
 13961 191d 5F5F464C 		.ascii	"__FLT_DENORM_MIN__ 1.4012984643248171e-45F\000"
ARM GAS  C:\Users\30806\AppData\Local\Temp\ccYcD1nI.s 			page 266


 13961      545F4445 
 13961      4E4F524D 
 13961      5F4D494E 
 13961      5F5F2031 
 13962              	.LASF1020:
 13963 1948 5F474C49 		.ascii	"_GLIBCXX_USE_NOEXCEPT noexcept\000"
 13963      42435858 
 13963      5F555345 
 13963      5F4E4F45 
 13963      58434550 
 13964              	.LASF1618:
 13965 1967 73696E5F 		.ascii	"sin_calculate\000"
 13965      63616C63 
 13965      756C6174 
 13965      6500
 13966              	.LASF807:
 13967 1975 5F5F6C6F 		.ascii	"__lock_try_acquire_recursive(lock) __retarget_lock_"
 13967      636B5F74 
 13967      72795F61 
 13967      63717569 
 13967      72655F72 
 13968 19a8 7472795F 		.ascii	"try_acquire_recursive(lock)\000"
 13968      61637175 
 13968      6972655F 
 13968      72656375 
 13968      72736976 
 13969              	.LASF744:
 13970 19c4 5F414E53 		.ascii	"_ANSIDECL_H_ \000"
 13970      49444543 
 13970      4C5F485F 
 13970      2000
 13971              	.LASF47:
 13972 19d2 5F5F5549 		.ascii	"__UINT16_TYPE__ short unsigned int\000"
 13972      4E543136 
 13972      5F545950 
 13972      455F5F20 
 13972      73686F72 
 13973              	.LASF525:
 13974 19f5 5F5F4558 		.ascii	"__EXP\000"
 13974      5000
 13975              	.LASF1050:
 13976 19fb 5F474C49 		.ascii	"_GLIBCXX_SYNCHRONIZATION_HAPPENS_BEFORE(A) \000"
 13976      42435858 
 13976      5F53594E 
 13976      4348524F 
 13976      4E495A41 
 13977              	.LASF666:
 13978 1a27 5F545F53 		.ascii	"_T_SIZE_ \000"
 13978      495A455F 
 13978      2000
 13979              	.LASF235:
 13980 1a31 5F5F464C 		.ascii	"__FLT32_NORM_MAX__ 3.4028234663852886e+38F32\000"
 13980      5433325F 
 13980      4E4F524D 
 13980      5F4D4158 
 13980      5F5F2033 
 13981              	.LASF507:
ARM GAS  C:\Users\30806\AppData\Local\Temp\ccYcD1nI.s 			page 267


 13982 1a5e 5F5F4953 		.ascii	"__ISO_C_VISIBLE 2011\000"
 13982      4F5F435F 
 13982      56495349 
 13982      424C4520 
 13982      32303131 
 13983              	.LASF400:
 13984 1a73 5F5F4743 		.ascii	"__GCC_ATOMIC_CHAR16_T_LOCK_FREE 2\000"
 13984      435F4154 
 13984      4F4D4943 
 13984      5F434841 
 13984      5231365F 
 13985              	.LASF271:
 13986 1a95 5F5F464C 		.ascii	"__FLT32X_HAS_INFINITY__ 1\000"
 13986      54333258 
 13986      5F484153 
 13986      5F494E46 
 13986      494E4954 
 13987              	.LASF1687:
 13988 1aaf 5F5A5374 		.ascii	"_ZSt5isinfd\000"
 13988      35697369 
 13988      6E666400 
 13989              	.LASF1686:
 13990 1abb 5F5A5374 		.ascii	"_ZSt5isinfe\000"
 13990      35697369 
 13990      6E666500 
 13991              	.LASF1688:
 13992 1ac7 5F5A5374 		.ascii	"_ZSt5isinff\000"
 13992      35697369 
 13992      6E666600 
 13993              	.LASF1619:
 13994 1ad3 5F5A4E31 		.ascii	"_ZN12user_maths_c13sin_calculateEf\000"
 13994      32757365 
 13994      725F6D61 
 13994      7468735F 
 13994      63313373 
 13995              	.LASF1696:
 13996 1af6 5F5A5374 		.ascii	"_ZSt7signbitd\000"
 13996      37736967 
 13996      6E626974 
 13996      6400
 13997              	.LASF1695:
 13998 1b04 5F5A5374 		.ascii	"_ZSt7signbite\000"
 13998      37736967 
 13998      6E626974 
 13998      6500
 13999              	.LASF1697:
 14000 1b12 5F5A5374 		.ascii	"_ZSt7signbitf\000"
 14000      37736967 
 14000      6E626974 
 14000      6600
 14001              	.LASF1171:
 14002 1b20 5F474C49 		.ascii	"_GLIBCXX_FULLY_DYNAMIC_STRING 0\000"
 14002      42435858 
 14002      5F46554C 
 14002      4C595F44 
 14002      594E414D 
 14003              	.LASF1526:
ARM GAS  C:\Users\30806\AppData\Local\Temp\ccYcD1nI.s 			page 268


 14004 1b40 4C4F4E47 		.ascii	"LONG_LONG_MAX __LONG_LONG_MAX__\000"
 14004      5F4C4F4E 
 14004      475F4D41 
 14004      58205F5F 
 14004      4C4F4E47 
 14005              	.LASF140:
 14006 1b60 5F5F494E 		.ascii	"__INT8_C(c) c\000"
 14006      54385F43 
 14006      28632920 
 14006      6300
 14007              	.LASF852:
 14008 1b6e 5F524545 		.ascii	"_REENT_MBRTOWC_STATE(ptr) ((ptr)->_new._reent._mbrt"
 14008      4E545F4D 
 14008      4252544F 
 14008      57435F53 
 14008      54415445 
 14009 1ba1 6F77635F 		.ascii	"owc_state)\000"
 14009      73746174 
 14009      652900
 14010              	.LASF1571:
 14011 1bac 6D756C74 		.ascii	"multSub_32x32_keep32_R(a,x,y) a = (q31_t) (((((q63_"
 14011      5375625F 
 14011      33327833 
 14011      325F6B65 
 14011      65703332 
 14012 1bdf 74292061 		.ascii	"t) a) << 32) - ((q63_t) x * y) + 0x80000000LL ) >> "
 14012      29203C3C 
 14012      20333229 
 14012      202D2028 
 14012      28713633 
 14013 1c12 33322900 		.ascii	"32)\000"
 14014              	.LASF463:
 14015 1c16 5F5F4152 		.ascii	"__ARM_EABI__ 1\000"
 14015      4D5F4541 
 14015      42495F5F 
 14015      203100
 14016              	.LASF913:
 14017 1c25 5F5F696E 		.ascii	"__inline inline\000"
 14017      6C696E65 
 14017      20696E6C 
 14017      696E6500 
 14018              	.LASF955:
 14019 1c35 5F5F7072 		.ascii	"__printf0like(fmtarg,firstvararg) \000"
 14019      696E7466 
 14019      306C696B 
 14019      6528666D 
 14019      74617267 
 14020              	.LASF237:
 14021 1c58 5F5F464C 		.ascii	"__FLT32_EPSILON__ 1.1920928955078125e-7F32\000"
 14021      5433325F 
 14021      45505349 
 14021      4C4F4E5F 
 14021      5F20312E 
 14022              	.LASF1119:
 14023 1c83 5F474C49 		.ascii	"_GLIBCXX_HAVE_POWF 1\000"
 14023      42435858 
 14023      5F484156 
ARM GAS  C:\Users\30806\AppData\Local\Temp\ccYcD1nI.s 			page 269


 14023      455F504F 
 14023      57462031 
 14024              	.LASF1045:
 14025 1c98 5F474C49 		.ascii	"_GLIBCXX_END_NAMESPACE_LDBL \000"
 14025      42435858 
 14025      5F454E44 
 14025      5F4E414D 
 14025      45535041 
 14026              	.LASF762:
 14027 1cb5 5F5F4945 		.ascii	"__IEEE_LITTLE_ENDIAN \000"
 14027      45455F4C 
 14027      4954544C 
 14027      455F454E 
 14027      4449414E 
 14028              	.LASF184:
 14029 1ccb 5F5F464C 		.ascii	"__FLT_MAX_EXP__ 128\000"
 14029      545F4D41 
 14029      585F4558 
 14029      505F5F20 
 14029      31323800 
 14030              	.LASF134:
 14031 1cdf 5F5F494E 		.ascii	"__INT64_MAX__ 0x7fffffffffffffffLL\000"
 14031      5436345F 
 14031      4D41585F 
 14031      5F203078 
 14031      37666666 
 14032              	.LASF899:
 14033 1d02 5F5F4343 		.ascii	"__CC_SUPPORTS___INLINE 1\000"
 14033      5F535550 
 14033      504F5254 
 14033      535F5F5F 
 14033      494E4C49 
 14034              	.LASF1075:
 14035 1d1b 5F474C49 		.ascii	"_GLIBCXX_HAVE_ACOSF 1\000"
 14035      42435858 
 14035      5F484156 
 14035      455F4143 
 14035      4F534620 
 14036              	.LASF676:
 14037 1d31 5F474343 		.ascii	"_GCC_SIZE_T \000"
 14037      5F53495A 
 14037      455F5420 
 14037      00
 14038              	.LASF73:
 14039 1d3e 5F5F6370 		.ascii	"__cpp_runtime_arrays 198712L\000"
 14039      705F7275 
 14039      6E74696D 
 14039      655F6172 
 14039      72617973 
 14040              	.LASF834:
 14041 1d5b 5F524545 		.ascii	"_REENT_CHECK_SIGNAL_BUF(ptr) \000"
 14041      4E545F43 
 14041      4845434B 
 14041      5F534947 
 14041      4E414C5F 
 14042              	.LASF957:
 14043 1d79 5F5F7765 		.ascii	"__weak_reference(sym,alias) __asm__(\".weak \" #ali"
ARM GAS  C:\Users\30806\AppData\Local\Temp\ccYcD1nI.s 			page 270


 14043      616B5F72 
 14043      65666572 
 14043      656E6365 
 14043      2873796D 
 14044 1daa 6173293B 		.ascii	"as); __asm__(\".equ \" #alias \", \" #sym)\000"
 14044      205F5F61 
 14044      736D5F5F 
 14044      28222E65 
 14044      71752022 
 14045              	.LASF383:
 14046 1dd1 5F5F5553 		.ascii	"__USA_FBIT__ 16\000"
 14046      415F4642 
 14046      49545F5F 
 14046      20313600 
 14047              	.LASF203:
 14048 1de1 5F5F4442 		.ascii	"__DBL_MAX__ double(1.7976931348623157e+308L)\000"
 14048      4C5F4D41 
 14048      585F5F20 
 14048      646F7562 
 14048      6C652831 
 14049              	.LASF1480:
 14050 1e0e 42435F42 		.ascii	"BC_BASE_MAX 99\000"
 14050      4153455F 
 14050      4D415820 
 14050      393900
 14051              	.LASF262:
 14052 1e1d 5F5F464C 		.ascii	"__FLT32X_MAX_EXP__ 1024\000"
 14052      54333258 
 14052      5F4D4158 
 14052      5F455850 
 14052      5F5F2031 
 14053              	.LASF902:
 14054 1e35 5F5F4343 		.ascii	"__CC_SUPPORTS_WARNING 1\000"
 14054      5F535550 
 14054      504F5254 
 14054      535F5741 
 14054      524E494E 
 14055              	.LASF227:
 14056 1e4d 5F5F464C 		.ascii	"__FLT32_MANT_DIG__ 24\000"
 14056      5433325F 
 14056      4D414E54 
 14056      5F444947 
 14056      5F5F2032 
 14057              	.LASF1531:
 14058 1e63 4636345F 		.ascii	"F64_MIN (-DBL_MAX)\000"
 14058      4D494E20 
 14058      282D4442 
 14058      4C5F4D41 
 14058      582900
 14059              	.LASF62:
 14060 1e76 5F5F5549 		.ascii	"__UINT_FAST8_TYPE__ unsigned int\000"
 14060      4E545F46 
 14060      41535438 
 14060      5F545950 
 14060      455F5F20 
 14061              	.LASF1683:
 14062 1e97 5F5A5374 		.ascii	"_ZSt8isfinitee\000"
ARM GAS  C:\Users\30806\AppData\Local\Temp\ccYcD1nI.s 			page 271


 14062      38697366 
 14062      696E6974 
 14062      656500
 14063              	.LASF1685:
 14064 1ea6 5F5A5374 		.ascii	"_ZSt8isfinitef\000"
 14064      38697366 
 14064      696E6974 
 14064      656600
 14065              	.LASF1352:
 14066 1eb5 6C6C726F 		.ascii	"llroundf\000"
 14066      756E6466 
 14066      00
 14067              	.LASF387:
 14068 1ebe 5F5F5554 		.ascii	"__UTA_FBIT__ 64\000"
 14068      415F4642 
 14068      49545F5F 
 14068      20363400 
 14069              	.LASF197:
 14070 1ece 5F5F4442 		.ascii	"__DBL_DIG__ 15\000"
 14070      4C5F4449 
 14070      475F5F20 
 14070      313500
 14071              	.LASF1166:
 14072 1edd 5F474C49 		.ascii	"_GLIBCXX98_USE_C99_MATH 1\000"
 14072      42435858 
 14072      39385F55 
 14072      53455F43 
 14072      39395F4D 
 14073              	.LASF1153:
 14074 1ef7 4C545F4F 		.ascii	"LT_OBJDIR \".libs/\"\000"
 14074      424A4449 
 14074      5220222E 
 14074      6C696273 
 14074      2F2200
 14075              	.LASF514:
 14076 1f0a 5F5F4558 		.ascii	"__EXP(x) __ ##x ##__\000"
 14076      50287829 
 14076      205F5F20 
 14076      23237820 
 14076      23235F5F 
 14077              	.LASF217:
 14078 1f1f 5F5F4445 		.ascii	"__DECIMAL_DIG__ 17\000"
 14078      43494D41 
 14078      4C5F4449 
 14078      475F5F20 
 14078      313700
 14079              	.LASF364:
 14080 1f32 5F5F5551 		.ascii	"__UQQ_IBIT__ 0\000"
 14080      515F4942 
 14080      49545F5F 
 14080      203000
 14081              	.LASF1408:
 14082 1f41 44424C5F 		.ascii	"DBL_MANT_DIG\000"
 14082      4D414E54 
 14082      5F444947 
 14082      00
 14083              	.LASF21:
ARM GAS  C:\Users\30806\AppData\Local\Temp\ccYcD1nI.s 			page 272


 14084 1f4e 5F5F5349 		.ascii	"__SIZEOF_DOUBLE__ 8\000"
 14084      5A454F46 
 14084      5F444F55 
 14084      424C455F 
 14084      5F203800 
 14085              	.LASF871:
 14086 1f62 5F5F6C6F 		.ascii	"__long_double_t long double\000"
 14086      6E675F64 
 14086      6F75626C 
 14086      655F7420 
 14086      6C6F6E67 
 14087              	.LASF1015:
 14088 1f7e 5F474C49 		.ascii	"_GLIBCXX17_CONSTEXPR \000"
 14088      42435858 
 14088      31375F43 
 14088      4F4E5354 
 14088      45585052 
 14089              	.LASF968:
 14090 1f94 5F5F4445 		.ascii	"__DEQUALIFY(type,var) ((type)(__uintptr_t)(const vo"
 14090      5155414C 
 14090      49465928 
 14090      74797065 
 14090      2C766172 
 14091 1fc7 6C617469 		.ascii	"latile void *)(var))\000"
 14091      6C652076 
 14091      6F696420 
 14091      2A292876 
 14091      61722929 
 14092              	.LASF880:
 14093 1fdc 5F5F6861 		.ascii	"__has_feature(x) 0\000"
 14093      735F6665 
 14093      61747572 
 14093      65287829 
 14093      203000
 14094              	.LASF1410:
 14095 1fef 464C545F 		.ascii	"FLT_MANT_DIG __FLT_MANT_DIG__\000"
 14095      4D414E54 
 14095      5F444947 
 14095      205F5F46 
 14095      4C545F4D 
 14096              	.LASF821:
 14097 200d 5F524545 		.ascii	"_REENT_EMERGENCY_SIZE 25\000"
 14097      4E545F45 
 14097      4D455247 
 14097      454E4359 
 14097      5F53495A 
 14098              	.LASF1628:
 14099 2026 5F5F6973 		.ascii	"__is_integer<double>\000"
 14099      5F696E74 
 14099      65676572 
 14099      3C646F75 
 14099      626C653E 
 14100              	.LASF388:
 14101 203b 5F5F5554 		.ascii	"__UTA_IBIT__ 64\000"
 14101      415F4942 
 14101      49545F5F 
 14101      20363400 
ARM GAS  C:\Users\30806\AppData\Local\Temp\ccYcD1nI.s 			page 273


 14102              	.LASF175:
 14103 204b 5F5F4743 		.ascii	"__GCC_IEC_559_COMPLEX 0\000"
 14103      435F4945 
 14103      435F3535 
 14103      395F434F 
 14103      4D504C45 
 14104              	.LASF604:
 14105 2063 494E5436 		.ascii	"INT64_MAX (__INT64_MAX__)\000"
 14105      345F4D41 
 14105      5820285F 
 14105      5F494E54 
 14105      36345F4D 
 14106              	.LASF1418:
 14107 207d 4C44424C 		.ascii	"LDBL_DIG __LDBL_DIG__\000"
 14107      5F444947 
 14107      205F5F4C 
 14107      44424C5F 
 14107      4449475F 
 14108              	.LASF1756:
 14109 2093 5F5A5374 		.ascii	"_ZSt4logbe\000"
 14109      346C6F67 
 14109      626500
 14110              	.LASF1757:
 14111 209e 5F5A5374 		.ascii	"_ZSt4logbf\000"
 14111      346C6F67 
 14111      626600
 14112              	.LASF1033:
 14113 20a9 5F474C49 		.ascii	"_GLIBCXX_INLINE_VERSION 0\000"
 14113      42435858 
 14113      5F494E4C 
 14113      494E455F 
 14113      56455253 
 14114              	.LASF314:
 14115 20c3 5F5F5341 		.ascii	"__SACCUM_IBIT__ 8\000"
 14115      4343554D 
 14115      5F494249 
 14115      545F5F20 
 14115      3800
 14116              	.LASF1624:
 14117 20d5 5F5A4E31 		.ascii	"_ZN12user_maths_c24data_accelerated_controlEPff\000"
 14117      32757365 
 14117      725F6D61 
 14117      7468735F 
 14117      63323464 
 14118              	.LASF294:
 14119 2105 5F5F4C46 		.ascii	"__LFRACT_IBIT__ 0\000"
 14119      52414354 
 14119      5F494249 
 14119      545F5F20 
 14119      3000
 14120              	.LASF390:
 14121 2117 5F5F5553 		.ascii	"__USER_LABEL_PREFIX__ \000"
 14121      45525F4C 
 14121      4142454C 
 14121      5F505245 
 14121      4649585F 
 14122              	.LASF872:
ARM GAS  C:\Users\30806\AppData\Local\Temp\ccYcD1nI.s 			page 274


 14123 212e 5F5F6174 		.ascii	"__attribute_malloc__ \000"
 14123      74726962 
 14123      7574655F 
 14123      6D616C6C 
 14123      6F635F5F 
 14124              	.LASF1086:
 14125 2144 5F474C49 		.ascii	"_GLIBCXX_HAVE_FABSF 1\000"
 14125      42435858 
 14125      5F484156 
 14125      455F4641 
 14125      42534620 
 14126              	.LASF674:
 14127 215a 5F53495A 		.ascii	"_SIZE_T_DECLARED \000"
 14127      455F545F 
 14127      4445434C 
 14127      41524544 
 14127      2000
 14128              	.LASF577:
 14129 216c 5F5F696E 		.ascii	"__int_least64_t_defined 1\000"
 14129      745F6C65 
 14129      61737436 
 14129      345F745F 
 14129      64656669 
 14130              	.LASF845:
 14131 2186 5F524545 		.ascii	"_REENT_TM(ptr) (&(ptr)->_new._reent._localtime_buf)"
 14131      4E545F54 
 14131      4D287074 
 14131      72292028 
 14131      26287074 
 14132 21b9 00       		.ascii	"\000"
 14133              	.LASF354:
 14134 21ba 5F5F5151 		.ascii	"__QQ_IBIT__ 0\000"
 14134      5F494249 
 14134      545F5F20 
 14134      3000
 14135              	.LASF441:
 14136 21c8 5F5F7468 		.ascii	"__thumb__ 1\000"
 14136      756D625F 
 14136      5F203100 
 14137              	.LASF1223:
 14138 21d4 69736669 		.ascii	"isfinite(__x) (__builtin_isfinite (__x))\000"
 14138      6E697465 
 14138      285F5F78 
 14138      2920285F 
 14138      5F627569 
 14139              	.LASF1563:
 14140 21fd 5F5F5349 		.ascii	"__SIMD32(addr) (*(__SIMD32_TYPE **) & (addr))\000"
 14140      4D443332 
 14140      28616464 
 14140      72292028 
 14140      2A285F5F 
 14141              	.LASF1650:
 14142 222b 5F5A5374 		.ascii	"_ZSt4coshe\000"
 14142      34636F73 
 14142      686500
 14143              	.LASF966:
 14144 2236 5F5F4445 		.ascii	"__DECONST(type,var) ((type)(__uintptr_t)(const void"
ARM GAS  C:\Users\30806\AppData\Local\Temp\ccYcD1nI.s 			page 275


 14144      434F4E53 
 14144      54287479 
 14144      70652C76 
 14144      61722920 
 14145 2269 202A2928 		.ascii	" *)(var))\000"
 14145      76617229 
 14145      2900
 14146              	.LASF1026:
 14147 2273 5F474C49 		.ascii	"_GLIBCXX_EXTERN_TEMPLATE 1\000"
 14147      42435858 
 14147      5F455854 
 14147      45524E5F 
 14147      54454D50 
 14148              	.LASF1560:
 14149 228e 494E5055 		.ascii	"INPUT_SPACING 0xB60B61\000"
 14149      545F5350 
 14149      4143494E 
 14149      47203078 
 14149      42363042 
 14150              	.LASF1246:
 14151 22a5 4D5F325F 		.ascii	"M_2_PI 0.63661977236758134308\000"
 14151      50492030 
 14151      2E363336 
 14151      36313937 
 14151      37323336 
 14152              	.LASF331:
 14153 22c3 5F5F5541 		.ascii	"__UACCUM_MAX__ 0XFFFFFFFFP-16UK\000"
 14153      4343554D 
 14153      5F4D4158 
 14153      5F5F2030 
 14153      58464646 
 14154              	.LASF1034:
 14155 22e3 5F474C49 		.ascii	"_GLIBCXX_BEGIN_NAMESPACE_VERSION \000"
 14155      42435858 
 14155      5F424547 
 14155      494E5F4E 
 14155      414D4553 
 14156              	.LASF7:
 14157 2305 5F5F474E 		.ascii	"__GNUC_PATCHLEVEL__ 1\000"
 14157      55435F50 
 14157      41544348 
 14157      4C455645 
 14157      4C5F5F20 
 14158              	.LASF791:
 14159 231b 5F54494D 		.ascii	"_TIME_T_ __int_least64_t\000"
 14159      455F545F 
 14159      205F5F69 
 14159      6E745F6C 
 14159      65617374 
 14160              	.LASF159:
 14161 2334 5F5F494E 		.ascii	"__INT_FAST8_MAX__ 0x7fffffff\000"
 14161      545F4641 
 14161      5354385F 
 14161      4D41585F 
 14161      5F203078 
 14162              	.LASF682:
 14163 2351 5F574348 		.ascii	"_WCHAR_T \000"
ARM GAS  C:\Users\30806\AppData\Local\Temp\ccYcD1nI.s 			page 276


 14163      41525F54 
 14163      2000
 14164              	.LASF1446:
 14165 235b 464C545F 		.ascii	"FLT_MAX __FLT_MAX__\000"
 14165      4D415820 
 14165      5F5F464C 
 14165      545F4D41 
 14165      585F5F00 
 14166              	.LASF1292:
 14167 236f 6973696E 		.ascii	"isinf\000"
 14167      6600
 14168              	.LASF613:
 14169 2375 494E545F 		.ascii	"INT_FAST16_MAX (__INT_FAST16_MAX__)\000"
 14169      46415354 
 14169      31365F4D 
 14169      41582028 
 14169      5F5F494E 
 14170              	.LASF1260:
 14171 2399 5F474C49 		.ascii	"_GLIBCXX_BITS_STD_ABS_H \000"
 14171      42435858 
 14171      5F424954 
 14171      535F5354 
 14171      445F4142 
 14172              	.LASF804:
 14173 23b2 5F5F6C6F 		.ascii	"__lock_acquire(lock) __retarget_lock_acquire(lock)\000"
 14173      636B5F61 
 14173      63717569 
 14173      7265286C 
 14173      6F636B29 
 14174              	.LASF927:
 14175 23e5 5F4E6F72 		.ascii	"_Noreturn [[noreturn]]\000"
 14175      65747572 
 14175      6E205B5B 
 14175      6E6F7265 
 14175      7475726E 
 14176              	.LASF452:
 14177 23fc 5F5F4152 		.ascii	"__ARM_FP16_ARGS\000"
 14177      4D5F4650 
 14177      31365F41 
 14177      52475300 
 14178              	.LASF229:
 14179 240c 5F5F464C 		.ascii	"__FLT32_MIN_EXP__ (-125)\000"
 14179      5433325F 
 14179      4D494E5F 
 14179      4558505F 
 14179      5F20282D 
 14180              	.LASF305:
 14181 2425 5F5F4C4C 		.ascii	"__LLFRACT_MIN__ (-0.5LLR-0.5LLR)\000"
 14181      46524143 
 14181      545F4D49 
 14181      4E5F5F20 
 14181      282D302E 
 14182              	.LASF735:
 14183 2446 5F5F5345 		.ascii	"__SEV() __ASM volatile (\"sev\")\000"
 14183      56282920 
 14183      5F5F4153 
 14183      4D20766F 
ARM GAS  C:\Users\30806\AppData\Local\Temp\ccYcD1nI.s 			page 277


 14183      6C617469 
 14184              	.LASF156:
 14185 2465 5F5F5549 		.ascii	"__UINT32_C(c) c ## UL\000"
 14185      4E543332 
 14185      5F432863 
 14185      29206320 
 14185      23232055 
 14186              	.LASF213:
 14187 247b 5F5F4C44 		.ascii	"__LDBL_MIN_EXP__ (-1021)\000"
 14187      424C5F4D 
 14187      494E5F45 
 14187      58505F5F 
 14187      20282D31 
 14188              	.LASF1616:
 14189 2494 636F735F 		.ascii	"cos_calculate\000"
 14189      63616C63 
 14189      756C6174 
 14189      6500
 14190              	.LASF199:
 14191 24a2 5F5F4442 		.ascii	"__DBL_MIN_10_EXP__ (-307)\000"
 14191      4C5F4D49 
 14191      4E5F3130 
 14191      5F455850 
 14191      5F5F2028 
 14192              	.LASF1220:
 14193 24bc 5F4D4154 		.ascii	"_MATH_ERRHANDLING_ERREXCEPT MATH_ERREXCEPT\000"
 14193      485F4552 
 14193      5248414E 
 14193      444C494E 
 14193      475F4552 
 14194              	.LASF1250:
 14195 24e7 4D5F5457 		.ascii	"M_TWOPI (M_PI * 2.0)\000"
 14195      4F504920 
 14195      284D5F50 
 14195      49202A20 
 14195      322E3029 
 14196              	.LASF290:
 14197 24fc 5F5F5546 		.ascii	"__UFRACT_MIN__ 0.0UR\000"
 14197      52414354 
 14197      5F4D494E 
 14197      5F5F2030 
 14197      2E305552 
 14198              	.LASF539:
 14199 2511 5F5F696E 		.ascii	"__int20 +2\000"
 14199      74323020 
 14199      2B3200
 14200              	.LASF659:
 14201 251c 5F474343 		.ascii	"_GCC_PTRDIFF_T \000"
 14201      5F505452 
 14201      44494646 
 14201      5F542000 
 14202              	.LASF1:
 14203 252c 5F5F6370 		.ascii	"__cplusplus 201402L\000"
 14203      6C757370 
 14203      6C757320 
 14203      32303134 
 14203      30324C00 
ARM GAS  C:\Users\30806\AppData\Local\Temp\ccYcD1nI.s 			page 278


 14204              	.LASF607:
 14205 2540 494E545F 		.ascii	"INT_LEAST64_MAX (__INT_LEAST64_MAX__)\000"
 14205      4C454153 
 14205      5436345F 
 14205      4D415820 
 14205      285F5F49 
 14206              	.LASF68:
 14207 2566 5F5F4758 		.ascii	"__GXX_WEAK__ 1\000"
 14207      585F5745 
 14207      414B5F5F 
 14207      203100
 14208              	.LASF183:
 14209 2575 5F5F464C 		.ascii	"__FLT_MIN_10_EXP__ (-37)\000"
 14209      545F4D49 
 14209      4E5F3130 
 14209      5F455850 
 14209      5F5F2028 
 14210              	.LASF1590:
 14211 258e 5F5F696E 		.ascii	"__int16_t\000"
 14211      7431365F 
 14211      7400
 14212              	.LASF1306:
 14213 2598 6173696E 		.ascii	"asinhf\000"
 14213      686600
 14214              	.LASF1771:
 14215 259f 5F5A5374 		.ascii	"_ZSt6remquoffPi\000"
 14215      3672656D 
 14215      71756F66 
 14215      66506900 
 14216              	.LASF1387:
 14217 25af 72696E74 		.ascii	"rintf\000"
 14217      6600
 14218              	.LASF1494:
 14219 25b5 43484152 		.ascii	"CHAR_BIT __CHAR_BIT__\000"
 14219      5F424954 
 14219      205F5F43 
 14219      4841525F 
 14219      4249545F 
 14220              	.LASF648:
 14221 25cb 616E7469 		.ascii	"anti_abs_value(x,y) { (x > 0) ? ( (y > 0) ? y : -y)"
 14221      5F616273 
 14221      5F76616C 
 14221      75652878 
 14221      2C792920 
 14222 25fe 203A2028 		.ascii	" : ( (y < 0) ? y : -y) }\000"
 14222      20287920 
 14222      3C203029 
 14222      203F2079 
 14222      203A202D 
 14223              	.LASF370:
 14224 2617 5F5F5544 		.ascii	"__UDQ_IBIT__ 0\000"
 14224      515F4942 
 14224      49545F5F 
 14224      203000
 14225              	.LASF1133:
 14226 2626 5F474C49 		.ascii	"_GLIBCXX_HAVE_SYMLINK 1\000"
 14226      42435858 
ARM GAS  C:\Users\30806\AppData\Local\Temp\ccYcD1nI.s 			page 279


 14226      5F484156 
 14226      455F5359 
 14226      4D4C494E 
 14227              	.LASF1388:
 14228 263e 72696E74 		.ascii	"rintl\000"
 14228      6C00
 14229              	.LASF196:
 14230 2644 5F5F4442 		.ascii	"__DBL_MANT_DIG__ 53\000"
 14230      4C5F4D41 
 14230      4E545F44 
 14230      49475F5F 
 14230      20353300 
 14231              	.LASF315:
 14232 2658 5F5F5341 		.ascii	"__SACCUM_MIN__ (-0X1P7HK-0X1P7HK)\000"
 14232      4343554D 
 14232      5F4D494E 
 14232      5F5F2028 
 14232      2D305831 
 14233              	.LASF1316:
 14234 267a 636F7079 		.ascii	"copysignl\000"
 14234      7369676E 
 14234      6C00
 14235              	.LASF528:
 14236 2684 7369676E 		.ascii	"signed\000"
 14236      656400
 14237              	.LASF121:
 14238 268b 5F5F5054 		.ascii	"__PTRDIFF_WIDTH__ 32\000"
 14238      52444946 
 14238      465F5749 
 14238      4454485F 
 14238      5F203332 
 14239              	.LASF961:
 14240 26a0 5F5F4642 		.ascii	"__FBSDID(s) struct __hack\000"
 14240      53444944 
 14240      28732920 
 14240      73747275 
 14240      6374205F 
 14241              	.LASF559:
 14242 26ba 5F55494E 		.ascii	"_UINT8_T_DECLARED \000"
 14242      54385F54 
 14242      5F444543 
 14242      4C415245 
 14242      442000
 14243              	.LASF1104:
 14244 26cd 5F474C49 		.ascii	"_GLIBCXX_HAVE_LIMIT_AS 0\000"
 14244      42435858 
 14244      5F484156 
 14244      455F4C49 
 14244      4D49545F 
 14245              	.LASF350:
 14246 26e6 5F5F554C 		.ascii	"__ULLACCUM_MIN__ 0.0ULLK\000"
 14246      4C414343 
 14246      554D5F4D 
 14246      494E5F5F 
 14246      20302E30 
 14247              	.LASF692:
 14248 26ff 5F5F494E 		.ascii	"__INT_WCHAR_T_H \000"
ARM GAS  C:\Users\30806\AppData\Local\Temp\ccYcD1nI.s 			page 280


 14248      545F5743 
 14248      4841525F 
 14248      545F4820 
 14248      00
 14249              	.LASF591:
 14250 2710 494E5431 		.ascii	"INT16_MIN (-__INT16_MAX__ - 1)\000"
 14250      365F4D49 
 14250      4E20282D 
 14250      5F5F494E 
 14250      5431365F 
 14251              	.LASF1234:
 14252 272f 7369676E 		.ascii	"signgam (*__signgam())\000"
 14252      67616D20 
 14252      282A5F5F 
 14252      7369676E 
 14252      67616D28 
 14253              	.LASF83:
 14254 2746 5F5F6370 		.ascii	"__cpp_rvalue_reference 200610L\000"
 14254      705F7276 
 14254      616C7565 
 14254      5F726566 
 14254      6572656E 
 14255              	.LASF1776:
 14256 2765 5F5A5374 		.ascii	"_ZSt7scalblnel\000"
 14256      37736361 
 14256      6C626C6E 
 14256      656C00
 14257              	.LASF1194:
 14258 2774 5F475448 		.ascii	"_GTHREAD_USE_MUTEX_TIMEDLOCK 1\000"
 14258      52454144 
 14258      5F555345 
 14258      5F4D5554 
 14258      45585F54 
 14259              	.LASF498:
 14260 2793 5F504F53 		.ascii	"_POSIX_SOURCE\000"
 14260      49585F53 
 14260      4F555243 
 14260      4500
 14261              	.LASF678:
 14262 27a1 5F5F7369 		.ascii	"__size_t \000"
 14262      7A655F74 
 14262      2000
 14263              	.LASF1073:
 14264 27ab 5F474C49 		.ascii	"_GLIBCXX_BUILTIN_IS_SAME_AS(T,U) __is_same_as(T, U)"
 14264      42435858 
 14264      5F425549 
 14264      4C54494E 
 14264      5F49535F 
 14265 27de 00       		.ascii	"\000"
 14266              	.LASF110:
 14267 27df 5F5F5749 		.ascii	"__WINT_MAX__ 0xffffffffU\000"
 14267      4E545F4D 
 14267      41585F5F 
 14267      20307866 
 14267      66666666 
 14268              	.LASF1201:
 14269 27f8 5F4D5F4C 		.ascii	"_M_LN2 0.693147180559945309417\000"
ARM GAS  C:\Users\30806\AppData\Local\Temp\ccYcD1nI.s 			page 281


 14269      4E322030 
 14269      2E363933 
 14269      31343731 
 14269      38303535 
 14270              	.LASF1382:
 14271 2817 72656D61 		.ascii	"remainderl\000"
 14271      696E6465 
 14271      726C00
 14272              	.LASF451:
 14273 2822 5F5F4152 		.ascii	"__ARM_FP16_FORMAT_ALTERNATIVE\000"
 14273      4D5F4650 
 14273      31365F46 
 14273      4F524D41 
 14273      545F414C 
 14274              	.LASF1237:
 14275 2840 4D5F4520 		.ascii	"M_E 2.7182818284590452354\000"
 14275      322E3731 
 14275      38323831 
 14275      38323834 
 14275      35393034 
 14276              	.LASF1286:
 14277 285a 6D6F6466 		.ascii	"modf\000"
 14277      00
 14278              	.LASF645:
 14279 285f 75736572 		.ascii	"user_value_limit(val,min,max) { (val) = (val) < (mi"
 14279      5F76616C 
 14279      75655F6C 
 14279      696D6974 
 14279      2876616C 
 14280 2892 6E29203F 		.ascii	"n) ? (min) : (val); (val) = (val) > (max) ? (max) :"
 14280      20286D69 
 14280      6E29203A 
 14280      20287661 
 14280      6C293B20 
 14281 28c5 20287661 		.ascii	" (val); }\000"
 14281      6C293B20 
 14281      7D00
 14282              	.LASF318:
 14283 28cf 5F5F5553 		.ascii	"__USACCUM_FBIT__ 8\000"
 14283      41434355 
 14283      4D5F4642 
 14283      49545F5F 
 14283      203800
 14284              	.LASF723:
 14285 28e2 5F5F434F 		.ascii	"__COMPILER_BARRIER() __ASM volatile(\"\":::\"memory"
 14285      4D50494C 
 14285      45525F42 
 14285      41525249 
 14285      45522829 
 14286 2912 222900   		.ascii	"\")\000"
 14287              	.LASF407:
 14288 2915 5F5F4743 		.ascii	"__GCC_ATOMIC_TEST_AND_SET_TRUEVAL 1\000"
 14288      435F4154 
 14288      4F4D4943 
 14288      5F544553 
 14288      545F414E 
 14289              	.LASF594:
ARM GAS  C:\Users\30806\AppData\Local\Temp\ccYcD1nI.s 			page 282


 14290 2939 494E545F 		.ascii	"INT_LEAST16_MIN (-__INT_LEAST16_MAX__ - 1)\000"
 14290      4C454153 
 14290      5431365F 
 14290      4D494E20 
 14290      282D5F5F 
 14291              	.LASF190:
 14292 2964 5F5F464C 		.ascii	"__FLT_EPSILON__ 1.1920928955078125e-7F\000"
 14292      545F4550 
 14292      53494C4F 
 14292      4E5F5F20 
 14292      312E3139 
 14293              	.LASF886:
 14294 298b 5F5F474E 		.ascii	"__GNUCLIKE___OFFSETOF 1\000"
 14294      55434C49 
 14294      4B455F5F 
 14294      5F4F4646 
 14294      5345544F 
 14295              	.LASF976:
 14296 29a3 5F5F6C6F 		.ascii	"__lock_annotate(x) \000"
 14296      636B5F61 
 14296      6E6E6F74 
 14296      61746528 
 14296      78292000 
 14297              	.LASF1224:
 14298 29b7 6973696E 		.ascii	"isinf(__x) (__builtin_isinf_sign (__x))\000"
 14298      66285F5F 
 14298      78292028 
 14298      5F5F6275 
 14298      696C7469 
 14299              	.LASF152:
 14300 29df 5F5F5549 		.ascii	"__UINT8_C(c) c\000"
 14300      4E54385F 
 14300      43286329 
 14300      206300
 14301              	.LASF1816:
 14302 29ee 75736572 		.ascii	"user_maths_c\000"
 14302      5F6D6174 
 14302      68735F63 
 14302      00
 14303              	.LASF898:
 14304 29fb 5F5F4343 		.ascii	"__CC_SUPPORTS_INLINE 1\000"
 14304      5F535550 
 14304      504F5254 
 14304      535F494E 
 14304      4C494E45 
 14305              	.LASF430:
 14306 2a12 5F5F4152 		.ascii	"__ARM_FEATURE_NUMERIC_MAXMIN\000"
 14306      4D5F4645 
 14306      41545552 
 14306      455F4E55 
 14306      4D455249 
 14307              	.LASF1441:
 14308 2a2f 44424C5F 		.ascii	"DBL_MAX_10_EXP __DBL_MAX_10_EXP__\000"
 14308      4D41585F 
 14308      31305F45 
 14308      5850205F 
 14308      5F44424C 
ARM GAS  C:\Users\30806\AppData\Local\Temp\ccYcD1nI.s 			page 283


 14309              	.LASF1777:
 14310 2a51 5F5A5374 		.ascii	"_ZSt7scalblnfl\000"
 14310      37736361 
 14310      6C626C6E 
 14310      666C00
 14311              	.LASF1188:
 14312 2a60 5F474C49 		.ascii	"_GLIBCXX_USE_LONG_LONG 1\000"
 14312      42435858 
 14312      5F555345 
 14312      5F4C4F4E 
 14312      475F4C4F 
 14313              	.LASF555:
 14314 2a79 5F5F4C45 		.ascii	"__LEAST32 \"l\"\000"
 14314      41535433 
 14314      3220226C 
 14314      2200
 14315              	.LASF1248:
 14316 2a87 4D5F5351 		.ascii	"M_SQRT2 1.41421356237309504880\000"
 14316      52543220 
 14316      312E3431 
 14316      34323133 
 14316      35363233 
 14317              	.LASF703:
 14318 2aa6 5F41524D 		.ascii	"_ARM_MATH_H \000"
 14318      5F4D4154 
 14318      485F4820 
 14318      00
 14319              	.LASF1128:
 14320 2ab3 5F474C49 		.ascii	"_GLIBCXX_HAVE_STDLIB_H 1\000"
 14320      42435858 
 14320      5F484156 
 14320      455F5354 
 14320      444C4942 
 14321              	.LASF914:
 14322 2acc 5F5F7765 		.ascii	"__weak_symbol __attribute__((__weak__))\000"
 14322      616B5F73 
 14322      796D626F 
 14322      6C205F5F 
 14322      61747472 
 14323              	.LASF875:
 14324 2af4 5F5F666C 		.ascii	"__flexarr [0]\000"
 14324      65786172 
 14324      72205B30 
 14324      5D00
 14325              	.LASF839:
 14326 2b02 5F524545 		.ascii	"_REENT_RAND48_ADD(ptr) ((ptr)->_new._reent._r48._ad"
 14326      4E545F52 
 14326      414E4434 
 14326      385F4144 
 14326      44287074 
 14327 2b35 642900   		.ascii	"d)\000"
 14328              	.LASF310:
 14329 2b38 5F5F554C 		.ascii	"__ULLFRACT_MIN__ 0.0ULLR\000"
 14329      4C465241 
 14329      43545F4D 
 14329      494E5F5F 
 14329      20302E30 
ARM GAS  C:\Users\30806\AppData\Local\Temp\ccYcD1nI.s 			page 284


 14330              	.LASF1544:
 14331 2b51 5131355F 		.ascii	"Q15_ABSMAX ((q15_t)(0x7FFF))\000"
 14331      4142534D 
 14331      41582028 
 14331      28713135 
 14331      5F742928 
 14332              	.LASF1782:
 14333 2b6e 5F5A5374 		.ascii	"_ZSt5trunce\000"
 14333      35747275 
 14333      6E636500 
 14334              	.LASF1818:
 14335 2b7a 5F5A5374 		.ascii	"_ZSt5truncf\000"
 14335      35747275 
 14335      6E636600 
 14336              	.LASF1582:
 14337 2b86 756E7369 		.ascii	"unsigned char\000"
 14337      676E6564 
 14337      20636861 
 14337      7200
 14338              	.LASF212:
 14339 2b94 5F5F4C44 		.ascii	"__LDBL_DIG__ 15\000"
 14339      424C5F44 
 14339      49475F5F 
 14339      20313500 
 14340              	.LASF420:
 14341 2ba4 5F5F4152 		.ascii	"__ARM_FEATURE_QRDMX\000"
 14341      4D5F4645 
 14341      41545552 
 14341      455F5152 
 14341      444D5800 
 14342              	.LASF1801:
 14343 2bb8 6C617374 		.ascii	"last_value\000"
 14343      5F76616C 
 14343      756500
 14344              	.LASF1456:
 14345 2bc3 44424C5F 		.ascii	"DBL_MIN\000"
 14345      4D494E00 
 14346              	.LASF274:
 14347 2bcb 5F5F5346 		.ascii	"__SFRACT_IBIT__ 0\000"
 14347      52414354 
 14347      5F494249 
 14347      545F5F20 
 14347      3000
 14348              	.LASF1350:
 14349 2bdd 6C6C7269 		.ascii	"llrintl\000"
 14349      6E746C00 
 14350              	.LASF1168:
 14351 2be5 5F474C49 		.ascii	"_GLIBCXX98_USE_C99_STDLIB 1\000"
 14351      42435858 
 14351      39385F55 
 14351      53455F43 
 14351      39395F53 
 14352              	.LASF26:
 14353 2c01 5F5F4F52 		.ascii	"__ORDER_LITTLE_ENDIAN__ 1234\000"
 14353      4445525F 
 14353      4C495454 
 14353      4C455F45 
ARM GAS  C:\Users\30806\AppData\Local\Temp\ccYcD1nI.s 			page 285


 14353      4E444941 
 14354              	.LASF660:
 14355 2c1e 5F505452 		.ascii	"_PTRDIFF_T_DECLARED \000"
 14355      44494646 
 14355      5F545F44 
 14355      45434C41 
 14355      52454420 
 14356              	.LASF835:
 14357 2c33 5F524545 		.ascii	"_REENT_SIGNGAM(ptr) ((ptr)->_new._reent._gamma_sign"
 14357      4E545F53 
 14357      49474E47 
 14357      414D2870 
 14357      74722920 
 14358 2c66 67616D29 		.ascii	"gam)\000"
 14358      00
 14359              	.LASF668:
 14360 2c6b 5F5F5349 		.ascii	"__SIZE_T \000"
 14360      5A455F54 
 14360      2000
 14361              	.LASF181:
 14362 2c75 5F5F464C 		.ascii	"__FLT_DIG__ 6\000"
 14362      545F4449 
 14362      475F5F20 
 14362      3600
 14363              	.LASF1795:
 14364 2c83 6D617856 		.ascii	"maxValue\000"
 14364      616C7565 
 14364      00
 14365              	.LASF923:
 14366 2c8c 5F5F616C 		.ascii	"__alloc_size2(n,x) __attribute__((__alloc_size__(n,"
 14366      6C6F635F 
 14366      73697A65 
 14366      32286E2C 
 14366      7829205F 
 14367 2cbf 20782929 		.ascii	" x)))\000"
 14367      2900
 14368              	.LASF549:
 14369 2cc5 5F5F4641 		.ascii	"__FAST8 \000"
 14369      53543820 
 14369      00
 14370              	.LASF1597:
 14371 2cce 666C6F61 		.ascii	"float\000"
 14371      7400
 14372              	.LASF1207:
 14373 2cd4 464C545F 		.ascii	"FLT_EVAL_METHOD __FLT_EVAL_METHOD__\000"
 14373      4556414C 
 14373      5F4D4554 
 14373      484F4420 
 14373      5F5F464C 
 14374              	.LASF200:
 14375 2cf8 5F5F4442 		.ascii	"__DBL_MAX_EXP__ 1024\000"
 14375      4C5F4D41 
 14375      585F4558 
 14375      505F5F20 
 14375      31303234 
 14376              	.LASF1652:
 14377 2d0d 5F5A5374 		.ascii	"_ZSt4sinhe\000"
ARM GAS  C:\Users\30806\AppData\Local\Temp\ccYcD1nI.s 			page 286


 14377      3473696E 
 14377      686500
 14378              	.LASF1653:
 14379 2d18 5F5A5374 		.ascii	"_ZSt4sinhf\000"
 14379      3473696E 
 14379      686600
 14380              	.LASF789:
 14381 2d23 756E7369 		.ascii	"unsigned signed\000"
 14381      676E6564 
 14381      20736967 
 14381      6E656400 
 14382              	.LASF304:
 14383 2d33 5F5F4C4C 		.ascii	"__LLFRACT_IBIT__ 0\000"
 14383      46524143 
 14383      545F4942 
 14383      49545F5F 
 14383      203000
 14384              	.LASF153:
 14385 2d46 5F5F5549 		.ascii	"__UINT_LEAST16_MAX__ 0xffff\000"
 14385      4E545F4C 
 14385      45415354 
 14385      31365F4D 
 14385      41585F5F 
 14386              	.LASF122:
 14387 2d62 5F5F5349 		.ascii	"__SIZE_WIDTH__ 32\000"
 14387      5A455F57 
 14387      49445448 
 14387      5F5F2033 
 14387      3200
 14388              	.LASF944:
 14389 2d74 5F5F6E75 		.ascii	"__null_sentinel __attribute__((__sentinel__))\000"
 14389      6C6C5F73 
 14389      656E7469 
 14389      6E656C20 
 14389      5F5F6174 
 14390              	.LASF455:
 14391 2da2 5F5F4152 		.ascii	"__ARM_FEATURE_FP16_FML\000"
 14391      4D5F4645 
 14391      41545552 
 14391      455F4650 
 14391      31365F46 
 14392              	.LASF847:
 14393 2db9 5F524545 		.ascii	"_REENT_STRTOK_LAST(ptr) ((ptr)->_new._reent._strtok"
 14393      4E545F53 
 14393      5452544F 
 14393      4B5F4C41 
 14393      53542870 
 14394 2dec 5F6C6173 		.ascii	"_last)\000"
 14394      742900
 14395              	.LASF887:
 14396 2df3 5F5F474E 		.ascii	"__GNUCLIKE___SECTION 1\000"
 14396      55434C49 
 14396      4B455F5F 
 14396      5F534543 
 14396      54494F4E 
 14397              	.LASF775:
 14398 2e0a 5F4E4F54 		.ascii	"_NOTHROW __attribute__ ((__nothrow__))\000"
ARM GAS  C:\Users\30806\AppData\Local\Temp\ccYcD1nI.s 			page 287


 14398      48524F57 
 14398      205F5F61 
 14398      74747269 
 14398      62757465 
 14399              	.LASF1426:
 14400 2e31 44424C5F 		.ascii	"DBL_MIN_10_EXP\000"
 14400      4D494E5F 
 14400      31305F45 
 14400      585000
 14401              	.LASF128:
 14402 2e40 5F5F5349 		.ascii	"__SIG_ATOMIC_MAX__ 0x7fffffff\000"
 14402      475F4154 
 14402      4F4D4943 
 14402      5F4D4158 
 14402      5F5F2030 
 14403              	.LASF1610:
 14404 2e5e 6C6F6F70 		.ascii	"loop_restriction_float\000"
 14404      5F726573 
 14404      74726963 
 14404      74696F6E 
 14404      5F666C6F 
 14405              	.LASF1477:
 14406 2e75 50415448 		.ascii	"PATH_MAX 1024\000"
 14406      5F4D4158 
 14406      20313032 
 14406      3400
 14407              	.LASF1146:
 14408 2e83 5F474C49 		.ascii	"_GLIBCXX_HAVE_UTIME_H 1\000"
 14408      42435858 
 14408      5F484156 
 14408      455F5554 
 14408      494D455F 
 14409              	.LASF652:
 14410 2e9b 5F505452 		.ascii	"_PTRDIFF_T \000"
 14410      44494646 
 14410      5F542000 
 14411              	.LASF1792:
 14412 2ea7 74617267 		.ascii	"target\000"
 14412      657400
 14413              	.LASF1506:
 14414 2eae 53485254 		.ascii	"SHRT_MIN (-SHRT_MAX - 1)\000"
 14414      5F4D494E 
 14414      20282D53 
 14414      4852545F 
 14414      4D415820 
 14415              	.LASF1381:
 14416 2ec7 72656D61 		.ascii	"remainderf\000"
 14416      696E6465 
 14416      726600
 14417              	.LASF157:
 14418 2ed2 5F5F5549 		.ascii	"__UINT_LEAST64_MAX__ 0xffffffffffffffffULL\000"
 14418      4E545F4C 
 14418      45415354 
 14418      36345F4D 
 14418      41585F5F 
 14419              	.LASF1447:
 14420 2efd 44424C5F 		.ascii	"DBL_MAX __DBL_MAX__\000"
ARM GAS  C:\Users\30806\AppData\Local\Temp\ccYcD1nI.s 			page 288


 14420      4D415820 
 14420      5F5F4442 
 14420      4C5F4D41 
 14420      585F5F00 
 14421              	.LASF952:
 14422 2f11 5F5F666F 		.ascii	"__format_arg(fmtarg) __attribute__((__format_arg__ "
 14422      726D6174 
 14422      5F617267 
 14422      28666D74 
 14422      61726729 
 14423 2f44 28666D74 		.ascii	"(fmtarg)))\000"
 14423      61726729 
 14423      292900
 14424              	.LASF1475:
 14425 2f4f 4E47524F 		.ascii	"NGROUPS_MAX 16\000"
 14425      5550535F 
 14425      4D415820 
 14425      313600
 14426              	.LASF496:
 14427 2f5e 5F444546 		.ascii	"_DEFAULT_SOURCE\000"
 14427      41554C54 
 14427      5F534F55 
 14427      52434500 
 14428              	.LASF984:
 14429 2f6e 5F5F6173 		.ascii	"__asserts_shared(...) __lock_annotate(assert_shared"
 14429      73657274 
 14429      735F7368 
 14429      61726564 
 14429      282E2E2E 
 14430 2fa1 5F6C6F63 		.ascii	"_lock(__VA_ARGS__))\000"
 14430      6B285F5F 
 14430      56415F41 
 14430      5247535F 
 14430      5F292900 
 14431              	.LASF273:
 14432 2fb5 5F5F5346 		.ascii	"__SFRACT_FBIT__ 7\000"
 14432      52414354 
 14432      5F464249 
 14432      545F5F20 
 14432      3700
 14433              	.LASF1142:
 14434 2fc7 5F474C49 		.ascii	"_GLIBCXX_HAVE_TGMATH_H 1\000"
 14434      42435858 
 14434      5F484156 
 14434      455F5447 
 14434      4D415448 
 14435              	.LASF1038:
 14436 2fe0 5F474C49 		.ascii	"_GLIBCXX_END_NAMESPACE_CONTAINER \000"
 14436      42435858 
 14436      5F454E44 
 14436      5F4E414D 
 14436      45535041 
 14437              	.LASF238:
 14438 3002 5F5F464C 		.ascii	"__FLT32_DENORM_MIN__ 1.4012984643248171e-45F32\000"
 14438      5433325F 
 14438      44454E4F 
 14438      524D5F4D 
ARM GAS  C:\Users\30806\AppData\Local\Temp\ccYcD1nI.s 			page 289


 14438      494E5F5F 
 14439              	.LASF1385:
 14440 3031 72656D71 		.ascii	"remquol\000"
 14440      756F6C00 
 14441              	.LASF635:
 14442 3039 494E5431 		.ascii	"INT16_C(x) __INT16_C(x)\000"
 14442      365F4328 
 14442      7829205F 
 14442      5F494E54 
 14442      31365F43 
 14443              	.LASF628:
 14444 3051 50545244 		.ascii	"PTRDIFF_MIN (-PTRDIFF_MAX - 1)\000"
 14444      4946465F 
 14444      4D494E20 
 14444      282D5054 
 14444      52444946 
 14445              	.LASF733:
 14446 3070 5F5F5746 		.ascii	"__WFI() __ASM volatile (\"wfi\":::\"memory\")\000"
 14446      49282920 
 14446      5F5F4153 
 14446      4D20766F 
 14446      6C617469 
 14447              	.LASF1453:
 14448 309a 44424C5F 		.ascii	"DBL_EPSILON __DBL_EPSILON__\000"
 14448      45505349 
 14448      4C4F4E20 
 14448      5F5F4442 
 14448      4C5F4550 
 14449              	.LASF202:
 14450 30b6 5F5F4442 		.ascii	"__DBL_DECIMAL_DIG__ 17\000"
 14450      4C5F4445 
 14450      43494D41 
 14450      4C5F4449 
 14450      475F5F20 
 14451              	.LASF18:
 14452 30cd 5F5F5349 		.ascii	"__SIZEOF_LONG_LONG__ 8\000"
 14452      5A454F46 
 14452      5F4C4F4E 
 14452      475F4C4F 
 14452      4E475F5F 
 14453              	.LASF1195:
 14454 30e4 5F435050 		.ascii	"_CPP_TYPE_TRAITS_H 1\000"
 14454      5F545950 
 14454      455F5452 
 14454      41495453 
 14454      5F482031 
 14455              	.LASF1598:
 14456 30f9 61636365 		.ascii	"acceleration_control_type_t\000"
 14456      6C657261 
 14456      74696F6E 
 14456      5F636F6E 
 14456      74726F6C 
 14457              	.LASF935:
 14458 3115 5F5F6E6F 		.ascii	"__nonnull(x) __attribute__((__nonnull__ x))\000"
 14458      6E6E756C 
 14458      6C287829 
 14458      205F5F61 
ARM GAS  C:\Users\30806\AppData\Local\Temp\ccYcD1nI.s 			page 290


 14458      74747269 
 14459              	.LASF233:
 14460 3141 5F5F464C 		.ascii	"__FLT32_DECIMAL_DIG__ 9\000"
 14460      5433325F 
 14460      44454349 
 14460      4D414C5F 
 14460      4449475F 
 14461              	.LASF1368:
 14462 3159 6C726F75 		.ascii	"lroundl\000"
 14462      6E646C00 
 14463              	.LASF492:
 14464 3161 5F5F4E45 		.ascii	"__NEWLIB_MINOR__ 1\000"
 14464      574C4942 
 14464      5F4D494E 
 14464      4F525F5F 
 14464      203100
 14465              	.LASF1001:
 14466 3174 5F474C49 		.ascii	"_GLIBCXX_CONST __attribute__ ((__const__))\000"
 14466      42435858 
 14466      5F434F4E 
 14466      5354205F 
 14466      5F617474 
 14467              	.LASF853:
 14468 319f 5F524545 		.ascii	"_REENT_MBSRTOWCS_STATE(ptr) ((ptr)->_new._reent._mb"
 14468      4E545F4D 
 14468      42535254 
 14468      4F574353 
 14468      5F535441 
 14469 31d2 7372746F 		.ascii	"srtowcs_state)\000"
 14469      7763735F 
 14469      73746174 
 14469      652900
 14470              	.LASF975:
 14471 31e1 5F5F6461 		.ascii	"__datatype_type_tag(kind,type) \000"
 14471      74617479 
 14471      70655F74 
 14471      7970655F 
 14471      74616728 
 14472              	.LASF1214:
 14473 3201 46505F4E 		.ascii	"FP_NORMAL 4\000"
 14473      4F524D41 
 14473      4C203400 
 14474              	.LASF1503:
 14475 320d 43484152 		.ascii	"CHAR_MAX\000"
 14475      5F4D4158 
 14475      00
 14476              	.LASF1540:
 14477 3216 5133315F 		.ascii	"Q31_MIN ((q31_t)(0x80000000L))\000"
 14477      4D494E20 
 14477      28287133 
 14477      315F7429 
 14477      28307838 
 14478              	.LASF1342:
 14479 3235 696C6F67 		.ascii	"ilogb\000"
 14479      6200
 14480              	.LASF497:
 14481 323b 5F444546 		.ascii	"_DEFAULT_SOURCE 1\000"
ARM GAS  C:\Users\30806\AppData\Local\Temp\ccYcD1nI.s 			page 291


 14481      41554C54 
 14481      5F534F55 
 14481      52434520 
 14481      3100
 14482              	.LASF688:
 14483 324d 5F574348 		.ascii	"_WCHAR_T_DEFINED_ \000"
 14483      41525F54 
 14483      5F444546 
 14483      494E4544 
 14483      5F2000
 14484              	.LASF764:
 14485 3260 5F5F4F42 		.ascii	"__OBSOLETE_MATH_DEFAULT 1\000"
 14485      534F4C45 
 14485      54455F4D 
 14485      4154485F 
 14485      44454641 
 14486              	.LASF876:
 14487 327a 5F5F626F 		.ascii	"__bounded \000"
 14487      756E6465 
 14487      642000
 14488              	.LASF1209:
 14489 3285 464C545F 		.ascii	"FLT_EVAL_METHOD\000"
 14489      4556414C 
 14489      5F4D4554 
 14489      484F4400 
 14490              	.LASF36:
 14491 3295 5F5F5749 		.ascii	"__WINT_TYPE__ unsigned int\000"
 14491      4E545F54 
 14491      5950455F 
 14491      5F20756E 
 14491      7369676E 
 14492              	.LASF1429:
 14493 32b0 44424C5F 		.ascii	"DBL_MIN_10_EXP __DBL_MIN_10_EXP__\000"
 14493      4D494E5F 
 14493      31305F45 
 14493      5850205F 
 14493      5F44424C 
 14494              	.LASF1505:
 14495 32d2 53485254 		.ascii	"SHRT_MIN\000"
 14495      5F4D494E 
 14495      00
 14496              	.LASF1673:
 14497 32db 5F5A5374 		.ascii	"_ZSt4ceilf\000"
 14497      34636569 
 14497      6C6600
 14498              	.LASF521:
 14499 32e6 5F5F5F69 		.ascii	"___int_least8_t_defined 1\000"
 14499      6E745F6C 
 14499      65617374 
 14499      385F745F 
 14499      64656669 
 14500              	.LASF974:
 14501 3300 5F5F6172 		.ascii	"__arg_type_tag(arg_kind,arg_idx,type_tag_idx) \000"
 14501      675F7479 
 14501      70655F74 
 14501      61672861 
 14501      72675F6B 
ARM GAS  C:\Users\30806\AppData\Local\Temp\ccYcD1nI.s 			page 292


 14502              	.LASF1258:
 14503 332f 4D5F494E 		.ascii	"M_INVLN2 1.4426950408889633870E0\000"
 14503      564C4E32 
 14503      20312E34 
 14503      34323639 
 14503      35303430 
 14504              	.LASF1551:
 14505 3350 44454C54 		.ascii	"DELTA_Q15 ((q15_t)0x5)\000"
 14505      415F5131 
 14505      35202828 
 14505      7131355F 
 14505      74293078 
 14506              	.LASF1348:
 14507 3367 6C6C7269 		.ascii	"llrint\000"
 14507      6E7400
 14508              	.LASF752:
 14509 336e 5F415445 		.ascii	"_ATEXIT_DYNAMIC_ALLOC 1\000"
 14509      5849545F 
 14509      44594E41 
 14509      4D49435F 
 14509      414C4C4F 
 14510              	.LASF590:
 14511 3386 55494E54 		.ascii	"UINT_LEAST8_MAX (__UINT_LEAST8_MAX__)\000"
 14511      5F4C4541 
 14511      5354385F 
 14511      4D415820 
 14511      285F5F55 
 14512              	.LASF132:
 14513 33ac 5F5F494E 		.ascii	"__INT16_MAX__ 0x7fff\000"
 14513      5431365F 
 14513      4D41585F 
 14513      5F203078 
 14513      37666666 
 14514              	.LASF342:
 14515 33c1 5F5F554C 		.ascii	"__ULACCUM_EPSILON__ 0x1P-32ULK\000"
 14515      41434355 
 14515      4D5F4550 
 14515      53494C4F 
 14515      4E5F5F20 
 14516              	.LASF180:
 14517 33e0 5F5F464C 		.ascii	"__FLT_MANT_DIG__ 24\000"
 14517      545F4D41 
 14517      4E545F44 
 14517      49475F5F 
 14517      20323400 
 14518              	.LASF705:
 14519 33f4 5F5F434D 		.ascii	"__CMSIS_GCC_H \000"
 14519      5349535F 
 14519      4743435F 
 14519      482000
 14520              	.LASF1469:
 14521 3403 4152475F 		.ascii	"ARG_MAX 65536\000"
 14521      4D415820 
 14521      36353533 
 14521      3600
 14522              	.LASF983:
 14523 3411 5F5F6173 		.ascii	"__asserts_exclusive(...) __lock_annotate(assert_exc"
ARM GAS  C:\Users\30806\AppData\Local\Temp\ccYcD1nI.s 			page 293


 14523      73657274 
 14523      735F6578 
 14523      636C7573 
 14523      69766528 
 14524 3444 6C757369 		.ascii	"lusive_lock(__VA_ARGS__))\000"
 14524      76655F6C 
 14524      6F636B28 
 14524      5F5F5641 
 14524      5F415247 
 14525              	.LASF338:
 14526 345e 5F5F554C 		.ascii	"__ULACCUM_FBIT__ 32\000"
 14526      41434355 
 14526      4D5F4642 
 14526      49545F5F 
 14526      20333200 
 14527              	.LASF1232:
 14528 3472 69736C65 		.ascii	"islessgreater(__x,__y) (__builtin_islessgreater (__"
 14528      73736772 
 14528      65617465 
 14528      72285F5F 
 14528      782C5F5F 
 14529 34a5 782C205F 		.ascii	"x, __y))\000"
 14529      5F792929 
 14529      00
 14530              	.LASF893:
 14531 34ae 5F5F474E 		.ascii	"__GNUC_VA_LIST_COMPATIBILITY 1\000"
 14531      55435F56 
 14531      415F4C49 
 14531      53545F43 
 14531      4F4D5041 
 14532              	.LASF698:
 14533 34cd 4E554C4C 		.ascii	"NULL __null\000"
 14533      205F5F6E 
 14533      756C6C00 
 14534              	.LASF1151:
 14535 34d9 5F474C49 		.ascii	"_GLIBCXX_HAVE_WCSTOF 1\000"
 14535      42435858 
 14535      5F484156 
 14535      455F5743 
 14535      53544F46 
 14536              	.LASF435:
 14537 34f0 5F5F4152 		.ascii	"__ARM_ARCH_PROFILE 77\000"
 14537      4D5F4152 
 14537      43485F50 
 14537      524F4649 
 14537      4C452037 
 14538              	.LASF1717:
 14539 3506 5F5A5374 		.ascii	"_ZSt5acoshf\000"
 14539      3561636F 
 14539      73686600 
 14540              	.LASF896:
 14541 3512 5F5F474E 		.ascii	"__GNUCLIKE_MATH_BUILTIN_RELOPS \000"
 14541      55434C49 
 14541      4B455F4D 
 14541      4154485F 
 14541      4255494C 
 14542              	.LASF1303:
ARM GAS  C:\Users\30806\AppData\Local\Temp\ccYcD1nI.s 			page 294


 14543 3532 61636F73 		.ascii	"acoshf\000"
 14543      686600
 14544              	.LASF99:
 14545 3539 5F5F6370 		.ascii	"__cpp_digit_separators 201309L\000"
 14545      705F6469 
 14545      6769745F 
 14545      73657061 
 14545      7261746F 
 14546              	.LASF562:
 14547 3558 5F55494E 		.ascii	"_UINT16_T_DECLARED \000"
 14547      5431365F 
 14547      545F4445 
 14547      434C4152 
 14547      45442000 
 14548              	.LASF1304:
 14549 356c 61636F73 		.ascii	"acoshl\000"
 14549      686C00
 14550              	.LASF1545:
 14551 3573 51375F41 		.ascii	"Q7_ABSMAX ((q7_t)(0x7F))\000"
 14551      42534D41 
 14551      58202828 
 14551      71375F74 
 14551      29283078 
 14552              	.LASF339:
 14553 358c 5F5F554C 		.ascii	"__ULACCUM_IBIT__ 32\000"
 14553      41434355 
 14553      4D5F4942 
 14553      49545F5F 
 14553      20333200 
 14554              	.LASF469:
 14555 35a0 5F5F4152 		.ascii	"__ARM_FEATURE_COPROC 15\000"
 14555      4D5F4645 
 14555      41545552 
 14555      455F434F 
 14555      50524F43 
 14556              	.LASF1007:
 14557 35b8 5F474C49 		.ascii	"_GLIBCXX_DEPRECATED_SUGGEST(ALT) __attribute__ ((__"
 14557      42435858 
 14557      5F444550 
 14557      52454341 
 14557      5445445F 
 14558 35eb 64657072 		.ascii	"deprecated__ (\"use '\" ALT \"' instead\")))\000"
 14558      65636174 
 14558      65645F5F 
 14558      20282275 
 14558      73652027 
 14559              	.LASF1323:
 14560 3614 65787032 		.ascii	"exp2f\000"
 14560      6600
 14561              	.LASF1174:
 14562 361a 5F474C49 		.ascii	"_GLIBCXX_PTRDIFF_T_IS_INT 1\000"
 14562      42435858 
 14562      5F505452 
 14562      44494646 
 14562      5F545F49 
 14563              	.LASF1013:
 14564 3636 5F474C49 		.ascii	"_GLIBCXX_USE_CONSTEXPR constexpr\000"
ARM GAS  C:\Users\30806\AppData\Local\Temp\ccYcD1nI.s 			page 295


 14564      42435858 
 14564      5F555345 
 14564      5F434F4E 
 14564      53544558 
 14565              	.LASF139:
 14566 3657 5F5F494E 		.ascii	"__INT_LEAST8_MAX__ 0x7f\000"
 14566      545F4C45 
 14566      41535438 
 14566      5F4D4158 
 14566      5F5F2030 
 14567              	.LASF182:
 14568 366f 5F5F464C 		.ascii	"__FLT_MIN_EXP__ (-125)\000"
 14568      545F4D49 
 14568      4E5F4558 
 14568      505F5F20 
 14568      282D3132 
 14569              	.LASF1712:
 14570 3686 5F5A5374 		.ascii	"_ZSt13islessgreaterff\000"
 14570      31336973 
 14570      6C657373 
 14570      67726561 
 14570      74657266 
 14571              	.LASF810:
 14572 369c 5F415445 		.ascii	"_ATEXIT_SIZE 32\000"
 14572      5849545F 
 14572      53495A45 
 14572      20333200 
 14573              	.LASF29:
 14574 36ac 5F5F4259 		.ascii	"__BYTE_ORDER__ __ORDER_LITTLE_ENDIAN__\000"
 14574      54455F4F 
 14574      52444552 
 14574      5F5F205F 
 14574      5F4F5244 
 14575              	.LASF158:
 14576 36d3 5F5F5549 		.ascii	"__UINT64_C(c) c ## ULL\000"
 14576      4E543634 
 14576      5F432863 
 14576      29206320 
 14576      23232055 
 14577              	.LASF284:
 14578 36ea 5F5F4652 		.ascii	"__FRACT_IBIT__ 0\000"
 14578      4143545F 
 14578      49424954 
 14578      5F5F2030 
 14578      00
 14579              	.LASF179:
 14580 36fb 5F5F464C 		.ascii	"__FLT_RADIX__ 2\000"
 14580      545F5241 
 14580      4449585F 
 14580      5F203200 
 14581              	.LASF1534:
 14582 370b 4633325F 		.ascii	"F32_ABSMAX ((float32_t)FLT_MAX)\000"
 14582      4142534D 
 14582      41582028 
 14582      28666C6F 
 14582      61743332 
 14583              	.LASF80:
ARM GAS  C:\Users\30806\AppData\Local\Temp\ccYcD1nI.s 			page 296


 14584 372b 5F5F6370 		.ascii	"__cpp_static_assert 200410L\000"
 14584      705F7374 
 14584      61746963 
 14584      5F617373 
 14584      65727420 
 14585              	.LASF355:
 14586 3747 5F5F4851 		.ascii	"__HQ_FBIT__ 15\000"
 14586      5F464249 
 14586      545F5F20 
 14586      313500
 14587              	.LASF773:
 14588 3756 5F424547 		.ascii	"_BEGIN_STD_C extern \"C\" {\000"
 14588      494E5F53 
 14588      54445F43 
 14588      20657874 
 14588      65726E20 
 14589              	.LASF788:
 14590 3770 5F5F7369 		.ascii	"__size_t\000"
 14590      7A655F74 
 14590      00
 14591              	.LASF259:
 14592 3779 5F5F464C 		.ascii	"__FLT32X_DIG__ 15\000"
 14592      54333258 
 14592      5F444947 
 14592      5F5F2031 
 14592      3500
 14593              	.LASF768:
 14594 378b 5F5F5241 		.ascii	"__RAND_MAX 0x7fffffff\000"
 14594      4E445F4D 
 14594      41582030 
 14594      78376666 
 14594      66666666 
 14595              	.LASF222:
 14596 37a1 5F5F4C44 		.ascii	"__LDBL_EPSILON__ 2.2204460492503131e-16L\000"
 14596      424C5F45 
 14596      5053494C 
 14596      4F4E5F5F 
 14596      20322E32 
 14597              	.LASF1012:
 14598 37ca 5F474C49 		.ascii	"_GLIBCXX_CONSTEXPR constexpr\000"
 14598      42435858 
 14598      5F434F4E 
 14598      53544558 
 14598      50522063 
 14599              	.LASF543:
 14600 37e7 5F494E54 		.ascii	"_INTPTR_EQ_INT \000"
 14600      5054525F 
 14600      45515F49 
 14600      4E542000 
 14601              	.LASF177:
 14602 37f7 5F5F464C 		.ascii	"__FLT_EVAL_METHOD_TS_18661_3__ 0\000"
 14602      545F4556 
 14602      414C5F4D 
 14602      4554484F 
 14602      445F5453 
 14603              	.LASF357:
 14604 3818 5F5F5351 		.ascii	"__SQ_FBIT__ 31\000"
ARM GAS  C:\Users\30806\AppData\Local\Temp\ccYcD1nI.s 			page 297


 14604      5F464249 
 14604      545F5F20 
 14604      333100
 14605              	.LASF125:
 14606 3827 5F5F5549 		.ascii	"__UINTMAX_MAX__ 0xffffffffffffffffULL\000"
 14606      4E544D41 
 14606      585F4D41 
 14606      585F5F20 
 14606      30786666 
 14607              	.LASF1005:
 14608 384d 5F474C49 		.ascii	"_GLIBCXX_USE_DEPRECATED 1\000"
 14608      42435858 
 14608      5F555345 
 14608      5F444550 
 14608      52454341 
 14609              	.LASF384:
 14610 3867 5F5F5553 		.ascii	"__USA_IBIT__ 16\000"
 14610      415F4942 
 14610      49545F5F 
 14610      20313600 
 14611              	.LASF327:
 14612 3877 5F5F4143 		.ascii	"__ACCUM_EPSILON__ 0x1P-15K\000"
 14612      43554D5F 
 14612      45505349 
 14612      4C4F4E5F 
 14612      5F203078 
 14613              	.LASF66:
 14614 3892 5F5F494E 		.ascii	"__INTPTR_TYPE__ int\000"
 14614      54505452 
 14614      5F545950 
 14614      455F5F20 
 14614      696E7400 
 14615              	.LASF1458:
 14616 38a6 464C545F 		.ascii	"FLT_MIN __FLT_MIN__\000"
 14616      4D494E20 
 14616      5F5F464C 
 14616      545F4D49 
 14616      4E5F5F00 
 14617              	.LASF336:
 14618 38ba 5F5F4C41 		.ascii	"__LACCUM_MAX__ 0X7FFFFFFFFFFFFFFFP-31LK\000"
 14618      4343554D 
 14618      5F4D4158 
 14618      5F5F2030 
 14618      58374646 
 14619              	.LASF1219:
 14620 38e2 5F4D4154 		.ascii	"_MATH_ERRHANDLING_ERRNO MATH_ERRNO\000"
 14620      485F4552 
 14620      5248414E 
 14620      444C494E 
 14620      475F4552 
 14621              	.LASF830:
 14622 3905 5F524545 		.ascii	"_REENT_CHECK_TM(ptr) \000"
 14622      4E545F43 
 14622      4845434B 
 14622      5F544D28 
 14622      70747229 
 14623              	.LASF1511:
ARM GAS  C:\Users\30806\AppData\Local\Temp\ccYcD1nI.s 			page 298


 14624 391b 494E545F 		.ascii	"INT_MIN\000"
 14624      4D494E00 
 14625              	.LASF1029:
 14626 3923 5F474C49 		.ascii	"_GLIBCXX_NAMESPACE_CXX11 __cxx11::\000"
 14626      42435858 
 14626      5F4E414D 
 14626      45535041 
 14626      43455F43 
 14627              	.LASF1371:
 14628 3946 6E656172 		.ascii	"nearbyint\000"
 14628      6279696E 
 14628      7400
 14629              	.LASF1702:
 14630 3950 5F5A5374 		.ascii	"_ZSt14isgreaterequaldd\000"
 14630      31346973 
 14630      67726561 
 14630      74657265 
 14630      7175616C 
 14631              	.LASF1609:
 14632 3967 5F5A4E31 		.ascii	"_ZN12user_maths_c22loop_restriction_int16Ess\000"
 14632      32757365 
 14632      725F6D61 
 14632      7468735F 
 14632      6332326C 
 14633              	.LASF560:
 14634 3994 5F5F696E 		.ascii	"__int8_t_defined 1\000"
 14634      74385F74 
 14634      5F646566 
 14634      696E6564 
 14634      203100
 14635              	.LASF1051:
 14636 39a7 5F474C49 		.ascii	"_GLIBCXX_SYNCHRONIZATION_HAPPENS_AFTER(A) \000"
 14636      42435858 
 14636      5F53594E 
 14636      4348524F 
 14636      4E495A41 
 14637              	.LASF287:
 14638 39d2 5F5F4652 		.ascii	"__FRACT_EPSILON__ 0x1P-15R\000"
 14638      4143545F 
 14638      45505349 
 14638      4C4F4E5F 
 14638      5F203078 
 14639              	.LASF258:
 14640 39ed 5F5F464C 		.ascii	"__FLT32X_MANT_DIG__ 53\000"
 14640      54333258 
 14640      5F4D414E 
 14640      545F4449 
 14640      475F5F20 
 14641              	.LASF1071:
 14642 3a04 5F474C49 		.ascii	"_GLIBCXX_HAVE_BUILTIN_IS_AGGREGATE 1\000"
 14642      42435858 
 14642      5F484156 
 14642      455F4255 
 14642      494C5449 
 14643              	.LASF204:
 14644 3a29 5F5F4442 		.ascii	"__DBL_NORM_MAX__ double(1.7976931348623157e+308L)\000"
 14644      4C5F4E4F 
ARM GAS  C:\Users\30806\AppData\Local\Temp\ccYcD1nI.s 			page 299


 14644      524D5F4D 
 14644      41585F5F 
 14644      20646F75 
 14645              	.LASF1669:
 14646 3a5b 5F5A5374 		.ascii	"_ZSt3powff\000"
 14646      33706F77 
 14646      666600
 14647              	.LASF1602:
 14648 3a66 5F5A4E31 		.ascii	"_ZN12user_maths_c7max_absEss\000"
 14648      32757365 
 14648      725F6D61 
 14648      7468735F 
 14648      63376D61 
 14649              	.LASF440:
 14650 3a83 5F5F4743 		.ascii	"__GCC_ASM_FLAG_OUTPUTS__ 1\000"
 14650      435F4153 
 14650      4D5F464C 
 14650      41475F4F 
 14650      55545055 
 14651              	.LASF1790:
 14652 3a9e 7365745F 		.ascii	"set_val\000"
 14652      76616C00 
 14653              	.LASF564:
 14654 3aa6 5F494E54 		.ascii	"_INT32_T_DECLARED \000"
 14654      33325F54 
 14654      5F444543 
 14654      4C415245 
 14654      442000
 14655              	.LASF116:
 14656 3ab9 5F5F494E 		.ascii	"__INT_WIDTH__ 32\000"
 14656      545F5749 
 14656      4454485F 
 14656      5F203332 
 14656      00
 14657              	.LASF1138:
 14658 3aca 5F474C49 		.ascii	"_GLIBCXX_HAVE_SYS_TYPES_H 1\000"
 14658      42435858 
 14658      5F484156 
 14658      455F5359 
 14658      535F5459 
 14659              	.LASF610:
 14660 3ae6 494E545F 		.ascii	"INT_FAST8_MAX (__INT_FAST8_MAX__)\000"
 14660      46415354 
 14660      385F4D41 
 14660      5820285F 
 14660      5F494E54 
 14661              	.LASF1522:
 14662 3b08 554C4F4E 		.ascii	"ULONG_MAX (LONG_MAX * 2UL + 1UL)\000"
 14662      475F4D41 
 14662      5820284C 
 14662      4F4E475F 
 14662      4D415820 
 14663              	.LASF1699:
 14664 3b29 5F5A5374 		.ascii	"_ZSt9isgreaterdd\000"
 14664      39697367 
 14664      72656174 
 14664      65726464 
ARM GAS  C:\Users\30806\AppData\Local\Temp\ccYcD1nI.s 			page 300


 14664      00
 14665              	.LASF1393:
 14666 3b3a 7363616C 		.ascii	"scalblnf\000"
 14666      626C6E66 
 14666      00
 14667              	.LASF1572:
 14668 3b43 6D756C74 		.ascii	"mult_32x32_keep32_R(a,x,y) a = (q31_t) (((q63_t) x "
 14668      5F333278 
 14668      33325F6B 
 14668      65657033 
 14668      325F5228 
 14669 3b76 2A207920 		.ascii	"* y + 0x80000000LL ) >> 32)\000"
 14669      2B203078 
 14669      38303030 
 14669      30303030 
 14669      4C4C2029 
 14670              	.LASF1394:
 14671 3b92 7363616C 		.ascii	"scalblnl\000"
 14671      626C6E6C 
 14671      00
 14672              	.LASF741:
 14673 3b9b 5F5F504B 		.ascii	"__PKHBT(ARG1,ARG2,ARG3) __extension__ ({ uint32_t _"
 14673      48425428 
 14673      41524731 
 14673      2C415247 
 14673      322C4152 
 14674 3bce 5F524553 		.ascii	"_RES, __ARG1 = (ARG1), __ARG2 = (ARG2); __ASM (\"pk"
 14674      2C205F5F 
 14674      41524731 
 14674      203D2028 
 14674      41524731 
 14675 3c00 68627420 		.ascii	"hbt %0, %1, %2, lsl %3\" : \"=r\" (__RES) : \"r\" ("
 14675      25302C20 
 14675      25312C20 
 14675      25322C20 
 14675      6C736C20 
 14676 3c2e 5F5F4152 		.ascii	"__ARG1), \"r\" (__ARG2), \"I\" (ARG3) ); __RES; })\000"
 14676      4731292C 
 14676      20227222 
 14676      20285F5F 
 14676      41524732 
 14677              	.LASF942:
 14678 3c5d 5F5F7072 		.ascii	"__predict_true(exp) __builtin_expect((exp), 1)\000"
 14678      65646963 
 14678      745F7472 
 14678      75652865 
 14678      78702920 
 14679              	.LASF369:
 14680 3c8c 5F5F5544 		.ascii	"__UDQ_FBIT__ 64\000"
 14680      515F4642 
 14680      49545F5F 
 14680      20363400 
 14681              	.LASF578:
 14682 3c9c 5F5F696E 		.ascii	"__int_fast8_t_defined 1\000"
 14682      745F6661 
 14682      7374385F 
 14682      745F6465 
ARM GAS  C:\Users\30806\AppData\Local\Temp\ccYcD1nI.s 			page 301


 14682      66696E65 
 14683              	.LASF863:
 14684 3cb4 5F474C4F 		.ascii	"_GLOBAL_REENT _global_impure_ptr\000"
 14684      42414C5F 
 14684      5245454E 
 14684      54205F67 
 14684      6C6F6261 
 14685              	.LASF244:
 14686 3cd5 5F5F464C 		.ascii	"__FLT64_DIG__ 15\000"
 14686      5436345F 
 14686      4449475F 
 14686      5F203135 
 14686      00
 14687              	.LASF458:
 14688 3ce6 5F5F4152 		.ascii	"__ARM_NEON\000"
 14688      4D5F4E45 
 14688      4F4E00
 14689              	.LASF1030:
 14690 3cf1 5F474C49 		.ascii	"_GLIBCXX_BEGIN_NAMESPACE_CXX11 namespace __cxx11 {\000"
 14690      42435858 
 14690      5F424547 
 14690      494E5F4E 
 14690      414D4553 
 14691              	.LASF1165:
 14692 3d24 5F474C49 		.ascii	"_GLIBCXX11_USE_C99_WCHAR 1\000"
 14692      42435858 
 14692      31315F55 
 14692      53455F43 
 14692      39395F57 
 14693              	.LASF1190:
 14694 3d3f 5F474C49 		.ascii	"_GLIBCXX_USE_ST_MTIM 1\000"
 14694      42435858 
 14694      5F555345 
 14694      5F53545F 
 14694      4D54494D 
 14695              	.LASF520:
 14696 3d56 5F5F5F69 		.ascii	"___int64_t_defined 1\000"
 14696      6E743634 
 14696      5F745F64 
 14696      6566696E 
 14696      65642031 
 14697              	.LASF749:
 14698 3d6b 5F524545 		.ascii	"_REENT_CHECK_VERIFY 1\000"
 14698      4E545F43 
 14698      4845434B 
 14698      5F564552 
 14698      49465920 
 14699              	.LASF895:
 14700 3d81 5F5F474E 		.ascii	"__GNUCLIKE_BUILTIN_NEXT_ARG 1\000"
 14700      55434C49 
 14700      4B455F42 
 14700      55494C54 
 14700      494E5F4E 
 14701              	.LASF568:
 14702 3d9f 5F55494E 		.ascii	"_UINT64_T_DECLARED \000"
 14702      5436345F 
 14702      545F4445 
ARM GAS  C:\Users\30806\AppData\Local\Temp\ccYcD1nI.s 			page 302


 14702      434C4152 
 14702      45442000 
 14703              	.LASF1049:
 14704 3db3 5F5F676C 		.ascii	"__glibcxx_assert(_Condition) \000"
 14704      69626378 
 14704      785F6173 
 14704      73657274 
 14704      285F436F 
 14705              	.LASF1674:
 14706 3dd1 5F5A5374 		.ascii	"_ZSt4fabse\000"
 14706      34666162 
 14706      736500
 14707              	.LASF1675:
 14708 3ddc 5F5A5374 		.ascii	"_ZSt4fabsf\000"
 14708      34666162 
 14708      736600
 14709              	.LASF1701:
 14710 3de7 5F5A5374 		.ascii	"_ZSt14isgreaterequalee\000"
 14710      31346973 
 14710      67726561 
 14710      74657265 
 14710      7175616C 
 14711              	.LASF1794:
 14712 3dfe 6D696E56 		.ascii	"minValue\000"
 14712      616C7565 
 14712      00
 14713              	.LASF264:
 14714 3e07 5F5F464C 		.ascii	"__FLT32X_DECIMAL_DIG__ 17\000"
 14714      54333258 
 14714      5F444543 
 14714      494D414C 
 14714      5F444947 
 14715              	.LASF1349:
 14716 3e21 6C6C7269 		.ascii	"llrintf\000"
 14716      6E746600 
 14717              	.LASF401:
 14718 3e29 5F5F4743 		.ascii	"__GCC_ATOMIC_CHAR32_T_LOCK_FREE 2\000"
 14718      435F4154 
 14718      4F4D4943 
 14718      5F434841 
 14718      5233325F 
 14719              	.LASF1266:
 14720 3e4b 616C6C6F 		.ascii	"alloca(size) __builtin_alloca(size)\000"
 14720      63612873 
 14720      697A6529 
 14720      205F5F62 
 14720      75696C74 
 14721              	.LASF706:
 14722 3e6f 5F5F4153 		.ascii	"__ASM __asm\000"
 14722      4D205F5F 
 14722      61736D00 
 14723              	.LASF43:
 14724 3e7b 5F5F494E 		.ascii	"__INT16_TYPE__ short int\000"
 14724      5431365F 
 14724      54595045 
 14724      5F5F2073 
 14724      686F7274 
ARM GAS  C:\Users\30806\AppData\Local\Temp\ccYcD1nI.s 			page 303


 14725              	.LASF798:
 14726 3e94 5F5F4C4F 		.ascii	"__LOCK_INIT(class,lock) extern struct __lock __lock"
 14726      434B5F49 
 14726      4E495428 
 14726      636C6173 
 14726      732C6C6F 
 14727 3ec7 5F202323 		.ascii	"_ ## lock; class _LOCK_T lock = &__lock_ ## lock\000"
 14727      206C6F63 
 14727      6B3B2063 
 14727      6C617373 
 14727      205F4C4F 
 14728              	.LASF579:
 14729 3ef8 5F5F696E 		.ascii	"__int_fast16_t_defined 1\000"
 14729      745F6661 
 14729      73743136 
 14729      5F745F64 
 14729      6566696E 
 14730              	.LASF837:
 14731 3f11 5F524545 		.ascii	"_REENT_RAND48_SEED(ptr) ((ptr)->_new._reent._r48._s"
 14731      4E545F52 
 14731      414E4434 
 14731      385F5345 
 14731      45442870 
 14732 3f44 65656429 		.ascii	"eed)\000"
 14732      00
 14733              	.LASF285:
 14734 3f49 5F5F4652 		.ascii	"__FRACT_MIN__ (-0.5R-0.5R)\000"
 14734      4143545F 
 14734      4D494E5F 
 14734      5F20282D 
 14734      302E3552 
 14735              	.LASF298:
 14736 3f64 5F5F554C 		.ascii	"__ULFRACT_FBIT__ 32\000"
 14736      46524143 
 14736      545F4642 
 14736      49545F5F 
 14736      20333200 
 14737              	.LASF897:
 14738 3f78 5F5F474E 		.ascii	"__GNUCLIKE_BUILTIN_MEMCPY 1\000"
 14738      55434C49 
 14738      4B455F42 
 14738      55494C54 
 14738      494E5F4D 
 14739              	.LASF1196:
 14740 3f94 5F5F494E 		.ascii	"__INT_N(TYPE) template<> struct __is_integer<TYPE> "
 14740      545F4E28 
 14740      54595045 
 14740      29207465 
 14740      6D706C61 
 14741 3fc7 7B20656E 		.ascii	"{ enum { __value = 1 }; typedef __true_type __type;"
 14741      756D207B 
 14741      205F5F76 
 14741      616C7565 
 14741      203D2031 
 14742 3ffa 207D3B20 		.ascii	" }; template<> struct __is_integer<unsigned TYPE> {"
 14742      74656D70 
 14742      6C617465 
ARM GAS  C:\Users\30806\AppData\Local\Temp\ccYcD1nI.s 			page 304


 14742      3C3E2073 
 14742      74727563 
 14743 402d 20656E75 		.ascii	" enum { __value = 1 }; typedef __true_type __type; "
 14743      6D207B20 
 14743      5F5F7661 
 14743      6C756520 
 14743      3D203120 
 14744 4060 7D3B00   		.ascii	"};\000"
 14745              	.LASF675:
 14746 4063 5F5F5F69 		.ascii	"___int_size_t_h \000"
 14746      6E745F73 
 14746      697A655F 
 14746      745F6820 
 14746      00
 14747              	.LASF960:
 14748 4074 5F5F7379 		.ascii	"__sym_default(sym,impl,verid) __asm__(\".symver \" "
 14748      6D5F6465 
 14748      6661756C 
 14748      74287379 
 14748      6D2C696D 
 14749 40a5 23696D70 		.ascii	"#impl \", \" #sym \"@@\" #verid)\000"
 14749      6C20222C 
 14749      20222023 
 14749      73796D20 
 14749      22404022 
 14750              	.LASF115:
 14751 40c2 5F5F5348 		.ascii	"__SHRT_WIDTH__ 16\000"
 14751      52545F57 
 14751      49445448 
 14751      5F5F2031 
 14751      3600
 14752              	.LASF1482:
 14753 40d4 42435F53 		.ascii	"BC_SCALE_MAX 99\000"
 14753      43414C45 
 14753      5F4D4158 
 14753      20393900 
 14754              	.LASF1698:
 14755 40e4 5F5A5374 		.ascii	"_ZSt9isgreateree\000"
 14755      39697367 
 14755      72656174 
 14755      65726565 
 14755      00
 14756              	.LASF1105:
 14757 40f5 5F474C49 		.ascii	"_GLIBCXX_HAVE_LIMIT_DATA 0\000"
 14757      42435858 
 14757      5F484156 
 14757      455F4C49 
 14757      4D49545F 
 14758              	.LASF1594:
 14759 4110 4F757470 		.ascii	"Output\000"
 14759      757400
 14760              	.LASF405:
 14761 4117 5F5F4743 		.ascii	"__GCC_ATOMIC_LONG_LOCK_FREE 2\000"
 14761      435F4154 
 14761      4F4D4943 
 14761      5F4C4F4E 
 14761      475F4C4F 
ARM GAS  C:\Users\30806\AppData\Local\Temp\ccYcD1nI.s 			page 305


 14762              	.LASF1762:
 14763 4135 5F5A5374 		.ascii	"_ZSt9nearbyinte\000"
 14763      396E6561 
 14763      72627969 
 14763      6E746500 
 14764              	.LASF1763:
 14765 4145 5F5A5374 		.ascii	"_ZSt9nearbyintf\000"
 14765      396E6561 
 14765      72627969 
 14765      6E746600 
 14766              	.LASF1728:
 14767 4155 5F5A5374 		.ascii	"_ZSt4erfce\000"
 14767      34657266 
 14767      636500
 14768              	.LASF1729:
 14769 4160 5F5A5374 		.ascii	"_ZSt4erfcf\000"
 14769      34657266 
 14769      636600
 14770              	.LASF476:
 14771 416b 5F5F4758 		.ascii	"__GXX_TYPEINFO_EQUALITY_INLINE 0\000"
 14771      585F5459 
 14771      5045494E 
 14771      464F5F45 
 14771      5155414C 
 14772              	.LASF1684:
 14773 418c 5F5A5374 		.ascii	"_ZSt8isfinited\000"
 14773      38697366 
 14773      696E6974 
 14773      656400
 14774              	.LASF1716:
 14775 419b 5F5A5374 		.ascii	"_ZSt5acoshe\000"
 14775      3561636F 
 14775      73686500 
 14776              	.LASF1172:
 14777 41a7 5F474C49 		.ascii	"_GLIBCXX_HOSTED 1\000"
 14777      42435858 
 14777      5F484F53 
 14777      54454420 
 14777      3100
 14778              	.LASF1806:
 14779 41b9 6C696D69 		.ascii	"limit_num\000"
 14779      745F6E75 
 14779      6D00
 14780              	.LASF365:
 14781 41c3 5F5F5548 		.ascii	"__UHQ_FBIT__ 16\000"
 14781      515F4642 
 14781      49545F5F 
 14781      20313600 
 14782              	.LASF111:
 14783 41d3 5F5F5749 		.ascii	"__WINT_MIN__ 0U\000"
 14783      4E545F4D 
 14783      494E5F5F 
 14783      20305500 
 14784              	.LASF1707:
 14785 41e3 5F5A5374 		.ascii	"_ZSt11islessequalee\000"
 14785      31316973 
 14785      6C657373 
ARM GAS  C:\Users\30806\AppData\Local\Temp\ccYcD1nI.s 			page 306


 14785      65717561 
 14785      6C656500 
 14786              	.LASF1208:
 14787 41f7 5F5F544D 		.ascii	"__TMP_FLT_EVAL_METHOD \000"
 14787      505F464C 
 14787      545F4556 
 14787      414C5F4D 
 14787      4554484F 
 14788              	.LASF994:
 14789 420e 5F535953 		.ascii	"_SYS__LOCALE_H \000"
 14789      5F5F4C4F 
 14789      43414C45 
 14789      5F482000 
 14790              	.LASF1605:
 14791 421e 5F5A4E31 		.ascii	"_ZN12user_maths_c18float_min_distanceEffff\000"
 14791      32757365 
 14791      725F6D61 
 14791      7468735F 
 14791      63313866 
 14792              	.LASF1703:
 14793 4249 5F5A5374 		.ascii	"_ZSt14isgreaterequalff\000"
 14793      31346973 
 14793      67726561 
 14793      74657265 
 14793      7175616C 
 14794              	.LASF697:
 14795 4260 4E554C4C 		.ascii	"NULL\000"
 14795      00
 14796              	.LASF1411:
 14797 4265 44424C5F 		.ascii	"DBL_MANT_DIG __DBL_MANT_DIG__\000"
 14797      4D414E54 
 14797      5F444947 
 14797      205F5F44 
 14797      424C5F4D 
 14798              	.LASF894:
 14799 4283 5F5F636F 		.ascii	"__compiler_membar() __asm __volatile(\" \" : : : \""
 14799      6D70696C 
 14799      65725F6D 
 14799      656D6261 
 14799      72282920 
 14800 42b3 6D656D6F 		.ascii	"memory\")\000"
 14800      72792229 
 14800      00
 14801              	.LASF1467:
 14802 42bc 5F4C4942 		.ascii	"_LIBC_LIMITS_H_ 1\000"
 14802      435F4C49 
 14802      4D495453 
 14802      5F485F20 
 14802      3100
 14803              	.LASF1663:
 14804 42ce 5F5A5374 		.ascii	"_ZSt3logf\000"
 14804      336C6F67 
 14804      6600
 14805              	.LASF511:
 14806 42d8 5F5F5356 		.ascii	"__SVID_VISIBLE 1\000"
 14806      49445F56 
 14806      49534942 
ARM GAS  C:\Users\30806\AppData\Local\Temp\ccYcD1nI.s 			page 307


 14806      4C452031 
 14806      00
 14807              	.LASF1383:
 14808 42e9 72656D71 		.ascii	"remquo\000"
 14808      756F00
 14809              	.LASF78:
 14810 42f0 5F5F6370 		.ascii	"__cpp_lambdas 200907L\000"
 14810      705F6C61 
 14810      6D626461 
 14810      73203230 
 14810      30393037 
 14811              	.LASF195:
 14812 4306 5F5F4650 		.ascii	"__FP_FAST_FMAF 1\000"
 14812      5F464153 
 14812      545F464D 
 14812      41462031 
 14812      00
 14813              	.LASF1338:
 14814 4317 666D696E 		.ascii	"fminl\000"
 14814      6C00
 14815              	.LASF109:
 14816 431d 5F5F5743 		.ascii	"__WCHAR_MIN__ 0U\000"
 14816      4841525F 
 14816      4D494E5F 
 14816      5F203055 
 14816      00
 14817              	.LASF1808:
 14818 432e 68616C66 		.ascii	"halfx\000"
 14818      7800
 14819              	.LASF956:
 14820 4334 5F5F7374 		.ascii	"__strong_reference(sym,aliassym) extern __typeof (s"
 14820      726F6E67 
 14820      5F726566 
 14820      6572656E 
 14820      63652873 
 14821 4367 796D2920 		.ascii	"ym) aliassym __attribute__ ((__alias__ (#sym)))\000"
 14821      616C6961 
 14821      7373796D 
 14821      205F5F61 
 14821      74747269 
 14822              	.LASF1700:
 14823 4397 5F5A5374 		.ascii	"_ZSt9isgreaterff\000"
 14823      39697367 
 14823      72656174 
 14823      65726666 
 14823      00
 14824              	.LASF829:
 14825 43a8 5F524545 		.ascii	"_REENT_CHECK_MP(ptr) \000"
 14825      4E545F43 
 14825      4845434B 
 14825      5F4D5028 
 14825      70747229 
 14826              	.LASF693:
 14827 43be 5F474343 		.ascii	"_GCC_WCHAR_T \000"
 14827      5F574348 
 14827      41525F54 
 14827      2000
ARM GAS  C:\Users\30806\AppData\Local\Temp\ccYcD1nI.s 			page 308


 14828              	.LASF1039:
 14829 43cc 5F474C49 		.ascii	"_GLIBCXX_STD_A std\000"
 14829      42435858 
 14829      5F535444 
 14829      5F412073 
 14829      746400
 14830              	.LASF1158:
 14831 43df 5F474C49 		.ascii	"_GLIBCXX_PACKAGE_URL \"\"\000"
 14831      42435858 
 14831      5F504143 
 14831      4B414745 
 14831      5F55524C 
 14832              	.LASF85:
 14833 43f7 5F5F6370 		.ascii	"__cpp_variadic_templates 200704L\000"
 14833      705F7661 
 14833      72696164 
 14833      69635F74 
 14833      656D706C 
 14834              	.LASF545:
 14835 4418 5F5F494E 		.ascii	"__INT8 \"hh\"\000"
 14835      54382022 
 14835      68682200 
 14836              	.LASF307:
 14837 4424 5F5F4C4C 		.ascii	"__LLFRACT_EPSILON__ 0x1P-63LLR\000"
 14837      46524143 
 14837      545F4550 
 14837      53494C4F 
 14837      4E5F5F20 
 14838              	.LASF166:
 14839 4443 5F5F494E 		.ascii	"__INT_FAST64_WIDTH__ 64\000"
 14839      545F4641 
 14839      53543634 
 14839      5F574944 
 14839      54485F5F 
 14840              	.LASF283:
 14841 445b 5F5F4652 		.ascii	"__FRACT_FBIT__ 15\000"
 14841      4143545F 
 14841      46424954 
 14841      5F5F2031 
 14841      3500
 14842              	.LASF1521:
 14843 446d 554C4F4E 		.ascii	"ULONG_MAX\000"
 14843      475F4D41 
 14843      5800
 14844              	.LASF541:
 14845 4477 696E7420 		.ascii	"int +2\000"
 14845      2B3200
 14846              	.LASF915:
 14847 447e 5F5F6465 		.ascii	"__dead2 __attribute__((__noreturn__))\000"
 14847      61643220 
 14847      5F5F6174 
 14847      74726962 
 14847      7574655F 
 14848              	.LASF1311:
 14849 44a4 63627274 		.ascii	"cbrt\000"
 14849      00
 14850              	.LASF783:
ARM GAS  C:\Users\30806\AppData\Local\Temp\ccYcD1nI.s 			page 309


 14851 44a9 5F5F6E65 		.ascii	"__need_size_t \000"
 14851      65645F73 
 14851      697A655F 
 14851      742000
 14852              	.LASF647:
 14853 44b8 5241445F 		.ascii	"RAD_FORMAT(Ang) loop_fp32_constrain((Ang), -PI, PI)"
 14853      464F524D 
 14853      41542841 
 14853      6E672920 
 14853      6C6F6F70 
 14854 44eb 00       		.ascii	"\000"
 14855              	.LASF133:
 14856 44ec 5F5F494E 		.ascii	"__INT32_MAX__ 0x7fffffffL\000"
 14856      5433325F 
 14856      4D41585F 
 14856      5F203078 
 14856      37666666 
 14857              	.LASF912:
 14858 4506 5F5F766F 		.ascii	"__volatile volatile\000"
 14858      6C617469 
 14858      6C652076 
 14858      6F6C6174 
 14858      696C6500 
 14859              	.LASF393:
 14860 451a 5F5F4348 		.ascii	"__CHAR_UNSIGNED__ 1\000"
 14860      41525F55 
 14860      4E534947 
 14860      4E45445F 
 14860      5F203100 
 14861              	.LASF1575:
 14862 452e 6D756C74 		.ascii	"mult_32x32_keep32(a,x,y) a = (q31_t) (((q63_t) x * "
 14862      5F333278 
 14862      33325F6B 
 14862      65657033 
 14862      3228612C 
 14863 4561 79202920 		.ascii	"y ) >> 32)\000"
 14863      3E3E2033 
 14863      322900
 14864              	.LASF695:
 14865 456c 5F425344 		.ascii	"_BSD_WCHAR_T_\000"
 14865      5F574348 
 14865      41525F54 
 14865      5F00
 14866              	.LASF1424:
 14867 457a 4C44424C 		.ascii	"LDBL_MIN_EXP __LDBL_MIN_EXP__\000"
 14867      5F4D494E 
 14867      5F455850 
 14867      205F5F4C 
 14867      44424C5F 
 14868              	.LASF103:
 14869 4598 5F5F5343 		.ascii	"__SCHAR_MAX__ 0x7f\000"
 14869      4841525F 
 14869      4D41585F 
 14869      5F203078 
 14869      376600
 14870              	.LASF410:
 14871 45ab 5F5F4743 		.ascii	"__GCC_HAVE_DWARF2_CFI_ASM 1\000"
ARM GAS  C:\Users\30806\AppData\Local\Temp\ccYcD1nI.s 			page 310


 14871      435F4841 
 14871      56455F44 
 14871      57415246 
 14871      325F4346 
 14872              	.LASF669:
 14873 45c7 5F53495A 		.ascii	"_SIZE_T_ \000"
 14873      455F545F 
 14873      2000
 14874              	.LASF1376:
 14875 45d1 6E657874 		.ascii	"nextafterl\000"
 14875      61667465 
 14875      726C00
 14876              	.LASF1277:
 14877 45dc 6174616E 		.ascii	"atan2\000"
 14877      3200
 14878              	.LASF77:
 14879 45e2 5F5F6370 		.ascii	"__cpp_user_defined_literals 200809L\000"
 14879      705F7573 
 14879      65725F64 
 14879      6566696E 
 14879      65645F6C 
 14880              	.LASF646:
 14881 4606 75736572 		.ascii	"user_max(x,y) ((x) > (y) ? (x) : (y))\000"
 14881      5F6D6178 
 14881      28782C79 
 14881      29202828 
 14881      7829203E 
 14882              	.LASF96:
 14883 462c 5F5F6370 		.ascii	"__cpp_decltype_auto 201304L\000"
 14883      705F6465 
 14883      636C7479 
 14883      70655F61 
 14883      75746F20 
 14884              	.LASF1169:
 14885 4648 5F474C49 		.ascii	"_GLIBCXX98_USE_C99_WCHAR 1\000"
 14885      42435858 
 14885      39385F55 
 14885      53455F43 
 14885      39395F57 
 14886              	.LASF679:
 14887 4663 5F5F6E65 		.ascii	"__need_size_t\000"
 14887      65645F73 
 14887      697A655F 
 14887      7400
 14888              	.LASF1121:
 14889 4671 5F474C49 		.ascii	"_GLIBCXX_HAVE_SINF 1\000"
 14889      42435858 
 14889      5F484156 
 14889      455F5349 
 14889      4E462031 
 14890              	.LASF311:
 14891 4686 5F5F554C 		.ascii	"__ULLFRACT_MAX__ 0XFFFFFFFFFFFFFFFFP-64ULLR\000"
 14891      4C465241 
 14891      43545F4D 
 14891      41585F5F 
 14891      20305846 
 14892              	.LASF734:
ARM GAS  C:\Users\30806\AppData\Local\Temp\ccYcD1nI.s 			page 311


 14893 46b2 5F5F5746 		.ascii	"__WFE() __ASM volatile (\"wfe\":::\"memory\")\000"
 14893      45282920 
 14893      5F5F4153 
 14893      4D20766F 
 14893      6C617469 
 14894              	.LASF801:
 14895 46dc 5F5F6C6F 		.ascii	"__lock_init_recursive(lock) __retarget_lock_init_re"
 14895      636B5F69 
 14895      6E69745F 
 14895      72656375 
 14895      72736976 
 14896 470f 63757273 		.ascii	"cursive(&lock)\000"
 14896      69766528 
 14896      266C6F63 
 14896      6B2900
 14897              	.LASF1309:
 14898 471e 6174616E 		.ascii	"atanhf\000"
 14898      686600
 14899              	.LASF373:
 14900 4725 5F5F4841 		.ascii	"__HA_FBIT__ 7\000"
 14900      5F464249 
 14900      545F5F20 
 14900      3700
 14901              	.LASF1110:
 14902 4733 5F474C49 		.ascii	"_GLIBCXX_HAVE_LOCALE_H 1\000"
 14902      42435858 
 14902      5F484156 
 14902      455F4C4F 
 14902      43414C45 
 14903              	.LASF597:
 14904 474c 494E5433 		.ascii	"INT32_MIN (-__INT32_MAX__ - 1)\000"
 14904      325F4D49 
 14904      4E20282D 
 14904      5F5F494E 
 14904      5433325F 
 14905              	.LASF1754:
 14906 476b 5F5A5374 		.ascii	"_ZSt4log2e\000"
 14906      346C6F67 
 14906      326500
 14907              	.LASF1755:
 14908 4776 5F5A5374 		.ascii	"_ZSt4log2f\000"
 14908      346C6F67 
 14908      326600
 14909              	.LASF949:
 14910 4781 5F5F636F 		.ascii	"__containerof(x,s,m) ({ const volatile __typeof(((s"
 14910      6E746169 
 14910      6E65726F 
 14910      6628782C 
 14910      732C6D29 
 14911 47b4 202A2930 		.ascii	" *)0)->m) *__x = (x); __DEQUALIFY(s *, (const volat"
 14911      292D3E6D 
 14911      29202A5F 
 14911      5F78203D 
 14911      20287829 
 14912 47e7 696C6520 		.ascii	"ile char *)__x - __offsetof(s, m));})\000"
 14912      63686172 
 14912      202A295F 
ARM GAS  C:\Users\30806\AppData\Local\Temp\ccYcD1nI.s 			page 312


 14912      5F78202D 
 14912      205F5F6F 
 14913              	.LASF649:
 14914 480d 5F535444 		.ascii	"_STDDEF_H \000"
 14914      4445465F 
 14914      482000
 14915              	.LASF1760:
 14916 4818 5F5A5374 		.ascii	"_ZSt6lrounde\000"
 14916      366C726F 
 14916      756E6465 
 14916      00
 14917              	.LASF1761:
 14918 4825 5F5A5374 		.ascii	"_ZSt6lroundf\000"
 14918      366C726F 
 14918      756E6466 
 14918      00
 14919              	.LASF1485:
 14920 4832 45585052 		.ascii	"EXPR_NEST_MAX 32\000"
 14920      5F4E4553 
 14920      545F4D41 
 14920      58203332 
 14920      00
 14921              	.LASF1455:
 14922 4843 464C545F 		.ascii	"FLT_MIN\000"
 14922      4D494E00 
 14923              	.LASF881:
 14924 484b 5F5F4245 		.ascii	"__BEGIN_DECLS extern \"C\" {\000"
 14924      47494E5F 
 14924      4445434C 
 14924      53206578 
 14924      7465726E 
 14925              	.LASF1143:
 14926 4866 5F474C49 		.ascii	"_GLIBCXX_HAVE_TRUNCATE 1\000"
 14926      42435858 
 14926      5F484156 
 14926      455F5452 
 14926      554E4341 
 14927              	.LASF1106:
 14928 487f 5F474C49 		.ascii	"_GLIBCXX_HAVE_LIMIT_FSIZE 0\000"
 14928      42435858 
 14928      5F484156 
 14928      455F4C49 
 14928      4D49545F 
 14929              	.LASF194:
 14930 489b 5F5F464C 		.ascii	"__FLT_HAS_QUIET_NAN__ 1\000"
 14930      545F4841 
 14930      535F5155 
 14930      4945545F 
 14930      4E414E5F 
 14931              	.LASF1656:
 14932 48b3 5F5A5374 		.ascii	"_ZSt3expe\000"
 14932      33657870 
 14932      6500
 14933              	.LASF1308:
 14934 48bd 6174616E 		.ascii	"atanh\000"
 14934      6800
 14935              	.LASF643:
ARM GAS  C:\Users\30806\AppData\Local\Temp\ccYcD1nI.s 			page 313


 14936 48c3 5F474343 		.ascii	"_GCC_WRAP_STDINT_H \000"
 14936      5F575241 
 14936      505F5354 
 14936      44494E54 
 14936      5F482000 
 14937              	.LASF1108:
 14938 48d7 5F474C49 		.ascii	"_GLIBCXX_HAVE_LIMIT_VMEM 0\000"
 14938      42435858 
 14938      5F484156 
 14938      455F4C49 
 14938      4D49545F 
 14939              	.LASF535:
 14940 48f2 7369676E 		.ascii	"signed +0\000"
 14940      6564202B 
 14940      3000
 14941              	.LASF394:
 14942 48fc 5F5F5743 		.ascii	"__WCHAR_UNSIGNED__ 1\000"
 14942      4841525F 
 14942      554E5349 
 14942      474E4544 
 14942      5F5F2031 
 14943              	.LASF730:
 14944 4911 5F5F434D 		.ascii	"__CMSIS_GCC_RW_REG(r) \"+r\" (r)\000"
 14944      5349535F 
 14944      4743435F 
 14944      52575F52 
 14944      45472872 
 14945              	.LASF1144:
 14946 4930 5F474C49 		.ascii	"_GLIBCXX_HAVE_UNISTD_H 1\000"
 14946      42435858 
 14946      5F484156 
 14946      455F554E 
 14946      49535444 
 14947              	.LASF266:
 14948 4949 5F5F464C 		.ascii	"__FLT32X_NORM_MAX__ 1.7976931348623157e+308F32x\000"
 14948      54333258 
 14948      5F4E4F52 
 14948      4D5F4D41 
 14948      585F5F20 
 14949              	.LASF4:
 14950 4979 5F5F5354 		.ascii	"__STDC_HOSTED__ 1\000"
 14950      44435F48 
 14950      4F535445 
 14950      445F5F20 
 14950      3100
 14951              	.LASF1067:
 14952 498b 5F474C49 		.ascii	"_GLIBCXX_USE_C99_STDIO _GLIBCXX11_USE_C99_STDIO\000"
 14952      42435858 
 14952      5F555345 
 14952      5F433939 
 14952      5F535444 
 14953              	.LASF827:
 14954 49bb 5F524545 		.ascii	"_REENT_INIT_PTR_ZEROED(var) { (var)->_stdin = _REEN"
 14954      4E545F49 
 14954      4E49545F 
 14954      5054525F 
 14954      5A45524F 
ARM GAS  C:\Users\30806\AppData\Local\Temp\ccYcD1nI.s 			page 314


 14955 49ee 545F5354 		.ascii	"T_STDIO_STREAM(var, 0); (var)->_stdout = _REENT_STD"
 14955      44494F5F 
 14955      53545245 
 14955      414D2876 
 14955      61722C20 
 14956 4a21 494F5F53 		.ascii	"IO_STREAM(var, 1); (var)->_stderr = _REENT_STDIO_ST"
 14956      54524541 
 14956      4D287661 
 14956      722C2031 
 14956      293B2028 
 14957 4a54 5245414D 		.ascii	"REAM(var, 2); (var)->_new._reent._rand_next = 1; (v"
 14957      28766172 
 14957      2C203229 
 14957      3B202876 
 14957      6172292D 
 14958 4a87 6172292D 		.ascii	"ar)->_new._reent._r48._seed[0] = _RAND48_SEED_0; (v"
 14958      3E5F6E65 
 14958      772E5F72 
 14958      65656E74 
 14958      2E5F7234 
 14959 4aba 6172292D 		.ascii	"ar)->_new._reent._r48._seed[1] = _RAND48_SEED_1; (v"
 14959      3E5F6E65 
 14959      772E5F72 
 14959      65656E74 
 14959      2E5F7234 
 14960 4aed 6172292D 		.ascii	"ar)->_new._reent._r48._seed[2] = _RAND48_SEED_2; (v"
 14960      3E5F6E65 
 14960      772E5F72 
 14960      65656E74 
 14960      2E5F7234 
 14961 4b20 6172292D 		.ascii	"ar)->_new._reent._r48._mult[0] = _RAND48_MULT_0; (v"
 14961      3E5F6E65 
 14961      772E5F72 
 14961      65656E74 
 14961      2E5F7234 
 14962 4b53 6172292D 		.ascii	"ar)->_new._reent._r48._mult[1] = _RAND48_MULT_1; (v"
 14962      3E5F6E65 
 14962      772E5F72 
 14962      65656E74 
 14962      2E5F7234 
 14963 4b86 6172292D 		.ascii	"ar)->_new._reent._r48._mult[2] = _RAND48_MULT_2; (v"
 14963      3E5F6E65 
 14963      772E5F72 
 14963      65656E74 
 14963      2E5F7234 
 14964 4bb9 6172292D 		.ascii	"ar)->_new._reent._r48._add = _RAND48_ADD; }\000"
 14964      3E5F6E65 
 14964      772E5F72 
 14964      65656E74 
 14964      2E5F7234 
 14965              	.LASF1574:
 14966 4be5 6D756C74 		.ascii	"multSub_32x32_keep32(a,x,y) a -= (q31_t) (((q63_t) "
 14966      5375625F 
 14966      33327833 
 14966      325F6B65 
 14966      65703332 
 14967 4c18 78202A20 		.ascii	"x * y) >> 32)\000"
ARM GAS  C:\Users\30806\AppData\Local\Temp\ccYcD1nI.s 			page 315


 14967      7929203E 
 14967      3E203332 
 14967      2900
 14968              	.LASF1228:
 14969 4c26 69736772 		.ascii	"isgreater(__x,__y) (__builtin_isgreater (__x, __y))"
 14969      65617465 
 14969      72285F5F 
 14969      782C5F5F 
 14969      79292028 
 14970 4c59 00       		.ascii	"\000"
 14971              	.LASF629:
 14972 4c5a 57434841 		.ascii	"WCHAR_MIN (__WCHAR_MIN__)\000"
 14972      525F4D49 
 14972      4E20285F 
 14972      5F574348 
 14972      41525F4D 
 14973              	.LASF1428:
 14974 4c74 464C545F 		.ascii	"FLT_MIN_10_EXP __FLT_MIN_10_EXP__\000"
 14974      4D494E5F 
 14974      31305F45 
 14974      5850205F 
 14974      5F464C54 
 14975              	.LASF841:
 14976 4c96 5F524545 		.ascii	"_REENT_MP_RESULT_K(ptr) ((ptr)->_result_k)\000"
 14976      4E545F4D 
 14976      505F5245 
 14976      53554C54 
 14976      5F4B2870 
 14977              	.LASF114:
 14978 4cc1 5F5F5343 		.ascii	"__SCHAR_WIDTH__ 8\000"
 14978      4841525F 
 14978      57494454 
 14978      485F5F20 
 14978      3800
 14979              	.LASF28:
 14980 4cd3 5F5F4F52 		.ascii	"__ORDER_PDP_ENDIAN__ 3412\000"
 14980      4445525F 
 14980      5044505F 
 14980      454E4449 
 14980      414E5F5F 
 14981              	.LASF48:
 14982 4ced 5F5F5549 		.ascii	"__UINT32_TYPE__ long unsigned int\000"
 14982      4E543332 
 14982      5F545950 
 14982      455F5F20 
 14982      6C6F6E67 
 14983              	.LASF11:
 14984 4d0f 5F5F4154 		.ascii	"__ATOMIC_ACQUIRE 2\000"
 14984      4F4D4943 
 14984      5F414351 
 14984      55495245 
 14984      203200
 14985              	.LASF1182:
 14986 4d22 5F474C49 		.ascii	"_GLIBCXX_USE_C99_INTTYPES_WCHAR_T_TR1 1\000"
 14986      42435858 
 14986      5F555345 
 14986      5F433939 
ARM GAS  C:\Users\30806\AppData\Local\Temp\ccYcD1nI.s 			page 316


 14986      5F494E54 
 14987              	.LASF1365:
 14988 4d4a 6C72696E 		.ascii	"lrintl\000"
 14988      746C00
 14989              	.LASF989:
 14990 4d51 5F5F6E6F 		.ascii	"__nosanitizeaddress \000"
 14990      73616E69 
 14990      74697A65 
 14990      61646472 
 14990      65737320 
 14991              	.LASF164:
 14992 4d66 5F5F494E 		.ascii	"__INT_FAST32_WIDTH__ 32\000"
 14992      545F4641 
 14992      53543332 
 14992      5F574944 
 14992      54485F5F 
 14993              	.LASF1730:
 14994 4d7e 5F5A5374 		.ascii	"_ZSt4exp2e\000"
 14994      34657870 
 14994      326500
 14995              	.LASF1731:
 14996 4d89 5F5A5374 		.ascii	"_ZSt4exp2f\000"
 14996      34657870 
 14996      326600
 14997              	.LASF1016:
 14998 4d94 5F474C49 		.ascii	"_GLIBCXX20_CONSTEXPR \000"
 14998      42435858 
 14998      32305F43 
 14998      4F4E5354 
 14998      45585052 
 14999              	.LASF61:
 15000 4daa 5F5F494E 		.ascii	"__INT_FAST64_TYPE__ long long int\000"
 15000      545F4641 
 15000      53543634 
 15000      5F545950 
 15000      455F5F20 
 15001              	.LASF934:
 15002 4dcc 5F5F6E6F 		.ascii	"__noinline __attribute__ ((__noinline__))\000"
 15002      696E6C69 
 15002      6E65205F 
 15002      5F617474 
 15002      72696275 
 15003              	.LASF323:
 15004 4df6 5F5F4143 		.ascii	"__ACCUM_FBIT__ 15\000"
 15004      43554D5F 
 15004      46424954 
 15004      5F5F2031 
 15004      3500
 15005              	.LASF873:
 15006 4e08 5F5F6174 		.ascii	"__attribute_pure__ \000"
 15006      74726962 
 15006      7574655F 
 15006      70757265 
 15006      5F5F2000 
 15007              	.LASF753:
 15008 4e1c 5F484156 		.ascii	"_HAVE_LONG_DOUBLE 1\000"
 15008      455F4C4F 
ARM GAS  C:\Users\30806\AppData\Local\Temp\ccYcD1nI.s 			page 317


 15008      4E475F44 
 15008      4F55424C 
 15008      45203100 
 15009              	.LASF148:
 15010 4e30 5F5F494E 		.ascii	"__INT_LEAST64_MAX__ 0x7fffffffffffffffLL\000"
 15010      545F4C45 
 15010      41535436 
 15010      345F4D41 
 15010      585F5F20 
 15011              	.LASF8:
 15012 4e59 5F5F5645 		.ascii	"__VERSION__ \"10.3.1 20210824 (release)\"\000"
 15012      5253494F 
 15012      4E5F5F20 
 15012      2231302E 
 15012      332E3120 
 15013              	.LASF1006:
 15014 4e81 5F474C49 		.ascii	"_GLIBCXX_DEPRECATED __attribute__ ((__deprecated__)"
 15014      42435858 
 15014      5F444550 
 15014      52454341 
 15014      54454420 
 15015 4eb4 2900     		.ascii	")\000"
 15016              	.LASF416:
 15017 4eb6 5F5F4152 		.ascii	"__ARM_FEATURE_QBIT 1\000"
 15017      4D5F4645 
 15017      41545552 
 15017      455F5142 
 15017      49542031 
 15018              	.LASF1746:
 15019 4ecb 5F5A5374 		.ascii	"_ZSt6lgammae\000"
 15019      366C6761 
 15019      6D6D6165 
 15019      00
 15020              	.LASF1747:
 15021 4ed8 5F5A5374 		.ascii	"_ZSt6lgammaf\000"
 15021      366C6761 
 15021      6D6D6166 
 15021      00
 15022              	.LASF120:
 15023 4ee5 5F5F5749 		.ascii	"__WINT_WIDTH__ 32\000"
 15023      4E545F57 
 15023      49445448 
 15023      5F5F2033 
 15023      3200
 15024              	.LASF82:
 15025 4ef7 5F5F6370 		.ascii	"__cpp_attributes 200809L\000"
 15025      705F6174 
 15025      74726962 
 15025      75746573 
 15025      20323030 
 15026              	.LASF419:
 15027 4f10 5F5F4152 		.ascii	"__ARM_FEATURE_UNALIGNED 1\000"
 15027      4D5F4645 
 15027      41545552 
 15027      455F554E 
 15027      414C4947 
 15028              	.LASF316:
ARM GAS  C:\Users\30806\AppData\Local\Temp\ccYcD1nI.s 			page 318


 15029 4f2a 5F5F5341 		.ascii	"__SACCUM_MAX__ 0X7FFFP-7HK\000"
 15029      4343554D 
 15029      5F4D4158 
 15029      5F5F2030 
 15029      58374646 
 15030              	.LASF921:
 15031 4f45 5F5F7365 		.ascii	"__section(x) __attribute__((__section__(x)))\000"
 15031      6374696F 
 15031      6E287829 
 15031      205F5F61 
 15031      74747269 
 15032              	.LASF220:
 15033 4f72 5F5F4C44 		.ascii	"__LDBL_NORM_MAX__ 1.7976931348623157e+308L\000"
 15033      424C5F4E 
 15033      4F524D5F 
 15033      4D41585F 
 15033      5F20312E 
 15034              	.LASF1322:
 15035 4f9d 65787032 		.ascii	"exp2\000"
 15035      00
 15036              	.LASF324:
 15037 4fa2 5F5F4143 		.ascii	"__ACCUM_IBIT__ 16\000"
 15037      43554D5F 
 15037      49424954 
 15037      5F5F2031 
 15037      3600
 15038              	.LASF1017:
 15039 4fb4 5F474C49 		.ascii	"_GLIBCXX17_INLINE \000"
 15039      42435858 
 15039      31375F49 
 15039      4E4C494E 
 15039      452000
 15040              	.LASF1203:
 15041 4fc7 48554745 		.ascii	"HUGE_VALF (__builtin_huge_valf())\000"
 15041      5F56414C 
 15041      4620285F 
 15041      5F627569 
 15041      6C74696E 
 15042              	.LASF1520:
 15043 4fe9 4C4F4E47 		.ascii	"LONG_MAX __LONG_MAX__\000"
 15043      5F4D4158 
 15043      205F5F4C 
 15043      4F4E475F 
 15043      4D41585F 
 15044              	.LASF127:
 15045 4fff 5F5F494E 		.ascii	"__INTMAX_WIDTH__ 64\000"
 15045      544D4158 
 15045      5F574944 
 15045      54485F5F 
 15045      20363400 
 15046              	.LASF1718:
 15047 5013 5F5A5374 		.ascii	"_ZSt5asinhe\000"
 15047      35617369 
 15047      6E686500 
 15048              	.LASF1719:
 15049 501f 5F5A5374 		.ascii	"_ZSt5asinhf\000"
 15049      35617369 
ARM GAS  C:\Users\30806\AppData\Local\Temp\ccYcD1nI.s 			page 319


 15049      6E686600 
 15050              	.LASF1464:
 15051 502b 44454349 		.ascii	"DECIMAL_DIG __DECIMAL_DIG__\000"
 15051      4D414C5F 
 15051      44494720 
 15051      5F5F4445 
 15051      43494D41 
 15052              	.LASF428:
 15053 5047 5F5F4152 		.ascii	"__ARM_FEATURE_LDREX 7\000"
 15053      4D5F4645 
 15053      41545552 
 15053      455F4C44 
 15053      52455820 
 15054              	.LASF150:
 15055 505d 5F5F494E 		.ascii	"__INT_LEAST64_WIDTH__ 64\000"
 15055      545F4C45 
 15055      41535436 
 15055      345F5749 
 15055      4454485F 
 15056              	.LASF836:
 15057 5076 5F524545 		.ascii	"_REENT_RAND_NEXT(ptr) ((ptr)->_new._reent._rand_nex"
 15057      4E545F52 
 15057      414E445F 
 15057      4E455854 
 15057      28707472 
 15058 50a9 742900   		.ascii	"t)\000"
 15059              	.LASF489:
 15060 50ac 5F4E4557 		.ascii	"_NEWLIB_VERSION_H__ 1\000"
 15060      4C49425F 
 15060      56455253 
 15060      494F4E5F 
 15060      485F5F20 
 15061              	.LASF584:
 15062 50c2 55494E54 		.ascii	"UINTPTR_MAX (__UINTPTR_MAX__)\000"
 15062      5054525F 
 15062      4D415820 
 15062      285F5F55 
 15062      494E5450 
 15063              	.LASF786:
 15064 50e0 5F5F6E65 		.ascii	"__need_wint_t\000"
 15064      65645F77 
 15064      696E745F 
 15064      7400
 15065              	.LASF1530:
 15066 50ee 4633325F 		.ascii	"F32_MAX ((float32_t)FLT_MAX)\000"
 15066      4D415820 
 15066      2828666C 
 15066      6F617433 
 15066      325F7429 
 15067              	.LASF424:
 15068 510b 5F5F4152 		.ascii	"__ARM_32BIT_STATE 1\000"
 15068      4D5F3332 
 15068      4249545F 
 15068      53544154 
 15068      45203100 
 15069              	.LASF9:
 15070 511f 5F5F4154 		.ascii	"__ATOMIC_RELAXED 0\000"
ARM GAS  C:\Users\30806\AppData\Local\Temp\ccYcD1nI.s 			page 320


 15070      4F4D4943 
 15070      5F52454C 
 15070      41584544 
 15070      203000
 15071              	.LASF221:
 15072 5132 5F5F4C44 		.ascii	"__LDBL_MIN__ 2.2250738585072014e-308L\000"
 15072      424C5F4D 
 15072      494E5F5F 
 15072      20322E32 
 15072      32353037 
 15073              	.LASF1129:
 15074 5158 5F474C49 		.ascii	"_GLIBCXX_HAVE_STRERROR_R 1\000"
 15074      42435858 
 15074      5F484156 
 15074      455F5354 
 15074      52455252 
 15075              	.LASF589:
 15076 5173 494E545F 		.ascii	"INT_LEAST8_MAX (__INT_LEAST8_MAX__)\000"
 15076      4C454153 
 15076      54385F4D 
 15076      41582028 
 15076      5F5F494E 
 15077              	.LASF1690:
 15078 5197 5F5A5374 		.ascii	"_ZSt5isnand\000"
 15078      3569736E 
 15078      616E6400 
 15079              	.LASF1689:
 15080 51a3 5F5A5374 		.ascii	"_ZSt5isnane\000"
 15080      3569736E 
 15080      616E6500 
 15081              	.LASF1691:
 15082 51af 5F5A5374 		.ascii	"_ZSt5isnanf\000"
 15082      3569736E 
 15082      616E6600 
 15083              	.LASF742:
 15084 51bb 5F5F504B 		.ascii	"__PKHTB(ARG1,ARG2,ARG3) __extension__ ({ uint32_t _"
 15084      48544228 
 15084      41524731 
 15084      2C415247 
 15084      322C4152 
 15085 51ee 5F524553 		.ascii	"_RES, __ARG1 = (ARG1), __ARG2 = (ARG2); if (ARG3 =="
 15085      2C205F5F 
 15085      41524731 
 15085      203D2028 
 15085      41524731 
 15086 5221 20302920 		.ascii	" 0) __ASM (\"pkhtb %0, %1, %2\" : \"=r\" (__RES) : "
 15086      5F5F4153 
 15086      4D202822 
 15086      706B6874 
 15086      62202530 
 15087 5250 22722220 		.ascii	"\"r\" (__ARG1), \"r\" (__ARG2) ); else __ASM (\"pkh"
 15087      285F5F41 
 15087      52473129 
 15087      2C202272 
 15087      2220285F 
 15088 527e 74622025 		.ascii	"tb %0, %1, %2, asr %3\" : \"=r\" (__RES) : \"r\" (_"
 15088      302C2025 
ARM GAS  C:\Users\30806\AppData\Local\Temp\ccYcD1nI.s 			page 321


 15088      312C2025 
 15088      322C2061 
 15088      73722025 
 15089 52ac 5F415247 		.ascii	"_ARG1), \"r\" (__ARG2), \"I\" (ARG3) ); __RES; })\000"
 15089      31292C20 
 15089      22722220 
 15089      285F5F41 
 15089      52473229 
 15090              	.LASF460:
 15091 52da 5F5F5448 		.ascii	"__THUMB_INTERWORK__ 1\000"
 15091      554D425F 
 15091      494E5445 
 15091      52574F52 
 15091      4B5F5F20 
 15092              	.LASF267:
 15093 52f0 5F5F464C 		.ascii	"__FLT32X_MIN__ 2.2250738585072014e-308F32x\000"
 15093      54333258 
 15093      5F4D494E 
 15093      5F5F2032 
 15093      2E323235 
 15094              	.LASF510:
 15095 531b 5F5F504F 		.ascii	"__POSIX_VISIBLE 200809\000"
 15095      5349585F 
 15095      56495349 
 15095      424C4520 
 15095      32303038 
 15096              	.LASF1096:
 15097 5332 5F474C49 		.ascii	"_GLIBCXX_HAVE_ICONV 1\000"
 15097      42435858 
 15097      5F484156 
 15097      455F4943 
 15097      4F4E5620 
 15098              	.LASF491:
 15099 5348 5F5F4E45 		.ascii	"__NEWLIB__ 4\000"
 15099      574C4942 
 15099      5F5F2034 
 15099      00
 15100              	.LASF286:
 15101 5355 5F5F4652 		.ascii	"__FRACT_MAX__ 0X7FFFP-15R\000"
 15101      4143545F 
 15101      4D41585F 
 15101      5F203058 
 15101      37464646 
 15102              	.LASF939:
 15103 536f 5F5F7265 		.ascii	"__returns_twice __attribute__((__returns_twice__))\000"
 15103      7475726E 
 15103      735F7477 
 15103      69636520 
 15103      5F5F6174 
 15104              	.LASF1031:
 15105 53a2 5F474C49 		.ascii	"_GLIBCXX_END_NAMESPACE_CXX11 }\000"
 15105      42435858 
 15105      5F454E44 
 15105      5F4E414D 
 15105      45535041 
 15106              	.LASF840:
 15107 53c1 5F524545 		.ascii	"_REENT_MP_RESULT(ptr) ((ptr)->_result)\000"
ARM GAS  C:\Users\30806\AppData\Local\Temp\ccYcD1nI.s 			page 322


 15107      4E545F4D 
 15107      505F5245 
 15107      53554C54 
 15107      28707472 
 15108              	.LASF174:
 15109 53e8 5F5F4743 		.ascii	"__GCC_IEC_559 0\000"
 15109      435F4945 
 15109      435F3535 
 15109      39203000 
 15110              	.LASF1061:
 15111 53f8 5F474C49 		.ascii	"_GLIBCXX_TXN_SAFE \000"
 15111      42435858 
 15111      5F54584E 
 15111      5F534146 
 15111      452000
 15112              	.LASF1400:
 15113 540b 7467616D 		.ascii	"tgammal\000"
 15113      6D616C00 
 15114              	.LASF268:
 15115 5413 5F5F464C 		.ascii	"__FLT32X_EPSILON__ 2.2204460492503131e-16F32x\000"
 15115      54333258 
 15115      5F455053 
 15115      494C4F4E 
 15115      5F5F2032 
 15116              	.LASF1817:
 15117 5441 6465636C 		.ascii	"decltype(nullptr)\000"
 15117      74797065 
 15117      286E756C 
 15117      6C707472 
 15117      2900
 15118              	.LASF1788:
 15119 5453 74686973 		.ascii	"this\000"
 15119      00
 15120              	.LASF736:
 15121 5458 5F5F424B 		.ascii	"__BKPT(value) __ASM volatile (\"bkpt \"#value)\000"
 15121      50542876 
 15121      616C7565 
 15121      29205F5F 
 15121      41534D20 
 15122              	.LASF1181:
 15123 5485 5F474C49 		.ascii	"_GLIBCXX_USE_C99_INTTYPES_TR1 1\000"
 15123      42435858 
 15123      5F555345 
 15123      5F433939 
 15123      5F494E54 
 15124              	.LASF1290:
 15125 54a5 6670636C 		.ascii	"fpclassify\000"
 15125      61737369 
 15125      667900
 15126              	.LASF1486:
 15127 54b0 4C494E45 		.ascii	"LINE_MAX 2048\000"
 15127      5F4D4158 
 15127      20323034 
 15127      3800
 15128              	.LASF1367:
 15129 54be 6C726F75 		.ascii	"lroundf\000"
 15129      6E646600 
ARM GAS  C:\Users\30806\AppData\Local\Temp\ccYcD1nI.s 			page 323


 15130              	.LASF1437:
 15131 54c6 464C545F 		.ascii	"FLT_MAX_10_EXP\000"
 15131      4D41585F 
 15131      31305F45 
 15131      585000
 15132              	.LASF858:
 15133 54d5 5F524545 		.ascii	"_REENT_GETDATE_ERR_P(ptr) (&((ptr)->_new._reent._ge"
 15133      4E545F47 
 15133      45544441 
 15133      54455F45 
 15133      52525F50 
 15134 5508 74646174 		.ascii	"tdate_err))\000"
 15134      655F6572 
 15134      72292900 
 15135              	.LASF1722:
 15136 5514 5F5A5374 		.ascii	"_ZSt4cbrte\000"
 15136      34636272 
 15136      746500
 15137              	.LASF1723:
 15138 551f 5F5A5374 		.ascii	"_ZSt4cbrtf\000"
 15138      34636272 
 15138      746600
 15139              	.LASF1565:
 15140 552a 5F53494D 		.ascii	"_SIMD32_OFFSET(addr) (*(__SIMD32_TYPE * ) (addr))\000"
 15140      4433325F 
 15140      4F464653 
 15140      45542861 
 15140      64647229 
 15141              	.LASF569:
 15142 555c 5F5F696E 		.ascii	"__int64_t_defined 1\000"
 15142      7436345F 
 15142      745F6465 
 15142      66696E65 
 15142      64203100 
 15143              	.LASF878:
 15144 5570 5F5F7074 		.ascii	"__ptrvalue \000"
 15144      7276616C 
 15144      75652000 
 15145              	.LASF573:
 15146 557c 5F55494E 		.ascii	"_UINTPTR_T_DECLARED \000"
 15146      54505452 
 15146      5F545F44 
 15146      45434C41 
 15146      52454420 
 15147              	.LASF1519:
 15148 5591 4C4F4E47 		.ascii	"LONG_MAX\000"
 15148      5F4D4158 
 15148      00
 15149              	.LASF794:
 15150 559a 5F4E554C 		.ascii	"_NULL 0\000"
 15150      4C203000 
 15151              	.LASF481:
 15152 55a2 5F5F4D41 		.ascii	"__MATHS_H \000"
 15152      5448535F 
 15152      482000
 15153              	.LASF1518:
 15154 55ad 4C4F4E47 		.ascii	"LONG_MIN (-LONG_MAX - 1L)\000"
ARM GAS  C:\Users\30806\AppData\Local\Temp\ccYcD1nI.s 			page 324


 15154      5F4D494E 
 15154      20282D4C 
 15154      4F4E475F 
 15154      4D415820 
 15155              	.LASF680:
 15156 55c7 5F5F7763 		.ascii	"__wchar_t__ \000"
 15156      6861725F 
 15156      745F5F20 
 15156      00
 15157              	.LASF1407:
 15158 55d4 464C545F 		.ascii	"FLT_MANT_DIG\000"
 15158      4D414E54 
 15158      5F444947 
 15158      00
 15159              	.LASF1154:
 15160 55e1 5F474C49 		.ascii	"_GLIBCXX_PACKAGE_BUGREPORT \"\"\000"
 15160      42435858 
 15160      5F504143 
 15160      4B414745 
 15160      5F425547 
 15161              	.LASF795:
 15162 55ff 5F5F4C6F 		.ascii	"__Long long\000"
 15162      6E67206C 
 15162      6F6E6700 
 15163              	.LASF1245:
 15164 560b 4D5F315F 		.ascii	"M_1_PI 0.31830988618379067154\000"
 15164      50492030 
 15164      2E333138 
 15164      33303938 
 15164      38363138 
 15165              	.LASF992:
 15166 5629 5F5F7074 		.ascii	"__pt_guarded_by(x) __lock_annotate(pt_guarded_by(x)"
 15166      5F677561 
 15166      72646564 
 15166      5F627928 
 15166      7829205F 
 15167 565c 2900     		.ascii	")\000"
 15168              	.LASF694:
 15169 565e 5F574348 		.ascii	"_WCHAR_T_DECLARED \000"
 15169      41525F54 
 15169      5F444543 
 15169      4C415245 
 15169      442000
 15170              	.LASF922:
 15171 5671 5F5F616C 		.ascii	"__alloc_size(x) __attribute__((__alloc_size__(x)))\000"
 15171      6C6F635F 
 15171      73697A65 
 15171      28782920 
 15171      5F5F6174 
 15172              	.LASF832:
 15173 56a4 5F524545 		.ascii	"_REENT_CHECK_EMERGENCY(ptr) \000"
 15173      4E545F43 
 15173      4845434B 
 15173      5F454D45 
 15173      5247454E 
 15174              	.LASF759:
 15175 56c1 5F554E42 		.ascii	"_UNBUF_STREAM_OPT 1\000"
ARM GAS  C:\Users\30806\AppData\Local\Temp\ccYcD1nI.s 			page 325


 15175      55465F53 
 15175      54524541 
 15175      4D5F4F50 
 15175      54203100 
 15176              	.LASF475:
 15177 56d5 5F5F4152 		.ascii	"__ARM_BF16_FORMAT_ALTERNATIVE\000"
 15177      4D5F4246 
 15177      31365F46 
 15177      4F524D41 
 15177      545F414C 
 15178              	.LASF959:
 15179 56f3 5F5F7379 		.ascii	"__sym_compat(sym,impl,verid) __asm__(\".symver \" #"
 15179      6D5F636F 
 15179      6D706174 
 15179      2873796D 
 15179      2C696D70 
 15180 5724 696D706C 		.ascii	"impl \", \" #sym \"@\" #verid)\000"
 15180      20222C20 
 15180      22202373 
 15180      796D2022 
 15180      40222023 
 15181              	.LASF141:
 15182 573f 5F5F494E 		.ascii	"__INT_LEAST8_WIDTH__ 8\000"
 15182      545F4C45 
 15182      41535438 
 15182      5F574944 
 15182      54485F5F 
 15183              	.LASF5:
 15184 5756 5F5F474E 		.ascii	"__GNUC__ 10\000"
 15184      55435F5F 
 15184      20313000 
 15185              	.LASF1274:
 15186 5762 61636F73 		.ascii	"acos\000"
 15186      00
 15187              	.LASF1132:
 15188 5767 5F474C49 		.ascii	"_GLIBCXX_HAVE_STRTOF 1\000"
 15188      42435858 
 15188      5F484156 
 15188      455F5354 
 15188      52544F46 
 15189              	.LASF1183:
 15190 577e 5F474C49 		.ascii	"_GLIBCXX_USE_C99_MATH_TR1 1\000"
 15190      42435858 
 15190      5F555345 
 15190      5F433939 
 15190      5F4D4154 
 15191              	.LASF1758:
 15192 579a 5F5A5374 		.ascii	"_ZSt5lrinte\000"
 15192      356C7269 
 15192      6E746500 
 15193              	.LASF1759:
 15194 57a6 5F5A5374 		.ascii	"_ZSt5lrintf\000"
 15194      356C7269 
 15194      6E746600 
 15195              	.LASF998:
 15196 57b2 5F474C49 		.ascii	"_GLIBCXX_RELEASE 10\000"
 15196      42435858 
ARM GAS  C:\Users\30806\AppData\Local\Temp\ccYcD1nI.s 			page 326


 15196      5F52454C 
 15196      45415345 
 15196      20313000 
 15197              	.LASF1217:
 15198 57c6 4D415448 		.ascii	"MATH_ERRNO 1\000"
 15198      5F455252 
 15198      4E4F2031 
 15198      00
 15199              	.LASF59:
 15200 57d3 5F5F494E 		.ascii	"__INT_FAST16_TYPE__ int\000"
 15200      545F4641 
 15200      53543136 
 15200      5F545950 
 15200      455F5F20 
 15201              	.LASF592:
 15202 57eb 494E5431 		.ascii	"INT16_MAX (__INT16_MAX__)\000"
 15202      365F4D41 
 15202      5820285F 
 15202      5F494E54 
 15202      31365F4D 
 15203              	.LASF1406:
 15204 5805 464C545F 		.ascii	"FLT_RADIX __FLT_RADIX__\000"
 15204      52414449 
 15204      58205F5F 
 15204      464C545F 
 15204      52414449 
 15205              	.LASF147:
 15206 581d 5F5F494E 		.ascii	"__INT_LEAST32_WIDTH__ 32\000"
 15206      545F4C45 
 15206      41535433 
 15206      325F5749 
 15206      4454485F 
 15207              	.LASF1280:
 15208 5836 66616273 		.ascii	"fabs\000"
 15208      00
 15209              	.LASF1473:
 15210 583b 4D41585F 		.ascii	"MAX_INPUT 255\000"
 15210      494E5055 
 15210      54203235 
 15210      3500
 15211              	.LASF372:
 15212 5849 5F5F5554 		.ascii	"__UTQ_IBIT__ 0\000"
 15212      515F4942 
 15212      49545F5F 
 15212      203000
 15213              	.LASF551:
 15214 5858 5F5F4641 		.ascii	"__FAST32 \000"
 15214      53543332 
 15214      2000
 15215              	.LASF301:
 15216 5862 5F5F554C 		.ascii	"__ULFRACT_MAX__ 0XFFFFFFFFP-32ULR\000"
 15216      46524143 
 15216      545F4D41 
 15216      585F5F20 
 15216      30584646 
 15217              	.LASF1789:
 15218 5884 63757272 		.ascii	"current_val\000"
ARM GAS  C:\Users\30806\AppData\Local\Temp\ccYcD1nI.s 			page 327


 15218      656E745F 
 15218      76616C00 
 15219              	.LASF413:
 15220 5890 5F5F5349 		.ascii	"__SIZEOF_WINT_T__ 4\000"
 15220      5A454F46 
 15220      5F57494E 
 15220      545F545F 
 15220      5F203400 
 15221              	.LASF1293:
 15222 58a4 69736E61 		.ascii	"isnan\000"
 15222      6E00
 15223              	.LASF1546:
 15224 58aa 5133315F 		.ascii	"Q31_ABSMIN ((q31_t)0)\000"
 15224      4142534D 
 15224      494E2028 
 15224      28713331 
 15224      5F742930 
 15225              	.LASF1798:
 15226 58c0 636F735F 		.ascii	"cos_angle\000"
 15226      616E676C 
 15226      6500
 15227              	.LASF257:
 15228 58ca 5F5F464C 		.ascii	"__FLT64_HAS_QUIET_NAN__ 1\000"
 15228      5436345F 
 15228      4841535F 
 15228      51554945 
 15228      545F4E41 
 15229              	.LASF1155:
 15230 58e4 5F474C49 		.ascii	"_GLIBCXX_PACKAGE_NAME \"package-unused\"\000"
 15230      42435858 
 15230      5F504143 
 15230      4B414745 
 15230      5F4E414D 
 15231              	.LASF1738:
 15232 590b 5F5A5374 		.ascii	"_ZSt4fmaxee\000"
 15232      34666D61 
 15232      78656500 
 15233              	.LASF1459:
 15234 5917 44424C5F 		.ascii	"DBL_MIN __DBL_MIN__\000"
 15234      4D494E20 
 15234      5F5F4442 
 15234      4C5F4D49 
 15234      4E5F5F00 
 15235              	.LASF417:
 15236 592b 5F5F4152 		.ascii	"__ARM_FEATURE_SAT 1\000"
 15236      4D5F4645 
 15236      41545552 
 15236      455F5341 
 15236      54203100 
 15237              	.LASF468:
 15238 593f 5F5F4152 		.ascii	"__ARM_FEATURE_COPROC\000"
 15238      4D5F4645 
 15238      41545552 
 15238      455F434F 
 15238      50524F43 
 15239              	.LASF1339:
 15240 5954 6879706F 		.ascii	"hypot\000"
ARM GAS  C:\Users\30806\AppData\Local\Temp\ccYcD1nI.s 			page 328


 15240      7400
 15241              	.LASF105:
 15242 595a 5F5F494E 		.ascii	"__INT_MAX__ 0x7fffffff\000"
 15242      545F4D41 
 15242      585F5F20 
 15242      30783766 
 15242      66666666 
 15243              	.LASF1600:
 15244 5971 6D61785F 		.ascii	"max_abs\000"
 15244      61627300 
 15245              	.LASF1452:
 15246 5979 464C545F 		.ascii	"FLT_EPSILON __FLT_EPSILON__\000"
 15246      45505349 
 15246      4C4F4E20 
 15246      5F5F464C 
 15246      545F4550 
 15247              	.LASF1022:
 15248 5995 5F474C49 		.ascii	"_GLIBCXX_NOTHROW _GLIBCXX_USE_NOEXCEPT\000"
 15248      42435858 
 15248      5F4E4F54 
 15248      48524F57 
 15248      205F474C 
 15249              	.LASF187:
 15250 59bc 5F5F464C 		.ascii	"__FLT_MAX__ 3.4028234663852886e+38F\000"
 15250      545F4D41 
 15250      585F5F20 
 15250      332E3430 
 15250      32383233 
 15251              	.LASF102:
 15252 59e0 5F5F4758 		.ascii	"__GXX_ABI_VERSION 1014\000"
 15252      585F4142 
 15252      495F5645 
 15252      5253494F 
 15252      4E203130 
 15253              	.LASF50:
 15254 59f7 5F5F494E 		.ascii	"__INT_LEAST8_TYPE__ signed char\000"
 15254      545F4C45 
 15254      41535438 
 15254      5F545950 
 15254      455F5F20 
 15255              	.LASF684:
 15256 5a17 5F545F57 		.ascii	"_T_WCHAR \000"
 15256      43484152 
 15256      2000
 15257              	.LASF719:
 15258 5a21 5F5F554E 		.ascii	"__UNALIGNED_UINT32_WRITE(addr,val) (void)((((struct"
 15258      414C4947 
 15258      4E45445F 
 15258      55494E54 
 15258      33325F57 
 15259 5a54 20545F55 		.ascii	" T_UINT32_WRITE *)(void *)(addr))->v) = (val))\000"
 15259      494E5433 
 15259      325F5752 
 15259      49544520 
 15259      2A292876 
 15260              	.LASF1225:
 15261 5a83 69736E61 		.ascii	"isnan(__x) (__builtin_isnan (__x))\000"
ARM GAS  C:\Users\30806\AppData\Local\Temp\ccYcD1nI.s 			page 329


 15261      6E285F5F 
 15261      78292028 
 15261      5F5F6275 
 15261      696C7469 
 15262              	.LASF293:
 15263 5aa6 5F5F4C46 		.ascii	"__LFRACT_FBIT__ 31\000"
 15263      52414354 
 15263      5F464249 
 15263      545F5F20 
 15263      333100
 15264              	.LASF605:
 15265 5ab9 55494E54 		.ascii	"UINT64_MAX (__UINT64_MAX__)\000"
 15265      36345F4D 
 15265      41582028 
 15265      5F5F5549 
 15265      4E543634 
 15266              	.LASF444:
 15267 5ad5 5F5F4152 		.ascii	"__ARM_ARCH_ISA_THUMB\000"
 15267      4D5F4152 
 15267      43485F49 
 15267      53415F54 
 15267      48554D42 
 15268              	.LASF412:
 15269 5aea 5F5F5349 		.ascii	"__SIZEOF_WCHAR_T__ 4\000"
 15269      5A454F46 
 15269      5F574348 
 15269      41525F54 
 15269      5F5F2034 
 15270              	.LASF321:
 15271 5aff 5F5F5553 		.ascii	"__USACCUM_MAX__ 0XFFFFP-8UHK\000"
 15271      41434355 
 15271      4D5F4D41 
 15271      585F5F20 
 15271      30584646 
 15272              	.LASF1796:
 15273 5b1c 616E676C 		.ascii	"angle\000"
 15273      6500
 15274              	.LASF1055:
 15275 5b22 5F474C49 		.ascii	"_GLIBCXX_OS_DEFINES 1\000"
 15275      42435858 
 15275      5F4F535F 
 15275      44454649 
 15275      4E455320 
 15276              	.LASF585:
 15277 5b38 494E5438 		.ascii	"INT8_MIN (-__INT8_MAX__ - 1)\000"
 15277      5F4D494E 
 15277      20282D5F 
 15277      5F494E54 
 15277      385F4D41 
 15278              	.LASF686:
 15279 5b55 5F574348 		.ascii	"_WCHAR_T_ \000"
 15279      41525F54 
 15279      5F2000
 15280              	.LASF145:
 15281 5b60 5F5F494E 		.ascii	"__INT_LEAST32_MAX__ 0x7fffffffL\000"
 15281      545F4C45 
 15281      41535433 
ARM GAS  C:\Users\30806\AppData\Local\Temp\ccYcD1nI.s 			page 330


 15281      325F4D41 
 15281      585F5F20 
 15282              	.LASF1120:
 15283 5b80 5F474C49 		.ascii	"_GLIBCXX_HAVE_READLINK 1\000"
 15283      42435858 
 15283      5F484156 
 15283      455F5245 
 15283      41444C49 
 15284              	.LASF1392:
 15285 5b99 7363616C 		.ascii	"scalbln\000"
 15285      626C6E00 
 15286              	.LASF1750:
 15287 5ba1 5F5A5374 		.ascii	"_ZSt7llrounde\000"
 15287      376C6C72 
 15287      6F756E64 
 15287      6500
 15288              	.LASF1751:
 15289 5baf 5F5A5374 		.ascii	"_ZSt7llroundf\000"
 15289      376C6C72 
 15289      6F756E64 
 15289      6600
 15290              	.LASF1187:
 15291 5bbd 5F474C49 		.ascii	"_GLIBCXX_USE_GETTIMEOFDAY 1\000"
 15291      42435858 
 15291      5F555345 
 15291      5F474554 
 15291      54494D45 
 15292              	.LASF890:
 15293 5bd9 5F5F474E 		.ascii	"__GNUCLIKE_BUILTIN_VARARGS 1\000"
 15293      55434C49 
 15293      4B455F42 
 15293      55494C54 
 15293      494E5F56 
 15294              	.LASF638:
 15295 5bf6 55494E54 		.ascii	"UINT32_C(x) __UINT32_C(x)\000"
 15295      33325F43 
 15295      28782920 
 15295      5F5F5549 
 15295      4E543332 
 15296              	.LASF869:
 15297 5c10 5F5F4153 		.ascii	"__ASMNAME(cname) __XSTRING (__USER_LABEL_PREFIX__) "
 15297      4D4E414D 
 15297      4528636E 
 15297      616D6529 
 15297      205F5F58 
 15298 5c43 636E616D 		.ascii	"cname\000"
 15298      6500
 15299              	.LASF929:
 15300 5c49 5F546872 		.ascii	"_Thread_local __thread\000"
 15300      6561645F 
 15300      6C6F6361 
 15300      6C205F5F 
 15300      74687265 
 15301              	.LASF322:
 15302 5c60 5F5F5553 		.ascii	"__USACCUM_EPSILON__ 0x1P-8UHK\000"
 15302      41434355 
 15302      4D5F4550 
ARM GAS  C:\Users\30806\AppData\Local\Temp\ccYcD1nI.s 			page 331


 15302      53494C4F 
 15302      4E5F5F20 
 15303              	.LASF522:
 15304 5c7e 5F5F5F69 		.ascii	"___int_least16_t_defined 1\000"
 15304      6E745F6C 
 15304      65617374 
 15304      31365F74 
 15304      5F646566 
 15305              	.LASF72:
 15306 5c99 5F5F6370 		.ascii	"__cpp_hex_float 201603L\000"
 15306      705F6865 
 15306      785F666C 
 15306      6F617420 
 15306      32303136 
 15307              	.LASF347:
 15308 5cb1 5F5F4C4C 		.ascii	"__LLACCUM_EPSILON__ 0x1P-31LLK\000"
 15308      41434355 
 15308      4D5F4550 
 15308      53494C4F 
 15308      4E5F5F20 
 15309              	.LASF282:
 15310 5cd0 5F5F5553 		.ascii	"__USFRACT_EPSILON__ 0x1P-8UHR\000"
 15310      46524143 
 15310      545F4550 
 15310      53494C4F 
 15310      4E5F5F20 
 15311              	.LASF223:
 15312 5cee 5F5F4C44 		.ascii	"__LDBL_DENORM_MIN__ 4.9406564584124654e-324L\000"
 15312      424C5F44 
 15312      454E4F52 
 15312      4D5F4D49 
 15312      4E5F5F20 
 15313              	.LASF124:
 15314 5d1b 5F5F494E 		.ascii	"__INTMAX_C(c) c ## LL\000"
 15314      544D4158 
 15314      5F432863 
 15314      29206320 
 15314      2323204C 
 15315              	.LASF335:
 15316 5d31 5F5F4C41 		.ascii	"__LACCUM_MIN__ (-0X1P31LK-0X1P31LK)\000"
 15316      4343554D 
 15316      5F4D494E 
 15316      5F5F2028 
 15316      2D305831 
 15317              	.LASF168:
 15318 5d55 5F5F5549 		.ascii	"__UINT_FAST16_MAX__ 0xffffffffU\000"
 15318      4E545F46 
 15318      41535431 
 15318      365F4D41 
 15318      585F5F20 
 15319              	.LASF465:
 15320 5d75 5F5F4152 		.ascii	"__ARM_ARCH_EXT_IDIV__ 1\000"
 15320      4D5F4152 
 15320      43485F45 
 15320      58545F49 
 15320      4449565F 
 15321              	.LASF65:
ARM GAS  C:\Users\30806\AppData\Local\Temp\ccYcD1nI.s 			page 332


 15322 5d8d 5F5F5549 		.ascii	"__UINT_FAST64_TYPE__ long long unsigned int\000"
 15322      4E545F46 
 15322      41535436 
 15322      345F5459 
 15322      50455F5F 
 15323              	.LASF1314:
 15324 5db9 636F7079 		.ascii	"copysign\000"
 15324      7369676E 
 15324      00
 15325              	.LASF612:
 15326 5dc2 494E545F 		.ascii	"INT_FAST16_MIN (-__INT_FAST16_MAX__ - 1)\000"
 15326      46415354 
 15326      31365F4D 
 15326      494E2028 
 15326      2D5F5F49 
 15327              	.LASF1140:
 15328 5deb 5F474C49 		.ascii	"_GLIBCXX_HAVE_TANF 1\000"
 15328      42435858 
 15328      5F484156 
 15328      455F5441 
 15328      4E462031 
 15329              	.LASF1191:
 15330 5e00 5F474C49 		.ascii	"_GLIBCXX_USE_TMPNAM 1\000"
 15330      42435858 
 15330      5F555345 
 15330      5F544D50 
 15330      4E414D20 
 15331              	.LASF1541:
 15332 5e16 5131355F 		.ascii	"Q15_MIN ((q15_t)(0x8000))\000"
 15332      4D494E20 
 15332      28287131 
 15332      355F7429 
 15332      28307838 
 15333              	.LASF1785:
 15334 5e30 666C6F61 		.ascii	"float_t\000"
 15334      745F7400 
 15335              	.LASF702:
 15336 5e38 5F475858 		.ascii	"_GXX_NULLPTR_T \000"
 15336      5F4E554C 
 15336      4C505452 
 15336      5F542000 
 15337              	.LASF928:
 15338 5e48 5F537461 		.ascii	"_Static_assert(x,y) static_assert(x, y)\000"
 15338      7469635F 
 15338      61737365 
 15338      72742878 
 15338      2C792920 
 15339              	.LASF979:
 15340 5e70 5F5F6C6F 		.ascii	"__locks_shared(...) __lock_annotate(shared_lock_fun"
 15340      636B735F 
 15340      73686172 
 15340      6564282E 
 15340      2E2E2920 
 15341 5ea3 6374696F 		.ascii	"ction(__VA_ARGS__))\000"
 15341      6E285F5F 
 15341      56415F41 
 15341      5247535F 
ARM GAS  C:\Users\30806\AppData\Local\Temp\ccYcD1nI.s 			page 333


 15341      5F292900 
 15342              	.LASF292:
 15343 5eb7 5F5F5546 		.ascii	"__UFRACT_EPSILON__ 0x1P-16UR\000"
 15343      52414354 
 15343      5F455053 
 15343      494C4F4E 
 15343      5F5F2030 
 15344              	.LASF1178:
 15345 5ed4 5F474C49 		.ascii	"_GLIBCXX_STDIO_SEEK_END 2\000"
 15345      42435858 
 15345      5F535444 
 15345      494F5F53 
 15345      45454B5F 
 15346              	.LASF113:
 15347 5eee 5F5F5349 		.ascii	"__SIZE_MAX__ 0xffffffffU\000"
 15347      5A455F4D 
 15347      41585F5F 
 15347      20307866 
 15347      66666666 
 15348              	.LASF1347:
 15349 5f07 6C67616D 		.ascii	"lgammal\000"
 15349      6D616C00 
 15350              	.LASF817:
 15351 5f0f 5F52414E 		.ascii	"_RAND48_MULT_0 (0xe66d)\000"
 15351      4434385F 
 15351      4D554C54 
 15351      5F302028 
 15351      30786536 
 15352              	.LASF23:
 15353 5f27 5F5F5349 		.ascii	"__SIZEOF_SIZE_T__ 4\000"
 15353      5A454F46 
 15353      5F53495A 
 15353      455F545F 
 15353      5F203400 
 15354              	.LASF1254:
 15355 5f3b 4D5F4C4E 		.ascii	"M_LN2HI 6.9314718036912381649E-1\000"
 15355      32484920 
 15355      362E3933 
 15355      31343731 
 15355      38303336 
 15356              	.LASF729:
 15357 5f5c 5F5F434D 		.ascii	"__CMSIS_GCC_OUT_REG(r) \"=r\" (r)\000"
 15357      5349535F 
 15357      4743435F 
 15357      4F55545F 
 15357      52454728 
 15358              	.LASF846:
 15359 5f7c 5F524545 		.ascii	"_REENT_EMERGENCY(ptr) ((ptr)->_emergency)\000"
 15359      4E545F45 
 15359      4D455247 
 15359      454E4359 
 15359      28707472 
 15360              	.LASF185:
 15361 5fa6 5F5F464C 		.ascii	"__FLT_MAX_10_EXP__ 38\000"
 15361      545F4D41 
 15361      585F3130 
 15361      5F455850 
ARM GAS  C:\Users\30806\AppData\Local\Temp\ccYcD1nI.s 			page 334


 15361      5F5F2033 
 15362              	.LASF1420:
 15363 5fbc 44424C5F 		.ascii	"DBL_MIN_EXP\000"
 15363      4D494E5F 
 15363      45585000 
 15364              	.LASF1532:
 15365 5fc8 4633325F 		.ascii	"F32_MIN (-FLT_MAX)\000"
 15365      4D494E20 
 15365      282D464C 
 15365      545F4D41 
 15365      582900
 15366              	.LASF1705:
 15367 5fdb 5F5A5374 		.ascii	"_ZSt6islessdd\000"
 15367      3669736C 
 15367      65737364 
 15367      6400
 15368              	.LASF167:
 15369 5fe9 5F5F5549 		.ascii	"__UINT_FAST8_MAX__ 0xffffffffU\000"
 15369      4E545F46 
 15369      41535438 
 15369      5F4D4158 
 15369      5F5F2030 
 15370              	.LASF860:
 15371 6008 5F4B6D61 		.ascii	"_Kmax (sizeof (size_t) << 3)\000"
 15371      78202873 
 15371      697A656F 
 15371      66202873 
 15371      697A655F 
 15372              	.LASF862:
 15373 6025 5F524545 		.ascii	"_REENT _impure_ptr\000"
 15373      4E54205F 
 15373      696D7075 
 15373      72655F70 
 15373      747200
 15374              	.LASF850:
 15375 6038 5F524545 		.ascii	"_REENT_WCTOMB_STATE(ptr) ((ptr)->_new._reent._wctom"
 15375      4E545F57 
 15375      43544F4D 
 15375      425F5354 
 15375      41544528 
 15376 606b 625F7374 		.ascii	"b_state)\000"
 15376      61746529 
 15376      00
 15377              	.LASF636:
 15378 6074 55494E54 		.ascii	"UINT16_C(x) __UINT16_C(x)\000"
 15378      31365F43 
 15378      28782920 
 15378      5F5F5549 
 15378      4E543136 
 15379              	.LASF1576:
 15380 608e 4C4F575F 		.ascii	"LOW_OPTIMIZATION_ENTER __attribute__(( optimize(\"-"
 15380      4F505449 
 15380      4D495A41 
 15380      54494F4E 
 15380      5F454E54 
 15381 60c0 4F312229 		.ascii	"O1\") ))\000"
 15381      20292900 
ARM GAS  C:\Users\30806\AppData\Local\Temp\ccYcD1nI.s 			page 335


 15382              	.LASF358:
 15383 60c8 5F5F5351 		.ascii	"__SQ_IBIT__ 0\000"
 15383      5F494249 
 15383      545F5F20 
 15383      3000
 15384              	.LASF800:
 15385 60d6 5F5F6C6F 		.ascii	"__lock_init(lock) __retarget_lock_init(&lock)\000"
 15385      636B5F69 
 15385      6E697428 
 15385      6C6F636B 
 15385      29205F5F 
 15386              	.LASF1561:
 15387 6104 434D504C 		.ascii	"CMPLX_DIM 2\000"
 15387      585F4449 
 15387      4D203200 
 15388              	.LASF1374:
 15389 6110 6E657874 		.ascii	"nextafter\000"
 15389      61667465 
 15389      7200
 15390              	.LASF699:
 15391 611a 5F5F6E65 		.ascii	"__need_NULL\000"
 15391      65645F4E 
 15391      554C4C00 
 15392              	.LASF700:
 15393 6126 6F666673 		.ascii	"offsetof(TYPE,MEMBER) __builtin_offsetof (TYPE, MEM"
 15393      65746F66 
 15393      28545950 
 15393      452C4D45 
 15393      4D424552 
 15394 6159 42455229 		.ascii	"BER)\000"
 15394      00
 15395              	.LASF366:
 15396 615e 5F5F5548 		.ascii	"__UHQ_IBIT__ 0\000"
 15396      515F4942 
 15396      49545F5F 
 15396      203000
 15397              	.LASF793:
 15398 616d 5F54494D 		.ascii	"_TIMER_T_ unsigned long\000"
 15398      45525F54 
 15398      5F20756E 
 15398      7369676E 
 15398      6564206C 
 15399              	.LASF919:
 15400 6185 5F5F7061 		.ascii	"__packed __attribute__((__packed__))\000"
 15400      636B6564 
 15400      205F5F61 
 15400      74747269 
 15400      62757465 
 15401              	.LASF967:
 15402 61aa 5F5F4445 		.ascii	"__DEVOLATILE(type,var) ((type)(__uintptr_t)(volatil"
 15402      564F4C41 
 15402      54494C45 
 15402      28747970 
 15402      652C7661 
 15403 61dd 6520766F 		.ascii	"e void *)(var))\000"
 15403      6964202A 
 15403      29287661 
ARM GAS  C:\Users\30806\AppData\Local\Temp\ccYcD1nI.s 			page 336


 15403      72292900 
 15404              	.LASF1396:
 15405 61ed 7363616C 		.ascii	"scalbnf\000"
 15405      626E6600 
 15406              	.LASF275:
 15407 61f5 5F5F5346 		.ascii	"__SFRACT_MIN__ (-0.5HR-0.5HR)\000"
 15407      52414354 
 15407      5F4D494E 
 15407      5F5F2028 
 15407      2D302E35 
 15408              	.LASF442:
 15409 6213 5F5F7468 		.ascii	"__thumb2__ 1\000"
 15409      756D6232 
 15409      5F5F2031 
 15409      00
 15410              	.LASF395:
 15411 6220 5F5F4743 		.ascii	"__GCC_HAVE_SYNC_COMPARE_AND_SWAP_1 1\000"
 15411      435F4841 
 15411      56455F53 
 15411      594E435F 
 15411      434F4D50 
 15412              	.LASF580:
 15413 6245 5F5F696E 		.ascii	"__int_fast32_t_defined 1\000"
 15413      745F6661 
 15413      73743332 
 15413      5F745F64 
 15413      6566696E 
 15414              	.LASF333:
 15415 625e 5F5F4C41 		.ascii	"__LACCUM_FBIT__ 31\000"
 15415      4343554D 
 15415      5F464249 
 15415      545F5F20 
 15415      333100
 15416              	.LASF1093:
 15417 6271 5F474C49 		.ascii	"_GLIBCXX_HAVE_GETIPINFO 1\000"
 15417      42435858 
 15417      5F484156 
 15417      455F4745 
 15417      54495049 
 15418              	.LASF1621:
 15419 628b 5F5A4E31 		.ascii	"_ZN12user_maths_c15limiting_filterEfff\000"
 15419      32757365 
 15419      725F6D61 
 15419      7468735F 
 15419      6331356C 
 15420              	.LASF74:
 15421 62b2 5F5F6370 		.ascii	"__cpp_unicode_characters 200704L\000"
 15421      705F756E 
 15421      69636F64 
 15421      655F6368 
 15421      61726163 
 15422              	.LASF1062:
 15423 62d3 5F474C49 		.ascii	"_GLIBCXX_TXN_SAFE_DYN \000"
 15423      42435858 
 15423      5F54584E 
 15423      5F534146 
 15423      455F4459 
ARM GAS  C:\Users\30806\AppData\Local\Temp\ccYcD1nI.s 			page 337


 15424              	.LASF1126:
 15425 62ea 5F474C49 		.ascii	"_GLIBCXX_HAVE_STDBOOL_H 1\000"
 15425      42435858 
 15425      5F484156 
 15425      455F5354 
 15425      44424F4F 
 15426              	.LASF782:
 15427 6304 5F535953 		.ascii	"_SYS__TYPES_H \000"
 15427      5F5F5459 
 15427      5045535F 
 15427      482000
 15428              	.LASF1704:
 15429 6313 5F5A5374 		.ascii	"_ZSt6islessee\000"
 15429      3669736C 
 15429      65737365 
 15429      6500
 15430              	.LASF725:
 15431 6321 5F5F494E 		.ascii	"__INITIAL_SP __StackTop\000"
 15431      49544941 
 15431      4C5F5350 
 15431      205F5F53 
 15431      7461636B 
 15432              	.LASF816:
 15433 6339 5F52414E 		.ascii	"_RAND48_SEED_2 (0x1234)\000"
 15433      4434385F 
 15433      53454544 
 15433      5F322028 
 15433      30783132 
 15434              	.LASF1811:
 15435 6351 63686172 		.ascii	"char32_t\000"
 15435      33325F74 
 15435      00
 15436              	.LASF106:
 15437 635a 5F5F4C4F 		.ascii	"__LONG_MAX__ 0x7fffffffL\000"
 15437      4E475F4D 
 15437      41585F5F 
 15437      20307837 
 15437      66666666 
 15438              	.LASF1060:
 15439 6373 5F474C49 		.ascii	"_GLIBCXX_USE_WEAK_REF __GXX_WEAK__\000"
 15439      42435858 
 15439      5F555345 
 15439      5F574541 
 15439      4B5F5245 
 15440              	.LASF962:
 15441 6396 5F5F5243 		.ascii	"__RCSID(s) struct __hack\000"
 15441      53494428 
 15441      73292073 
 15441      74727563 
 15441      74205F5F 
 15442              	.LASF146:
 15443 63af 5F5F494E 		.ascii	"__INT32_C(c) c ## L\000"
 15443      5433325F 
 15443      43286329 
 15443      20632023 
 15443      23204C00 
 15444              	.LASF368:
ARM GAS  C:\Users\30806\AppData\Local\Temp\ccYcD1nI.s 			page 338


 15445 63c3 5F5F5553 		.ascii	"__USQ_IBIT__ 0\000"
 15445      515F4942 
 15445      49545F5F 
 15445      203000
 15446              	.LASF251:
 15447 63d2 5F5F464C 		.ascii	"__FLT64_NORM_MAX__ 1.7976931348623157e+308F64\000"
 15447      5436345F 
 15447      4E4F524D 
 15447      5F4D4158 
 15447      5F5F2031 
 15448              	.LASF1278:
 15449 6400 6365696C 		.ascii	"ceil\000"
 15449      00
 15450              	.LASF524:
 15451 6405 5F5F5F69 		.ascii	"___int_least64_t_defined 1\000"
 15451      6E745F6C 
 15451      65617374 
 15451      36345F74 
 15451      5F646566 
 15452              	.LASF100:
 15453 6420 5F5F6370 		.ascii	"__cpp_sized_deallocation 201309L\000"
 15453      705F7369 
 15453      7A65645F 
 15453      6465616C 
 15453      6C6F6361 
 15454              	.LASF538:
 15455 6441 73686F72 		.ascii	"short +1\000"
 15455      74202B31 
 15455      00
 15456              	.LASF1080:
 15457 644a 5F474C49 		.ascii	"_GLIBCXX_HAVE_ATOMIC_LOCK_POLICY 1\000"
 15457      42435858 
 15457      5F484156 
 15457      455F4154 
 15457      4F4D4943 
 15458              	.LASF891:
 15459 646d 5F5F474E 		.ascii	"__GNUCLIKE_BUILTIN_STDARG 1\000"
 15459      55434C49 
 15459      4B455F42 
 15459      55494C54 
 15459      494E5F53 
 15460              	.LASF574:
 15461 6489 5F5F696E 		.ascii	"__int_least8_t_defined 1\000"
 15461      745F6C65 
 15461      61737438 
 15461      5F745F64 
 15461      6566696E 
 15462              	.LASF1082:
 15463 64a2 5F474C49 		.ascii	"_GLIBCXX_HAVE_COMPLEX_H 1\000"
 15463      42435858 
 15463      5F484156 
 15463      455F434F 
 15463      4D504C45 
 15464              	.LASF317:
 15465 64bc 5F5F5341 		.ascii	"__SACCUM_EPSILON__ 0x1P-7HK\000"
 15465      4343554D 
 15465      5F455053 
ARM GAS  C:\Users\30806\AppData\Local\Temp\ccYcD1nI.s 			page 339


 15465      494C4F4E 
 15465      5F5F2030 
 15466              	.LASF763:
 15467 64d8 5F535550 		.ascii	"_SUPPORTS_ERREXCEPT \000"
 15467      504F5254 
 15467      535F4552 
 15467      52455843 
 15467      45505420 
 15468              	.LASF1591:
 15469 64ed 696E7431 		.ascii	"int16_t\000"
 15469      365F7400 
 15470              	.LASF1229:
 15471 64f5 69736772 		.ascii	"isgreaterequal(__x,__y) (__builtin_isgreaterequal ("
 15471      65617465 
 15471      72657175 
 15471      616C285F 
 15471      5F782C5F 
 15472 6528 5F5F782C 		.ascii	"__x, __y))\000"
 15472      205F5F79 
 15472      292900
 15473              	.LASF1241:
 15474 6533 4D5F4C4E 		.ascii	"M_LN10 2.30258509299404568402\000"
 15474      31302032 
 15474      2E333032 
 15474      35383530 
 15474      39323939 
 15475              	.LASF1355:
 15476 6551 6C6F6731 		.ascii	"log1pf\000"
 15476      706600
 15477              	.LASF1584:
 15478 6558 73686F72 		.ascii	"short unsigned int\000"
 15478      7420756E 
 15478      7369676E 
 15478      65642069 
 15478      6E7400
 15479              	.LASF1179:
 15480 656b 5F474C49 		.ascii	"_GLIBCXX_USE_C99_CTYPE_TR1 1\000"
 15480      42435858 
 15480      5F555345 
 15480      5F433939 
 15480      5F435459 
 15481              	.LASF1581:
 15482 6588 7369676E 		.ascii	"signed char\000"
 15482      65642063 
 15482      68617200 
 15483              	.LASF1706:
 15484 6594 5F5A5374 		.ascii	"_ZSt6islessff\000"
 15484      3669736C 
 15484      65737366 
 15484      6600
 15485              	.LASF1813:
 15486 65a2 4143455F 		.ascii	"ACE_ECF_25-ACE-ECF-CPP-V1.2/Algorithm/user_maths/cp"
 15486      4543465F 
 15486      32352D41 
 15486      43452D45 
 15486      43462D43 
 15487 65d5 705F6669 		.ascii	"p_files/user_maths.cpp\000"
ARM GAS  C:\Users\30806\AppData\Local\Temp\ccYcD1nI.s 			page 340


 15487      6C65732F 
 15487      75736572 
 15487      5F6D6174 
 15487      68732E63 
 15488              	.LASF1066:
 15489 65ec 5F474C49 		.ascii	"_GLIBCXX_USE_C99_COMPLEX _GLIBCXX11_USE_C99_COMPLEX"
 15489      42435858 
 15489      5F555345 
 15489      5F433939 
 15489      5F434F4D 
 15490 661f 00       		.ascii	"\000"
 15491              	.LASF1664:
 15492 6620 5F5A5374 		.ascii	"_ZSt5log10e\000"
 15492      356C6F67 
 15492      31306500 
 15493              	.LASF1665:
 15494 662c 5F5A5374 		.ascii	"_ZSt5log10f\000"
 15494      356C6F67 
 15494      31306600 
 15495              	.LASF662:
 15496 6638 5F5F7369 		.ascii	"__size_t__ \000"
 15496      7A655F74 
 15496      5F5F2000 
 15497              	.LASF1491:
 15498 6644 5F474343 		.ascii	"_GCC_NEXT_LIMITS_H\000"
 15498      5F4E4558 
 15498      545F4C49 
 15498      4D495453 
 15498      5F4800
 15499              	.LASF761:
 15500 6657 5F5F5359 		.ascii	"__SYS_CONFIG_H__ \000"
 15500      535F434F 
 15500      4E464947 
 15500      5F485F5F 
 15500      2000
 15501              	.LASF943:
 15502 6669 5F5F7072 		.ascii	"__predict_false(exp) __builtin_expect((exp), 0)\000"
 15502      65646963 
 15502      745F6661 
 15502      6C736528 
 15502      65787029 
 15503              	.LASF490:
 15504 6699 5F4E4557 		.ascii	"_NEWLIB_VERSION \"4.1.0\"\000"
 15504      4C49425F 
 15504      56455253 
 15504      494F4E20 
 15504      22342E31 
 15505              	.LASF690:
 15506 66b1 5F574348 		.ascii	"_WCHAR_T_H \000"
 15506      41525F54 
 15506      5F482000 
 15507              	.LASF1567:
 15508 66bd 53544550 		.ascii	"STEP(x) (x) <= 0 ? 0 : 1\000"
 15508      28782920 
 15508      28782920 
 15508      3C3D2030 
 15508      203F2030 
ARM GAS  C:\Users\30806\AppData\Local\Temp\ccYcD1nI.s 			page 341


 15509              	.LASF774:
 15510 66d6 5F454E44 		.ascii	"_END_STD_C }\000"
 15510      5F535444 
 15510      5F43207D 
 15510      00
 15511              	.LASF352:
 15512 66e3 5F5F554C 		.ascii	"__ULLACCUM_EPSILON__ 0x1P-32ULLK\000"
 15512      4C414343 
 15512      554D5F45 
 15512      5053494C 
 15512      4F4E5F5F 
 15513              	.LASF1185:
 15514 6704 5F474C49 		.ascii	"_GLIBCXX_USE_FCHMOD 1\000"
 15514      42435858 
 15514      5F555345 
 15514      5F464348 
 15514      4D4F4420 
 15515              	.LASF24:
 15516 671a 5F5F4348 		.ascii	"__CHAR_BIT__ 8\000"
 15516      41525F42 
 15516      49545F5F 
 15516      203800
 15517              	.LASF1202:
 15518 6729 48554745 		.ascii	"HUGE_VAL (__builtin_huge_val())\000"
 15518      5F56414C 
 15518      20285F5F 
 15518      6275696C 
 15518      74696E5F 
 15519              	.LASF37:
 15520 6749 5F5F494E 		.ascii	"__INTMAX_TYPE__ long long int\000"
 15520      544D4158 
 15520      5F545950 
 15520      455F5F20 
 15520      6C6F6E67 
 15521              	.LASF485:
 15522 6767 5F5F5354 		.ascii	"__STDC_CONSTANT_MACROS \000"
 15522      44435F43 
 15522      4F4E5354 
 15522      414E545F 
 15522      4D414352 
 15523              	.LASF766:
 15524 677f 5F504F49 		.ascii	"_POINTER_INT long\000"
 15524      4E544552 
 15524      5F494E54 
 15524      206C6F6E 
 15524      6700
 15525              	.LASF1043:
 15526 6791 5F474C49 		.ascii	"_GLIBCXX_NAMESPACE_LDBL \000"
 15526      42435858 
 15526      5F4E414D 
 15526      45535041 
 15526      43455F4C 
 15527              	.LASF1812:
 15528 67aa 474E5520 		.ascii	"GNU C++14 10.3.1 20210824 (release) -mcpu=cortex-m4"
 15528      432B2B31 
 15528      34203130 
 15528      2E332E31 
ARM GAS  C:\Users\30806\AppData\Local\Temp\ccYcD1nI.s 			page 342


 15528      20323032 
 15529 67dd 202D6D74 		.ascii	" -mthumb -mfpu=fpv4-sp-d16 -mfloat-abi=hard -march="
 15529      68756D62 
 15529      202D6D66 
 15529      70753D66 
 15529      7076342D 
 15530 6810 61726D76 		.ascii	"armv7e-m+fp -g -gdwarf-2 -g -ggdb3 -O0 -fno-rtti -f"
 15530      37652D6D 
 15530      2B667020 
 15530      2D67202D 
 15530      67647761 
 15531 6843 6E6F2D65 		.ascii	"no-exceptions -fdata-sections -ffunction-sections -"
 15531      78636570 
 15531      74696F6E 
 15531      73202D66 
 15531      64617461 
 15532 6876 66706572 		.ascii	"fpermissive\000"
 15532      6D697373 
 15532      69766500 
 15533              	.LASF826:
 15534 6882 5F524545 		.ascii	"_REENT_INIT(var) { 0, _REENT_STDIO_STREAM(&(var), 0"
 15534      4E545F49 
 15534      4E495428 
 15534      76617229 
 15534      207B2030 
 15535 68b5 292C205F 		.ascii	"), _REENT_STDIO_STREAM(&(var), 1), _REENT_STDIO_STR"
 15535      5245454E 
 15535      545F5354 
 15535      44494F5F 
 15535      53545245 
 15536 68e8 45414D28 		.ascii	"EAM(&(var), 2), 0, \"\", 0, _NULL, 0, _NULL, _NULL,"
 15536      26287661 
 15536      72292C20 
 15536      32292C20 
 15536      302C2022 
 15537 6919 20302C20 		.ascii	" 0, _NULL, _NULL, 0, _NULL, { { 0, _NULL, \"\", {0,"
 15537      5F4E554C 
 15537      4C2C205F 
 15537      4E554C4C 
 15537      2C20302C 
 15538 694a 20302C20 		.ascii	" 0, 0, 0, 0, 0, 0, 0, 0}, 0, 1, { {_RAND48_SEED_0, "
 15538      302C2030 
 15538      2C20302C 
 15538      20302C20 
 15538      302C2030 
 15539 697d 5F52414E 		.ascii	"_RAND48_SEED_1, _RAND48_SEED_2}, {_RAND48_MULT_0, _"
 15539      4434385F 
 15539      53454544 
 15539      5F312C20 
 15539      5F52414E 
 15540 69b0 52414E44 		.ascii	"RAND48_MULT_1, _RAND48_MULT_2}, _RAND48_ADD }, {0, "
 15540      34385F4D 
 15540      554C545F 
 15540      312C205F 
 15540      52414E44 
 15541 69e3 7B307D7D 		.ascii	"{0}}, {0, {0}}, {0, {0}}, \"\", \"\", 0, {0, {0}}, "
 15541      2C207B30 
ARM GAS  C:\Users\30806\AppData\Local\Temp\ccYcD1nI.s 			page 343


 15541      2C207B30 
 15541      7D7D2C20 
 15541      7B302C20 
 15542 6a12 7B302C20 		.ascii	"{0, {0}}, {0, {0}}, {0, {0}}, {0, {0}} } }, _REENT_"
 15542      7B307D7D 
 15542      2C207B30 
 15542      2C207B30 
 15542      7D7D2C20 
 15543 6a45 494E4954 		.ascii	"INIT_ATEXIT _NULL, {_NULL, 0, _NULL} }\000"
 15543      5F415445 
 15543      58495420 
 15543      5F4E554C 
 15543      4C2C207B 
 15544              	.LASF1283:
 15545 6a6c 66726578 		.ascii	"frexp\000"
 15545      7000
 15546              	.LASF422:
 15547 6a72 5F5F4152 		.ascii	"__ARM_FEATURE_DOTPROD\000"
 15547      4D5F4645 
 15547      41545552 
 15547      455F444F 
 15547      5450524F 
 15548              	.LASF864:
 15549 6a88 5F474C4F 		.ascii	"_GLOBAL_ATEXIT (_GLOBAL_REENT->_atexit)\000"
 15549      42414C5F 
 15549      41544558 
 15549      49542028 
 15549      5F474C4F 
 15550              	.LASF670:
 15551 6ab0 5F425344 		.ascii	"_BSD_SIZE_T_ \000"
 15551      5F53495A 
 15551      455F545F 
 15551      2000
 15552              	.LASF1592:
 15553 6abe 496E7075 		.ascii	"Input\000"
 15553      7400
 15554              	.LASF1299:
 15555 6ac4 69736C65 		.ascii	"islessequal\000"
 15555      73736571 
 15555      75616C00 
 15556              	.LASF797:
 15557 6ad0 5F4C4F43 		.ascii	"_LOCK_RECURSIVE_T _LOCK_T\000"
 15557      4B5F5245 
 15557      43555253 
 15557      4956455F 
 15557      54205F4C 
 15558              	.LASF1554:
 15559 6aea 46415354 		.ascii	"FAST_MATH_TABLE_SIZE 512\000"
 15559      5F4D4154 
 15559      485F5441 
 15559      424C455F 
 15559      53495A45 
 15560              	.LASF743:
 15561 6b03 5F535452 		.ascii	"_STRING_H_ \000"
 15561      494E475F 
 15561      485F2000 
 15562              	.LASF1448:
ARM GAS  C:\Users\30806\AppData\Local\Temp\ccYcD1nI.s 			page 344


 15563 6b0f 4C44424C 		.ascii	"LDBL_MAX __LDBL_MAX__\000"
 15563      5F4D4158 
 15563      205F5F4C 
 15563      44424C5F 
 15563      4D41585F 
 15564              	.LASF252:
 15565 6b25 5F5F464C 		.ascii	"__FLT64_MIN__ 2.2250738585072014e-308F64\000"
 15565      5436345F 
 15565      4D494E5F 
 15565      5F20322E 
 15565      32323530 
 15566              	.LASF171:
 15567 6b4e 5F5F494E 		.ascii	"__INTPTR_MAX__ 0x7fffffff\000"
 15567      54505452 
 15567      5F4D4158 
 15567      5F5F2030 
 15567      78376666 
 15568              	.LASF1375:
 15569 6b68 6E657874 		.ascii	"nextafterf\000"
 15569      61667465 
 15569      726600
 15570              	.LASF903:
 15571 6b73 5F5F4343 		.ascii	"__CC_SUPPORTS_VARADIC_XXX 1\000"
 15571      5F535550 
 15571      504F5254 
 15571      535F5641 
 15571      52414449 
 15572              	.LASF1809:
 15573 6b8f 77636861 		.ascii	"wchar_t\000"
 15573      725F7400 
 15574              	.LASF1356:
 15575 6b97 6C6F6731 		.ascii	"log1pl\000"
 15575      706C00
 15576              	.LASF408:
 15577 6b9e 5F5F4743 		.ascii	"__GCC_ATOMIC_POINTER_LOCK_FREE 2\000"
 15577      435F4154 
 15577      4F4D4943 
 15577      5F504F49 
 15577      4E544552 
 15578              	.LASF969:
 15579 6bbf 5F4E6F6E 		.ascii	"_Nonnull \000"
 15579      6E756C6C 
 15579      2000
 15580              	.LASF1252:
 15581 6bc9 4D5F5351 		.ascii	"M_SQRTPI 1.77245385090551602792981\000"
 15581      52545049 
 15581      20312E37 
 15581      37323435 
 15581      33383530 
 15582              	.LASF818:
 15583 6bec 5F52414E 		.ascii	"_RAND48_MULT_1 (0xdeec)\000"
 15583      4434385F 
 15583      4D554C54 
 15583      5F312028 
 15583      30786465 
 15584              	.LASF1116:
 15585 6c04 5F474C49 		.ascii	"_GLIBCXX_HAVE_MEMALIGN 1\000"
ARM GAS  C:\Users\30806\AppData\Local\Temp\ccYcD1nI.s 			page 345


 15585      42435858 
 15585      5F484156 
 15585      455F4D45 
 15585      4D414C49 
 15586              	.LASF232:
 15587 6c1d 5F5F464C 		.ascii	"__FLT32_MAX_10_EXP__ 38\000"
 15587      5433325F 
 15587      4D41585F 
 15587      31305F45 
 15587      58505F5F 
 15588              	.LASF1259:
 15589 6c35 5F474C49 		.ascii	"_GLIBCXX_INCLUDE_NEXT_C_HEADERS\000"
 15589      42435858 
 15589      5F494E43 
 15589      4C554445 
 15589      5F4E4558 
 15590              	.LASF838:
 15591 6c55 5F524545 		.ascii	"_REENT_RAND48_MULT(ptr) ((ptr)->_new._reent._r48._m"
 15591      4E545F52 
 15591      414E4434 
 15591      385F4D55 
 15591      4C542870 
 15592 6c88 756C7429 		.ascii	"ult)\000"
 15592      00
 15593              	.LASF1011:
 15594 6c8d 5F474C49 		.ascii	"_GLIBCXX_NODISCARD \000"
 15594      42435858 
 15594      5F4E4F44 
 15594      49534341 
 15594      52442000 
 15595              	.LASF540:
 15596 6ca1 5F5F696E 		.ascii	"__int20__ +2\000"
 15596      7432305F 
 15596      5F202B32 
 15596      00
 15597              	.LASF1095:
 15598 6cae 5F474C49 		.ascii	"_GLIBCXX_HAVE_HYPOT 1\000"
 15598      42435858 
 15598      5F484156 
 15598      455F4859 
 15598      504F5420 
 15599              	.LASF84:
 15600 6cc4 5F5F6370 		.ascii	"__cpp_rvalue_references 200610L\000"
 15600      705F7276 
 15600      616C7565 
 15600      5F726566 
 15600      6572656E 
 15601              	.LASF1681:
 15602 6ce4 5F5A5374 		.ascii	"_ZSt10fpclassifyd\000"
 15602      31306670 
 15602      636C6173 
 15602      73696679 
 15602      6400
 15603              	.LASF1680:
 15604 6cf6 5F5A5374 		.ascii	"_ZSt10fpclassifye\000"
 15604      31306670 
 15604      636C6173 
ARM GAS  C:\Users\30806\AppData\Local\Temp\ccYcD1nI.s 			page 346


 15604      73696679 
 15604      6500
 15605              	.LASF1682:
 15606 6d08 5F5A5374 		.ascii	"_ZSt10fpclassifyf\000"
 15606      31306670 
 15606      636C6173 
 15606      73696679 
 15606      6600
 15607              	.LASF93:
 15608 6d1a 5F5F6370 		.ascii	"__cpp_init_captures 201304L\000"
 15608      705F696E 
 15608      69745F63 
 15608      61707475 
 15608      72657320 
 15609              	.LASF1678:
 15610 6d36 5F5A5374 		.ascii	"_ZSt4fmodee\000"
 15610      34666D6F 
 15610      64656500 
 15611              	.LASF224:
 15612 6d42 5F5F4C44 		.ascii	"__LDBL_HAS_DENORM__ 1\000"
 15612      424C5F48 
 15612      41535F44 
 15612      454E4F52 
 15612      4D5F5F20 
 15613              	.LASF1222:
 15614 6d58 6670636C 		.ascii	"fpclassify(__x) (__builtin_fpclassify (FP_NAN, FP_I"
 15614      61737369 
 15614      6679285F 
 15614      5F782920 
 15614      285F5F62 
 15615 6d8b 4E46494E 		.ascii	"NFINITE, FP_NORMAL, FP_SUBNORMAL, FP_ZERO, __x))\000"
 15615      4954452C 
 15615      2046505F 
 15615      4E4F524D 
 15615      414C2C20 
 15616              	.LASF651:
 15617 6dbc 5F414E53 		.ascii	"_ANSI_STDDEF_H \000"
 15617      495F5354 
 15617      44444546 
 15617      5F482000 
 15618              	.LASF1048:
 15619 6dcc 5F474C49 		.ascii	"_GLIBCXX_END_NAMESPACE_LDBL_OR_CXX11 _GLIBCXX_END_N"
 15619      42435858 
 15619      5F454E44 
 15619      5F4E414D 
 15619      45535041 
 15620 6dff 414D4553 		.ascii	"AMESPACE_CXX11\000"
 15620      50414345 
 15620      5F435858 
 15620      313100
 15621              	.LASF632:
 15622 6e0e 57494E54 		.ascii	"WINT_MIN (__WINT_MIN__)\000"
 15622      5F4D494E 
 15622      20285F5F 
 15622      57494E54 
 15622      5F4D494E 
 15623              	.LASF450:
ARM GAS  C:\Users\30806\AppData\Local\Temp\ccYcD1nI.s 			page 347


 15624 6e26 5F5F4152 		.ascii	"__ARM_FP16_FORMAT_IEEE\000"
 15624      4D5F4650 
 15624      31365F46 
 15624      4F524D41 
 15624      545F4945 
 15625              	.LASF883:
 15626 6e3d 5F5F474E 		.ascii	"__GNUCLIKE_ASM 3\000"
 15626      55434C49 
 15626      4B455F41 
 15626      534D2033 
 15626      00
 15627              	.LASF1517:
 15628 6e4e 4C4F4E47 		.ascii	"LONG_MIN\000"
 15628      5F4D494E 
 15628      00
 15629              	.LASF1601:
 15630 6e57 696E7653 		.ascii	"invSqrt\000"
 15630      71727400 
 15631              	.LASF1002:
 15632 6e5f 5F474C49 		.ascii	"_GLIBCXX_NORETURN __attribute__ ((__noreturn__))\000"
 15632      42435858 
 15632      5F4E4F52 
 15632      45545552 
 15632      4E205F5F 
 15633              	.LASF1072:
 15634 6e90 5F474C49 		.ascii	"_GLIBCXX_HAVE_BUILTIN_LAUNDER 1\000"
 15634      42435858 
 15634      5F484156 
 15634      455F4255 
 15634      494C5449 
 15635              	.LASF1599:
 15636 6eb0 61636365 		.ascii	"acceleration_control\000"
 15636      6C657261 
 15636      74696F6E 
 15636      5F636F6E 
 15636      74726F6C 
 15637              	.LASF792:
 15638 6ec5 5F434C4F 		.ascii	"_CLOCKID_T_ unsigned long\000"
 15638      434B4944 
 15638      5F545F20 
 15638      756E7369 
 15638      676E6564 
 15639              	.LASF1160:
 15640 6edf 53544443 		.ascii	"STDC_HEADERS 1\000"
 15640      5F484541 
 15640      44455253 
 15640      203100
 15641              	.LASF478:
 15642 6eee 5F5F5553 		.ascii	"__USES_INITFINI__ 1\000"
 15642      45535F49 
 15642      4E495446 
 15642      494E495F 
 15642      5F203100 
 15643              	.LASF404:
 15644 6f02 5F5F4743 		.ascii	"__GCC_ATOMIC_INT_LOCK_FREE 2\000"
 15644      435F4154 
 15644      4F4D4943 
ARM GAS  C:\Users\30806\AppData\Local\Temp\ccYcD1nI.s 			page 348


 15644      5F494E54 
 15644      5F4C4F43 
 15645              	.LASF247:
 15646 6f1f 5F5F464C 		.ascii	"__FLT64_MAX_EXP__ 1024\000"
 15646      5436345F 
 15646      4D41585F 
 15646      4558505F 
 15646      5F203130 
 15647              	.LASF930:
 15648 6f36 5F5F6D69 		.ascii	"__min_size(x) (x)\000"
 15648      6E5F7369 
 15648      7A652878 
 15648      29202878 
 15648      2900
 15649              	.LASF1550:
 15650 6f48 44454C54 		.ascii	"DELTA_Q31 ((q31_t)(0x100))\000"
 15650      415F5133 
 15650      31202828 
 15650      7133315F 
 15650      74292830 
 15651              	.LASF977:
 15652 6f63 5F5F6C6F 		.ascii	"__lockable __lock_annotate(lockable)\000"
 15652      636B6162 
 15652      6C65205F 
 15652      5F6C6F63 
 15652      6B5F616E 
 15653              	.LASF879:
 15654 6f88 5F5F6861 		.ascii	"__has_extension __has_feature\000"
 15654      735F6578 
 15654      74656E73 
 15654      696F6E20 
 15654      5F5F6861 
 15655              	.LASF389:
 15656 6fa6 5F5F5245 		.ascii	"__REGISTER_PREFIX__ \000"
 15656      47495354 
 15656      45525F50 
 15656      52454649 
 15656      585F5F20 
 15657              	.LASF1243:
 15658 6fbb 4D5F5049 		.ascii	"M_PI_2 1.57079632679489661923\000"
 15658      5F322031 
 15658      2E353730 
 15658      37393633 
 15658      32363739 
 15659              	.LASF1137:
 15660 6fd9 5F474C49 		.ascii	"_GLIBCXX_HAVE_SYS_TIME_H 1\000"
 15660      42435858 
 15660      5F484156 
 15660      455F5359 
 15660      535F5449 
 15661              	.LASF982:
 15662 6ff4 5F5F756E 		.ascii	"__unlocks(...) __lock_annotate(unlock_function(__VA"
 15662      6C6F636B 
 15662      73282E2E 
 15662      2E29205F 
 15662      5F6C6F63 
 15663 7027 5F415247 		.ascii	"_ARGS__))\000"
ARM GAS  C:\Users\30806\AppData\Local\Temp\ccYcD1nI.s 			page 349


 15663      535F5F29 
 15663      2900
 15664              	.LASF281:
 15665 7031 5F5F5553 		.ascii	"__USFRACT_MAX__ 0XFFP-8UHR\000"
 15665      46524143 
 15665      545F4D41 
 15665      585F5F20 
 15665      30584646 
 15666              	.LASF1745:
 15667 704c 5F5A5374 		.ascii	"_ZSt5ilogbf\000"
 15667      35696C6F 
 15667      67626600 
 15668              	.LASF1226:
 15669 7058 69736E6F 		.ascii	"isnormal(__x) (__builtin_isnormal (__x))\000"
 15669      726D616C 
 15669      285F5F78 
 15669      2920285F 
 15669      5F627569 
 15670              	.LASF1752:
 15671 7081 5F5A5374 		.ascii	"_ZSt5log1pe\000"
 15671      356C6F67 
 15671      31706500 
 15672              	.LASF1753:
 15673 708d 5F5A5374 		.ascii	"_ZSt5log1pf\000"
 15673      356C6F67 
 15673      31706600 
 15674              	.LASF1010:
 15675 7099 5F474C49 		.ascii	"_GLIBCXX_ABI_TAG_CXX11 __attribute ((__abi_tag__ (\""
 15675      42435858 
 15675      5F414249 
 15675      5F544147 
 15675      5F435858 
 15676 70cc 63787831 		.ascii	"cxx11\")))\000"
 15676      31222929 
 15676      2900
 15677              	.LASF234:
 15678 70d6 5F5F464C 		.ascii	"__FLT32_MAX__ 3.4028234663852886e+38F32\000"
 15678      5433325F 
 15678      4D41585F 
 15678      5F20332E 
 15678      34303238 
 15679              	.LASF1679:
 15680 70fe 5F5A5374 		.ascii	"_ZSt4fmodff\000"
 15680      34666D6F 
 15680      64666600 
 15681              	.LASF1487:
 15682 710a 52455F44 		.ascii	"RE_DUP_MAX 255\000"
 15682      55505F4D 
 15682      41582032 
 15682      353500
 15683              	.LASF1409:
 15684 7119 4C44424C 		.ascii	"LDBL_MANT_DIG\000"
 15684      5F4D414E 
 15684      545F4449 
 15684      4700
 15685              	.LASF1607:
 15686 7127 5F5A4E31 		.ascii	"_ZN12user_maths_c27motion_acceleration_controlEss\000"
ARM GAS  C:\Users\30806\AppData\Local\Temp\ccYcD1nI.s 			page 350


 15686      32757365 
 15686      725F6D61 
 15686      7468735F 
 15686      6332376D 
 15687              	.LASF449:
 15688 7159 5F5F4152 		.ascii	"__ARM_FP 4\000"
 15688      4D5F4650 
 15688      203400
 15689              	.LASF1536:
 15690 7164 4633325F 		.ascii	"F32_ABSMIN ((float32_t)0.0)\000"
 15690      4142534D 
 15690      494E2028 
 15690      28666C6F 
 15690      61743332 
 15691              	.LASF1212:
 15692 7180 46505F5A 		.ascii	"FP_ZERO 2\000"
 15692      45524F20 
 15692      3200
 15693              	.LASF958:
 15694 718a 5F5F7761 		.ascii	"__warn_references(sym,msg) __asm__(\".section .gnu."
 15694      726E5F72 
 15694      65666572 
 15694      656E6365 
 15694      73287379 
 15695 71bc 7761726E 		.ascii	"warning.\" #sym); __asm__(\".asciz \\\"\" msg \"\\\""
 15695      696E672E 
 15695      22202373 
 15695      796D293B 
 15695      205F5F61 
 15696 71e8 22293B20 		.ascii	"\"); __asm__(\".previous\")\000"
 15696      5F5F6173 
 15696      6D5F5F28 
 15696      222E7072 
 15696      6576696F 
 15697              	.LASF844:
 15698 7201 5F524545 		.ascii	"_REENT_ASCTIME_BUF(ptr) ((ptr)->_new._reent._asctim"
 15698      4E545F41 
 15698      53435449 
 15698      4D455F42 
 15698      55462870 
 15699 7234 655F6275 		.ascii	"e_buf)\000"
 15699      662900
 15700              	.LASF367:
 15701 723b 5F5F5553 		.ascii	"__USQ_FBIT__ 32\000"
 15701      515F4642 
 15701      49545F5F 
 15701      20333200 
 15702              	.LASF1807:
 15703 724b 4C696D69 		.ascii	"Limit\000"
 15703      7400
 15704              	.LASF58:
 15705 7251 5F5F494E 		.ascii	"__INT_FAST8_TYPE__ int\000"
 15705      545F4641 
 15705      5354385F 
 15705      54595045 
 15705      5F5F2069 
 15706              	.LASF642:
ARM GAS  C:\Users\30806\AppData\Local\Temp\ccYcD1nI.s 			page 351


 15707 7268 55494E54 		.ascii	"UINTMAX_C(x) __UINTMAX_C(x)\000"
 15707      4D41585F 
 15707      43287829 
 15707      205F5F55 
 15707      494E544D 
 15708              	.LASF1127:
 15709 7284 5F474C49 		.ascii	"_GLIBCXX_HAVE_STDINT_H 1\000"
 15709      42435858 
 15709      5F484156 
 15709      455F5354 
 15709      44494E54 
 15710              	.LASF473:
 15711 729d 5F5F4152 		.ascii	"__ARM_FEATURE_BF16_SCALAR_ARITHMETIC\000"
 15711      4D5F4645 
 15711      41545552 
 15711      455F4246 
 15711      31365F53 
 15712              	.LASF870:
 15713 72c2 5F5F7074 		.ascii	"__ptr_t void *\000"
 15713      725F7420 
 15713      766F6964 
 15713      202A00
 15714              	.LASF954:
 15715 72d1 5F5F7374 		.ascii	"__strftimelike(fmtarg,firstvararg) __attribute__((_"
 15715      72667469 
 15715      6D656C69 
 15715      6B652866 
 15715      6D746172 
 15716 7304 5F666F72 		.ascii	"_format__ (__strftime__, fmtarg, firstvararg)))\000"
 15716      6D61745F 
 15716      5F20285F 
 15716      5F737472 
 15716      6674696D 
 15717              	.LASF453:
 15718 7334 5F5F4152 		.ascii	"__ARM_FEATURE_FP16_SCALAR_ARITHMETIC\000"
 15718      4D5F4645 
 15718      41545552 
 15718      455F4650 
 15718      31365F53 
 15719              	.LASF1177:
 15720 7359 5F474C49 		.ascii	"_GLIBCXX_STDIO_SEEK_CUR 1\000"
 15720      42435858 
 15720      5F535444 
 15720      494F5F53 
 15720      45454B5F 
 15721              	.LASF1189:
 15722 7373 5F474C49 		.ascii	"_GLIBCXX_USE_SC_NPROCESSORS_ONLN 1\000"
 15722      42435858 
 15722      5F555345 
 15722      5F53435F 
 15722      4E50524F 
 15723              	.LASF1122:
 15724 7396 5F474C49 		.ascii	"_GLIBCXX_HAVE_SINHF 1\000"
 15724      42435858 
 15724      5F484156 
 15724      455F5349 
 15724      4E484620 
ARM GAS  C:\Users\30806\AppData\Local\Temp\ccYcD1nI.s 			page 352


 15725              	.LASF529:
 15726 73ac 756E7369 		.ascii	"unsigned\000"
 15726      676E6564 
 15726      00
 15727              	.LASF644:
 15728 73b5 75736572 		.ascii	"user_abs(x) ((x) > (0) ? (x) : (-(x)))\000"
 15728      5F616273 
 15728      28782920 
 15728      28287829 
 15728      203E2028 
 15729              	.LASF508:
 15730 73dc 5F5F4C41 		.ascii	"__LARGEFILE_VISIBLE 0\000"
 15730      52474546 
 15730      494C455F 
 15730      56495349 
 15730      424C4520 
 15731              	.LASF126:
 15732 73f2 5F5F5549 		.ascii	"__UINTMAX_C(c) c ## ULL\000"
 15732      4E544D41 
 15732      585F4328 
 15732      63292063 
 15732      20232320 
 15733              	.LASF661:
 15734 740a 5F5F6E65 		.ascii	"__need_ptrdiff_t\000"
 15734      65645F70 
 15734      74726469 
 15734      66665F74 
 15734      00
 15735              	.LASF1227:
 15736 741b 7369676E 		.ascii	"signbit(__x) ((sizeof(__x) == sizeof(float)) ? __bu"
 15736      62697428 
 15736      5F5F7829 
 15736      20282873 
 15736      697A656F 
 15737 744e 696C7469 		.ascii	"iltin_signbitf(__x) : (sizeof(__x) == sizeof(double"
 15737      6E5F7369 
 15737      676E6269 
 15737      7466285F 
 15737      5F782920 
 15738 7481 2929203F 		.ascii	")) ? __builtin_signbit (__x) : __builtin_signbitl(_"
 15738      205F5F62 
 15738      75696C74 
 15738      696E5F73 
 15738      69676E62 
 15739 74b4 5F782929 		.ascii	"_x))\000"
 15739      00
 15740              	.LASF1573:
 15741 74b9 6D756C74 		.ascii	"multAcc_32x32_keep32(a,x,y) a += (q31_t) (((q63_t) "
 15741      4163635F 
 15741      33327833 
 15741      325F6B65 
 15741      65703332 
 15742 74ec 78202A20 		.ascii	"x * y) >> 32)\000"
 15742      7929203E 
 15742      3E203332 
 15742      2900
 15743              	.LASF1164:
ARM GAS  C:\Users\30806\AppData\Local\Temp\ccYcD1nI.s 			page 353


 15744 74fa 5F474C49 		.ascii	"_GLIBCXX11_USE_C99_STDLIB 1\000"
 15744      42435858 
 15744      31315F55 
 15744      53455F43 
 15744      39395F53 
 15745              	.LASF1332:
 15746 7516 666D616C 		.ascii	"fmal\000"
 15746      00
 15747              	.LASF1549:
 15748 751b 41524D5F 		.ascii	"ARM_MATH_DSP 1\000"
 15748      4D415448 
 15748      5F445350 
 15748      203100
 15749              	.LASF985:
 15750 752a 5F5F7265 		.ascii	"__requires_exclusive(...) __lock_annotate(exclusive"
 15750      71756972 
 15750      65735F65 
 15750      78636C75 
 15750      73697665 
 15751 755d 5F6C6F63 		.ascii	"_locks_required(__VA_ARGS__))\000"
 15751      6B735F72 
 15751      65717569 
 15751      72656428 
 15751      5F5F5641 
 15752              	.LASF90:
 15753 757b 5F5F6370 		.ascii	"__cpp_ref_qualifiers 200710L\000"
 15753      705F7265 
 15753      665F7175 
 15753      616C6966 
 15753      69657273 
 15754              	.LASF1333:
 15755 7598 666D6178 		.ascii	"fmax\000"
 15755      00
 15756              	.LASF1585:
 15757 759d 6C6F6E67 		.ascii	"long int\000"
 15757      20696E74 
 15757      00
 15758              	.LASF1557:
 15759 75a6 434F4E54 		.ascii	"CONTROLLER_Q31_SHIFT (32 - 9)\000"
 15759      524F4C4C 
 15759      45525F51 
 15759      33315F53 
 15759      48494654 
 15760              	.LASF1156:
 15761 75c4 5F474C49 		.ascii	"_GLIBCXX_PACKAGE_STRING \"package-unused version-un"
 15761      42435858 
 15761      5F504143 
 15761      4B414745 
 15761      5F535452 
 15762 75f6 75736564 		.ascii	"used\"\000"
 15762      2200
 15763              	.LASF842:
 15764 75fc 5F524545 		.ascii	"_REENT_MP_P5S(ptr) ((ptr)->_p5s)\000"
 15764      4E545F4D 
 15764      505F5035 
 15764      53287074 
 15764      72292028 
ARM GAS  C:\Users\30806\AppData\Local\Temp\ccYcD1nI.s 			page 354


 15765              	.LASF208:
 15766 761d 5F5F4442 		.ascii	"__DBL_HAS_DENORM__ 1\000"
 15766      4C5F4841 
 15766      535F4445 
 15766      4E4F524D 
 15766      5F5F2031 
 15767              	.LASF1251:
 15768 7632 4D5F3350 		.ascii	"M_3PI_4 2.3561944901923448370E0\000"
 15768      495F3420 
 15768      322E3335 
 15768      36313934 
 15768      34393031 
 15769              	.LASF504:
 15770 7652 5F5F4154 		.ascii	"__ATFILE_VISIBLE 1\000"
 15770      46494C45 
 15770      5F564953 
 15770      49424C45 
 15770      203100
 15771              	.LASF396:
 15772 7665 5F5F4743 		.ascii	"__GCC_HAVE_SYNC_COMPARE_AND_SWAP_2 1\000"
 15772      435F4841 
 15772      56455F53 
 15772      594E435F 
 15772      434F4D50 
 15773              	.LASF248:
 15774 768a 5F5F464C 		.ascii	"__FLT64_MAX_10_EXP__ 308\000"
 15774      5436345F 
 15774      4D41585F 
 15774      31305F45 
 15774      58505F5F 
 15775              	.LASF1267:
 15776 76a3 5F5F636F 		.ascii	"__compar_fn_t_defined \000"
 15776      6D706172 
 15776      5F666E5F 
 15776      745F6465 
 15776      66696E65 
 15777              	.LASF689:
 15778 76ba 5F574348 		.ascii	"_WCHAR_T_DEFINED \000"
 15778      41525F54 
 15778      5F444546 
 15778      494E4544 
 15778      2000
 15779              	.LASF824:
 15780 76cc 5F4E5F4C 		.ascii	"_N_LISTS 30\000"
 15780      49535453 
 15780      20333000 
 15781              	.LASF641:
 15782 76d8 494E544D 		.ascii	"INTMAX_C(x) __INTMAX_C(x)\000"
 15782      41585F43 
 15782      28782920 
 15782      5F5F494E 
 15782      544D4158 
 15783              	.LASF1460:
 15784 76f2 4C44424C 		.ascii	"LDBL_MIN __LDBL_MIN__\000"
 15784      5F4D494E 
 15784      205F5F4C 
 15784      44424C5F 
ARM GAS  C:\Users\30806\AppData\Local\Temp\ccYcD1nI.s 			page 355


 15784      4D494E5F 
 15785              	.LASF34:
 15786 7708 5F5F5054 		.ascii	"__PTRDIFF_TYPE__ int\000"
 15786      52444946 
 15786      465F5459 
 15786      50455F5F 
 15786      20696E74 
 15787              	.LASF270:
 15788 771d 5F5F464C 		.ascii	"__FLT32X_HAS_DENORM__ 1\000"
 15788      54333258 
 15788      5F484153 
 15788      5F44454E 
 15788      4F524D5F 
 15789              	.LASF1069:
 15790 7735 5F474C49 		.ascii	"_GLIBCXX_USE_C99_WCHAR _GLIBCXX11_USE_C99_WCHAR\000"
 15790      42435858 
 15790      5F555345 
 15790      5F433939 
 15790      5F574348 
 15791              	.LASF1651:
 15792 7765 5F5A5374 		.ascii	"_ZSt4coshf\000"
 15792      34636F73 
 15792      686600
 15793              	.LASF391:
 15794 7770 5F5F474E 		.ascii	"__GNUC_STDC_INLINE__ 1\000"
 15794      55435F53 
 15794      5444435F 
 15794      494E4C49 
 15794      4E455F5F 
 15795              	.LASF1027:
 15796 7787 5F474C49 		.ascii	"_GLIBCXX_USE_DUAL_ABI 1\000"
 15796      42435858 
 15796      5F555345 
 15796      5F445541 
 15796      4C5F4142 
 15797              	.LASF1157:
 15798 779f 5F474C49 		.ascii	"_GLIBCXX_PACKAGE_TARNAME \"libstdc++\"\000"
 15798      42435858 
 15798      5F504143 
 15798      4B414745 
 15798      5F544152 
 15799              	.LASF1294:
 15800 77c4 69736E6F 		.ascii	"isnormal\000"
 15800      726D616C 
 15800      00
 15801              	.LASF1791:
 15802 77cd 6C696D69 		.ascii	"limit\000"
 15802      7400
 15803              	.LASF991:
 15804 77d3 5F5F6775 		.ascii	"__guarded_by(x) __lock_annotate(guarded_by(x))\000"
 15804      61726465 
 15804      645F6279 
 15804      28782920 
 15804      5F5F6C6F 
 15805              	.LASF769:
 15806 7802 5F5F4558 		.ascii	"__EXPORT \000"
 15806      504F5254 
ARM GAS  C:\Users\30806\AppData\Local\Temp\ccYcD1nI.s 			page 356


 15806      2000
 15807              	.LASF866:
 15808 780c 5F5F504D 		.ascii	"__PMT(args) args\000"
 15808      54286172 
 15808      67732920 
 15808      61726773 
 15808      00
 15809              	.LASF480:
 15810 781d 53544D33 		.ascii	"STM32F405xx 1\000"
 15810      32463430 
 15810      35787820 
 15810      3100
 15811              	.LASF656:
 15812 782b 5F505452 		.ascii	"_PTRDIFF_T_ \000"
 15812      44494646 
 15812      5F545F20 
 15812      00
 15813              	.LASF119:
 15814 7838 5F5F5743 		.ascii	"__WCHAR_WIDTH__ 32\000"
 15814      4841525F 
 15814      57494454 
 15814      485F5F20 
 15814      333200
 15815              	.LASF1253:
 15816 784b 4D5F4C4E 		.ascii	"M_LN2LO 1.9082149292705877000E-10\000"
 15816      324C4F20 
 15816      312E3930 
 15816      38323134 
 15816      39323932 
 15817              	.LASF1472:
 15818 786d 4D41585F 		.ascii	"MAX_CANON 255\000"
 15818      43414E4F 
 15818      4E203235 
 15818      3500
 15819              	.LASF371:
 15820 787b 5F5F5554 		.ascii	"__UTQ_FBIT__ 128\000"
 15820      515F4642 
 15820      49545F5F 
 15820      20313238 
 15820      00
 15821              	.LASF1364:
 15822 788c 6C72696E 		.ascii	"lrintf\000"
 15822      746600
 15823              	.LASF1152:
 15824 7893 5F474C49 		.ascii	"_GLIBCXX_HAVE_WCTYPE_H 1\000"
 15824      42435858 
 15824      5F484156 
 15824      455F5743 
 15824      54595045 
 15825              	.LASF1800:
 15826 78ac 6E65775F 		.ascii	"new_value\000"
 15826      76616C75 
 15826      6500
 15827              	.LASF655:
 15828 78b6 5F5F5054 		.ascii	"__PTRDIFF_T \000"
 15828      52444946 
 15828      465F5420 
ARM GAS  C:\Users\30806\AppData\Local\Temp\ccYcD1nI.s 			page 357


 15828      00
 15829              	.LASF1497:
 15830 78c3 53434841 		.ascii	"SCHAR_MAX\000"
 15830      525F4D41 
 15830      5800
 15831              	.LASF1269:
 15832 78cd 45584954 		.ascii	"EXIT_SUCCESS 0\000"
 15832      5F535543 
 15832      43455353 
 15832      203000
 15833              	.LASF671:
 15834 78dc 5F53495A 		.ascii	"_SIZE_T_DEFINED_ \000"
 15834      455F545F 
 15834      44454649 
 15834      4E45445F 
 15834      2000
 15835              	.LASF415:
 15836 78ee 5F5F4152 		.ascii	"__ARM_FEATURE_DSP 1\000"
 15836      4D5F4645 
 15836      41545552 
 15836      455F4453 
 15836      50203100 
 15837              	.LASF1264:
 15838 7902 5F4E4557 		.ascii	"_NEWLIB_ALLOCA_H \000"
 15838      4C49425F 
 15838      414C4C4F 
 15838      43415F48 
 15838      2000
 15839              	.LASF1770:
 15840 7914 5F5A5374 		.ascii	"_ZSt6remquoeePi\000"
 15840      3672656D 
 15840      71756F65 
 15840      65506900 
 15841              	.LASF418:
 15842 7924 5F5F4152 		.ascii	"__ARM_FEATURE_CRYPTO\000"
 15842      4D5F4645 
 15842      41545552 
 15842      455F4352 
 15842      5950544F 
 15843              	.LASF76:
 15844 7939 5F5F6370 		.ascii	"__cpp_unicode_literals 200710L\000"
 15844      705F756E 
 15844      69636F64 
 15844      655F6C69 
 15844      74657261 
 15845              	.LASF1490:
 15846 7958 5F504F53 		.ascii	"_POSIX2_RE_DUP_MAX 255\000"
 15846      4958325F 
 15846      52455F44 
 15846      55505F4D 
 15846      41582032 
 15847              	.LASF1537:
 15848 796f 5133315F 		.ascii	"Q31_MAX ((q31_t)(0x7FFFFFFFL))\000"
 15848      4D415820 
 15848      28287133 
 15848      315F7429 
 15848      28307837 
ARM GAS  C:\Users\30806\AppData\Local\Temp\ccYcD1nI.s 			page 358


 15849              	.LASF553:
 15850 798e 5F5F4C45 		.ascii	"__LEAST8 \"hh\"\000"
 15850      41535438 
 15850      20226868 
 15850      2200
 15851              	.LASF239:
 15852 799c 5F5F464C 		.ascii	"__FLT32_HAS_DENORM__ 1\000"
 15852      5433325F 
 15852      4841535F 
 15852      44454E4F 
 15852      524D5F5F 
 15853              	.LASF953:
 15854 79b3 5F5F7374 		.ascii	"__strfmonlike(fmtarg,firstvararg) __attribute__((__"
 15854      72666D6F 
 15854      6E6C696B 
 15854      6528666D 
 15854      74617267 
 15855 79e6 666F726D 		.ascii	"format__ (__strfmon__, fmtarg, firstvararg)))\000"
 15855      61745F5F 
 15855      20285F5F 
 15855      73747266 
 15855      6D6F6E5F 
 15856              	.LASF1553:
 15857 7a14 50492033 		.ascii	"PI 3.14159265358979f\000"
 15857      2E313431 
 15857      35393236 
 15857      35333538 
 15857      39373966 
 15858              	.LASF1302:
 15859 7a29 61636F73 		.ascii	"acosh\000"
 15859      6800
 15860              	.LASF996:
 15861 7a2f 5F474C49 		.ascii	"_GLIBCXX_MATH_H 1\000"
 15861      42435858 
 15861      5F4D4154 
 15861      485F4820 
 15861      3100
 15862              	.LASF363:
 15863 7a41 5F5F5551 		.ascii	"__UQQ_FBIT__ 8\000"
 15863      515F4642 
 15863      49545F5F 
 15863      203800
 15864              	.LASF1134:
 15865 7a50 5F474C49 		.ascii	"_GLIBCXX_HAVE_SYS_PARAM_H 1\000"
 15865      42435858 
 15865      5F484156 
 15865      455F5359 
 15865      535F5041 
 15866              	.LASF933:
 15867 7a6c 5F5F616C 		.ascii	"__always_inline __inline__ __attribute__((__always_"
 15867      77617973 
 15867      5F696E6C 
 15867      696E6520 
 15867      5F5F696E 
 15868 7a9f 696E6C69 		.ascii	"inline__))\000"
 15868      6E655F5F 
 15868      292900
ARM GAS  C:\Users\30806\AppData\Local\Temp\ccYcD1nI.s 			page 359


 15869              	.LASF313:
 15870 7aaa 5F5F5341 		.ascii	"__SACCUM_FBIT__ 7\000"
 15870      4343554D 
 15870      5F464249 
 15870      545F5F20 
 15870      3700
 15871              	.LASF802:
 15872 7abc 5F5F6C6F 		.ascii	"__lock_close(lock) __retarget_lock_close(lock)\000"
 15872      636B5F63 
 15872      6C6F7365 
 15872      286C6F63 
 15872      6B29205F 
 15873              	.LASF344:
 15874 7aeb 5F5F4C4C 		.ascii	"__LLACCUM_IBIT__ 32\000"
 15874      41434355 
 15874      4D5F4942 
 15874      49545F5F 
 15874      20333200 
 15875              	.LASF614:
 15876 7aff 55494E54 		.ascii	"UINT_FAST16_MAX (__UINT_FAST16_MAX__)\000"
 15876      5F464153 
 15876      5431365F 
 15876      4D415820 
 15876      285F5F55 
 15877              	.LASF1510:
 15878 7b25 55534852 		.ascii	"USHRT_MAX (SHRT_MAX * 2 + 1)\000"
 15878      545F4D41 
 15878      58202853 
 15878      4852545F 
 15878      4D415820 
 15879              	.LASF1088:
 15880 7b42 5F474C49 		.ascii	"_GLIBCXX_HAVE_FENV_H 1\000"
 15880      42435858 
 15880      5F484156 
 15880      455F4645 
 15880      4E565F48 
 15881              	.LASF739:
 15882 7b59 5F5F5353 		.ascii	"__SSAT16(ARG1,ARG2) __extension__ ({ int32_t __RES,"
 15882      41543136 
 15882      28415247 
 15882      312C4152 
 15882      47322920 
 15883 7b8c 205F5F41 		.ascii	" __ARG1 = (ARG1); __ASM volatile (\"ssat16 %0, %1, "
 15883      52473120 
 15883      3D202841 
 15883      52473129 
 15883      3B205F5F 
 15884 7bbe 25322220 		.ascii	"%2\" : \"=r\" (__RES) : \"I\" (ARG2), \"r\" (__ARG1"
 15884      3A20223D 
 15884      72222028 
 15884      5F5F5245 
 15884      5329203A 
 15885 7bea 29203A20 		.ascii	") : \"cc\" ); __RES; })\000"
 15885      22636322 
 15885      20293B20 
 15885      5F5F5245 
 15885      533B207D 
ARM GAS  C:\Users\30806\AppData\Local\Temp\ccYcD1nI.s 			page 360


 15886              	.LASF1431:
 15887 7c00 464C545F 		.ascii	"FLT_MAX_EXP\000"
 15887      4D41585F 
 15887      45585000 
 15888              	.LASF1713:
 15889 7c0c 5F5A5374 		.ascii	"_ZSt11isunorderedee\000"
 15889      31316973 
 15889      756E6F72 
 15889      64657265 
 15889      64656500 
 15890              	.LASF1802:
 15891 7c20 64656C61 		.ascii	"delat_max\000"
 15891      745F6D61 
 15891      7800
 15892              	.LASF40:
 15893 7c2a 5F5F4348 		.ascii	"__CHAR32_TYPE__ long unsigned int\000"
 15893      41523332 
 15893      5F545950 
 15893      455F5F20 
 15893      6C6F6E67 
 15894              	.LASF512:
 15895 7c4c 5F5F5853 		.ascii	"__XSI_VISIBLE 0\000"
 15895      495F5649 
 15895      5349424C 
 15895      45203000 
 15896              	.LASF916:
 15897 7c5c 5F5F7075 		.ascii	"__pure2 __attribute__((__const__))\000"
 15897      72653220 
 15897      5F5F6174 
 15897      74726962 
 15897      7574655F 
 15898              	.LASF403:
 15899 7c7f 5F5F4743 		.ascii	"__GCC_ATOMIC_SHORT_LOCK_FREE 2\000"
 15899      435F4154 
 15899      4F4D4943 
 15899      5F53484F 
 15899      52545F4C 
 15900              	.LASF1380:
 15901 7c9e 72656D61 		.ascii	"remainder\000"
 15901      696E6465 
 15901      7200
 15902              	.LASF1465:
 15903 7ca8 5F474343 		.ascii	"_GCC_LIMITS_H_ \000"
 15903      5F4C494D 
 15903      4954535F 
 15903      485F2000 
 15904              	.LASF1496:
 15905 7cb8 53434841 		.ascii	"SCHAR_MIN (-SCHAR_MAX - 1)\000"
 15905      525F4D49 
 15905      4E20282D 
 15905      53434841 
 15905      525F4D41 
 15906              	.LASF494:
 15907 7cd3 5F5F474E 		.ascii	"__GNUC_PREREQ(maj,min) ((__GNUC__ << 16) + __GNUC_M"
 15907      55435F50 
 15907      52455245 
 15907      51286D61 
ARM GAS  C:\Users\30806\AppData\Local\Temp\ccYcD1nI.s 			page 361


 15907      6A2C6D69 
 15908 7d06 494E4F52 		.ascii	"INOR__ >= ((maj) << 16) + (min))\000"
 15908      5F5F203E 
 15908      3D202828 
 15908      6D616A29 
 15908      203C3C20 
 15909              	.LASF1070:
 15910 7d27 5F474C49 		.ascii	"_GLIBCXX_HAVE_BUILTIN_HAS_UNIQ_OBJ_REP 1\000"
 15910      42435858 
 15910      5F484156 
 15910      455F4255 
 15910      494C5449 
 15911              	.LASF1279:
 15912 7d50 636F7368 		.ascii	"cosh\000"
 15912      00
 15913              	.LASF31:
 15914 7d55 5F5F5349 		.ascii	"__SIZEOF_POINTER__ 4\000"
 15914      5A454F46 
 15914      5F504F49 
 15914      4E544552 
 15914      5F5F2034 
 15915              	.LASF867:
 15916 7d6a 5F5F444F 		.ascii	"__DOTS , ...\000"
 15916      5453202C 
 15916      202E2E2E 
 15916      00
 15917              	.LASF633:
 15918 7d77 494E5438 		.ascii	"INT8_C(x) __INT8_C(x)\000"
 15918      5F432878 
 15918      29205F5F 
 15918      494E5438 
 15918      5F432878 
 15919              	.LASF523:
 15920 7d8d 5F5F5F69 		.ascii	"___int_least32_t_defined 1\000"
 15920      6E745F6C 
 15920      65617374 
 15920      33325F74 
 15920      5F646566 
 15921              	.LASF932:
 15922 7da8 5F5F7075 		.ascii	"__pure __attribute__((__pure__))\000"
 15922      7265205F 
 15922      5F617474 
 15922      72696275 
 15922      74655F5F 
 15923              	.LASF1300:
 15924 7dc9 69736C65 		.ascii	"islessgreater\000"
 15924      73736772 
 15924      65617465 
 15924      7200
 15925              	.LASF1398:
 15926 7dd7 7467616D 		.ascii	"tgamma\000"
 15926      6D6100
 15927              	.LASF38:
 15928 7dde 5F5F5549 		.ascii	"__UINTMAX_TYPE__ long long unsigned int\000"
 15928      4E544D41 
 15928      585F5459 
 15928      50455F5F 
ARM GAS  C:\Users\30806\AppData\Local\Temp\ccYcD1nI.s 			page 362


 15928      206C6F6E 
 15929              	.LASF667:
 15930 7e06 5F545F53 		.ascii	"_T_SIZE \000"
 15930      495A4520 
 15930      00
 15931              	.LASF172:
 15932 7e0f 5F5F494E 		.ascii	"__INTPTR_WIDTH__ 32\000"
 15932      54505452 
 15932      5F574944 
 15932      54485F5F 
 15932      20333200 
 15933              	.LASF532:
 15934 7e23 5F5F696E 		.ascii	"__int20\000"
 15934      74323000 
 15935              	.LASF981:
 15936 7e2b 5F5F7472 		.ascii	"__trylocks_shared(...) __lock_annotate(shared_trylo"
 15936      796C6F63 
 15936      6B735F73 
 15936      68617265 
 15936      64282E2E 
 15937 7e5e 636B5F66 		.ascii	"ck_function(__VA_ARGS__))\000"
 15937      756E6374 
 15937      696F6E28 
 15937      5F5F5641 
 15937      5F415247 
 15938              	.LASF906:
 15939 7e78 5F5F434F 		.ascii	"__CONCAT1(x,y) x ## y\000"
 15939      4E434154 
 15939      3128782C 
 15939      79292078 
 15939      20232320 
 15940              	.LASF1363:
 15941 7e8e 6C72696E 		.ascii	"lrint\000"
 15941      7400
 15942              	.LASF938:
 15943 7e94 5F5F7265 		.ascii	"__result_use_check __attribute__((__warn_unused_res"
 15943      73756C74 
 15943      5F757365 
 15943      5F636865 
 15943      636B205F 
 15944 7ec7 756C745F 		.ascii	"ult__))\000"
 15944      5F292900 
 15945              	.LASF1257:
 15946 7ecf 4D5F4C4F 		.ascii	"M_LOG2_E _M_LN2\000"
 15946      47325F45 
 15946      205F4D5F 
 15946      4C4E3200 
 15947              	.LASF808:
 15948 7edf 5F5F6C6F 		.ascii	"__lock_release(lock) __retarget_lock_release(lock)\000"
 15948      636B5F72 
 15948      656C6561 
 15948      7365286C 
 15948      6F636B29 
 15949              	.LASF1715:
 15950 7f12 5F5A5374 		.ascii	"_ZSt11isunorderedff\000"
 15950      31316973 
 15950      756E6F72 
ARM GAS  C:\Users\30806\AppData\Local\Temp\ccYcD1nI.s 			page 363


 15950      64657265 
 15950      64666600 
 15951              	.LASF859:
 15952 7f26 5F524545 		.ascii	"_REENT_INIT_PTR(var) { memset((var), 0, sizeof(*(va"
 15952      4E545F49 
 15952      4E49545F 
 15952      50545228 
 15952      76617229 
 15953 7f59 72292929 		.ascii	"r))); _REENT_INIT_PTR_ZEROED(var); }\000"
 15953      3B205F52 
 15953      45454E54 
 15953      5F494E49 
 15953      545F5054 
 15954              	.LASF1074:
 15955 7f7e 5F474C49 		.ascii	"_GLIBCXX_HAVE_BUILTIN_IS_CONSTANT_EVALUATED 1\000"
 15955      42435858 
 15955      5F484156 
 15955      455F4255 
 15955      494C5449 
 15956              	.LASF619:
 15957 7fac 494E545F 		.ascii	"INT_FAST64_MAX (__INT_FAST64_MAX__)\000"
 15957      46415354 
 15957      36345F4D 
 15957      41582028 
 15957      5F5F494E 
 15958              	.LASF256:
 15959 7fd0 5F5F464C 		.ascii	"__FLT64_HAS_INFINITY__ 1\000"
 15959      5436345F 
 15959      4841535F 
 15959      494E4649 
 15959      4E495459 
 15960              	.LASF1445:
 15961 7fe9 4C44424C 		.ascii	"LDBL_MAX\000"
 15961      5F4D4158 
 15961      00
 15962              	.LASF1109:
 15963 7ff2 5F474C49 		.ascii	"_GLIBCXX_HAVE_LINK 1\000"
 15963      42435858 
 15963      5F484156 
 15963      455F4C49 
 15963      4E4B2031 
 15964              	.LASF1242:
 15965 8007 4D5F5049 		.ascii	"M_PI 3.14159265358979323846\000"
 15965      20332E31 
 15965      34313539 
 15965      32363533 
 15965      35383937 
 15966              	.LASF448:
 15967 8023 5F5F4152 		.ascii	"__ARM_FP\000"
 15967      4D5F4650 
 15967      00
 15968              	.LASF107:
 15969 802c 5F5F4C4F 		.ascii	"__LONG_LONG_MAX__ 0x7fffffffffffffffLL\000"
 15969      4E475F4C 
 15969      4F4E475F 
 15969      4D41585F 
 15969      5F203078 
ARM GAS  C:\Users\30806\AppData\Local\Temp\ccYcD1nI.s 			page 364


 15970              	.LASF1009:
 15971 8053 5F474C49 		.ascii	"_GLIBCXX20_DEPRECATED(MSG) \000"
 15971      42435858 
 15971      32305F44 
 15971      45505245 
 15971      43415445 
 15972              	.LASF1787:
 15973 806f 626F6F6C 		.ascii	"bool\000"
 15973      00
 15974              	.LASF683:
 15975 8074 5F545F57 		.ascii	"_T_WCHAR_ \000"
 15975      43484152 
 15975      5F2000
 15976              	.LASF1741:
 15977 807f 5F5A5374 		.ascii	"_ZSt4fminff\000"
 15977      34666D69 
 15977      6E666600 
 15978              	.LASF640:
 15979 808b 55494E54 		.ascii	"UINT64_C(x) __UINT64_C(x)\000"
 15979      36345F43 
 15979      28782920 
 15979      5F5F5549 
 15979      4E543634 
 15980              	.LASF926:
 15981 80a5 5F416C69 		.ascii	"_Alignof(x) alignof(x)\000"
 15981      676E6F66 
 15981      28782920 
 15981      616C6967 
 15981      6E6F6628 
 15982              	.LASF1766:
 15983 80bc 5F5A5374 		.ascii	"_ZSt10nexttowardee\000"
 15983      31306E65 
 15983      7874746F 
 15983      77617264 
 15983      656500
 15984              	.LASF295:
 15985 80cf 5F5F4C46 		.ascii	"__LFRACT_MIN__ (-0.5LR-0.5LR)\000"
 15985      52414354 
 15985      5F4D494E 
 15985      5F5F2028 
 15985      2D302E35 
 15986              	.LASF754:
 15987 80ed 5F484156 		.ascii	"_HAVE_CC_INHIBIT_LOOP_TO_LIBCALL 1\000"
 15987      455F4343 
 15987      5F494E48 
 15987      49424954 
 15987      5F4C4F4F 
 15988              	.LASF500:
 15989 8110 5F504F53 		.ascii	"_POSIX_C_SOURCE\000"
 15989      49585F43 
 15989      5F534F55 
 15989      52434500 
 15990              	.LASF1528:
 15991 8120 554C4F4E 		.ascii	"ULONG_LONG_MAX (LONG_LONG_MAX * 2ULL + 1ULL)\000"
 15991      475F4C4F 
 15991      4E475F4D 
 15991      41582028 
ARM GAS  C:\Users\30806\AppData\Local\Temp\ccYcD1nI.s 			page 365


 15991      4C4F4E47 
 15992              	.LASF963:
 15993 814d 5F5F5243 		.ascii	"__RCSID_SOURCE(s) struct __hack\000"
 15993      5349445F 
 15993      534F5552 
 15993      43452873 
 15993      29207374 
 15994              	.LASF1578:
 15995 816d 4941525F 		.ascii	"IAR_ONLY_LOW_OPTIMIZATION_ENTER \000"
 15995      4F4E4C59 
 15995      5F4C4F57 
 15995      5F4F5054 
 15995      494D495A 
 15996              	.LASF406:
 15997 818e 5F5F4743 		.ascii	"__GCC_ATOMIC_LLONG_LOCK_FREE 1\000"
 15997      435F4154 
 15997      4F4D4943 
 15997      5F4C4C4F 
 15997      4E475F4C 
 15998              	.LASF865:
 15999 81ad 5F535953 		.ascii	"_SYS_CDEFS_H_ \000"
 15999      5F434445 
 15999      46535F48 
 15999      5F2000
 16000              	.LASF1149:
 16001 81bc 5F474C49 		.ascii	"_GLIBCXX_HAVE_VWSCANF 1\000"
 16001      42435858 
 16001      5F484156 
 16001      455F5657 
 16001      5343414E 
 16002              	.LASF1454:
 16003 81d4 4C44424C 		.ascii	"LDBL_EPSILON __LDBL_EPSILON__\000"
 16003      5F455053 
 16003      494C4F4E 
 16003      205F5F4C 
 16003      44424C5F 
 16004              	.LASF302:
 16005 81f2 5F5F554C 		.ascii	"__ULFRACT_EPSILON__ 0x1P-32ULR\000"
 16005      46524143 
 16005      545F4550 
 16005      53494C4F 
 16005      4E5F5F20 
 16006              	.LASF1053:
 16007 8211 5F474C49 		.ascii	"_GLIBCXX_END_EXTERN_C }\000"
 16007      42435858 
 16007      5F454E44 
 16007      5F455854 
 16007      45524E5F 
 16008              	.LASF87:
 16009 8229 5F5F6370 		.ascii	"__cpp_delegating_constructors 200604L\000"
 16009      705F6465 
 16009      6C656761 
 16009      74696E67 
 16009      5F636F6E 
 16010              	.LASF118:
 16011 824f 5F5F4C4F 		.ascii	"__LONG_LONG_WIDTH__ 64\000"
 16011      4E475F4C 
ARM GAS  C:\Users\30806\AppData\Local\Temp\ccYcD1nI.s 			page 366


 16011      4F4E475F 
 16011      57494454 
 16011      485F5F20 
 16012              	.LASF1479:
 16013 8266 494F565F 		.ascii	"IOV_MAX 1024\000"
 16013      4D415820 
 16013      31303234 
 16013      00
 16014              	.LASF1402:
 16015 8273 7472756E 		.ascii	"truncf\000"
 16015      636600
 16016              	.LASF1444:
 16017 827a 44424C5F 		.ascii	"DBL_MAX\000"
 16017      4D415800 
 16018              	.LASF530:
 16019 8282 63686172 		.ascii	"char\000"
 16019      00
 16020              	.LASF1648:
 16021 8287 5F5A5374 		.ascii	"_ZSt3tane\000"
 16021      3374616E 
 16021      6500
 16022              	.LASF1649:
 16023 8291 5F5A5374 		.ascii	"_ZSt3tanf\000"
 16023      3374616E 
 16023      6600
 16024              	.LASF253:
 16025 829b 5F5F464C 		.ascii	"__FLT64_EPSILON__ 2.2204460492503131e-16F64\000"
 16025      5436345F 
 16025      45505349 
 16025      4C4F4E5F 
 16025      5F20322E 
 16026              	.LASF131:
 16027 82c7 5F5F494E 		.ascii	"__INT8_MAX__ 0x7f\000"
 16027      54385F4D 
 16027      41585F5F 
 16027      20307837 
 16027      6600
 16028              	.LASF745:
 16029 82d9 5F5F4E45 		.ascii	"__NEWLIB_H__ 1\000"
 16029      574C4942 
 16029      5F485F5F 
 16029      203100
 16030              	.LASF617:
 16031 82e8 55494E54 		.ascii	"UINT_FAST32_MAX (__UINT_FAST32_MAX__)\000"
 16031      5F464153 
 16031      5433325F 
 16031      4D415820 
 16031      285F5F55 
 16032              	.LASF1767:
 16033 830e 5F5A5374 		.ascii	"_ZSt10nexttowardfe\000"
 16033      31306E65 
 16033      7874746F 
 16033      77617264 
 16033      666500
 16034              	.LASF1389:
 16035 8321 726F756E 		.ascii	"round\000"
 16035      6400
ARM GAS  C:\Users\30806\AppData\Local\Temp\ccYcD1nI.s 			page 367


 16036              	.LASF1270:
 16037 8327 52414E44 		.ascii	"RAND_MAX __RAND_MAX\000"
 16037      5F4D4158 
 16037      205F5F52 
 16037      414E445F 
 16037      4D415800 
 16038              	.LASF348:
 16039 833b 5F5F554C 		.ascii	"__ULLACCUM_FBIT__ 32\000"
 16039      4C414343 
 16039      554D5F46 
 16039      4249545F 
 16039      5F203332 
 16040              	.LASF711:
 16041 8350 5F5F5553 		.ascii	"__USED __attribute__((used))\000"
 16041      4544205F 
 16041      5F617474 
 16041      72696275 
 16041      74655F5F 
 16042              	.LASF226:
 16043 836d 5F5F4C44 		.ascii	"__LDBL_HAS_QUIET_NAN__ 1\000"
 16043      424C5F48 
 16043      41535F51 
 16043      55494554 
 16043      5F4E414E 
 16044              	.LASF86:
 16045 8386 5F5F6370 		.ascii	"__cpp_initializer_lists 200806L\000"
 16045      705F696E 
 16045      69746961 
 16045      6C697A65 
 16045      725F6C69 
 16046              	.LASF1564:
 16047 83a6 5F5F5349 		.ascii	"__SIMD32_CONST(addr) ( (__SIMD32_TYPE * ) (addr))\000"
 16047      4D443332 
 16047      5F434F4E 
 16047      53542861 
 16047      64647229 
 16048              	.LASF108:
 16049 83d8 5F5F5743 		.ascii	"__WCHAR_MAX__ 0xffffffffU\000"
 16049      4841525F 
 16049      4D41585F 
 16049      5F203078 
 16049      66666666 
 16050              	.LASF1319:
 16051 83f2 65726663 		.ascii	"erfc\000"
 16051      00
 16052              	.LASF1163:
 16053 83f7 5F474C49 		.ascii	"_GLIBCXX11_USE_C99_STDIO 1\000"
 16053      42435858 
 16053      31315F55 
 16053      53455F43 
 16053      39395F53 
 16054              	.LASF1305:
 16055 8412 6173696E 		.ascii	"asinh\000"
 16055      6800
 16056              	.LASF1318:
 16057 8418 6572666C 		.ascii	"erfl\000"
 16057      00
ARM GAS  C:\Users\30806\AppData\Local\Temp\ccYcD1nI.s 			page 368


 16058              	.LASF501:
 16059 841d 5F504F53 		.ascii	"_POSIX_C_SOURCE 200809L\000"
 16059      49585F43 
 16059      5F534F55 
 16059      52434520 
 16059      32303038 
 16060              	.LASF1499:
 16061 8435 55434841 		.ascii	"UCHAR_MAX\000"
 16061      525F4D41 
 16061      5800
 16062              	.LASF583:
 16063 843f 494E5450 		.ascii	"INTPTR_MAX (__INTPTR_MAX__)\000"
 16063      54525F4D 
 16063      41582028 
 16063      5F5F494E 
 16063      54505452 
 16064              	.LASF97:
 16065 845b 5F5F6370 		.ascii	"__cpp_aggregate_nsdmi 201304L\000"
 16065      705F6167 
 16065      67726567 
 16065      6174655F 
 16065      6E73646D 
 16066              	.LASF1403:
 16067 8479 7472756E 		.ascii	"truncl\000"
 16067      636C00
 16068              	.LASF349:
 16069 8480 5F5F554C 		.ascii	"__ULLACCUM_IBIT__ 32\000"
 16069      4C414343 
 16069      554D5F49 
 16069      4249545F 
 16069      5F203332 
 16070              	.LASF1633:
 16071 8495 5F5A5374 		.ascii	"_ZSt3absd\000"
 16071      33616273 
 16071      6400
 16072              	.LASF1631:
 16073 849f 5F5A5374 		.ascii	"_ZSt3abse\000"
 16073      33616273 
 16073      6500
 16074              	.LASF1632:
 16075 84a9 5F5A5374 		.ascii	"_ZSt3absf\000"
 16075      33616273 
 16075      6600
 16076              	.LASF1670:
 16077 84b3 5F5A5374 		.ascii	"_ZSt4sqrte\000"
 16077      34737172 
 16077      746500
 16078              	.LASF1671:
 16079 84be 5F5A5374 		.ascii	"_ZSt4sqrtf\000"
 16079      34737172 
 16079      746600
 16080              	.LASF211:
 16081 84c9 5F5F4C44 		.ascii	"__LDBL_MANT_DIG__ 53\000"
 16081      424C5F4D 
 16081      414E545F 
 16081      4449475F 
 16081      5F203533 
ARM GAS  C:\Users\30806\AppData\Local\Temp\ccYcD1nI.s 			page 369


 16082              	.LASF1635:
 16083 84de 5F5A5374 		.ascii	"_ZSt3absl\000"
 16083      33616273 
 16083      6C00
 16084              	.LASF1341:
 16085 84e8 6879706F 		.ascii	"hypotl\000"
 16085      746C00
 16086              	.LASF308:
 16087 84ef 5F5F554C 		.ascii	"__ULLFRACT_FBIT__ 64\000"
 16087      4C465241 
 16087      43545F46 
 16087      4249545F 
 16087      5F203634 
 16088              	.LASF1778:
 16089 8504 5F5A5374 		.ascii	"_ZSt6scalbnei\000"
 16089      36736361 
 16089      6C626E65 
 16089      6900
 16090              	.LASF1326:
 16091 8512 6578706D 		.ascii	"expm1f\000"
 16091      316600
 16092              	.LASF360:
 16093 8519 5F5F4451 		.ascii	"__DQ_IBIT__ 0\000"
 16093      5F494249 
 16093      545F5F20 
 16093      3000
 16094              	.LASF1634:
 16095 8527 5F5A5374 		.ascii	"_ZSt3absx\000"
 16095      33616273 
 16095      7800
 16096              	.LASF1327:
 16097 8531 6578706D 		.ascii	"expm1l\000"
 16097      316C00
 16098              	.LASF250:
 16099 8538 5F5F464C 		.ascii	"__FLT64_MAX__ 1.7976931348623157e+308F64\000"
 16099      5436345F 
 16099      4D41585F 
 16099      5F20312E 
 16099      37393736 
 16100              	.LASF596:
 16101 8561 55494E54 		.ascii	"UINT_LEAST16_MAX (__UINT_LEAST16_MAX__)\000"
 16101      5F4C4541 
 16101      53543136 
 16101      5F4D4158 
 16101      20285F5F 
 16102              	.LASF672:
 16103 8589 5F53495A 		.ascii	"_SIZE_T_DEFINED \000"
 16103      455F545F 
 16103      44454649 
 16103      4E454420 
 16103      00
 16104              	.LASF1481:
 16105 859a 42435F44 		.ascii	"BC_DIM_MAX 2048\000"
 16105      494D5F4D 
 16105      41582032 
 16105      30343800 
 16106              	.LASF586:
ARM GAS  C:\Users\30806\AppData\Local\Temp\ccYcD1nI.s 			page 370


 16107 85aa 494E5438 		.ascii	"INT8_MAX (__INT8_MAX__)\000"
 16107      5F4D4158 
 16107      20285F5F 
 16107      494E5438 
 16107      5F4D4158 
 16108              	.LASF751:
 16109 85c2 48415645 		.ascii	"HAVE_INITFINI_ARRAY 1\000"
 16109      5F494E49 
 16109      5446494E 
 16109      495F4152 
 16109      52415920 
 16110              	.LASF1019:
 16111 85d8 5F474C49 		.ascii	"_GLIBCXX_NOEXCEPT_IF(...) noexcept(__VA_ARGS__)\000"
 16111      42435858 
 16111      5F4E4F45 
 16111      58434550 
 16111      545F4946 
 16112              	.LASF1657:
 16113 8608 5F5A5374 		.ascii	"_ZSt3expf\000"
 16113      33657870 
 16113      6600
 16114              	.LASF517:
 16115 8612 5F5F5F69 		.ascii	"___int8_t_defined 1\000"
 16115      6E74385F 
 16115      745F6465 
 16115      66696E65 
 16115      64203100 
 16116              	.LASF130:
 16117 8626 5F5F5349 		.ascii	"__SIG_ATOMIC_WIDTH__ 32\000"
 16117      475F4154 
 16117      4F4D4943 
 16117      5F574944 
 16117      54485F5F 
 16118              	.LASF552:
 16119 863e 5F5F4641 		.ascii	"__FAST64 \"ll\"\000"
 16119      53543634 
 16119      20226C6C 
 16119      2200
 16120              	.LASF1736:
 16121 864c 5F5A5374 		.ascii	"_ZSt3fmaeee\000"
 16121      33666D61 
 16121      65656500 
 16122              	.LASF470:
 16123 8658 5F5F4152 		.ascii	"__ARM_FEATURE_CDE\000"
 16123      4D5F4645 
 16123      41545552 
 16123      455F4344 
 16123      4500
 16124              	.LASF397:
 16125 866a 5F5F4743 		.ascii	"__GCC_HAVE_SYNC_COMPARE_AND_SWAP_4 1\000"
 16125      435F4841 
 16125      56455F53 
 16125      594E435F 
 16125      434F4D50 
 16126              	.LASF1654:
 16127 868f 5F5A5374 		.ascii	"_ZSt4tanhe\000"
 16127      3474616E 
ARM GAS  C:\Users\30806\AppData\Local\Temp\ccYcD1nI.s 			page 371


 16127      686500
 16128              	.LASF1655:
 16129 869a 5F5A5374 		.ascii	"_ZSt4tanhf\000"
 16129      3474616E 
 16129      686600
 16130              	.LASF505:
 16131 86a5 5F5F4253 		.ascii	"__BSD_VISIBLE 1\000"
 16131      445F5649 
 16131      5349424C 
 16131      45203100 
 16132              	.LASF575:
 16133 86b5 5F5F696E 		.ascii	"__int_least16_t_defined 1\000"
 16133      745F6C65 
 16133      61737431 
 16133      365F745F 
 16133      64656669 
 16134              	.LASF1433:
 16135 86cf 4C44424C 		.ascii	"LDBL_MAX_EXP\000"
 16135      5F4D4158 
 16135      5F455850 
 16135      00
 16136              	.LASF588:
 16137 86dc 494E545F 		.ascii	"INT_LEAST8_MIN (-__INT_LEAST8_MAX__ - 1)\000"
 16137      4C454153 
 16137      54385F4D 
 16137      494E2028 
 16137      2D5F5F49 
 16138              	.LASF427:
 16139 8705 5F5F4152 		.ascii	"__ARM_FEATURE_LDREX\000"
 16139      4D5F4645 
 16139      41545552 
 16139      455F4C44 
 16139      52455800 
 16140              	.LASF1094:
 16141 8719 5F474C49 		.ascii	"_GLIBCXX_HAVE_GETS 1\000"
 16141      42435858 
 16141      5F484156 
 16141      455F4745 
 16141      54532031 
 16142              	.LASF572:
 16143 872e 5F494E54 		.ascii	"_INTPTR_T_DECLARED \000"
 16143      5054525F 
 16143      545F4445 
 16143      434C4152 
 16143      45442000 
 16144              	.LASF155:
 16145 8742 5F5F5549 		.ascii	"__UINT_LEAST32_MAX__ 0xffffffffUL\000"
 16145      4E545F4C 
 16145      45415354 
 16145      33325F4D 
 16145      41585F5F 
 16146              	.LASF1779:
 16147 8764 5F5A5374 		.ascii	"_ZSt6scalbnfi\000"
 16147      36736361 
 16147      6C626E66 
 16147      6900
 16148              	.LASF544:
ARM GAS  C:\Users\30806\AppData\Local\Temp\ccYcD1nI.s 			page 372


 16149 8772 5F494E54 		.ascii	"_INT32_EQ_LONG \000"
 16149      33325F45 
 16149      515F4C4F 
 16149      4E472000 
 16150              	.LASF1768:
 16151 8782 5F5A5374 		.ascii	"_ZSt9remainderee\000"
 16151      3972656D 
 16151      61696E64 
 16151      65726565 
 16151      00
 16152              	.LASF325:
 16153 8793 5F5F4143 		.ascii	"__ACCUM_MIN__ (-0X1P15K-0X1P15K)\000"
 16153      43554D5F 
 16153      4D494E5F 
 16153      5F20282D 
 16153      30583150 
 16154              	.LASF1000:
 16155 87b4 5F474C49 		.ascii	"_GLIBCXX_PURE __attribute__ ((__pure__))\000"
 16155      42435858 
 16155      5F505552 
 16155      45205F5F 
 16155      61747472 
 16156              	.LASF27:
 16157 87dd 5F5F4F52 		.ascii	"__ORDER_BIG_ENDIAN__ 4321\000"
 16157      4445525F 
 16157      4249475F 
 16157      454E4449 
 16157      414E5F5F 
 16158              	.LASF426:
 16159 87f7 5F5F4152 		.ascii	"__ARM_FEATURE_CMSE\000"
 16159      4D5F4645 
 16159      41545552 
 16159      455F434D 
 16159      534500
 16160              	.LASF1131:
 16161 880a 5F474C49 		.ascii	"_GLIBCXX_HAVE_STRING_H 1\000"
 16161      42435858 
 16161      5F484156 
 16161      455F5354 
 16161      52494E47 
 16162              	.LASF291:
 16163 8823 5F5F5546 		.ascii	"__UFRACT_MAX__ 0XFFFFP-16UR\000"
 16163      52414354 
 16163      5F4D4158 
 16163      5F5F2030 
 16163      58464646 
 16164              	.LASF608:
 16165 883f 55494E54 		.ascii	"UINT_LEAST64_MAX (__UINT_LEAST64_MAX__)\000"
 16165      5F4C4541 
 16165      53543634 
 16165      5F4D4158 
 16165      20285F5F 
 16166              	.LASF487:
 16167 8867 5F4D4143 		.ascii	"_MACHINE__DEFAULT_TYPES_H \000"
 16167      48494E45 
 16167      5F5F4445 
 16167      4641554C 
ARM GAS  C:\Users\30806\AppData\Local\Temp\ccYcD1nI.s 			page 373


 16167      545F5459 
 16168              	.LASF64:
 16169 8882 5F5F5549 		.ascii	"__UINT_FAST32_TYPE__ unsigned int\000"
 16169      4E545F46 
 16169      41535433 
 16169      325F5459 
 16169      50455F5F 
 16170              	.LASF720:
 16171 88a4 5F5F554E 		.ascii	"__UNALIGNED_UINT32_READ(addr) (((const struct T_UIN"
 16171      414C4947 
 16171      4E45445F 
 16171      55494E54 
 16171      33325F52 
 16172 88d7 5433325F 		.ascii	"T32_READ *)(const void *)(addr))->v)\000"
 16172      52454144 
 16172      202A2928 
 16172      636F6E73 
 16172      7420766F 
 16173              	.LASF129:
 16174 88fc 5F5F5349 		.ascii	"__SIG_ATOMIC_MIN__ (-__SIG_ATOMIC_MAX__ - 1)\000"
 16174      475F4154 
 16174      4F4D4943 
 16174      5F4D494E 
 16174      5F5F2028 
 16175              	.LASF1047:
 16176 8929 5F474C49 		.ascii	"_GLIBCXX_BEGIN_NAMESPACE_LDBL_OR_CXX11 _GLIBCXX_BEG"
 16176      42435858 
 16176      5F424547 
 16176      494E5F4E 
 16176      414D4553 
 16177 895c 494E5F4E 		.ascii	"IN_NAMESPACE_CXX11\000"
 16177      414D4553 
 16177      50414345 
 16177      5F435858 
 16177      313100
 16178              	.LASF1514:
 16179 896f 494E545F 		.ascii	"INT_MAX __INT_MAX__\000"
 16179      4D415820 
 16179      5F5F494E 
 16179      545F4D41 
 16179      585F5F00 
 16180              	.LASF1083:
 16181 8983 5F474C49 		.ascii	"_GLIBCXX_HAVE_COSF 1\000"
 16181      42435858 
 16181      5F484156 
 16181      455F434F 
 16181      53462031 
 16182              	.LASF599:
 16183 8998 55494E54 		.ascii	"UINT32_MAX (__UINT32_MAX__)\000"
 16183      33325F4D 
 16183      41582028 
 16183      5F5F5549 
 16183      4E543332 
 16184              	.LASF1170:
 16185 89b4 5F474C49 		.ascii	"_GLIBCXX_ATOMIC_BUILTINS 1\000"
 16185      42435858 
 16185      5F41544F 
ARM GAS  C:\Users\30806\AppData\Local\Temp\ccYcD1nI.s 			page 374


 16185      4D49435F 
 16185      4255494C 
 16186              	.LASF822:
 16187 89cf 5F524545 		.ascii	"_REENT_ASCTIME_SIZE 26\000"
 16187      4E545F41 
 16187      53435449 
 16187      4D455F53 
 16187      495A4520 
 16188              	.LASF1198:
 16189 89e6 5F455854 		.ascii	"_EXT_TYPE_TRAITS 1\000"
 16189      5F545950 
 16189      455F5452 
 16189      41495453 
 16189      203100
 16190              	.LASF712:
 16191 89f9 5F5F5745 		.ascii	"__WEAK __attribute__((weak))\000"
 16191      414B205F 
 16191      5F617474 
 16191      72696275 
 16191      74655F5F 
 16192              	.LASF696:
 16193 8a16 5F5F6E65 		.ascii	"__need_wchar_t\000"
 16193      65645F77 
 16193      63686172 
 16193      5F7400
 16194              	.LASF186:
 16195 8a25 5F5F464C 		.ascii	"__FLT_DECIMAL_DIG__ 9\000"
 16195      545F4445 
 16195      43494D41 
 16195      4C5F4449 
 16195      475F5F20 
 16196              	.LASF1463:
 16197 8a3b 44454349 		.ascii	"DECIMAL_DIG\000"
 16197      4D414C5F 
 16197      44494700 
 16198              	.LASF44:
 16199 8a47 5F5F494E 		.ascii	"__INT32_TYPE__ long int\000"
 16199      5433325F 
 16199      54595045 
 16199      5F5F206C 
 16199      6F6E6720 
 16200              	.LASF654:
 16201 8a5f 5F545F50 		.ascii	"_T_PTRDIFF \000"
 16201      54524449 
 16201      46462000 
 16202              	.LASF1769:
 16203 8a6b 5F5A5374 		.ascii	"_ZSt9remainderff\000"
 16203      3972656D 
 16203      61696E64 
 16203      65726666 
 16203      00
 16204              	.LASF1297:
 16205 8a7c 69736772 		.ascii	"isgreaterequal\000"
 16205      65617465 
 16205      72657175 
 16205      616C00
 16206              	.LASF319:
ARM GAS  C:\Users\30806\AppData\Local\Temp\ccYcD1nI.s 			page 375


 16207 8a8b 5F5F5553 		.ascii	"__USACCUM_IBIT__ 8\000"
 16207      41434355 
 16207      4D5F4942 
 16207      49545F5F 
 16207      203800
 16208              	.LASF1734:
 16209 8a9e 5F5A5374 		.ascii	"_ZSt4fdimee\000"
 16209      34666469 
 16209      6D656500 
 16210              	.LASF990:
 16211 8aaa 5F5F6E6F 		.ascii	"__nosanitizethread \000"
 16211      73616E69 
 16211      74697A65 
 16211      74687265 
 16211      61642000 
 16212              	.LASF1003:
 16213 8abe 5F474C49 		.ascii	"_GLIBCXX_HAVE_ATTRIBUTE_VISIBILITY 1\000"
 16213      42435858 
 16213      5F484156 
 16213      455F4154 
 16213      54524942 
 16214              	.LASF728:
 16215 8ae3 5F5F5645 		.ascii	"__VECTOR_TABLE_ATTRIBUTE __attribute__((used, secti"
 16215      43544F52 
 16215      5F544142 
 16215      4C455F41 
 16215      54545249 
 16216 8b16 6F6E2822 		.ascii	"on(\".vectors\")))\000"
 16216      2E766563 
 16216      746F7273 
 16216      22292929 
 16216      00
 16217              	.LASF1386:
 16218 8b27 72696E74 		.ascii	"rint\000"
 16218      00
 16219              	.LASF771:
 16220 8b2c 5F524541 		.ascii	"_READ_WRITE_RETURN_TYPE int\000"
 16220      445F5752 
 16220      4954455F 
 16220      52455455 
 16220      524E5F54 
 16221              	.LASF300:
 16222 8b48 5F5F554C 		.ascii	"__ULFRACT_MIN__ 0.0ULR\000"
 16222      46524143 
 16222      545F4D49 
 16222      4E5F5F20 
 16222      302E3055 
 16223              	.LASF374:
 16224 8b5f 5F5F4841 		.ascii	"__HA_IBIT__ 8\000"
 16224      5F494249 
 16224      545F5F20 
 16224      3800
 16225              	.LASF1384:
 16226 8b6d 72656D71 		.ascii	"remquof\000"
 16226      756F6600 
 16227              	.LASF812:
 16228 8b75 5F524545 		.ascii	"_REENT_INIT_ATEXIT _NULL, _ATEXIT_INIT,\000"
ARM GAS  C:\Users\30806\AppData\Local\Temp\ccYcD1nI.s 			page 376


 16228      4E545F49 
 16228      4E49545F 
 16228      41544558 
 16228      4954205F 
 16229              	.LASF431:
 16230 8b9d 5F5F4152 		.ascii	"__ARM_FEATURE_SIMD32 1\000"
 16230      4D5F4645 
 16230      41545552 
 16230      455F5349 
 16230      4D443332 
 16231              	.LASF1346:
 16232 8bb4 6C67616D 		.ascii	"lgammaf\000"
 16232      6D616600 
 16233              	.LASF1176:
 16234 8bbc 5F474C49 		.ascii	"_GLIBCXX_STDIO_EOF -1\000"
 16234      42435858 
 16234      5F535444 
 16234      494F5F45 
 16234      4F46202D 
 16235              	.LASF1336:
 16236 8bd2 666D696E 		.ascii	"fmin\000"
 16236      00
 16237              	.LASF1125:
 16238 8bd7 5F474C49 		.ascii	"_GLIBCXX_HAVE_STDALIGN_H 1\000"
 16238      42435858 
 16238      5F484156 
 16238      455F5354 
 16238      44414C49 
 16239              	.LASF1210:
 16240 8bf2 46505F4E 		.ascii	"FP_NAN 0\000"
 16240      414E2030 
 16240      00
 16241              	.LASF15:
 16242 8bfb 5F5F4649 		.ascii	"__FINITE_MATH_ONLY__ 0\000"
 16242      4E495445 
 16242      5F4D4154 
 16242      485F4F4E 
 16242      4C595F5F 
 16243              	.LASF1102:
 16244 8c12 5F474C49 		.ascii	"_GLIBCXX_HAVE_LC_MESSAGES 1\000"
 16244      42435858 
 16244      5F484156 
 16244      455F4C43 
 16244      5F4D4553 
 16245              	.LASF811:
 16246 8c2e 5F415445 		.ascii	"_ATEXIT_INIT {_NULL, 0, {_NULL}, {{_NULL}, {_NULL},"
 16246      5849545F 
 16246      494E4954 
 16246      207B5F4E 
 16246      554C4C2C 
 16247 8c61 20302C20 		.ascii	" 0, 0}}\000"
 16247      307D7D00 
 16248              	.LASF1081:
 16249 8c69 5F474C49 		.ascii	"_GLIBCXX_HAVE_CEILF 1\000"
 16249      42435858 
 16249      5F484156 
 16249      455F4345 
ARM GAS  C:\Users\30806\AppData\Local\Temp\ccYcD1nI.s 			page 377


 16249      494C4620 
 16250              	.LASF1298:
 16251 8c7f 69736C65 		.ascii	"isless\000"
 16251      737300
 16252              	.LASF1079:
 16253 8c86 5F474C49 		.ascii	"_GLIBCXX_HAVE_ATANF 1\000"
 16253      42435858 
 16253      5F484156 
 16253      455F4154 
 16253      414E4620 
 16254              	.LASF1239:
 16255 8c9c 4D5F4C4F 		.ascii	"M_LOG10E 0.43429448190325182765\000"
 16255      47313045 
 16255      20302E34 
 16255      33343239 
 16255      34343831 
 16256              	.LASF1240:
 16257 8cbc 4D5F4C4E 		.ascii	"M_LN2 _M_LN2\000"
 16257      32205F4D 
 16257      5F4C4E32 
 16257      00
 16258              	.LASF474:
 16259 8cc9 5F5F4152 		.ascii	"__ARM_FEATURE_BF16_VECTOR_ARITHMETIC\000"
 16259      4D5F4645 
 16259      41545552 
 16259      455F4246 
 16259      31365F56 
 16260              	.LASF98:
 16261 8cee 5F5F6370 		.ascii	"__cpp_variable_templates 201304L\000"
 16261      705F7661 
 16261      72696162 
 16261      6C655F74 
 16261      656D706C 
 16262              	.LASF1606:
 16263 8d0f 6D6F7469 		.ascii	"motion_acceleration_control\000"
 16263      6F6E5F61 
 16263      6363656C 
 16263      65726174 
 16263      696F6E5F 
 16264              	.LASF1193:
 16265 8d2b 5F474C49 		.ascii	"_GLIBCXX_VERBOSE 1\000"
 16265      42435858 
 16265      5F564552 
 16265      424F5345 
 16265      203100
 16266              	.LASF627:
 16267 8d3e 50545244 		.ascii	"PTRDIFF_MAX (__PTRDIFF_MAX__)\000"
 16267      4946465F 
 16267      4D415820 
 16267      285F5F50 
 16267      54524449 
 16268              	.LASF623:
 16269 8d5c 55494E54 		.ascii	"UINTMAX_MAX (__UINTMAX_MAX__)\000"
 16269      4D41585F 
 16269      4D415820 
 16269      285F5F55 
 16269      494E544D 
ARM GAS  C:\Users\30806\AppData\Local\Temp\ccYcD1nI.s 			page 378


 16270              	.LASF600:
 16271 8d7a 494E545F 		.ascii	"INT_LEAST32_MIN (-__INT_LEAST32_MAX__ - 1)\000"
 16271      4C454153 
 16271      5433325F 
 16271      4D494E20 
 16271      282D5F5F 
 16272              	.LASF1570:
 16273 8da5 6D756C74 		.ascii	"multAcc_32x32_keep32_R(a,x,y) a = (q31_t) (((((q63_"
 16273      4163635F 
 16273      33327833 
 16273      325F6B65 
 16273      65703332 
 16274 8dd8 74292061 		.ascii	"t) a) << 32) + ((q63_t) x * y) + 0x80000000LL ) >> "
 16274      29203C3C 
 16274      20333229 
 16274      202B2028 
 16274      28713633 
 16275 8e0b 33322900 		.ascii	"32)\000"
 16276              	.LASF882:
 16277 8e0f 5F5F454E 		.ascii	"__END_DECLS }\000"
 16277      445F4445 
 16277      434C5320 
 16277      7D00
 16278              	.LASF1732:
 16279 8e1d 5F5A5374 		.ascii	"_ZSt5expm1e\000"
 16279      35657870 
 16279      6D316500 
 16280              	.LASF1733:
 16281 8e29 5F5A5374 		.ascii	"_ZSt5expm1f\000"
 16281      35657870 
 16281      6D316600 
 16282              	.LASF1139:
 16283 8e35 5F474C49 		.ascii	"_GLIBCXX_HAVE_S_ISREG 1\000"
 16283      42435858 
 16283      5F484156 
 16283      455F535F 
 16283      49535245 
 16284              	.LASF1024:
 16285 8e4d 5F474C49 		.ascii	"_GLIBCXX_NOEXCEPT_PARM \000"
 16285      42435858 
 16285      5F4E4F45 
 16285      58434550 
 16285      545F5041 
 16286              	.LASF809:
 16287 8e65 5F5F6C6F 		.ascii	"__lock_release_recursive(lock) __retarget_lock_rele"
 16287      636B5F72 
 16287      656C6561 
 16287      73655F72 
 16287      65637572 
 16288 8e98 6173655F 		.ascii	"ase_recursive(lock)\000"
 16288      72656375 
 16288      72736976 
 16288      65286C6F 
 16288      636B2900 
 16289              	.LASF432:
 16290 8eac 5F5F4152 		.ascii	"__ARM_SIZEOF_MINIMAL_ENUM 1\000"
 16290      4D5F5349 
ARM GAS  C:\Users\30806\AppData\Local\Temp\ccYcD1nI.s 			page 379


 16290      5A454F46 
 16290      5F4D494E 
 16290      494D414C 
 16291              	.LASF1677:
 16292 8ec8 5F5A5374 		.ascii	"_ZSt5floorf\000"
 16292      35666C6F 
 16292      6F726600 
 16293              	.LASF1334:
 16294 8ed4 666D6178 		.ascii	"fmaxf\000"
 16294      6600
 16295              	.LASF149:
 16296 8eda 5F5F494E 		.ascii	"__INT64_C(c) c ## LL\000"
 16296      5436345F 
 16296      43286329 
 16296      20632023 
 16296      23204C4C 
 16297              	.LASF546:
 16298 8eef 5F5F494E 		.ascii	"__INT16 \"h\"\000"
 16298      54313620 
 16298      22682200 
 16299              	.LASF421:
 16300 8efb 5F5F4152 		.ascii	"__ARM_FEATURE_CRC32\000"
 16300      4D5F4645 
 16300      41545552 
 16300      455F4352 
 16300      43333200 
 16301              	.LASF527:
 16302 8f0f 5F5F5354 		.ascii	"__STDINT_EXP(x) __ ##x ##__\000"
 16302      44494E54 
 16302      5F455850 
 16302      28782920 
 16302      5F5F2023 
 16303              	.LASF377:
 16304 8f2b 5F5F4441 		.ascii	"__DA_FBIT__ 31\000"
 16304      5F464249 
 16304      545F5F20 
 16304      333100
 16305              	.LASF236:
 16306 8f3a 5F5F464C 		.ascii	"__FLT32_MIN__ 1.1754943508222875e-38F32\000"
 16306      5433325F 
 16306      4D494E5F 
 16306      5F20312E 
 16306      31373534 
 16307              	.LASF1397:
 16308 8f62 7363616C 		.ascii	"scalbnl\000"
 16308      626E6C00 
 16309              	.LASF477:
 16310 8f6a 5F5F454C 		.ascii	"__ELF__ 1\000"
 16310      465F5F20 
 16310      3100
 16311              	.LASF1525:
 16312 8f74 4C4F4E47 		.ascii	"LONG_LONG_MAX\000"
 16312      5F4C4F4E 
 16312      475F4D41 
 16312      5800
 16313              	.LASF1401:
 16314 8f82 7472756E 		.ascii	"trunc\000"
ARM GAS  C:\Users\30806\AppData\Local\Temp\ccYcD1nI.s 			page 380


 16314      6300
 16315              	.LASF557:
 16316 8f88 5F535953 		.ascii	"_SYS__STDINT_H \000"
 16316      5F5F5354 
 16316      44494E54 
 16316      5F482000 
 16317              	.LASF909:
 16318 8f98 5F5F5853 		.ascii	"__XSTRING(x) __STRING(x)\000"
 16318      5452494E 
 16318      47287829 
 16318      205F5F53 
 16318      5452494E 
 16319              	.LASF479:
 16320 8fb1 5553455F 		.ascii	"USE_HAL_DRIVER 1\000"
 16320      48414C5F 
 16320      44524956 
 16320      45522031 
 16320      00
 16321              	.LASF964:
 16322 8fc2 5F5F5343 		.ascii	"__SCCSID(s) struct __hack\000"
 16322      43534944 
 16322      28732920 
 16322      73747275 
 16322      6374205F 
 16323              	.LASF398:
 16324 8fdc 5F5F4743 		.ascii	"__GCC_ATOMIC_BOOL_LOCK_FREE 2\000"
 16324      435F4154 
 16324      4F4D4943 
 16324      5F424F4F 
 16324      4C5F4C4F 
 16325              	.LASF163:
 16326 8ffa 5F5F494E 		.ascii	"__INT_FAST32_MAX__ 0x7fffffff\000"
 16326      545F4641 
 16326      53543332 
 16326      5F4D4158 
 16326      5F5F2030 
 16327              	.LASF1640:
 16328 9018 5F5A5374 		.ascii	"_ZSt4atane\000"
 16328      34617461 
 16328      6E6500
 16329              	.LASF1641:
 16330 9023 5F5A5374 		.ascii	"_ZSt4atanf\000"
 16330      34617461 
 16330      6E6600
 16331              	.LASF1078:
 16332 902e 5F474C49 		.ascii	"_GLIBCXX_HAVE_ATAN2F 1\000"
 16332      42435858 
 16332      5F484156 
 16332      455F4154 
 16332      414E3246 
 16333              	.LASF1708:
 16334 9045 5F5A5374 		.ascii	"_ZSt11islessequaldd\000"
 16334      31316973 
 16334      6C657373 
 16334      65717561 
 16334      6C646400 
 16335              	.LASF561:
ARM GAS  C:\Users\30806\AppData\Local\Temp\ccYcD1nI.s 			page 381


 16336 9059 5F494E54 		.ascii	"_INT16_T_DECLARED \000"
 16336      31365F54 
 16336      5F444543 
 16336      4C415245 
 16336      442000
 16337              	.LASF1042:
 16338 906c 5F474C49 		.ascii	"_GLIBCXX_LONG_DOUBLE_COMPAT\000"
 16338      42435858 
 16338      5F4C4F4E 
 16338      475F444F 
 16338      55424C45 
 16339              	.LASF861:
 16340 9088 5F5F4154 		.ascii	"__ATTRIBUTE_IMPURE_PTR__ \000"
 16340      54524942 
 16340      5554455F 
 16340      494D5055 
 16340      52455F50 
 16341              	.LASF378:
 16342 90a2 5F5F4441 		.ascii	"__DA_IBIT__ 32\000"
 16342      5F494249 
 16342      545F5F20 
 16342      333200
 16343              	.LASF571:
 16344 90b1 5F55494E 		.ascii	"_UINTMAX_T_DECLARED \000"
 16344      544D4158 
 16344      5F545F44 
 16344      45434C41 
 16344      52454420 
 16345              	.LASF361:
 16346 90c6 5F5F5451 		.ascii	"__TQ_FBIT__ 127\000"
 16346      5F464249 
 16346      545F5F20 
 16346      31323700 
 16347              	.LASF447:
 16348 90d6 5F5F5646 		.ascii	"__VFP_FP__ 1\000"
 16348      505F4650 
 16348      5F5F2031 
 16348      00
 16349              	.LASF467:
 16350 90e3 5F5F4152 		.ascii	"__ARM_ASM_SYNTAX_UNIFIED__ 1\000"
 16350      4D5F4153 
 16350      4D5F5359 
 16350      4E544158 
 16350      5F554E49 
 16351              	.LASF1622:
 16352 9100 64617461 		.ascii	"data_accelerated_control\000"
 16352      5F616363 
 16352      656C6572 
 16352      61746564 
 16352      5F636F6E 
 16353              	.LASF1344:
 16354 9119 696C6F67 		.ascii	"ilogbl\000"
 16354      626C00
 16355              	.LASF542:
 16356 9120 6C6F6E67 		.ascii	"long +4\000"
 16356      202B3400 
 16357              	.LASF486:
ARM GAS  C:\Users\30806\AppData\Local\Temp\ccYcD1nI.s 			page 382


 16358 9128 5F535444 		.ascii	"_STDINT_H \000"
 16358      494E545F 
 16358      482000
 16359              	.LASF833:
 16360 9133 5F524545 		.ascii	"_REENT_CHECK_MISC(ptr) \000"
 16360      4E545F43 
 16360      4845434B 
 16360      5F4D4953 
 16360      43287074 
 16361              	.LASF747:
 16362 914b 5F57414E 		.ascii	"_WANT_IO_LONG_LONG 1\000"
 16362      545F494F 
 16362      5F4C4F4E 
 16362      475F4C4F 
 16362      4E472031 
 16363              	.LASF722:
 16364 9160 5F5F5245 		.ascii	"__RESTRICT __restrict\000"
 16364      53545249 
 16364      4354205F 
 16364      5F726573 
 16364      74726963 
 16365              	.LASF1784:
 16366 9176 646F7562 		.ascii	"double\000"
 16366      6C6500
 16367              	.LASF624:
 16368 917d 53495A45 		.ascii	"SIZE_MAX (__SIZE_MAX__)\000"
 16368      5F4D4158 
 16368      20285F5F 
 16368      53495A45 
 16368      5F4D4158 
 16369              	.LASF299:
 16370 9195 5F5F554C 		.ascii	"__ULFRACT_IBIT__ 0\000"
 16370      46524143 
 16370      545F4942 
 16370      49545F5F 
 16370      203000
 16371              	.LASF91:
 16372 91a8 5F5F6370 		.ascii	"__cpp_alias_templates 200704L\000"
 16372      705F616C 
 16372      6961735F 
 16372      74656D70 
 16372      6C617465 
 16373              	.LASF1548:
 16374 91c6 51375F41 		.ascii	"Q7_ABSMIN ((q7_t)0)\000"
 16374      42534D49 
 16374      4E202828 
 16374      71375F74 
 16374      29302900 
 16375              	.LASF951:
 16376 91da 5F5F7363 		.ascii	"__scanflike(fmtarg,firstvararg) __attribute__((__fo"
 16376      616E666C 
 16376      696B6528 
 16376      666D7461 
 16376      72672C66 
 16377 920d 726D6174 		.ascii	"rmat__ (__scanf__, fmtarg, firstvararg)))\000"
 16377      5F5F2028 
 16377      5F5F7363 
ARM GAS  C:\Users\30806\AppData\Local\Temp\ccYcD1nI.s 			page 383


 16377      616E665F 
 16377      5F2C2066 
 16378              	.LASF1145:
 16379 9237 5F474C49 		.ascii	"_GLIBCXX_HAVE_USLEEP 1\000"
 16379      42435858 
 16379      5F484156 
 16379      455F5553 
 16379      4C454550 
 16380              	.LASF1739:
 16381 924e 5F5A5374 		.ascii	"_ZSt4fmaxff\000"
 16381      34666D61 
 16381      78666600 
 16382              	.LASF433:
 16383 925a 5F5F4152 		.ascii	"__ARM_SIZEOF_WCHAR_T 4\000"
 16383      4D5F5349 
 16383      5A454F46 
 16383      5F574348 
 16383      41525F54 
 16384              	.LASF1483:
 16385 9271 42435F53 		.ascii	"BC_STRING_MAX 1000\000"
 16385      5452494E 
 16385      475F4D41 
 16385      58203130 
 16385      303000
 16386              	.LASF1101:
 16387 9284 5F474C49 		.ascii	"_GLIBCXX_HAVE_ISWBLANK 1\000"
 16387      42435858 
 16387      5F484156 
 16387      455F4953 
 16387      57424C41 
 16388              	.LASF1443:
 16389 929d 464C545F 		.ascii	"FLT_MAX\000"
 16389      4D415800 
 16390              	.LASF1173:
 16391 92a5 5F474C49 		.ascii	"_GLIBCXX_MANGLE_SIZE_T j\000"
 16391      42435858 
 16391      5F4D414E 
 16391      474C455F 
 16391      53495A45 
 16392              	.LASF169:
 16393 92be 5F5F5549 		.ascii	"__UINT_FAST32_MAX__ 0xffffffffU\000"
 16393      4E545F46 
 16393      41535433 
 16393      325F4D41 
 16393      585F5F20 
 16394              	.LASF215:
 16395 92de 5F5F4C44 		.ascii	"__LDBL_MAX_EXP__ 1024\000"
 16395      424C5F4D 
 16395      41585F45 
 16395      58505F5F 
 16395      20313032 
 16396              	.LASF799:
 16397 92f4 5F5F4C4F 		.ascii	"__LOCK_INIT_RECURSIVE(class,lock) __LOCK_INIT(class"
 16397      434B5F49 
 16397      4E49545F 
 16397      52454355 
 16397      52534956 
ARM GAS  C:\Users\30806\AppData\Local\Temp\ccYcD1nI.s 			page 384


 16398 9327 2C6C6F63 		.ascii	",lock)\000"
 16398      6B2900
 16399              	.LASF1357:
 16400 932e 6C6F6732 		.ascii	"log2\000"
 16400      00
 16401              	.LASF1611:
 16402 9333 5F5A4E31 		.ascii	"_ZN12user_maths_c22loop_restriction_floatEff\000"
 16402      32757365 
 16402      725F6D61 
 16402      7468735F 
 16402      6332326C 
 16403              	.LASF1117:
 16404 9360 5F474C49 		.ascii	"_GLIBCXX_HAVE_MEMORY_H 1\000"
 16404      42435858 
 16404      5F484156 
 16404      455F4D45 
 16404      4D4F5259 
 16405              	.LASF687:
 16406 9379 5F425344 		.ascii	"_BSD_WCHAR_T_ \000"
 16406      5F574348 
 16406      41525F54 
 16406      5F2000
 16407              	.LASF506:
 16408 9388 5F5F474E 		.ascii	"__GNU_VISIBLE 0\000"
 16408      555F5649 
 16408      5349424C 
 16408      45203000 
 16409              	.LASF454:
 16410 9398 5F5F4152 		.ascii	"__ARM_FEATURE_FP16_VECTOR_ARITHMETIC\000"
 16410      4D5F4645 
 16410      41545552 
 16410      455F4650 
 16410      31365F56 
 16411              	.LASF820:
 16412 93bd 5F52414E 		.ascii	"_RAND48_ADD (0x000b)\000"
 16412      4434385F 
 16412      41444420 
 16412      28307830 
 16412      30306229 
 16413              	.LASF1390:
 16414 93d2 726F756E 		.ascii	"roundf\000"
 16414      646600
 16415              	.LASF1595:
 16416 93d9 6163635F 		.ascii	"acc_now\000"
 16416      6E6F7700 
 16417              	.LASF1474:
 16418 93e1 4E414D45 		.ascii	"NAME_MAX 255\000"
 16418      5F4D4158 
 16418      20323535 
 16418      00
 16419              	.LASF1627:
 16420 93ee 5F5F6973 		.ascii	"__is_integer<long double>\000"
 16420      5F696E74 
 16420      65676572 
 16420      3C6C6F6E 
 16420      6720646F 
 16421              	.LASF1391:
ARM GAS  C:\Users\30806\AppData\Local\Temp\ccYcD1nI.s 			page 385


 16422 9408 726F756E 		.ascii	"roundl\000"
 16422      646C00
 16423              	.LASF814:
 16424 940f 5F52414E 		.ascii	"_RAND48_SEED_0 (0x330e)\000"
 16424      4434385F 
 16424      53454544 
 16424      5F302028 
 16424      30783333 
 16425              	.LASF1238:
 16426 9427 4D5F4C4F 		.ascii	"M_LOG2E 1.4426950408889634074\000"
 16426      47324520 
 16426      312E3434 
 16426      32363935 
 16426      30343038 
 16427              	.LASF1471:
 16428 9445 4C494E4B 		.ascii	"LINK_MAX 32767\000"
 16428      5F4D4158 
 16428      20333237 
 16428      363700
 16429              	.LASF1377:
 16430 9454 6E657874 		.ascii	"nexttoward\000"
 16430      746F7761 
 16430      726400
 16431              	.LASF123:
 16432 945f 5F5F494E 		.ascii	"__INTMAX_MAX__ 0x7fffffffffffffffLL\000"
 16432      544D4158 
 16432      5F4D4158 
 16432      5F5F2030 
 16432      78376666 
 16433              	.LASF986:
 16434 9483 5F5F7265 		.ascii	"__requires_shared(...) __lock_annotate(shared_locks"
 16434      71756972 
 16434      65735F73 
 16434      68617265 
 16434      64282E2E 
 16435 94b6 5F726571 		.ascii	"_required(__VA_ARGS__))\000"
 16435      75697265 
 16435      64285F5F 
 16435      56415F41 
 16435      5247535F 
 16436              	.LASF1432:
 16437 94ce 44424C5F 		.ascii	"DBL_MAX_EXP\000"
 16437      4D41585F 
 16437      45585000 
 16438              	.LASF1310:
 16439 94da 6174616E 		.ascii	"atanhl\000"
 16439      686C00
 16440              	.LASF1457:
 16441 94e1 4C44424C 		.ascii	"LDBL_MIN\000"
 16441      5F4D494E 
 16441      00
 16442              	.LASF717:
 16443 94ea 5F5F554E 		.ascii	"__UNALIGNED_UINT16_WRITE(addr,val) (void)((((struct"
 16443      414C4947 
 16443      4E45445F 
 16443      55494E54 
 16443      31365F57 
ARM GAS  C:\Users\30806\AppData\Local\Temp\ccYcD1nI.s 			page 386


 16444 951d 20545F55 		.ascii	" T_UINT16_WRITE *)(void *)(addr))->v) = (val))\000"
 16444      494E5431 
 16444      365F5752 
 16444      49544520 
 16444      2A292876 
 16445              	.LASF892:
 16446 954c 5F5F474E 		.ascii	"__GNUCLIKE_BUILTIN_VAALIST 1\000"
 16446      55434C49 
 16446      4B455F42 
 16446      55494C54 
 16446      494E5F56 
 16447              	.LASF1360:
 16448 9569 6C6F6762 		.ascii	"logb\000"
 16448      00
 16449              	.LASF117:
 16450 956e 5F5F4C4F 		.ascii	"__LONG_WIDTH__ 32\000"
 16450      4E475F57 
 16450      49445448 
 16450      5F5F2033 
 16450      3200
 16451              	.LASF843:
 16452 9580 5F524545 		.ascii	"_REENT_MP_FREELIST(ptr) ((ptr)->_freelist)\000"
 16452      4E545F4D 
 16452      505F4652 
 16452      45454C49 
 16452      53542870 
 16453              	.LASF1615:
 16454 95ab 5F5A4E31 		.ascii	"_ZN12user_maths_c19CircleIncreaseLimitEfff\000"
 16454      32757365 
 16454      725F6D61 
 16454      7468735F 
 16454      63313943 
 16455              	.LASF911:
 16456 95d6 5F5F7369 		.ascii	"__signed signed\000"
 16456      676E6564 
 16456      20736967 
 16456      6E656400 
 16457              	.LASF69:
 16458 95e6 5F5F4445 		.ascii	"__DEPRECATED 1\000"
 16458      50524543 
 16458      41544544 
 16458      203100
 16459              	.LASF513:
 16460 95f5 5F5F5353 		.ascii	"__SSP_FORTIFY_LEVEL 0\000"
 16460      505F464F 
 16460      52544946 
 16460      595F4C45 
 16460      56454C20 
 16461              	.LASF1629:
 16462 960b 5F5F7661 		.ascii	"__value\000"
 16462      6C756500 
 16463              	.LASF488:
 16464 9613 5F535953 		.ascii	"_SYS_FEATURES_H \000"
 16464      5F464541 
 16464      54555245 
 16464      535F4820 
 16464      00
ARM GAS  C:\Users\30806\AppData\Local\Temp\ccYcD1nI.s 			page 387


 16465              	.LASF1793:
 16466 9624 61637475 		.ascii	"actual\000"
 16466      616C00
 16467              	.LASF160:
 16468 962b 5F5F494E 		.ascii	"__INT_FAST8_WIDTH__ 32\000"
 16468      545F4641 
 16468      5354385F 
 16468      57494454 
 16468      485F5F20 
 16469              	.LASF1709:
 16470 9642 5F5A5374 		.ascii	"_ZSt11islessequalff\000"
 16470      31316973 
 16470      6C657373 
 16470      65717561 
 16470      6C666600 
 16471              	.LASF1488:
 16472 9656 4D425F4C 		.ascii	"MB_LEN_MAX _MB_LEN_MAX\000"
 16472      454E5F4D 
 16472      4158205F 
 16472      4D425F4C 
 16472      454E5F4D 
 16473              	.LASF436:
 16474 966d 5F5F6172 		.ascii	"__arm__ 1\000"
 16474      6D5F5F20 
 16474      3100
 16475              	.LASF1568:
 16476 9677 53512878 		.ascii	"SQ(x) ((x) * (x))\000"
 16476      29202828 
 16476      7829202A 
 16476      20287829 
 16476      2900
 16477              	.LASF484:
 16478 9689 5F5F5354 		.ascii	"__STDC_CONSTANT_MACROS\000"
 16478      44435F43 
 16478      4F4E5354 
 16478      414E545F 
 16478      4D414352 
 16479              	.LASF1803:
 16480 96a0 696E7075 		.ascii	"input\000"
 16480      7400
 16481              	.LASF1273:
 16482 96a6 5F474C49 		.ascii	"_GLIBCXX_CMATH 1\000"
 16482      42435858 
 16482      5F434D41 
 16482      54482031 
 16482      00
 16483              	.LASF1449:
 16484 96b7 464C545F 		.ascii	"FLT_EPSILON\000"
 16484      45505349 
 16484      4C4F4E00 
 16485              	.LASF1262:
 16486 96c3 5F5F6E65 		.ascii	"__need_wchar_t \000"
 16486      65645F77 
 16486      63686172 
 16486      5F742000 
 16487              	.LASF567:
 16488 96d3 5F494E54 		.ascii	"_INT64_T_DECLARED \000"
ARM GAS  C:\Users\30806\AppData\Local\Temp\ccYcD1nI.s 			page 388


 16488      36345F54 
 16488      5F444543 
 16488      4C415245 
 16488      442000
 16489              	.LASF620:
 16490 96e6 55494E54 		.ascii	"UINT_FAST64_MAX (__UINT_FAST64_MAX__)\000"
 16490      5F464153 
 16490      5436345F 
 16490      4D415820 
 16490      285F5F55 
 16491              	.LASF1542:
 16492 970c 51375F4D 		.ascii	"Q7_MIN ((q7_t)(0x80))\000"
 16492      494E2028 
 16492      2871375F 
 16492      74292830 
 16492      78383029 
 16493              	.LASF936:
 16494 9722 5F5F6E6F 		.ascii	"__nonnull_all __attribute__((__nonnull__))\000"
 16494      6E6E756C 
 16494      6C5F616C 
 16494      6C205F5F 
 16494      61747472 
 16495              	.LASF778:
 16496 974d 5F454C49 		.ascii	"_ELIDABLE_INLINE static __inline__\000"
 16496      4441424C 
 16496      455F494E 
 16496      4C494E45 
 16496      20737461 
 16497              	.LASF997:
 16498 9770 5F474C49 		.ascii	"_GLIBCXX_CXX_CONFIG_H 1\000"
 16498      42435858 
 16498      5F435858 
 16498      5F434F4E 
 16498      4649475F 
 16499              	.LASF1427:
 16500 9788 4C44424C 		.ascii	"LDBL_MIN_10_EXP\000"
 16500      5F4D494E 
 16500      5F31305F 
 16500      45585000 
 16501              	.LASF924:
 16502 9798 5F5F616C 		.ascii	"__alloc_align(x) __attribute__((__alloc_align__(x))"
 16502      6C6F635F 
 16502      616C6967 
 16502      6E287829 
 16502      205F5F61 
 16503 97cb 2900     		.ascii	")\000"
 16504              	.LASF1135:
 16505 97cd 5F474C49 		.ascii	"_GLIBCXX_HAVE_SYS_RESOURCE_H 1\000"
 16505      42435858 
 16505      5F484156 
 16505      455F5359 
 16505      535F5245 
 16506              	.LASF756:
 16507 97ec 5F465657 		.ascii	"_FVWRITE_IN_STREAMIO 1\000"
 16507      52495445 
 16507      5F494E5F 
 16507      53545245 
ARM GAS  C:\Users\30806\AppData\Local\Temp\ccYcD1nI.s 			page 389


 16507      414D494F 
 16508              	.LASF677:
 16509 9803 5F53495A 		.ascii	"_SIZET_ \000"
 16509      45545F20 
 16509      00
 16510              	.LASF42:
 16511 980c 5F5F494E 		.ascii	"__INT8_TYPE__ signed char\000"
 16511      54385F54 
 16511      5950455F 
 16511      5F207369 
 16511      676E6564 
 16512              	.LASF1107:
 16513 9826 5F474C49 		.ascii	"_GLIBCXX_HAVE_LIMIT_RSS 0\000"
 16513      42435858 
 16513      5F484156 
 16513      455F4C49 
 16513      4D49545F 
 16514              	.LASF1450:
 16515 9840 44424C5F 		.ascii	"DBL_EPSILON\000"
 16515      45505349 
 16515      4C4F4E00 
 16516              	.LASF483:
 16517 984c 5F5F5354 		.ascii	"__STDC_LIMIT_MACROS \000"
 16517      44435F4C 
 16517      494D4954 
 16517      5F4D4143 
 16517      524F5320 
 16518              	.LASF1425:
 16519 9861 464C545F 		.ascii	"FLT_MIN_10_EXP\000"
 16519      4D494E5F 
 16519      31305F45 
 16519      585000
 16520              	.LASF946:
 16521 9870 5F5F6869 		.ascii	"__hidden __attribute__((__visibility__(\"hidden\"))"
 16521      6464656E 
 16521      205F5F61 
 16521      74747269 
 16521      62757465 
 16522 98a1 2900     		.ascii	")\000"
 16523              	.LASF1340:
 16524 98a3 6879706F 		.ascii	"hypotf\000"
 16524      746600
 16525              	.LASF650:
 16526 98aa 5F535444 		.ascii	"_STDDEF_H_ \000"
 16526      4445465F 
 16526      485F2000 
 16527              	.LASF503:
 16528 98b6 5F415446 		.ascii	"_ATFILE_SOURCE 1\000"
 16528      494C455F 
 16528      534F5552 
 16528      43452031 
 16528      00
 16529              	.LASF767:
 16530 98c7 5F5F5241 		.ascii	"__RAND_MAX\000"
 16530      4E445F4D 
 16530      415800
 16531              	.LASF81:
ARM GAS  C:\Users\30806\AppData\Local\Temp\ccYcD1nI.s 			page 390


 16532 98d2 5F5F6370 		.ascii	"__cpp_decltype 200707L\000"
 16532      705F6465 
 16532      636C7479 
 16532      70652032 
 16532      30303730 
 16533              	.LASF495:
 16534 98e9 5F5F474E 		.ascii	"__GNUC_PREREQ__(ma,mi) __GNUC_PREREQ(ma, mi)\000"
 16534      55435F50 
 16534      52455245 
 16534      515F5F28 
 16534      6D612C6D 
 16535              	.LASF326:
 16536 9916 5F5F4143 		.ascii	"__ACCUM_MAX__ 0X7FFFFFFFP-15K\000"
 16536      43554D5F 
 16536      4D41585F 
 16536      5F203058 
 16536      37464646 
 16537              	.LASF493:
 16538 9934 5F5F4E45 		.ascii	"__NEWLIB_PATCHLEVEL__ 0\000"
 16538      574C4942 
 16538      5F504154 
 16538      43484C45 
 16538      56454C5F 
 16539              	.LASF1416:
 16540 994c 464C545F 		.ascii	"FLT_DIG __FLT_DIG__\000"
 16540      44494720 
 16540      5F5F464C 
 16540      545F4449 
 16540      475F5F00 
 16541              	.LASF245:
 16542 9960 5F5F464C 		.ascii	"__FLT64_MIN_EXP__ (-1021)\000"
 16542      5436345F 
 16542      4D494E5F 
 16542      4558505F 
 16542      5F20282D 
 16543              	.LASF60:
 16544 997a 5F5F494E 		.ascii	"__INT_FAST32_TYPE__ int\000"
 16544      545F4641 
 16544      53543332 
 16544      5F545950 
 16544      455F5F20 
 16545              	.LASF582:
 16546 9992 494E5450 		.ascii	"INTPTR_MIN (-__INTPTR_MAX__ - 1)\000"
 16546      54525F4D 
 16546      494E2028 
 16546      2D5F5F49 
 16546      4E545054 
 16547              	.LASF1724:
 16548 99b3 5F5A5374 		.ascii	"_ZSt8copysignee\000"
 16548      38636F70 
 16548      79736967 
 16548      6E656500 
 16549              	.LASF1495:
 16550 99c3 53434841 		.ascii	"SCHAR_MIN\000"
 16550      525F4D49 
 16550      4E00
 16551              	.LASF341:
ARM GAS  C:\Users\30806\AppData\Local\Temp\ccYcD1nI.s 			page 391


 16552 99cd 5F5F554C 		.ascii	"__ULACCUM_MAX__ 0XFFFFFFFFFFFFFFFFP-32ULK\000"
 16552      41434355 
 16552      4D5F4D41 
 16552      585F5F20 
 16552      30584646 
 16553              	.LASF1351:
 16554 99f7 6C6C726F 		.ascii	"llround\000"
 16554      756E6400 
 16555              	.LASF1331:
 16556 99ff 666D6166 		.ascii	"fmaf\000"
 16556      00
 16557              	.LASF457:
 16558 9a04 5F5F4152 		.ascii	"__ARM_NEON__\000"
 16558      4D5F4E45 
 16558      4F4E5F5F 
 16558      00
 16559              	.LASF1362:
 16560 9a11 6C6F6762 		.ascii	"logbl\000"
 16560      6C00
 16561              	.LASF1186:
 16562 9a17 5F474C49 		.ascii	"_GLIBCXX_USE_FCHMODAT 1\000"
 16562      42435858 
 16562      5F555345 
 16562      5F464348 
 16562      4D4F4441 
 16563              	.LASF1552:
 16564 9a2f 494E4445 		.ascii	"INDEX_MASK 0x0000003F\000"
 16564      585F4D41 
 16564      534B2030 
 16564      78303030 
 16564      30303033 
 16565              	.LASF1613:
 16566 9a45 5F5A4E31 		.ascii	"_ZN12user_maths_c19loop_fp32_constrainEfff\000"
 16566      32757365 
 16566      725F6D61 
 16566      7468735F 
 16566      6331396C 
 16567              	.LASF1737:
 16568 9a70 5F5A5374 		.ascii	"_ZSt3fmafff\000"
 16568      33666D61 
 16568      66666600 
 16569              	.LASF1484:
 16570 9a7c 434F4C4C 		.ascii	"COLL_WEIGHTS_MAX 0\000"
 16570      5F574549 
 16570      47485453 
 16570      5F4D4158 
 16570      203000
 16571              	.LASF581:
 16572 9a8f 5F5F696E 		.ascii	"__int_fast64_t_defined 1\000"
 16572      745F6661 
 16572      73743634 
 16572      5F745F64 
 16572      6566696E 
 16573              	.LASF1749:
 16574 9aa8 5F5A5374 		.ascii	"_ZSt6llrintf\000"
 16574      366C6C72 
 16574      696E7466 
ARM GAS  C:\Users\30806\AppData\Local\Temp\ccYcD1nI.s 			page 392


 16574      00
 16575              	.LASF1247:
 16576 9ab5 4D5F325F 		.ascii	"M_2_SQRTPI 1.12837916709551257390\000"
 16576      53515254 
 16576      50492031 
 16576      2E313238 
 16576      33373931 
 16577              	.LASF1513:
 16578 9ad7 494E545F 		.ascii	"INT_MAX\000"
 16578      4D415800 
 16579              	.LASF1008:
 16580 9adf 5F474C49 		.ascii	"_GLIBCXX17_DEPRECATED \000"
 16580      42435858 
 16580      31375F44 
 16580      45505245 
 16580      43415445 
 16581              	.LASF823:
 16582 9af6 5F524545 		.ascii	"_REENT_SIGNAL_SIZE 24\000"
 16582      4E545F53 
 16582      49474E41 
 16582      4C5F5349 
 16582      5A452032 
 16583              	.LASF781:
 16584 9b0c 5F535953 		.ascii	"_SYS_REENT_H_ \000"
 16584      5F524545 
 16584      4E545F48 
 16584      5F2000
 16585              	.LASF1076:
 16586 9b1b 5F474C49 		.ascii	"_GLIBCXX_HAVE_ASINF 1\000"
 16586      42435858 
 16586      5F484156 
 16586      455F4153 
 16586      494E4620 
 16587              	.LASF260:
 16588 9b31 5F5F464C 		.ascii	"__FLT32X_MIN_EXP__ (-1021)\000"
 16588      54333258 
 16588      5F4D494E 
 16588      5F455850 
 16588      5F5F2028 
 16589              	.LASF657:
 16590 9b4c 5F425344 		.ascii	"_BSD_PTRDIFF_T_ \000"
 16590      5F505452 
 16590      44494646 
 16590      5F545F20 
 16590      00
 16591              	.LASF685:
 16592 9b5d 5F5F5743 		.ascii	"__WCHAR_T \000"
 16592      4841525F 
 16592      542000
 16593              	.LASF901:
 16594 9b68 5F5F4343 		.ascii	"__CC_SUPPORTS___FUNC__ 1\000"
 16594      5F535550 
 16594      504F5254 
 16594      535F5F5F 
 16594      46554E43 
 16595              	.LASF1623:
 16596 9b81 75736572 		.ascii	"user_val_limit\000"
ARM GAS  C:\Users\30806\AppData\Local\Temp\ccYcD1nI.s 			page 393


 16596      5F76616C 
 16596      5F6C696D 
 16596      697400
 16597              	.LASF434:
 16598 9b90 5F5F4152 		.ascii	"__ARM_ARCH_PROFILE\000"
 16598      4D5F4152 
 16598      43485F50 
 16598      524F4649 
 16598      4C4500
 16599              	.LASF334:
 16600 9ba3 5F5F4C41 		.ascii	"__LACCUM_IBIT__ 32\000"
 16600      4343554D 
 16600      5F494249 
 16600      545F5F20 
 16600      333200
 16601              	.LASF1725:
 16602 9bb6 5F5A5374 		.ascii	"_ZSt8copysignff\000"
 16602      38636F70 
 16602      79736967 
 16602      6E666600 
 16603              	.LASF1493:
 16604 9bc6 43484152 		.ascii	"CHAR_BIT\000"
 16604      5F424954 
 16604      00
 16605              	.LASF143:
 16606 9bcf 5F5F494E 		.ascii	"__INT16_C(c) c\000"
 16606      5431365F 
 16606      43286329 
 16606      206300
 16607              	.LASF718:
 16608 9bde 5F5F554E 		.ascii	"__UNALIGNED_UINT16_READ(addr) (((const struct T_UIN"
 16608      414C4947 
 16608      4E45445F 
 16608      55494E54 
 16608      31365F52 
 16609 9c11 5431365F 		.ascii	"T16_READ *)(const void *)(addr))->v)\000"
 16609      52454144 
 16609      202A2928 
 16609      636F6E73 
 16609      7420766F 
 16610              	.LASF1774:
 16611 9c36 5F5A5374 		.ascii	"_ZSt5rounde\000"
 16611      35726F75 
 16611      6E646500 
 16612              	.LASF1775:
 16613 9c42 5F5A5374 		.ascii	"_ZSt5roundf\000"
 16613      35726F75 
 16613      6E646600 
 16614              	.LASF658:
 16615 9c4e 5F5F5F69 		.ascii	"___int_ptrdiff_t_h \000"
 16615      6E745F70 
 16615      74726469 
 16615      66665F74 
 16615      5F682000 
 16616              	.LASF1282:
 16617 9c62 666D6F64 		.ascii	"fmod\000"
 16617      00
ARM GAS  C:\Users\30806\AppData\Local\Temp\ccYcD1nI.s 			page 394


 16618              	.LASF1538:
 16619 9c67 5131355F 		.ascii	"Q15_MAX ((q15_t)(0x7FFF))\000"
 16619      4D415820 
 16619      28287131 
 16619      355F7429 
 16619      28307837 
 16620              	.LASF1213:
 16621 9c81 46505F53 		.ascii	"FP_SUBNORMAL 3\000"
 16621      55424E4F 
 16621      524D414C 
 16621      203300
 16622              	.LASF716:
 16623 9c90 5F5F554E 		.ascii	"__UNALIGNED_UINT32(x) (((struct T_UINT32 *)(x))->v)"
 16623      414C4947 
 16623      4E45445F 
 16623      55494E54 
 16623      33322878 
 16624 9cc3 00       		.ascii	"\000"
 16625              	.LASF1658:
 16626 9cc4 5F5A5374 		.ascii	"_ZSt5frexpePi\000"
 16626      35667265 
 16626      78706550 
 16626      6900
 16627              	.LASF1056:
 16628 9cd2 5F474C49 		.ascii	"_GLIBCXX_CPU_DEFINES 1\000"
 16628      42435858 
 16628      5F435055 
 16628      5F444546 
 16628      494E4553 
 16629              	.LASF874:
 16630 9ce9 5F5F6174 		.ascii	"__attribute_format_strfmon__(a,b) \000"
 16630      74726962 
 16630      7574655F 
 16630      666F726D 
 16630      61745F73 
 16631              	.LASF803:
 16632 9d0c 5F5F6C6F 		.ascii	"__lock_close_recursive(lock) __retarget_lock_close_"
 16632      636B5F63 
 16632      6C6F7365 
 16632      5F726563 
 16632      75727369 
 16633 9d3f 72656375 		.ascii	"recursive(lock)\000"
 16633      72736976 
 16633      65286C6F 
 16633      636B2900 
 16634              	.LASF1630:
 16635 9d4f 5F5F6973 		.ascii	"__is_integer<float>\000"
 16635      5F696E74 
 16635      65676572 
 16635      3C666C6F 
 16635      61743E00 
 16636              	.LASF1588:
 16637 9d63 6C6F6E67 		.ascii	"long long unsigned int\000"
 16637      206C6F6E 
 16637      6720756E 
 16637      7369676E 
 16637      65642069 
ARM GAS  C:\Users\30806\AppData\Local\Temp\ccYcD1nI.s 			page 395


 16638              	.LASF19:
 16639 9d7a 5F5F5349 		.ascii	"__SIZEOF_SHORT__ 2\000"
 16639      5A454F46 
 16639      5F53484F 
 16639      52545F5F 
 16639      203200
 16640              	.LASF32:
 16641 9d8d 5F5F474E 		.ascii	"__GNUG__ 10\000"
 16641      55475F5F 
 16641      20313000 
 16642              	.LASF1353:
 16643 9d99 6C6C726F 		.ascii	"llroundl\000"
 16643      756E646C 
 16643      00
 16644              	.LASF1124:
 16645 9da2 5F474C49 		.ascii	"_GLIBCXX_HAVE_SQRTF 1\000"
 16645      42435858 
 16645      5F484156 
 16645      455F5351 
 16645      52544620 
 16646              	.LASF516:
 16647 9db8 5F5F6861 		.ascii	"__have_long32 1\000"
 16647      76655F6C 
 16647      6F6E6733 
 16647      32203100 
 16648              	.LASF1378:
 16649 9dc8 6E657874 		.ascii	"nexttowardf\000"
 16649      746F7761 
 16649      72646600 
 16650              	.LASF1272:
 16651 9dd4 73747274 		.ascii	"strtodf strtof\000"
 16651      6F646620 
 16651      73747274 
 16651      6F6600
 16652              	.LASF135:
 16653 9de3 5F5F5549 		.ascii	"__UINT8_MAX__ 0xff\000"
 16653      4E54385F 
 16653      4D41585F 
 16653      5F203078 
 16653      666600
 16654              	.LASF1504:
 16655 9df6 43484152 		.ascii	"CHAR_MAX UCHAR_MAX\000"
 16655      5F4D4158 
 16655      20554348 
 16655      41525F4D 
 16655      415800
 16656              	.LASF1192:
 16657 9e09 5F474C49 		.ascii	"_GLIBCXX_USE_WCHAR_T 1\000"
 16657      42435858 
 16657      5F555345 
 16657      5F574348 
 16657      41525F54 
 16658              	.LASF1379:
 16659 9e20 6E657874 		.ascii	"nexttowardl\000"
 16659      746F7761 
 16659      72646C00 
 16660              	.LASF1197:
ARM GAS  C:\Users\30806\AppData\Local\Temp\ccYcD1nI.s 			page 396


 16661 9e2c 5F5F494E 		.ascii	"__INT_N\000"
 16661      545F4E00 
 16662              	.LASF1289:
 16663 9e34 74616E68 		.ascii	"tanh\000"
 16663      00
 16664              	.LASF1608:
 16665 9e39 6C6F6F70 		.ascii	"loop_restriction_int16\000"
 16665      5F726573 
 16665      74726963 
 16665      74696F6E 
 16665      5F696E74 
 16666              	.LASF854:
 16667 9e50 5F524545 		.ascii	"_REENT_WCRTOMB_STATE(ptr) ((ptr)->_new._reent._wcrt"
 16667      4E545F57 
 16667      4352544F 
 16667      4D425F53 
 16667      54415445 
 16668 9e83 6F6D625F 		.ascii	"omb_state)\000"
 16668      73746174 
 16668      652900
 16669              	.LASF1123:
 16670 9e8e 5F474C49 		.ascii	"_GLIBCXX_HAVE_SLEEP 1\000"
 16670      42435858 
 16670      5F484156 
 16670      455F534C 
 16670      45455020 
 16671              	.LASF1507:
 16672 9ea4 53485254 		.ascii	"SHRT_MAX\000"
 16672      5F4D4158 
 16672      00
 16673              	.LASF1216:
 16674 9ead 46505F49 		.ascii	"FP_ILOGBNAN __INT_MAX__\000"
 16674      4C4F4742 
 16674      4E414E20 
 16674      5F5F494E 
 16674      545F4D41 
 16675              	.LASF1440:
 16676 9ec5 464C545F 		.ascii	"FLT_MAX_10_EXP __FLT_MAX_10_EXP__\000"
 16676      4D41585F 
 16676      31305F45 
 16676      5850205F 
 16676      5F464C54 
 16677              	.LASF813:
 16678 9ee7 5F524545 		.ascii	"_REENT_SMALL_CHECK_INIT(ptr) \000"
 16678      4E545F53 
 16678      4D414C4C 
 16678      5F434845 
 16678      434B5F49 
 16679              	.LASF1372:
 16680 9f05 6E656172 		.ascii	"nearbyintf\000"
 16680      6279696E 
 16680      746600
 16681              	.LASF249:
 16682 9f10 5F5F464C 		.ascii	"__FLT64_DECIMAL_DIG__ 17\000"
 16682      5436345F 
 16682      44454349 
 16682      4D414C5F 
ARM GAS  C:\Users\30806\AppData\Local\Temp\ccYcD1nI.s 			page 397


 16682      4449475F 
 16683              	.LASF173:
 16684 9f29 5F5F5549 		.ascii	"__UINTPTR_MAX__ 0xffffffffU\000"
 16684      4E545054 
 16684      525F4D41 
 16684      585F5F20 
 16684      30786666 
 16685              	.LASF1032:
 16686 9f45 5F474C49 		.ascii	"_GLIBCXX_DEFAULT_ABI_TAG _GLIBCXX_ABI_TAG_CXX11\000"
 16686      42435858 
 16686      5F444546 
 16686      41554C54 
 16686      5F414249 
 16687              	.LASF330:
 16688 9f75 5F5F5541 		.ascii	"__UACCUM_MIN__ 0.0UK\000"
 16688      4343554D 
 16688      5F4D494E 
 16688      5F5F2030 
 16688      2E30554B 
 16689              	.LASF1666:
 16690 9f8a 5F5A5374 		.ascii	"_ZSt4modfePe\000"
 16690      346D6F64 
 16690      66655065 
 16690      00
 16691              	.LASF1726:
 16692 9f97 5F5A5374 		.ascii	"_ZSt3erfe\000"
 16692      33657266 
 16692      6500
 16693              	.LASF1373:
 16694 9fa1 6E656172 		.ascii	"nearbyintl\000"
 16694      6279696E 
 16694      746C00
 16695              	.LASF1478:
 16696 9fac 50495045 		.ascii	"PIPE_BUF 512\000"
 16696      5F425546 
 16696      20353132 
 16696      00
 16697              	.LASF277:
 16698 9fb9 5F5F5346 		.ascii	"__SFRACT_EPSILON__ 0x1P-7HR\000"
 16698      52414354 
 16698      5F455053 
 16698      494C4F4E 
 16698      5F5F2030 
 16699              	.LASF14:
 16700 9fd5 5F5F4154 		.ascii	"__ATOMIC_CONSUME 1\000"
 16700      4F4D4943 
 16700      5F434F4E 
 16700      53554D45 
 16700      203100
 16701              	.LASF917:
 16702 9fe8 5F5F756E 		.ascii	"__unused __attribute__((__unused__))\000"
 16702      75736564 
 16702      205F5F61 
 16702      74747269 
 16702      62757465 
 16703              	.LASF189:
 16704 a00d 5F5F464C 		.ascii	"__FLT_MIN__ 1.1754943508222875e-38F\000"
ARM GAS  C:\Users\30806\AppData\Local\Temp\ccYcD1nI.s 			page 398


 16704      545F4D49 
 16704      4E5F5F20 
 16704      312E3137 
 16704      35343934 
 16705              	.LASF51:
 16706 a031 5F5F494E 		.ascii	"__INT_LEAST16_TYPE__ short int\000"
 16706      545F4C45 
 16706      41535431 
 16706      365F5459 
 16706      50455F5F 
 16707              	.LASF1612:
 16708 a050 6C6F6F70 		.ascii	"loop_fp32_constrain\000"
 16708      5F667033 
 16708      325F636F 
 16708      6E737472 
 16708      61696E00 
 16709              	.LASF57:
 16710 a064 5F5F5549 		.ascii	"__UINT_LEAST64_TYPE__ long long unsigned int\000"
 16710      4E545F4C 
 16710      45415354 
 16710      36345F54 
 16710      5950455F 
 16711              	.LASF978:
 16712 a091 5F5F6C6F 		.ascii	"__locks_exclusive(...) __lock_annotate(exclusive_lo"
 16712      636B735F 
 16712      6578636C 
 16712      75736976 
 16712      65282E2E 
 16713 a0c4 636B5F66 		.ascii	"ck_function(__VA_ARGS__))\000"
 16713      756E6374 
 16713      696F6E28 
 16713      5F5F5641 
 16713      5F415247 
 16714              	.LASF1566:
 16715 a0de 5F5F5349 		.ascii	"__SIMD64(addr) (*( int64_t **) & (addr))\000"
 16715      4D443634 
 16715      28616464 
 16715      72292028 
 16715      2A282069 
 16716              	.LASF278:
 16717 a107 5F5F5553 		.ascii	"__USFRACT_FBIT__ 8\000"
 16717      46524143 
 16717      545F4642 
 16717      49545F5F 
 16717      203800
 16718              	.LASF1115:
 16719 a11a 5F474C49 		.ascii	"_GLIBCXX_HAVE_MBSTATE_T 1\000"
 16719      42435858 
 16719      5F484156 
 16719      455F4D42 
 16719      53544154 
 16720              	.LASF1805:
 16721 a134 74656D70 		.ascii	"temp\000"
 16721      00
 16722              	.LASF1092:
 16723 a139 5F474C49 		.ascii	"_GLIBCXX_HAVE_FREXPF 1\000"
 16723      42435858 
ARM GAS  C:\Users\30806\AppData\Local\Temp\ccYcD1nI.s 			page 399


 16723      5F484156 
 16723      455F4652 
 16723      45585046 
 16724              	.LASF609:
 16725 a150 494E545F 		.ascii	"INT_FAST8_MIN (-__INT_FAST8_MAX__ - 1)\000"
 16725      46415354 
 16725      385F4D49 
 16725      4E20282D 
 16725      5F5F494E 
 16726              	.LASF402:
 16727 a177 5F5F4743 		.ascii	"__GCC_ATOMIC_WCHAR_T_LOCK_FREE 2\000"
 16727      435F4154 
 16727      4F4D4943 
 16727      5F574348 
 16727      41525F54 
 16728              	.LASF303:
 16729 a198 5F5F4C4C 		.ascii	"__LLFRACT_FBIT__ 63\000"
 16729      46524143 
 16729      545F4642 
 16729      49545F5F 
 16729      20363300 
 16730              	.LASF414:
 16731 a1ac 5F5F5349 		.ascii	"__SIZEOF_PTRDIFF_T__ 4\000"
 16731      5A454F46 
 16731      5F505452 
 16731      44494646 
 16731      5F545F5F 
 16732              	.LASF1714:
 16733 a1c3 5F5A5374 		.ascii	"_ZSt11isunordereddd\000"
 16733      31316973 
 16733      756E6F72 
 16733      64657265 
 16733      64646400 
 16734              	.LASF941:
 16735 a1d7 5F5F7265 		.ascii	"__restrict \000"
 16735      73747269 
 16735      63742000 
 16736              	.LASF1328:
 16737 a1e3 6664696D 		.ascii	"fdim\000"
 16737      00
 16738              	.LASF587:
 16739 a1e8 55494E54 		.ascii	"UINT8_MAX (__UINT8_MAX__)\000"
 16739      385F4D41 
 16739      5820285F 
 16739      5F55494E 
 16739      54385F4D 
 16740              	.LASF1058:
 16741 a202 5F474C49 		.ascii	"_GLIBCXX_PSEUDO_VISIBILITY(V) \000"
 16741      42435858 
 16741      5F505345 
 16741      55444F5F 
 16741      56495349 
 16742              	.LASF519:
 16743 a221 5F5F5F69 		.ascii	"___int32_t_defined 1\000"
 16743      6E743332 
 16743      5F745F64 
 16743      6566696E 
ARM GAS  C:\Users\30806\AppData\Local\Temp\ccYcD1nI.s 			page 400


 16743      65642031 
 16744              	.LASF777:
 16745 a236 5F415454 		.ascii	"_ATTRIBUTE(attrs) __attribute__ (attrs)\000"
 16745      52494255 
 16745      54452861 
 16745      74747273 
 16745      29205F5F 
 16746              	.LASF537:
 16747 a25e 63686172 		.ascii	"char +0\000"
 16747      202B3000 
 16748              	.LASF565:
 16749 a266 5F55494E 		.ascii	"_UINT32_T_DECLARED \000"
 16749      5433325F 
 16749      545F4445 
 16749      434C4152 
 16749      45442000 
 16750              	.LASF423:
 16751 a27a 5F5F4152 		.ascii	"__ARM_FEATURE_COMPLEX\000"
 16751      4D5F4645 
 16751      41545552 
 16751      455F434F 
 16751      4D504C45 
 16752              	.LASF101:
 16753 a290 5F5F6370 		.ascii	"__cpp_threadsafe_static_init 200806L\000"
 16753      705F7468 
 16753      72656164 
 16753      73616665 
 16753      5F737461 
 16754              	.LASF272:
 16755 a2b5 5F5F464C 		.ascii	"__FLT32X_HAS_QUIET_NAN__ 1\000"
 16755      54333258 
 16755      5F484153 
 16755      5F515549 
 16755      45545F4E 
 16756              	.LASF1742:
 16757 a2d0 5F5A5374 		.ascii	"_ZSt5hypotee\000"
 16757      35687970 
 16757      6F746565 
 16757      00
 16758              	.LASF1815:
 16759 a2dd 32376163 		.ascii	"27acceleration_control_type_t\000"
 16759      63656C65 
 16759      72617469 
 16759      6F6E5F63 
 16759      6F6E7472 
 16760              	.LASF1276:
 16761 a2fb 6174616E 		.ascii	"atan\000"
 16761      00
 16762              	.LASF502:
 16763 a300 5F415446 		.ascii	"_ATFILE_SOURCE\000"
 16763      494C455F 
 16763      534F5552 
 16763      434500
 16764              	.LASF94:
 16765 a30f 5F5F6370 		.ascii	"__cpp_generic_lambdas 201304L\000"
 16765      705F6765 
 16765      6E657269 
ARM GAS  C:\Users\30806\AppData\Local\Temp\ccYcD1nI.s 			page 401


 16765      635F6C61 
 16765      6D626461 
 16766              	.LASF1359:
 16767 a32d 6C6F6732 		.ascii	"log2l\000"
 16767      6C00
 16768              	.LASF1230:
 16769 a333 69736C65 		.ascii	"isless(__x,__y) (__builtin_isless (__x, __y))\000"
 16769      7373285F 
 16769      5F782C5F 
 16769      5F792920 
 16769      285F5F62 
 16770              	.LASF1799:
 16771 a361 73696E5F 		.ascii	"sin_angle\000"
 16771      616E676C 
 16771      6500
 16772              	.LASF1569:
 16773 a36b 5F5F5041 		.ascii	"__PACKq7(v0,v1,v2,v3) ( (((int32_t)(v0) << 0) & (in"
 16773      434B7137 
 16773      2876302C 
 16773      76312C76 
 16773      322C7633 
 16774 a39e 7433325F 		.ascii	"t32_t)0x000000FF) | (((int32_t)(v1) << 8) & (int32_"
 16774      74293078 
 16774      30303030 
 16774      30304646 
 16774      29207C20 
 16775 a3d1 74293078 		.ascii	"t)0x0000FF00) | (((int32_t)(v2) << 16) & (int32_t)0"
 16775      30303030 
 16775      46463030 
 16775      29207C20 
 16775      28282869 
 16776 a404 78303046 		.ascii	"x00FF0000) | (((int32_t)(v3) << 24) & (int32_t)0xFF"
 16776      46303030 
 16776      3029207C 
 16776      20282828 
 16776      696E7433 
 16777 a437 30303030 		.ascii	"000000) )\000"
 16777      30302920 
 16777      2900
 16778              	.LASF198:
 16779 a441 5F5F4442 		.ascii	"__DBL_MIN_EXP__ (-1021)\000"
 16779      4C5F4D49 
 16779      4E5F4558 
 16779      505F5F20 
 16779      282D3130 
 16780              	.LASF945:
 16781 a459 5F5F6578 		.ascii	"__exported __attribute__((__visibility__(\"default\""
 16781      706F7274 
 16781      6564205F 
 16781      5F617474 
 16781      72696275 
 16782 a48b 29292900 		.ascii	")))\000"
 16783              	.LASF972:
 16784 a48f 5F5F4E55 		.ascii	"__NULLABILITY_PRAGMA_PUSH \000"
 16784      4C4C4142 
 16784      494C4954 
 16784      595F5052 
ARM GAS  C:\Users\30806\AppData\Local\Temp\ccYcD1nI.s 			page 402


 16784      41474D41 
 16785              	.LASF550:
 16786 a4aa 5F5F4641 		.ascii	"__FAST16 \000"
 16786      53543136 
 16786      2000
 16787              	.LASF606:
 16788 a4b4 494E545F 		.ascii	"INT_LEAST64_MIN (-__INT_LEAST64_MAX__ - 1)\000"
 16788      4C454153 
 16788      5436345F 
 16788      4D494E20 
 16788      282D5F5F 
 16789              	.LASF1720:
 16790 a4df 5F5A5374 		.ascii	"_ZSt5atanhe\000"
 16790      35617461 
 16790      6E686500 
 16791              	.LASF1721:
 16792 a4eb 5F5A5374 		.ascii	"_ZSt5atanhf\000"
 16792      35617461 
 16792      6E686600 
 16793              	.LASF1150:
 16794 a4f7 5F474C49 		.ascii	"_GLIBCXX_HAVE_WCHAR_H 1\000"
 16794      42435858 
 16794      5F484156 
 16794      455F5743 
 16794      4841525F 
 16795              	.LASF1335:
 16796 a50f 666D6178 		.ascii	"fmaxl\000"
 16796      6C00
 16797              	.LASF1366:
 16798 a515 6C726F75 		.ascii	"lround\000"
 16798      6E6400
 16799              	.LASF626:
 16800 a51c 5349475F 		.ascii	"SIG_ATOMIC_MAX (__STDINT_EXP(INT_MAX))\000"
 16800      41544F4D 
 16800      49435F4D 
 16800      41582028 
 16800      5F5F5354 
 16801              	.LASF79:
 16802 a543 5F5F6370 		.ascii	"__cpp_range_based_for 200907L\000"
 16802      705F7261 
 16802      6E67655F 
 16802      62617365 
 16802      645F666F 
 16803              	.LASF1515:
 16804 a561 55494E54 		.ascii	"UINT_MAX\000"
 16804      5F4D4158 
 16804      00
 16805              	.LASF216:
 16806 a56a 5F5F4C44 		.ascii	"__LDBL_MAX_10_EXP__ 308\000"
 16806      424C5F4D 
 16806      41585F31 
 16806      305F4558 
 16806      505F5F20 
 16807              	.LASF1523:
 16808 a582 4C4F4E47 		.ascii	"LONG_LONG_MIN\000"
 16808      5F4C4F4E 
 16808      475F4D49 
ARM GAS  C:\Users\30806\AppData\Local\Temp\ccYcD1nI.s 			page 403


 16808      4E00
 16809              	.LASF1255:
 16810 a590 4D5F5351 		.ascii	"M_SQRT3 1.73205080756887719000\000"
 16810      52543320 
 16810      312E3733 
 16810      32303530 
 16810      38303735 
 16811              	.LASF726:
 16812 a5af 5F5F5354 		.ascii	"__STACK_LIMIT __StackLimit\000"
 16812      41434B5F 
 16812      4C494D49 
 16812      54205F5F 
 16812      53746163 
 16813              	.LASF770:
 16814 a5ca 5F5F494D 		.ascii	"__IMPORT \000"
 16814      504F5254 
 16814      2000
 16815              	.LASF499:
 16816 a5d4 5F504F53 		.ascii	"_POSIX_SOURCE 1\000"
 16816      49585F53 
 16816      4F555243 
 16816      45203100 
 16817              	.LASF611:
 16818 a5e4 55494E54 		.ascii	"UINT_FAST8_MAX (__UINT_FAST8_MAX__)\000"
 16818      5F464153 
 16818      54385F4D 
 16818      41582028 
 16818      5F5F5549 
 16819              	.LASF1161:
 16820 a608 5F474C49 		.ascii	"_GLIBCXX_DARWIN_USE_64_BIT_INODE 1\000"
 16820      42435858 
 16820      5F444152 
 16820      57494E5F 
 16820      5553455F 
 16821              	.LASF45:
 16822 a62b 5F5F494E 		.ascii	"__INT64_TYPE__ long long int\000"
 16822      5436345F 
 16822      54595045 
 16822      5F5F206C 
 16822      6F6E6720 
 16823              	.LASF207:
 16824 a648 5F5F4442 		.ascii	"__DBL_DENORM_MIN__ double(4.9406564584124654e-324L)"
 16824      4C5F4445 
 16824      4E4F524D 
 16824      5F4D494E 
 16824      5F5F2064 
 16825 a67b 00       		.ascii	"\000"
 16826              	.LASF379:
 16827 a67c 5F5F5441 		.ascii	"__TA_FBIT__ 63\000"
 16827      5F464249 
 16827      545F5F20 
 16827      363300
 16828              	.LASF948:
 16829 a68b 5F5F7261 		.ascii	"__rangeof(type,start,end) (__offsetof(type, end) - "
 16829      6E67656F 
 16829      66287479 
 16829      70652C73 
ARM GAS  C:\Users\30806\AppData\Local\Temp\ccYcD1nI.s 			page 404


 16829      74617274 
 16830 a6be 5F5F6F66 		.ascii	"__offsetof(type, start))\000"
 16830      66736574 
 16830      6F662874 
 16830      7970652C 
 16830      20737461 
 16831              	.LASF1743:
 16832 a6d7 5F5A5374 		.ascii	"_ZSt5hypotff\000"
 16832      35687970 
 16832      6F746666 
 16832      00
 16833              	.LASF931:
 16834 a6e4 5F5F6D61 		.ascii	"__malloc_like __attribute__((__malloc__))\000"
 16834      6C6C6F63 
 16834      5F6C696B 
 16834      65205F5F 
 16834      61747472 
 16835              	.LASF254:
 16836 a70e 5F5F464C 		.ascii	"__FLT64_DENORM_MIN__ 4.9406564584124654e-324F64\000"
 16836      5436345F 
 16836      44454E4F 
 16836      524D5F4D 
 16836      494E5F5F 
 16837              	.LASF1345:
 16838 a73e 6C67616D 		.ascii	"lgamma\000"
 16838      6D6100
 16839              	.LASF56:
 16840 a745 5F5F5549 		.ascii	"__UINT_LEAST32_TYPE__ long unsigned int\000"
 16840      4E545F4C 
 16840      45415354 
 16840      33325F54 
 16840      5950455F 
 16841              	.LASF780:
 16842 a76d 5F4E4F49 		.ascii	"_NOINLINE_STATIC _NOINLINE static\000"
 16842      4E4C494E 
 16842      455F5354 
 16842      41544943 
 16842      205F4E4F 
 16843              	.LASF95:
 16844 a78f 5F5F6370 		.ascii	"__cpp_constexpr 201304L\000"
 16844      705F636F 
 16844      6E737465 
 16844      78707220 
 16844      32303133 
 16845              	.LASF1442:
 16846 a7a7 4C44424C 		.ascii	"LDBL_MAX_10_EXP __LDBL_MAX_10_EXP__\000"
 16846      5F4D4158 
 16846      5F31305F 
 16846      45585020 
 16846      5F5F4C44 
 16847              	.LASF776:
 16848 a7cb 5F4C4F4E 		.ascii	"_LONG_DOUBLE long double\000"
 16848      475F444F 
 16848      55424C45 
 16848      206C6F6E 
 16848      6720646F 
 16849              	.LASF918:
ARM GAS  C:\Users\30806\AppData\Local\Temp\ccYcD1nI.s 			page 405


 16850 a7e4 5F5F7573 		.ascii	"__used __attribute__((__used__))\000"
 16850      6564205F 
 16850      5F617474 
 16850      72696275 
 16850      74655F5F 
 16851              	.LASF1501:
 16852 a805 43484152 		.ascii	"CHAR_MIN\000"
 16852      5F4D494E 
 16852      00
 16853              	.LASF1617:
 16854 a80e 5F5A4E31 		.ascii	"_ZN12user_maths_c13cos_calculateEf\000"
 16854      32757365 
 16854      725F6D61 
 16854      7468735F 
 16854      63313363 
 16855              	.LASF1205:
 16856 a831 494E4649 		.ascii	"INFINITY (__builtin_inff())\000"
 16856      4E495459 
 16856      20285F5F 
 16856      6275696C 
 16856      74696E5F 
 16857              	.LASF765:
 16858 a84d 5F5F4F42 		.ascii	"__OBSOLETE_MATH __OBSOLETE_MATH_DEFAULT\000"
 16858      534F4C45 
 16858      54455F4D 
 16858      41544820 
 16858      5F5F4F42 
 16859              	.LASF380:
 16860 a875 5F5F5441 		.ascii	"__TA_IBIT__ 64\000"
 16860      5F494249 
 16860      545F5F20 
 16860      363400
 16861              	.LASF709:
 16862 a884 5F5F5354 		.ascii	"__STATIC_FORCEINLINE __attribute__((always_inline))"
 16862      41544943 
 16862      5F464F52 
 16862      4345494E 
 16862      4C494E45 
 16863 a8b7 20737461 		.ascii	" static inline\000"
 16863      74696320 
 16863      696E6C69 
 16863      6E6500
 16864              	.LASF995:
 16865 a8c6 5F535452 		.ascii	"_STRINGS_H_ \000"
 16865      494E4753 
 16865      5F485F20 
 16865      00
 16866              	.LASF1438:
 16867 a8d3 44424C5F 		.ascii	"DBL_MAX_10_EXP\000"
 16867      4D41585F 
 16867      31305F45 
 16867      585000
 16868              	.LASF1533:
 16869 a8e2 4636345F 		.ascii	"F64_ABSMAX ((float64_t)DBL_MAX)\000"
 16869      4142534D 
 16869      41582028 
 16869      28666C6F 
ARM GAS  C:\Users\30806\AppData\Local\Temp\ccYcD1nI.s 			page 406


 16869      61743634 
 16870              	.LASF1090:
 16871 a902 5F474C49 		.ascii	"_GLIBCXX_HAVE_FLOORF 1\000"
 16871      42435858 
 16871      5F484156 
 16871      455F464C 
 16871      4F4F5246 
 16872              	.LASF825:
 16873 a919 5F524545 		.ascii	"_REENT_STDIO_STREAM(var,index) &(var)->__sf[index]\000"
 16873      4E545F53 
 16873      5444494F 
 16873      5F535452 
 16873      45414D28 
 16874              	.LASF1524:
 16875 a94c 4C4F4E47 		.ascii	"LONG_LONG_MIN (-LONG_LONG_MAX - 1LL)\000"
 16875      5F4C4F4E 
 16875      475F4D49 
 16875      4E20282D 
 16875      4C4F4E47 
 16876              	.LASF241:
 16877 a971 5F5F464C 		.ascii	"__FLT32_HAS_QUIET_NAN__ 1\000"
 16877      5433325F 
 16877      4841535F 
 16877      51554945 
 16877      545F4E41 
 16878              	.LASF12:
 16879 a98b 5F5F4154 		.ascii	"__ATOMIC_RELEASE 3\000"
 16879      4F4D4943 
 16879      5F52454C 
 16879      45415345 
 16879      203300
 16880              	.LASF356:
 16881 a99e 5F5F4851 		.ascii	"__HQ_IBIT__ 0\000"
 16881      5F494249 
 16881      545F5F20 
 16881      3000
 16882              	.LASF1091:
 16883 a9ac 5F474C49 		.ascii	"_GLIBCXX_HAVE_FMODF 1\000"
 16883      42435858 
 16883      5F484156 
 16883      455F464D 
 16883      4F444620 
 16884              	.LASF1587:
 16885 a9c2 6C6F6E67 		.ascii	"long long int\000"
 16885      206C6F6E 
 16885      6720696E 
 16885      7400
 16886              	.LASF176:
 16887 a9d0 5F5F464C 		.ascii	"__FLT_EVAL_METHOD__ 0\000"
 16887      545F4556 
 16887      414C5F4D 
 16887      4554484F 
 16887      445F5F20 
 16888              	.LASF738:
 16889 a9e6 5F5F5553 		.ascii	"__USAT(ARG1,ARG2) __extension__ ({ uint32_t __RES, "
 16889      41542841 
 16889      5247312C 
ARM GAS  C:\Users\30806\AppData\Local\Temp\ccYcD1nI.s 			page 407


 16889      41524732 
 16889      29205F5F 
 16890 aa19 5F5F4152 		.ascii	"__ARG1 = (ARG1); __ASM volatile (\"usat %0, %1, %2\""
 16890      4731203D 
 16890      20284152 
 16890      4731293B 
 16890      205F5F41 
 16891 aa4b 203A2022 		.ascii	" : \"=r\" (__RES) : \"I\" (ARG2), \"r\" (__ARG1) : "
 16891      3D722220 
 16891      285F5F52 
 16891      45532920 
 16891      3A202249 
 16892 aa78 22636322 		.ascii	"\"cc\" ); __RES; })\000"
 16892      20293B20 
 16892      5F5F5245 
 16892      533B207D 
 16892      2900
 16893              	.LASF965:
 16894 aa8a 5F5F434F 		.ascii	"__COPYRIGHT(s) struct __hack\000"
 16894      50595249 
 16894      47485428 
 16894      73292073 
 16894      74727563 
 16895              	.LASF758:
 16896 aaa7 5F574944 		.ascii	"_WIDE_ORIENT 1\000"
 16896      455F4F52 
 16896      49454E54 
 16896      203100
 16897              	.LASF1268:
 16898 aab6 45584954 		.ascii	"EXIT_FAILURE 1\000"
 16898      5F464149 
 16898      4C555245 
 16898      203100
 16899              	.LASF534:
 16900 aac5 6C6F6E67 		.ascii	"long\000"
 16900      00
 16901              	.LASF381:
 16902 aaca 5F5F5548 		.ascii	"__UHA_FBIT__ 8\000"
 16902      415F4642 
 16902      49545F5F 
 16902      203800
 16903              	.LASF1233:
 16904 aad9 6973756E 		.ascii	"isunordered(__x,__y) (__builtin_isunordered (__x, _"
 16904      6F726465 
 16904      72656428 
 16904      5F5F782C 
 16904      5F5F7929 
 16905 ab0c 5F792929 		.ascii	"_y))\000"
 16905      00
 16906              	.LASF312:
 16907 ab11 5F5F554C 		.ascii	"__ULLFRACT_EPSILON__ 0x1P-64ULLR\000"
 16907      4C465241 
 16907      43545F45 
 16907      5053494C 
 16907      4F4E5F5F 
 16908              	.LASF1275:
 16909 ab32 6173696E 		.ascii	"asin\000"
ARM GAS  C:\Users\30806\AppData\Local\Temp\ccYcD1nI.s 			page 408


 16909      00
 16910              	.LASF429:
 16911 ab37 5F5F4152 		.ascii	"__ARM_FEATURE_CLZ 1\000"
 16911      4D5F4645 
 16911      41545552 
 16911      455F434C 
 16911      5A203100 
 16912              	.LASF246:
 16913 ab4b 5F5F464C 		.ascii	"__FLT64_MIN_10_EXP__ (-307)\000"
 16913      5436345F 
 16913      4D494E5F 
 16913      31305F45 
 16913      58505F5F 
 16914              	.LASF456:
 16915 ab67 5F5F4152 		.ascii	"__ARM_FEATURE_FMA 1\000"
 16915      4D5F4645 
 16915      41545552 
 16915      455F464D 
 16915      41203100 
 16916              	.LASF556:
 16917 ab7b 5F5F4C45 		.ascii	"__LEAST64 \"ll\"\000"
 16917      41535436 
 16917      3420226C 
 16917      6C2200
 16918              	.LASF1660:
 16919 ab8a 5F5A5374 		.ascii	"_ZSt5ldexpei\000"
 16919      356C6465 
 16919      78706569 
 16919      00
 16920              	.LASF459:
 16921 ab97 5F5F4152 		.ascii	"__ARM_NEON_FP\000"
 16921      4D5F4E45 
 16921      4F4E5F46 
 16921      5000
 16922              	.LASF1625:
 16923 aba5 5F5A4E31 		.ascii	"_ZN12user_maths_c14user_val_limitEfff\000"
 16923      32757365 
 16923      725F6D61 
 16923      7468735F 
 16923      63313475 
 16924              	.LASF464:
 16925 abcb 5F5F4644 		.ascii	"__FDPIC__\000"
 16925      5049435F 
 16925      5F00
 16926              	.LASF595:
 16927 abd5 494E545F 		.ascii	"INT_LEAST16_MAX (__INT_LEAST16_MAX__)\000"
 16927      4C454153 
 16927      5431365F 
 16927      4D415820 
 16927      285F5F49 
 16928              	.LASF1644:
 16929 abfb 5F5A5374 		.ascii	"_ZSt3cose\000"
 16929      33636F73 
 16929      6500
 16930              	.LASF1645:
 16931 ac05 5F5A5374 		.ascii	"_ZSt3cosf\000"
 16931      33636F73 
ARM GAS  C:\Users\30806\AppData\Local\Temp\ccYcD1nI.s 			page 409


 16931      6600
 16932              	.LASF136:
 16933 ac0f 5F5F5549 		.ascii	"__UINT16_MAX__ 0xffff\000"
 16933      4E543136 
 16933      5F4D4158 
 16933      5F5F2030 
 16933      78666666 
 16934              	.LASF1369:
 16935 ac25 6E616E66 		.ascii	"nanf\000"
 16935      00
 16936              	.LASF1097:
 16937 ac2a 5F474C49 		.ascii	"_GLIBCXX_HAVE_IEEEFP_H 1\000"
 16937      42435858 
 16937      5F484156 
 16937      455F4945 
 16937      45454650 
 16938              	.LASF438:
 16939 ac43 5F5F4152 		.ascii	"__ARM_ARCH 7\000"
 16939      4D5F4152 
 16939      43482037 
 16939      00
 16940              	.LASF289:
 16941 ac50 5F5F5546 		.ascii	"__UFRACT_IBIT__ 0\000"
 16941      52414354 
 16941      5F494249 
 16941      545F5F20 
 16941      3000
 16942              	.LASF1244:
 16943 ac62 4D5F5049 		.ascii	"M_PI_4 0.78539816339744830962\000"
 16943      5F342030 
 16943      2E373835 
 16943      33393831 
 16943      36333339 
 16944              	.LASF1370:
 16945 ac80 6E616E6C 		.ascii	"nanl\000"
 16945      00
 16946              	.LASF1593:
 16947 ac85 4C617374 		.ascii	"Last_Input\000"
 16947      5F496E70 
 16947      757400
 16948              	.LASF1419:
 16949 ac90 464C545F 		.ascii	"FLT_MIN_EXP\000"
 16949      4D494E5F 
 16949      45585000 
 16950              	.LASF1748:
 16951 ac9c 5F5A5374 		.ascii	"_ZSt6llrinte\000"
 16951      366C6C72 
 16951      696E7465 
 16951      00
 16952              	.LASF857:
 16953 aca9 5F524545 		.ascii	"_REENT_SIGNAL_BUF(ptr) ((ptr)->_new._reent._signal_"
 16953      4E545F53 
 16953      49474E41 
 16953      4C5F4255 
 16953      46287074 
 16954 acdc 62756629 		.ascii	"buf)\000"
 16954      00
ARM GAS  C:\Users\30806\AppData\Local\Temp\ccYcD1nI.s 			page 410


 16955              	.LASF1100:
 16956 ace1 5F474C49 		.ascii	"_GLIBCXX_HAVE_INTTYPES_H 1\000"
 16956      42435858 
 16956      5F484156 
 16956      455F494E 
 16956      54545950 
 16957              	.LASF907:
 16958 acfc 5F5F434F 		.ascii	"__CONCAT(x,y) __CONCAT1(x,y)\000"
 16958      4E434154 
 16958      28782C79 
 16958      29205F5F 
 16958      434F4E43 
 16959              	.LASF732:
 16960 ad19 5F5F4E4F 		.ascii	"__NOP() __ASM volatile (\"nop\")\000"
 16960      50282920 
 16960      5F5F4153 
 16960      4D20766F 
 16960      6C617469 
 16961              	.LASF210:
 16962 ad38 5F5F4442 		.ascii	"__DBL_HAS_QUIET_NAN__ 1\000"
 16962      4C5F4841 
 16962      535F5155 
 16962      4945545F 
 16962      4E414E5F 
 16963              	.LASF214:
 16964 ad50 5F5F4C44 		.ascii	"__LDBL_MIN_10_EXP__ (-307)\000"
 16964      424C5F4D 
 16964      494E5F31 
 16964      305F4558 
 16964      505F5F20 
 16965              	.LASF392:
 16966 ad6b 5F5F4E4F 		.ascii	"__NO_INLINE__ 1\000"
 16966      5F494E4C 
 16966      494E455F 
 16966      5F203100 
 16967              	.LASF1018:
 16968 ad7b 5F474C49 		.ascii	"_GLIBCXX_NOEXCEPT noexcept\000"
 16968      42435858 
 16968      5F4E4F45 
 16968      58434550 
 16968      54206E6F 
 16969              	.LASF1249:
 16970 ad96 4D5F5351 		.ascii	"M_SQRT1_2 0.70710678118654752440\000"
 16970      5254315F 
 16970      3220302E 
 16970      37303731 
 16970      30363738 
 16971              	.LASF1555:
 16972 adb7 46415354 		.ascii	"FAST_MATH_Q31_SHIFT (32 - 10)\000"
 16972      5F4D4154 
 16972      485F5133 
 16972      315F5348 
 16972      49465420 
 16973              	.LASF279:
 16974 add5 5F5F5553 		.ascii	"__USFRACT_IBIT__ 0\000"
 16974      46524143 
 16974      545F4942 
ARM GAS  C:\Users\30806\AppData\Local\Temp\ccYcD1nI.s 			page 411


 16974      49545F5F 
 16974      203000
 16975              	.LASF634:
 16976 ade8 55494E54 		.ascii	"UINT8_C(x) __UINT8_C(x)\000"
 16976      385F4328 
 16976      7829205F 
 16976      5F55494E 
 16976      54385F43 
 16977              	.LASF261:
 16978 ae00 5F5F464C 		.ascii	"__FLT32X_MIN_10_EXP__ (-307)\000"
 16978      54333258 
 16978      5F4D494E 
 16978      5F31305F 
 16978      4558505F 
 16979              	.LASF727:
 16980 ae1d 5F5F5645 		.ascii	"__VECTOR_TABLE __Vectors\000"
 16980      43544F52 
 16980      5F544142 
 16980      4C45205F 
 16980      5F566563 
 16981              	.LASF178:
 16982 ae36 5F5F4445 		.ascii	"__DEC_EVAL_METHOD__ 2\000"
 16982      435F4556 
 16982      414C5F4D 
 16982      4554484F 
 16982      445F5F20 
 16983              	.LASF1509:
 16984 ae4c 55534852 		.ascii	"USHRT_MAX\000"
 16984      545F4D41 
 16984      5800
 16985              	.LASF225:
 16986 ae56 5F5F4C44 		.ascii	"__LDBL_HAS_INFINITY__ 1\000"
 16986      424C5F48 
 16986      41535F49 
 16986      4E46494E 
 16986      4954595F 
 16987              	.LASF1661:
 16988 ae6e 5F5A5374 		.ascii	"_ZSt5ldexpfi\000"
 16988      356C6465 
 16988      78706669 
 16988      00
 16989              	.LASF757:
 16990 ae7b 5F465345 		.ascii	"_FSEEK_OPTIMIZATION 1\000"
 16990      454B5F4F 
 16990      5054494D 
 16990      495A4154 
 16990      494F4E20 
 16991              	.LASF1586:
 16992 ae91 6C6F6E67 		.ascii	"long unsigned int\000"
 16992      20756E73 
 16992      69676E65 
 16992      6420696E 
 16992      7400
 16993              	.LASF1659:
 16994 aea3 5F5A5374 		.ascii	"_ZSt5frexpfPi\000"
 16994      35667265 
 16994      78706650 
ARM GAS  C:\Users\30806\AppData\Local\Temp\ccYcD1nI.s 			page 412


 16994      6900
 16995              	.LASF461:
 16996 aeb1 5F5F4152 		.ascii	"__ARM_ARCH_7EM__ 1\000"
 16996      4D5F4152 
 16996      43485F37 
 16996      454D5F5F 
 16996      203100
 16997              	.LASF1414:
 16998 aec4 44424C5F 		.ascii	"DBL_DIG\000"
 16998      44494700 
 16999              	.LASF276:
 17000 aecc 5F5F5346 		.ascii	"__SFRACT_MAX__ 0X7FP-7HR\000"
 17000      52414354 
 17000      5F4D4158 
 17000      5F5F2030 
 17000      58374650 
 17001              	.LASF1361:
 17002 aee5 6C6F6762 		.ascii	"logbf\000"
 17002      6600
 17003              	.LASF1068:
 17004 aeeb 5F474C49 		.ascii	"_GLIBCXX_USE_C99_STDLIB _GLIBCXX11_USE_C99_STDLIB\000"
 17004      42435858 
 17004      5F555345 
 17004      5F433939 
 17004      5F535444 
 17005              	.LASF616:
 17006 af1d 494E545F 		.ascii	"INT_FAST32_MAX (__INT_FAST32_MAX__)\000"
 17006      46415354 
 17006      33325F4D 
 17006      41582028 
 17006      5F5F494E 
 17007              	.LASF737:
 17008 af41 5F5F5353 		.ascii	"__SSAT(ARG1,ARG2) __extension__ ({ int32_t __RES, _"
 17008      41542841 
 17008      5247312C 
 17008      41524732 
 17008      29205F5F 
 17009 af74 5F415247 		.ascii	"_ARG1 = (ARG1); __ASM volatile (\"ssat %0, %1, %2\""
 17009      31203D20 
 17009      28415247 
 17009      31293B20 
 17009      5F5F4153 
 17010 afa5 203A2022 		.ascii	" : \"=r\" (__RES) : \"I\" (ARG2), \"r\" (__ARG1) : "
 17010      3D722220 
 17010      285F5F52 
 17010      45532920 
 17010      3A202249 
 17011 afd2 22636322 		.ascii	"\"cc\" ); __RES; })\000"
 17011      20293B20 
 17011      5F5F5245 
 17011      533B207D 
 17011      2900
 17012              	.LASF1130:
 17013 afe4 5F474C49 		.ascii	"_GLIBCXX_HAVE_STRINGS_H 1\000"
 17013      42435858 
 17013      5F484156 
 17013      455F5354 
ARM GAS  C:\Users\30806\AppData\Local\Temp\ccYcD1nI.s 			page 413


 17013      52494E47 
 17014              	.LASF1307:
 17015 affe 6173696E 		.ascii	"asinhl\000"
 17015      686C00
 17016              	.LASF1470:
 17017 b005 4348494C 		.ascii	"CHILD_MAX 40\000"
 17017      445F4D41 
 17017      58203430 
 17017      00
 17018              	.LASF219:
 17019 b012 5F5F4C44 		.ascii	"__LDBL_MAX__ 1.7976931348623157e+308L\000"
 17019      424C5F4D 
 17019      41585F5F 
 17019      20312E37 
 17019      39373639 
 17020              	.LASF1312:
 17021 b038 63627274 		.ascii	"cbrtf\000"
 17021      6600
 17022              	.LASF22:
 17023 b03e 5F5F5349 		.ascii	"__SIZEOF_LONG_DOUBLE__ 8\000"
 17023      5A454F46 
 17023      5F4C4F4E 
 17023      475F444F 
 17023      55424C45 
 17024              	.LASF999:
 17025 b057 5F5F474C 		.ascii	"__GLIBCXX__ 20210824\000"
 17025      49424358 
 17025      585F5F20 
 17025      32303231 
 17025      30383234 
 17026              	.LASF255:
 17027 b06c 5F5F464C 		.ascii	"__FLT64_HAS_DENORM__ 1\000"
 17027      5436345F 
 17027      4841535F 
 17027      44454E4F 
 17027      524D5F5F 
 17028              	.LASF900:
 17029 b083 5F5F4343 		.ascii	"__CC_SUPPORTS___INLINE__ 1\000"
 17029      5F535550 
 17029      504F5254 
 17029      535F5F5F 
 17029      494E4C49 
 17030              	.LASF192:
 17031 b09e 5F5F464C 		.ascii	"__FLT_HAS_DENORM__ 1\000"
 17031      545F4841 
 17031      535F4445 
 17031      4E4F524D 
 17031      5F5F2031 
 17032              	.LASF884:
 17033 b0b3 5F5F474E 		.ascii	"__GNUCLIKE_MATH_BUILTIN_CONSTANTS \000"
 17033      55434C49 
 17033      4B455F4D 
 17033      4154485F 
 17033      4255494C 
 17034              	.LASF482:
 17035 b0d6 5F5F5354 		.ascii	"__STDC_LIMIT_MACROS\000"
 17035      44435F4C 
ARM GAS  C:\Users\30806\AppData\Local\Temp\ccYcD1nI.s 			page 414


 17035      494D4954 
 17035      5F4D4143 
 17035      524F5300 
 17036              	.LASF443:
 17037 b0ea 5F5F5448 		.ascii	"__THUMBEL__ 1\000"
 17037      554D4245 
 17037      4C5F5F20 
 17037      3100
 17038              	.LASF1810:
 17039 b0f8 63686172 		.ascii	"char16_t\000"
 17039      31365F74 
 17039      00
 17040              	.LASF1415:
 17041 b101 4C44424C 		.ascii	"LDBL_DIG\000"
 17041      5F444947 
 17041      00
 17042              	.LASF1558:
 17043 b10a 5441424C 		.ascii	"TABLE_SPACING_Q31 0x400000\000"
 17043      455F5350 
 17043      4143494E 
 17043      475F5133 
 17043      31203078 
 17044              	.LASF1614:
 17045 b125 43697263 		.ascii	"CircleIncreaseLimit\000"
 17045      6C65496E 
 17045      63726561 
 17045      73654C69 
 17045      6D697400 
 17046              	.LASF1004:
 17047 b139 5F474C49 		.ascii	"_GLIBCXX_VISIBILITY(V) __attribute__ ((__visibility"
 17047      42435858 
 17047      5F564953 
 17047      4942494C 
 17047      49545928 
 17048 b16c 5F5F2028 		.ascii	"__ (#V)))\000"
 17048      23562929 
 17048      2900
 17049              	.LASF92:
 17050 b176 5F5F6370 		.ascii	"__cpp_return_type_deduction 201304L\000"
 17050      705F7265 
 17050      7475726E 
 17050      5F747970 
 17050      655F6465 
 17051              	.LASF1786:
 17052 b19a 646F7562 		.ascii	"double_t\000"
 17052      6C655F74 
 17052      00
 17053              	.LASF701:
 17054 b1a3 5F474343 		.ascii	"_GCC_MAX_ALIGN_T \000"
 17054      5F4D4158 
 17054      5F414C49 
 17054      474E5F54 
 17054      2000
 17055              	.LASF1317:
 17056 b1b5 65726666 		.ascii	"erff\000"
 17056      00
 17057              	.LASF362:
ARM GAS  C:\Users\30806\AppData\Local\Temp\ccYcD1nI.s 			page 415


 17058 b1ba 5F5F5451 		.ascii	"__TQ_IBIT__ 0\000"
 17058      5F494249 
 17058      545F5F20 
 17058      3000
 17059              	.LASF1667:
 17060 b1c8 5F5A5374 		.ascii	"_ZSt4modffPf\000"
 17060      346D6F64 
 17060      66665066 
 17060      00
 17061              	.LASF1256:
 17062 b1d5 4D5F4956 		.ascii	"M_IVLN10 0.43429448190325182765\000"
 17062      4C4E3130 
 17062      20302E34 
 17062      33343239 
 17062      34343831 
 17063              	.LASF1764:
 17064 b1f5 5F5A5374 		.ascii	"_ZSt9nextafteree\000"
 17064      396E6578 
 17064      74616674 
 17064      65726565 
 17064      00
 17065              	.LASF20:
 17066 b206 5F5F5349 		.ascii	"__SIZEOF_FLOAT__ 4\000"
 17066      5A454F46 
 17066      5F464C4F 
 17066      41545F5F 
 17066      203400
 17067              	.LASF1025:
 17068 b219 5F474C49 		.ascii	"_GLIBCXX_NOEXCEPT_QUAL \000"
 17068      42435858 
 17068      5F4E4F45 
 17068      58434550 
 17068      545F5155 
 17069              	.LASF663:
 17070 b231 5F5F5349 		.ascii	"__SIZE_T__ \000"
 17070      5A455F54 
 17070      5F5F2000 
 17071              	.LASF33:
 17072 b23d 5F5F5349 		.ascii	"__SIZE_TYPE__ unsigned int\000"
 17072      5A455F54 
 17072      5950455F 
 17072      5F20756E 
 17072      7369676E 
 17073              	.LASF1231:
 17074 b258 69736C65 		.ascii	"islessequal(__x,__y) (__builtin_islessequal (__x, _"
 17074      73736571 
 17074      75616C28 
 17074      5F5F782C 
 17074      5F5F7929 
 17075 b28b 5F792929 		.ascii	"_y))\000"
 17075      00
 17076              	.LASF947:
 17077 b290 5F5F6F66 		.ascii	"__offsetof(type,field) offsetof(type, field)\000"
 17077      66736574 
 17077      6F662874 
 17077      7970652C 
 17077      6669656C 
ARM GAS  C:\Users\30806\AppData\Local\Temp\ccYcD1nI.s 			page 416


 17078              	.LASF558:
 17079 b2bd 5F494E54 		.ascii	"_INT8_T_DECLARED \000"
 17079      385F545F 
 17079      4445434C 
 17079      41524544 
 17079      2000
 17080              	.LASF54:
 17081 b2cf 5F5F5549 		.ascii	"__UINT_LEAST8_TYPE__ unsigned char\000"
 17081      4E545F4C 
 17081      45415354 
 17081      385F5459 
 17081      50455F5F 
 17082              	.LASF815:
 17083 b2f2 5F52414E 		.ascii	"_RAND48_SEED_1 (0xabcd)\000"
 17083      4434385F 
 17083      53454544 
 17083      5F312028 
 17083      30786162 
 17084              	.LASF940:
 17085 b30a 5F5F756E 		.ascii	"__unreachable() __builtin_unreachable()\000"
 17085      72656163 
 17085      6861626C 
 17085      65282920 
 17085      5F5F6275 
 17086              	.LASF1727:
 17087 b332 5F5A5374 		.ascii	"_ZSt3erff\000"
 17087      33657266 
 17087      6600
 17088              	.LASF908:
 17089 b33c 5F5F5354 		.ascii	"__STRING(x) #x\000"
 17089      52494E47 
 17089      28782920 
 17089      237800
 17090              	.LASF710:
 17091 b34b 5F5F4E4F 		.ascii	"__NO_RETURN __attribute__((__noreturn__))\000"
 17091      5F524554 
 17091      55524E20 
 17091      5F5F6174 
 17091      74726962 
 17092              	.LASF819:
 17093 b375 5F52414E 		.ascii	"_RAND48_MULT_2 (0x0005)\000"
 17093      4434385F 
 17093      4D554C54 
 17093      5F322028 
 17093      30783030 
 17094              	.LASF1291:
 17095 b38d 69736669 		.ascii	"isfinite\000"
 17095      6E697465 
 17095      00
 17096              	.LASF526:
 17097 b396 5F535953 		.ascii	"_SYS__INTSUP_H \000"
 17097      5F5F494E 
 17097      54535550 
 17097      5F482000 
 17098              	.LASF39:
 17099 b3a6 5F5F4348 		.ascii	"__CHAR16_TYPE__ short unsigned int\000"
 17099      41523136 
ARM GAS  C:\Users\30806\AppData\Local\Temp\ccYcD1nI.s 			page 417


 17099      5F545950 
 17099      455F5F20 
 17099      73686F72 
 17100              	.LASF849:
 17101 b3c9 5F524545 		.ascii	"_REENT_MBTOWC_STATE(ptr) ((ptr)->_new._reent._mbtow"
 17101      4E545F4D 
 17101      42544F57 
 17101      435F5354 
 17101      41544528 
 17102 b3fc 635F7374 		.ascii	"c_state)\000"
 17102      61746529 
 17102      00
 17103              	.LASF288:
 17104 b405 5F5F5546 		.ascii	"__UFRACT_FBIT__ 16\000"
 17104      52414354 
 17104      5F464249 
 17104      545F5F20 
 17104      313600
 17105              	.LASF708:
 17106 b418 5F5F5354 		.ascii	"__STATIC_INLINE static inline\000"
 17106      41544943 
 17106      5F494E4C 
 17106      494E4520 
 17106      73746174 
 17107              	.LASF1589:
 17108 b436 756E7369 		.ascii	"unsigned int\000"
 17108      676E6564 
 17108      20696E74 
 17108      00
 17109              	.LASF1451:
 17110 b443 4C44424C 		.ascii	"LDBL_EPSILON\000"
 17110      5F455053 
 17110      494C4F4E 
 17110      00
 17111              	.LASF970:
 17112 b450 5F4E756C 		.ascii	"_Nullable \000"
 17112      6C61626C 
 17112      652000
 17113              	.LASF67:
 17114 b45b 5F5F5549 		.ascii	"__UINTPTR_TYPE__ unsigned int\000"
 17114      4E545054 
 17114      525F5459 
 17114      50455F5F 
 17114      20756E73 
 17115              	.LASF868:
 17116 b479 5F5F5448 		.ascii	"__THROW \000"
 17116      524F5720 
 17116      00
 17117              	.LASF805:
 17118 b482 5F5F6C6F 		.ascii	"__lock_acquire_recursive(lock) __retarget_lock_acqu"
 17118      636B5F61 
 17118      63717569 
 17118      72655F72 
 17118      65637572 
 17119 b4b5 6972655F 		.ascii	"ire_recursive(lock)\000"
 17119      72656375 
 17119      72736976 
ARM GAS  C:\Users\30806\AppData\Local\Temp\ccYcD1nI.s 			page 418


 17119      65286C6F 
 17119      636B2900 
 17120              	.LASF1765:
 17121 b4c9 5F5A5374 		.ascii	"_ZSt9nextafterff\000"
 17121      396E6578 
 17121      74616674 
 17121      65726666 
 17121      00
 17122              	.LASF425:
 17123 b4da 5F5F4152 		.ascii	"__ARM_FEATURE_MVE\000"
 17123      4D5F4645 
 17123      41545552 
 17123      455F4D56 
 17123      4500
 17124              	.LASF1797:
 17125 b4ec 54726967 		.ascii	"Trigonometric_Functions\000"
 17125      6F6E6F6D 
 17125      65747269 
 17125      635F4675 
 17125      6E637469 
 17126              	.LASF1783:
 17127 b504 5F5F6378 		.ascii	"__cxx11\000"
 17127      78313100 
 17128              	.LASF1535:
 17129 b50c 4636345F 		.ascii	"F64_ABSMIN ((float64_t)0.0)\000"
 17129      4142534D 
 17129      494E2028 
 17129      28666C6F 
 17129      61743634 
 17130              	.LASF1646:
 17131 b528 5F5A5374 		.ascii	"_ZSt3sine\000"
 17131      3373696E 
 17131      6500
 17132              	.LASF1647:
 17133 b532 5F5A5374 		.ascii	"_ZSt3sinf\000"
 17133      3373696E 
 17133      6600
 17134              	.LASF1439:
 17135 b53c 4C44424C 		.ascii	"LDBL_MAX_10_EXP\000"
 17135      5F4D4158 
 17135      5F31305F 
 17135      45585000 
 17136              	.LASF993:
 17137 b54c 5F5F6E65 		.ascii	"__need_NULL \000"
 17137      65645F4E 
 17137      554C4C20 
 17137      00
 17138              	.LASF547:
 17139 b559 5F5F494E 		.ascii	"__INT32 \"l\"\000"
 17139      54333220 
 17139      226C2200 
 17140              	.LASF382:
 17141 b565 5F5F5548 		.ascii	"__UHA_IBIT__ 8\000"
 17141      415F4942 
 17141      49545F5F 
 17141      203800
 17142              	.LASF471:
ARM GAS  C:\Users\30806\AppData\Local\Temp\ccYcD1nI.s 			page 419


 17143 b574 5F5F4152 		.ascii	"__ARM_FEATURE_CDE_COPROC\000"
 17143      4D5F4645 
 17143      41545552 
 17143      455F4344 
 17143      455F434F 
 17144              	.LASF306:
 17145 b58d 5F5F4C4C 		.ascii	"__LLFRACT_MAX__ 0X7FFFFFFFFFFFFFFFP-63LLR\000"
 17145      46524143 
 17145      545F4D41 
 17145      585F5F20 
 17145      30583746 
 17146              	.LASF1412:
 17147 b5b7 4C44424C 		.ascii	"LDBL_MANT_DIG __LDBL_MANT_DIG__\000"
 17147      5F4D414E 
 17147      545F4449 
 17147      47205F5F 
 17147      4C44424C 
 17148              	.LASF980:
 17149 b5d7 5F5F7472 		.ascii	"__trylocks_exclusive(...) __lock_annotate(exclusive"
 17149      796C6F63 
 17149      6B735F65 
 17149      78636C75 
 17149      73697665 
 17150 b60a 5F747279 		.ascii	"_trylock_function(__VA_ARGS__))\000"
 17150      6C6F636B 
 17150      5F66756E 
 17150      6374696F 
 17150      6E285F5F 
 17151              	.LASF1583:
 17152 b62a 73686F72 		.ascii	"short int\000"
 17152      7420696E 
 17152      7400
 17153              	.LASF787:
 17154 b634 5F4D4143 		.ascii	"_MACHINE__TYPES_H \000"
 17154      48494E45 
 17154      5F5F5459 
 17154      5045535F 
 17154      482000
 17155              	.LASF6:
 17156 b647 5F5F474E 		.ascii	"__GNUC_MINOR__ 3\000"
 17156      55435F4D 
 17156      494E4F52 
 17156      5F5F2033 
 17156      00
 17157              	.LASF566:
 17158 b658 5F5F696E 		.ascii	"__int32_t_defined 1\000"
 17158      7433325F 
 17158      745F6465 
 17158      66696E65 
 17158      64203100 
 17159              	.LASF2:
 17160 b66c 5F5F5354 		.ascii	"__STDC_UTF_16__ 1\000"
 17160      44435F55 
 17160      54465F31 
 17160      365F5F20 
 17160      3100
 17161              	.LASF973:
ARM GAS  C:\Users\30806\AppData\Local\Temp\ccYcD1nI.s 			page 420


 17162 b67e 5F5F4E55 		.ascii	"__NULLABILITY_PRAGMA_POP \000"
 17162      4C4C4142 
 17162      494C4954 
 17162      595F5052 
 17162      41474D41 
 17163              	.LASF88:
 17164 b698 5F5F6370 		.ascii	"__cpp_nsdmi 200809L\000"
 17164      705F6E73 
 17164      646D6920 
 17164      32303038 
 17164      30394C00 
 17165              	.LASF1288:
 17166 b6ac 73717274 		.ascii	"sqrt\000"
 17166      00
 17167              	.LASF1476:
 17168 b6b1 4F50454E 		.ascii	"OPEN_MAX 64\000"
 17168      5F4D4158 
 17168      20363400 
 17169              	.LASF1184:
 17170 b6bd 5F474C49 		.ascii	"_GLIBCXX_USE_C99_STDINT_TR1 1\000"
 17170      42435858 
 17170      5F555345 
 17170      5F433939 
 17170      5F535444 
 17171              	.LASF75:
 17172 b6db 5F5F6370 		.ascii	"__cpp_raw_strings 200710L\000"
 17172      705F7261 
 17172      775F7374 
 17172      72696E67 
 17172      73203230 
 17173              	.LASF55:
 17174 b6f5 5F5F5549 		.ascii	"__UINT_LEAST16_TYPE__ short unsigned int\000"
 17174      4E545F4C 
 17174      45415354 
 17174      31365F54 
 17174      5950455F 
 17175              	.LASF1136:
 17176 b71e 5F474C49 		.ascii	"_GLIBCXX_HAVE_SYS_STAT_H 1\000"
 17176      42435858 
 17176      5F484156 
 17176      455F5359 
 17176      535F5354 
 17177              	.LASF755:
 17178 b739 5F4C4442 		.ascii	"_LDBL_EQ_DBL 1\000"
 17178      4C5F4551 
 17178      5F44424C 
 17178      203100
 17179              	.LASF664:
 17180 b748 5F53495A 		.ascii	"_SIZE_T \000"
 17180      455F5420 
 17180      00
 17181              	.LASF1462:
 17182 b751 464C545F 		.ascii	"FLT_ROUNDS 1\000"
 17182      524F554E 
 17182      44532031 
 17182      00
 17183              	.LASF71:
ARM GAS  C:\Users\30806\AppData\Local\Temp\ccYcD1nI.s 			page 421


 17184 b75e 5F5F6370 		.ascii	"__cpp_binary_literals 201304L\000"
 17184      705F6269 
 17184      6E617279 
 17184      5F6C6974 
 17184      6572616C 
 17185              	.LASF1539:
 17186 b77c 51375F4D 		.ascii	"Q7_MAX ((q7_t)(0x7F))\000"
 17186      41582028 
 17186      2871375F 
 17186      74292830 
 17186      78374629 
 17187              	.LASF1580:
 17188 b792 5F5F4C49 		.ascii	"__LIST_FUNCTION_H \000"
 17188      53545F46 
 17188      554E4354 
 17188      494F4E5F 
 17188      482000
 17189              	.LASF1404:
 17190 b7a5 5F464C4F 		.ascii	"_FLOAT_H___ \000"
 17190      41545F48 
 17190      5F5F5F20 
 17190      00
 17191              	.LASF593:
 17192 b7b2 55494E54 		.ascii	"UINT16_MAX (__UINT16_MAX__)\000"
 17192      31365F4D 
 17192      41582028 
 17192      5F5F5549 
 17192      4E543136 
 17193              	.LASF1320:
 17194 b7ce 65726663 		.ascii	"erfcf\000"
 17194      6600
 17195              	.LASF1321:
 17196 b7d4 65726663 		.ascii	"erfcl\000"
 17196      6C00
 17197              	.LASF925:
 17198 b7da 5F416C69 		.ascii	"_Alignas(x) alignas(x)\000"
 17198      676E6173 
 17198      28782920 
 17198      616C6967 
 17198      6E617328 
 17199              	.LASF151:
 17200 b7f1 5F5F5549 		.ascii	"__UINT_LEAST8_MAX__ 0xff\000"
 17200      4E545F4C 
 17200      45415354 
 17200      385F4D41 
 17200      585F5F20 
 17201              	.LASF10:
 17202 b80a 5F5F4154 		.ascii	"__ATOMIC_SEQ_CST 5\000"
 17202      4F4D4943 
 17202      5F534551 
 17202      5F435354 
 17202      203500
 17203              	.LASF445:
 17204 b81d 5F5F4152 		.ascii	"__ARM_ARCH_ISA_THUMB 2\000"
 17204      4D5F4152 
 17204      43485F49 
 17204      53415F54 
ARM GAS  C:\Users\30806\AppData\Local\Temp\ccYcD1nI.s 			page 422


 17204      48554D42 
 17205              	.LASF1041:
 17206 b834 5F474C49 		.ascii	"_GLIBCXX_END_NAMESPACE_ALGO \000"
 17206      42435858 
 17206      5F454E44 
 17206      5F4E414D 
 17206      45535041 
 17207              	.LASF137:
 17208 b851 5F5F5549 		.ascii	"__UINT32_MAX__ 0xffffffffUL\000"
 17208      4E543332 
 17208      5F4D4158 
 17208      5F5F2030 
 17208      78666666 
 17209              	.LASF740:
 17210 b86d 5F5F5553 		.ascii	"__USAT16(ARG1,ARG2) __extension__ ({ uint32_t __RES"
 17210      41543136 
 17210      28415247 
 17210      312C4152 
 17210      47322920 
 17211 b8a0 2C205F5F 		.ascii	", __ARG1 = (ARG1); __ASM volatile (\"usat16 %0, %1,"
 17211      41524731 
 17211      203D2028 
 17211      41524731 
 17211      293B205F 
 17212 b8d2 20253222 		.ascii	" %2\" : \"=r\" (__RES) : \"I\" (ARG2), \"r\" (__ARG"
 17212      203A2022 
 17212      3D722220 
 17212      285F5F52 
 17212      45532920 
 17213 b8fe 3129203A 		.ascii	"1) : \"cc\" ); __RES; })\000"
 17213      20226363 
 17213      2220293B 
 17213      205F5F52 
 17213      45533B20 
 17214              	.LASF631:
 17215 b915 57494E54 		.ascii	"WINT_MAX (__WINT_MAX__)\000"
 17215      5F4D4158 
 17215      20285F5F 
 17215      57494E54 
 17215      5F4D4158 
 17216              	.LASF1036:
 17217 b92d 5F474C49 		.ascii	"_GLIBCXX_STD_C std\000"
 17217      42435858 
 17217      5F535444 
 17217      5F432073 
 17217      746400
 17218              	.LASF1114:
 17219 b940 5F474C49 		.ascii	"_GLIBCXX_HAVE_MACHINE_PARAM_H 1\000"
 17219      42435858 
 17219      5F484156 
 17219      455F4D41 
 17219      4348494E 
 17220              	.LASF665:
 17221 b960 5F535953 		.ascii	"_SYS_SIZE_T_H \000"
 17221      5F53495A 
 17221      455F545F 
 17221      482000
ARM GAS  C:\Users\30806\AppData\Local\Temp\ccYcD1nI.s 			page 423


 17222              	.LASF576:
 17223 b96f 5F5F696E 		.ascii	"__int_least32_t_defined 1\000"
 17223      745F6C65 
 17223      61737433 
 17223      325F745F 
 17223      64656669 
 17224              	.LASF1636:
 17225 b989 5F5A5374 		.ascii	"_ZSt4acose\000"
 17225      3461636F 
 17225      736500
 17226              	.LASF1637:
 17227 b994 5F5A5374 		.ascii	"_ZSt4acosf\000"
 17227      3461636F 
 17227      736600
 17228              	.LASF296:
 17229 b99f 5F5F4C46 		.ascii	"__LFRACT_MAX__ 0X7FFFFFFFP-31LR\000"
 17229      52414354 
 17229      5F4D4158 
 17229      5F5F2030 
 17229      58374646 
 17230              	.LASF1434:
 17231 b9bf 464C545F 		.ascii	"FLT_MAX_EXP __FLT_MAX_EXP__\000"
 17231      4D41585F 
 17231      45585020 
 17231      5F5F464C 
 17231      545F4D41 
 17232              	.LASF598:
 17233 b9db 494E5433 		.ascii	"INT32_MAX (__INT32_MAX__)\000"
 17233      325F4D41 
 17233      5820285F 
 17233      5F494E54 
 17233      33325F4D 
 17234              		.ident	"GCC: (GNU Arm Embedded Toolchain 10.3-2021.10) 10.3.1 20210824 (release)"
ARM GAS  C:\Users\30806\AppData\Local\Temp\ccYcD1nI.s 			page 424


DEFINED SYMBOLS
                            *ABS*:00000000 user_maths.cpp
C:\Users\30806\AppData\Local\Temp\ccYcD1nI.s:92     .rodata._ZL23Trigonometric_Functions:00000000 $d
C:\Users\30806\AppData\Local\Temp\ccYcD1nI.s:95     .rodata._ZL23Trigonometric_Functions:00000000 _ZL23Trigonometric_Functions
C:\Users\30806\AppData\Local\Temp\ccYcD1nI.s:998    .text._ZN12user_maths_c7invSqrtEf:00000000 $t
C:\Users\30806\AppData\Local\Temp\ccYcD1nI.s:1004   .text._ZN12user_maths_c7invSqrtEf:00000000 _ZN12user_maths_c7invSqrtEf
C:\Users\30806\AppData\Local\Temp\ccYcD1nI.s:1105   .text._ZN12user_maths_c7invSqrtEf:00000078 $d
C:\Users\30806\AppData\Local\Temp\ccYcD1nI.s:1110   .text._ZN12user_maths_c7max_absEss:00000000 $t
C:\Users\30806\AppData\Local\Temp\ccYcD1nI.s:1116   .text._ZN12user_maths_c7max_absEss:00000000 _ZN12user_maths_c7max_absEss
C:\Users\30806\AppData\Local\Temp\ccYcD1nI.s:1194   .text._ZN12user_maths_c27motion_acceleration_controlEss:00000000 $t
C:\Users\30806\AppData\Local\Temp\ccYcD1nI.s:1200   .text._ZN12user_maths_c27motion_acceleration_controlEss:00000000 _ZN12user_maths_c27motion_acceleration_controlEss
C:\Users\30806\AppData\Local\Temp\ccYcD1nI.s:1358   .text._ZN12user_maths_c22loop_restriction_int16Ess:00000000 $t
C:\Users\30806\AppData\Local\Temp\ccYcD1nI.s:1364   .text._ZN12user_maths_c22loop_restriction_int16Ess:00000000 _ZN12user_maths_c22loop_restriction_int16Ess
C:\Users\30806\AppData\Local\Temp\ccYcD1nI.s:1445   .text._ZN12user_maths_c22loop_restriction_floatEff:00000000 $t
C:\Users\30806\AppData\Local\Temp\ccYcD1nI.s:1451   .text._ZN12user_maths_c22loop_restriction_floatEff:00000000 _ZN12user_maths_c22loop_restriction_floatEff
C:\Users\30806\AppData\Local\Temp\ccYcD1nI.s:1537   .text._ZN12user_maths_c19loop_fp32_constrainEfff:00000000 $t
C:\Users\30806\AppData\Local\Temp\ccYcD1nI.s:1543   .text._ZN12user_maths_c19loop_fp32_constrainEfff:00000000 _ZN12user_maths_c19loop_fp32_constrainEfff
C:\Users\30806\AppData\Local\Temp\ccYcD1nI.s:1672   .bss._ZZN12user_maths_c24data_accelerated_controlEPffE8last_num:00000000 $d
C:\Users\30806\AppData\Local\Temp\ccYcD1nI.s:1675   .bss._ZZN12user_maths_c24data_accelerated_controlEPffE8last_num:00000000 _ZZN12user_maths_c24data_accelerated_controlEPffE8last_num
C:\Users\30806\AppData\Local\Temp\ccYcD1nI.s:1678   .text._ZN12user_maths_c24data_accelerated_controlEPff:00000000 $t
C:\Users\30806\AppData\Local\Temp\ccYcD1nI.s:1684   .text._ZN12user_maths_c24data_accelerated_controlEPff:00000000 _ZN12user_maths_c24data_accelerated_controlEPff
C:\Users\30806\AppData\Local\Temp\ccYcD1nI.s:1799   .text._ZN12user_maths_c24data_accelerated_controlEPff:000000b0 $d
C:\Users\30806\AppData\Local\Temp\ccYcD1nI.s:1804   .text._ZN12user_maths_c15limiting_filterEfff:00000000 $t
C:\Users\30806\AppData\Local\Temp\ccYcD1nI.s:1810   .text._ZN12user_maths_c15limiting_filterEfff:00000000 _ZN12user_maths_c15limiting_filterEfff
C:\Users\30806\AppData\Local\Temp\ccYcD1nI.s:1883   .text._ZN12user_maths_c13sin_calculateEf:00000000 $t
C:\Users\30806\AppData\Local\Temp\ccYcD1nI.s:1889   .text._ZN12user_maths_c13sin_calculateEf:00000000 _ZN12user_maths_c13sin_calculateEf
C:\Users\30806\AppData\Local\Temp\ccYcD1nI.s:2178   .text._ZN12user_maths_c13sin_calculateEf:00000240 $d
C:\Users\30806\AppData\Local\Temp\ccYcD1nI.s:2188   .text._ZN12user_maths_c13cos_calculateEf:00000000 $t
C:\Users\30806\AppData\Local\Temp\ccYcD1nI.s:2194   .text._ZN12user_maths_c13cos_calculateEf:00000000 _ZN12user_maths_c13cos_calculateEf
C:\Users\30806\AppData\Local\Temp\ccYcD1nI.s:2386   .text._ZN12user_maths_c13cos_calculateEf:0000015c $d
C:\Users\30806\AppData\Local\Temp\ccYcD1nI.s:2395   .text._ZN12user_maths_c18float_min_distanceEffff:00000000 $t
C:\Users\30806\AppData\Local\Temp\ccYcD1nI.s:2401   .text._ZN12user_maths_c18float_min_distanceEffff:00000000 _ZN12user_maths_c18float_min_distanceEffff
C:\Users\30806\AppData\Local\Temp\ccYcD1nI.s:2548   .text._ZN12user_maths_c18float_min_distanceEffff:00000114 $d
C:\Users\30806\AppData\Local\Temp\ccYcD1nI.s:2553   .text._ZN12user_maths_c19CircleIncreaseLimitEfff:00000000 $t
C:\Users\30806\AppData\Local\Temp\ccYcD1nI.s:2559   .text._ZN12user_maths_c19CircleIncreaseLimitEfff:00000000 _ZN12user_maths_c19CircleIncreaseLimitEfff
C:\Users\30806\AppData\Local\Temp\ccYcD1nI.s:2661   .text._ZN12user_maths_c14user_val_limitEfff:00000000 $t
C:\Users\30806\AppData\Local\Temp\ccYcD1nI.s:2667   .text._ZN12user_maths_c14user_val_limitEfff:00000000 _ZN12user_maths_c14user_val_limitEfff
                           .group:00000000 wm4.0.293fd7ec76c3647a3b6758c3cb2acf65
                           .group:00000000 wm4.stdint.h.4.659be5aa44c4ab4eb7c7cc2b24d8ceee
                           .group:00000000 wm4._newlib_version.h.4.bfdf54b0af045d4a71376ae00f63a22c
                           .group:00000000 wm4.features.h.33.318b64d71e0957639cfb30f1db1f7ec8
                           .group:00000000 wm4._default_types.h.15.247e5cd201eca3442cbf5404108c4935
                           .group:00000000 wm4._intsup.h.10.48bafbb683905c4daa4565a85aeeb264
                           .group:00000000 wm4._stdint.h.10.c24fa3af3bc1706662bb5593a907e841
                           .group:00000000 wm4.stdint.h.23.d53047a68f4a85177f80b422d52785ed
                           .group:00000000 wm4.user_maths.hpp.23.d43ea7adc76b52942b068aa845f78813
                           .group:00000000 wm4.stddef.h.39.cdc2cef840622b974aa19abcc0caae93
                           .group:00000000 wm4.cmsis_gcc.h.26.498d0ad17a45fc9ef20fdc01caf02259
                           .group:00000000 wm4.newlib.h.8.7cb3972cd43265932d4782d5eb589854
                           .group:00000000 wm4.ieeefp.h.77.c88535c35f465c05b101960cf0179075
                           .group:00000000 wm4.config.h.224.c701144a7b0518c6ee9b9b5465b79f81
                           .group:00000000 wm4._ansi.h.21.5136fa2a01d1fcd44a2e65c6c2417611
                           .group:00000000 wm4._types.h.20.dd0d04dca3800a0d2a6129b87f3adbb2
                           .group:00000000 wm4.stddef.h.155.7076294d263a8c080378a0849fe2c570
                           .group:00000000 wm4._types.h.127.34941de1b2539d59d5cac00e0dd27a45
                           .group:00000000 wm4.reent.h.17.e292bf8b0bec6c96e131a54347145a30
                           .group:00000000 wm4.lock.h.2.1461d1fff82dffe8bfddc23307f6484f
ARM GAS  C:\Users\30806\AppData\Local\Temp\ccYcD1nI.s 			page 425


                           .group:00000000 wm4.reent.h.77.dcd6129ff07fe81bd5636db29abe53b2
                           .group:00000000 wm4.cdefs.h.49.7c008c2766937177444cabb2199f8bc7
                           .group:00000000 wm4.string.h.15.dab3980bf35408a4c507182805e2de3a
                           .group:00000000 wm4.stddef.h.155.6a74c971399e3775a985604de4c85627
                           .group:00000000 wm4.cconfig.h.31.f1075e90bb2e9f0e48d1967b3dbcc04f
                           .group:00000000 wm4.cpu_defines.h.31.bf53b50a3b7882b34c717ebded187478
                           .group:00000000 wm4.cconfig.h.530.b51f835d879b7340e16f29fed7cf7741
                           .group:00000000 wm4.cpp_type_traits.h.33.1347139df156938d2b4c9385225deb4d
                           .group:00000000 wm4.math.h.13.603f363c77424d37f52e1021ba0304f5
                           .group:00000000 wm4.std_abs.h.31.040e5b5b1580bc5021e41927de41d0b5
                           .group:00000000 wm4.stdlib.h.13.4ed386f5c1a80d71e72172885d946ef2
                           .group:00000000 wm4.alloca.h.8.dfc0c703c47ec3e69746825b17d9e66d
                           .group:00000000 wm4.stdlib.h.56.f4862cfbf4363a1db01842d5bdf72c18
                           .group:00000000 wm4.std_abs.h.42.301267e565a27b578b118540cf0e4de0
                           .group:00000000 wm4.cmath.50.11a1e578194018fe11be5eaded245320
                           .group:00000000 wm4.float.h.29.cae0b78251c51e3ff449cb238a29ed5b
                           .group:00000000 wm4.syslimits.h.34.de5cbd310098bc5895998b6bde577ed2
                           .group:00000000 wm4.limits.h.9.70fb0ada6f71b16202a66baaa6d8ea70
                           .group:00000000 wm4.limits.h.60.a7abcffe79f1387d61d92dd90bd582e0
                           .group:00000000 wm4.arm_math.h.401.1e79f85c1d8d31c47d3b7cad9ff64f5b

NO UNDEFINED SYMBOLS
