ARM GAS  C:\Users\30806\AppData\Local\Temp\cccn8dnO.s 			page 1


   1              		.cpu cortex-m4
   2              		.arch armv7e-m
   3              		.fpu fpv4-sp-d16
   4              		.eabi_attribute 27, 1
   5              		.eabi_attribute 28, 1
   6              		.eabi_attribute 20, 1
   7              		.eabi_attribute 21, 1
   8              		.eabi_attribute 23, 3
   9              		.eabi_attribute 24, 1
  10              		.eabi_attribute 25, 1
  11              		.eabi_attribute 26, 1
  12              		.eabi_attribute 30, 1
  13              		.eabi_attribute 34, 1
  14              		.eabi_attribute 18, 4
  15              		.file	"tim.c"
  16              		.text
  17              	.Ltext0:
  18              		.cfi_sections	.debug_frame
  19              		.section	.text.HAL_TIM_Base_MspInit,"ax",%progbits
  20              		.align	1
  21              		.global	HAL_TIM_Base_MspInit
  22              		.syntax unified
  23              		.thumb
  24              		.thumb_func
  26              	HAL_TIM_Base_MspInit:
  27              	.LVL0:
  28              	.LFB144:
  29              		.file 1 "Core/Src/tim.c"
   1:Core/Src/tim.c **** /* USER CODE BEGIN Header */
   2:Core/Src/tim.c **** /**
   3:Core/Src/tim.c ****   ******************************************************************************
   4:Core/Src/tim.c ****   * @file    tim.c
   5:Core/Src/tim.c ****   * @brief   This file provides code for the configuration
   6:Core/Src/tim.c ****   *          of the TIM instances.
   7:Core/Src/tim.c ****   ******************************************************************************
   8:Core/Src/tim.c ****   * @attention
   9:Core/Src/tim.c ****   *
  10:Core/Src/tim.c ****   * Copyright (c) 2024 STMicroelectronics.
  11:Core/Src/tim.c ****   * All rights reserved.
  12:Core/Src/tim.c ****   *
  13:Core/Src/tim.c ****   * This software is licensed under terms that can be found in the LICENSE file
  14:Core/Src/tim.c ****   * in the root directory of this software component.
  15:Core/Src/tim.c ****   * If no LICENSE file comes with this software, it is provided AS-IS.
  16:Core/Src/tim.c ****   *
  17:Core/Src/tim.c ****   ******************************************************************************
  18:Core/Src/tim.c ****   */
  19:Core/Src/tim.c **** /* USER CODE END Header */
  20:Core/Src/tim.c **** /* Includes ------------------------------------------------------------------*/
  21:Core/Src/tim.c **** #include "tim.h"
  22:Core/Src/tim.c **** 
  23:Core/Src/tim.c **** /* USER CODE BEGIN 0 */
  24:Core/Src/tim.c **** 
  25:Core/Src/tim.c **** /* USER CODE END 0 */
  26:Core/Src/tim.c **** 
  27:Core/Src/tim.c **** TIM_HandleTypeDef htim2;
  28:Core/Src/tim.c **** 
  29:Core/Src/tim.c **** /* TIM2 init function */
ARM GAS  C:\Users\30806\AppData\Local\Temp\cccn8dnO.s 			page 2


  30:Core/Src/tim.c **** void MX_TIM2_Init(void)
  31:Core/Src/tim.c **** {
  32:Core/Src/tim.c **** 
  33:Core/Src/tim.c ****   /* USER CODE BEGIN TIM2_Init 0 */
  34:Core/Src/tim.c **** 
  35:Core/Src/tim.c ****   /* USER CODE END TIM2_Init 0 */
  36:Core/Src/tim.c **** 
  37:Core/Src/tim.c ****   TIM_ClockConfigTypeDef sClockSourceConfig = {0};
  38:Core/Src/tim.c ****   TIM_MasterConfigTypeDef sMasterConfig = {0};
  39:Core/Src/tim.c ****   TIM_OC_InitTypeDef sConfigOC = {0};
  40:Core/Src/tim.c **** 
  41:Core/Src/tim.c ****   /* USER CODE BEGIN TIM2_Init 1 */
  42:Core/Src/tim.c **** 
  43:Core/Src/tim.c ****   /* USER CODE END TIM2_Init 1 */
  44:Core/Src/tim.c ****   htim2.Instance = TIM2;
  45:Core/Src/tim.c ****   htim2.Init.Prescaler = 0;
  46:Core/Src/tim.c ****   htim2.Init.CounterMode = TIM_COUNTERMODE_UP;
  47:Core/Src/tim.c ****   htim2.Init.Period = 65535;
  48:Core/Src/tim.c ****   htim2.Init.ClockDivision = TIM_CLOCKDIVISION_DIV1;
  49:Core/Src/tim.c ****   htim2.Init.AutoReloadPreload = TIM_AUTORELOAD_PRELOAD_DISABLE;
  50:Core/Src/tim.c ****   if (HAL_TIM_Base_Init(&htim2) != HAL_OK)
  51:Core/Src/tim.c ****   {
  52:Core/Src/tim.c ****     Error_Handler();
  53:Core/Src/tim.c ****   }
  54:Core/Src/tim.c ****   sClockSourceConfig.ClockSource = TIM_CLOCKSOURCE_INTERNAL;
  55:Core/Src/tim.c ****   if (HAL_TIM_ConfigClockSource(&htim2, &sClockSourceConfig) != HAL_OK)
  56:Core/Src/tim.c ****   {
  57:Core/Src/tim.c ****     Error_Handler();
  58:Core/Src/tim.c ****   }
  59:Core/Src/tim.c ****   if (HAL_TIM_PWM_Init(&htim2) != HAL_OK)
  60:Core/Src/tim.c ****   {
  61:Core/Src/tim.c ****     Error_Handler();
  62:Core/Src/tim.c ****   }
  63:Core/Src/tim.c ****   sMasterConfig.MasterOutputTrigger = TIM_TRGO_RESET;
  64:Core/Src/tim.c ****   sMasterConfig.MasterSlaveMode = TIM_MASTERSLAVEMODE_DISABLE;
  65:Core/Src/tim.c ****   if (HAL_TIMEx_MasterConfigSynchronization(&htim2, &sMasterConfig) != HAL_OK)
  66:Core/Src/tim.c ****   {
  67:Core/Src/tim.c ****     Error_Handler();
  68:Core/Src/tim.c ****   }
  69:Core/Src/tim.c ****   sConfigOC.OCMode = TIM_OCMODE_PWM1;
  70:Core/Src/tim.c ****   sConfigOC.Pulse = 0;
  71:Core/Src/tim.c ****   sConfigOC.OCPolarity = TIM_OCPOLARITY_HIGH;
  72:Core/Src/tim.c ****   sConfigOC.OCFastMode = TIM_OCFAST_DISABLE;
  73:Core/Src/tim.c ****   if (HAL_TIM_PWM_ConfigChannel(&htim2, &sConfigOC, TIM_CHANNEL_3) != HAL_OK)
  74:Core/Src/tim.c ****   {
  75:Core/Src/tim.c ****     Error_Handler();
  76:Core/Src/tim.c ****   }
  77:Core/Src/tim.c ****   /* USER CODE BEGIN TIM2_Init 2 */
  78:Core/Src/tim.c **** 
  79:Core/Src/tim.c ****   /* USER CODE END TIM2_Init 2 */
  80:Core/Src/tim.c ****   HAL_TIM_MspPostInit(&htim2);
  81:Core/Src/tim.c **** 
  82:Core/Src/tim.c **** }
  83:Core/Src/tim.c **** 
  84:Core/Src/tim.c **** void HAL_TIM_Base_MspInit(TIM_HandleTypeDef* tim_baseHandle)
  85:Core/Src/tim.c **** {
  30              		.loc 1 85 1 view -0
ARM GAS  C:\Users\30806\AppData\Local\Temp\cccn8dnO.s 			page 3


  31              		.cfi_startproc
  32              		@ args = 0, pretend = 0, frame = 8
  33              		@ frame_needed = 0, uses_anonymous_args = 0
  34              		@ link register save eliminated.
  86:Core/Src/tim.c **** 
  87:Core/Src/tim.c ****   if(tim_baseHandle->Instance==TIM2)
  35              		.loc 1 87 3 view .LVU1
  36              		.loc 1 87 20 is_stmt 0 view .LVU2
  37 0000 0368     		ldr	r3, [r0]
  38              		.loc 1 87 5 view .LVU3
  39 0002 B3F1804F 		cmp	r3, #1073741824
  40 0006 00D0     		beq	.L7
  41 0008 7047     		bx	lr
  42              	.L7:
  85:Core/Src/tim.c **** 
  43              		.loc 1 85 1 view .LVU4
  44 000a 82B0     		sub	sp, sp, #8
  45              	.LCFI0:
  46              		.cfi_def_cfa_offset 8
  88:Core/Src/tim.c ****   {
  89:Core/Src/tim.c ****   /* USER CODE BEGIN TIM2_MspInit 0 */
  90:Core/Src/tim.c **** 
  91:Core/Src/tim.c ****   /* USER CODE END TIM2_MspInit 0 */
  92:Core/Src/tim.c ****     /* TIM2 clock enable */
  93:Core/Src/tim.c ****     __HAL_RCC_TIM2_CLK_ENABLE();
  47              		.loc 1 93 5 is_stmt 1 view .LVU5
  48              	.LBB2:
  49              		.loc 1 93 5 view .LVU6
  50 000c 0023     		movs	r3, #0
  51 000e 0193     		str	r3, [sp, #4]
  52              		.loc 1 93 5 view .LVU7
  53 0010 054B     		ldr	r3, .L8
  54 0012 1A6C     		ldr	r2, [r3, #64]
  55 0014 42F00102 		orr	r2, r2, #1
  56 0018 1A64     		str	r2, [r3, #64]
  57              		.loc 1 93 5 view .LVU8
  58 001a 1B6C     		ldr	r3, [r3, #64]
  59 001c 03F00103 		and	r3, r3, #1
  60 0020 0193     		str	r3, [sp, #4]
  61              		.loc 1 93 5 view .LVU9
  62 0022 019B     		ldr	r3, [sp, #4]
  63              	.LBE2:
  64              		.loc 1 93 5 view .LVU10
  94:Core/Src/tim.c ****   /* USER CODE BEGIN TIM2_MspInit 1 */
  95:Core/Src/tim.c **** 
  96:Core/Src/tim.c ****   /* USER CODE END TIM2_MspInit 1 */
  97:Core/Src/tim.c ****   }
  98:Core/Src/tim.c **** }
  65              		.loc 1 98 1 is_stmt 0 view .LVU11
  66 0024 02B0     		add	sp, sp, #8
  67              	.LCFI1:
  68              		.cfi_def_cfa_offset 0
  69              		@ sp needed
  70 0026 7047     		bx	lr
  71              	.L9:
  72              		.align	2
  73              	.L8:
ARM GAS  C:\Users\30806\AppData\Local\Temp\cccn8dnO.s 			page 4


  74 0028 00380240 		.word	1073887232
  75              		.cfi_endproc
  76              	.LFE144:
  78              		.section	.text.HAL_TIM_MspPostInit,"ax",%progbits
  79              		.align	1
  80              		.global	HAL_TIM_MspPostInit
  81              		.syntax unified
  82              		.thumb
  83              		.thumb_func
  85              	HAL_TIM_MspPostInit:
  86              	.LVL1:
  87              	.LFB145:
  99:Core/Src/tim.c **** void HAL_TIM_MspPostInit(TIM_HandleTypeDef* timHandle)
 100:Core/Src/tim.c **** {
  88              		.loc 1 100 1 is_stmt 1 view -0
  89              		.cfi_startproc
  90              		@ args = 0, pretend = 0, frame = 24
  91              		@ frame_needed = 0, uses_anonymous_args = 0
  92              		.loc 1 100 1 is_stmt 0 view .LVU13
  93 0000 00B5     		push	{lr}
  94              	.LCFI2:
  95              		.cfi_def_cfa_offset 4
  96              		.cfi_offset 14, -4
  97 0002 87B0     		sub	sp, sp, #28
  98              	.LCFI3:
  99              		.cfi_def_cfa_offset 32
 101:Core/Src/tim.c **** 
 102:Core/Src/tim.c ****   GPIO_InitTypeDef GPIO_InitStruct = {0};
 100              		.loc 1 102 3 is_stmt 1 view .LVU14
 101              		.loc 1 102 20 is_stmt 0 view .LVU15
 102 0004 0023     		movs	r3, #0
 103 0006 0193     		str	r3, [sp, #4]
 104 0008 0293     		str	r3, [sp, #8]
 105 000a 0393     		str	r3, [sp, #12]
 106 000c 0493     		str	r3, [sp, #16]
 107 000e 0593     		str	r3, [sp, #20]
 103:Core/Src/tim.c ****   if(timHandle->Instance==TIM2)
 108              		.loc 1 103 3 is_stmt 1 view .LVU16
 109              		.loc 1 103 15 is_stmt 0 view .LVU17
 110 0010 0368     		ldr	r3, [r0]
 111              		.loc 1 103 5 view .LVU18
 112 0012 B3F1804F 		cmp	r3, #1073741824
 113 0016 02D0     		beq	.L13
 114              	.LVL2:
 115              	.L10:
 104:Core/Src/tim.c ****   {
 105:Core/Src/tim.c ****   /* USER CODE BEGIN TIM2_MspPostInit 0 */
 106:Core/Src/tim.c **** 
 107:Core/Src/tim.c ****   /* USER CODE END TIM2_MspPostInit 0 */
 108:Core/Src/tim.c **** 
 109:Core/Src/tim.c ****     __HAL_RCC_GPIOB_CLK_ENABLE();
 110:Core/Src/tim.c ****     /**TIM2 GPIO Configuration
 111:Core/Src/tim.c ****     PB10     ------> TIM2_CH3
 112:Core/Src/tim.c ****     */
 113:Core/Src/tim.c ****     GPIO_InitStruct.Pin = IMU_HEAT_Pin;
 114:Core/Src/tim.c ****     GPIO_InitStruct.Mode = GPIO_MODE_AF_PP;
 115:Core/Src/tim.c ****     GPIO_InitStruct.Pull = GPIO_PULLUP;
ARM GAS  C:\Users\30806\AppData\Local\Temp\cccn8dnO.s 			page 5


 116:Core/Src/tim.c ****     GPIO_InitStruct.Speed = GPIO_SPEED_FREQ_HIGH;
 117:Core/Src/tim.c ****     GPIO_InitStruct.Alternate = GPIO_AF1_TIM2;
 118:Core/Src/tim.c ****     HAL_GPIO_Init(IMU_HEAT_GPIO_Port, &GPIO_InitStruct);
 119:Core/Src/tim.c **** 
 120:Core/Src/tim.c ****   /* USER CODE BEGIN TIM2_MspPostInit 1 */
 121:Core/Src/tim.c **** 
 122:Core/Src/tim.c ****   /* USER CODE END TIM2_MspPostInit 1 */
 123:Core/Src/tim.c ****   }
 124:Core/Src/tim.c **** 
 125:Core/Src/tim.c **** }
 116              		.loc 1 125 1 view .LVU19
 117 0018 07B0     		add	sp, sp, #28
 118              	.LCFI4:
 119              		.cfi_remember_state
 120              		.cfi_def_cfa_offset 4
 121              		@ sp needed
 122 001a 5DF804FB 		ldr	pc, [sp], #4
 123              	.LVL3:
 124              	.L13:
 125              	.LCFI5:
 126              		.cfi_restore_state
 109:Core/Src/tim.c ****     /**TIM2 GPIO Configuration
 127              		.loc 1 109 5 is_stmt 1 view .LVU20
 128              	.LBB3:
 109:Core/Src/tim.c ****     /**TIM2 GPIO Configuration
 129              		.loc 1 109 5 view .LVU21
 130 001e 0023     		movs	r3, #0
 131 0020 0093     		str	r3, [sp]
 109:Core/Src/tim.c ****     /**TIM2 GPIO Configuration
 132              		.loc 1 109 5 view .LVU22
 133 0022 0C4B     		ldr	r3, .L14
 134 0024 1A6B     		ldr	r2, [r3, #48]
 135 0026 42F00202 		orr	r2, r2, #2
 136 002a 1A63     		str	r2, [r3, #48]
 109:Core/Src/tim.c ****     /**TIM2 GPIO Configuration
 137              		.loc 1 109 5 view .LVU23
 138 002c 1B6B     		ldr	r3, [r3, #48]
 139 002e 03F00203 		and	r3, r3, #2
 140 0032 0093     		str	r3, [sp]
 109:Core/Src/tim.c ****     /**TIM2 GPIO Configuration
 141              		.loc 1 109 5 view .LVU24
 142 0034 009B     		ldr	r3, [sp]
 143              	.LBE3:
 109:Core/Src/tim.c ****     /**TIM2 GPIO Configuration
 144              		.loc 1 109 5 view .LVU25
 113:Core/Src/tim.c ****     GPIO_InitStruct.Mode = GPIO_MODE_AF_PP;
 145              		.loc 1 113 5 view .LVU26
 113:Core/Src/tim.c ****     GPIO_InitStruct.Mode = GPIO_MODE_AF_PP;
 146              		.loc 1 113 25 is_stmt 0 view .LVU27
 147 0036 4FF48063 		mov	r3, #1024
 148 003a 0193     		str	r3, [sp, #4]
 114:Core/Src/tim.c ****     GPIO_InitStruct.Pull = GPIO_PULLUP;
 149              		.loc 1 114 5 is_stmt 1 view .LVU28
 114:Core/Src/tim.c ****     GPIO_InitStruct.Pull = GPIO_PULLUP;
 150              		.loc 1 114 26 is_stmt 0 view .LVU29
 151 003c 0222     		movs	r2, #2
 152 003e 0292     		str	r2, [sp, #8]
ARM GAS  C:\Users\30806\AppData\Local\Temp\cccn8dnO.s 			page 6


 115:Core/Src/tim.c ****     GPIO_InitStruct.Speed = GPIO_SPEED_FREQ_HIGH;
 153              		.loc 1 115 5 is_stmt 1 view .LVU30
 115:Core/Src/tim.c ****     GPIO_InitStruct.Speed = GPIO_SPEED_FREQ_HIGH;
 154              		.loc 1 115 26 is_stmt 0 view .LVU31
 155 0040 0123     		movs	r3, #1
 156 0042 0393     		str	r3, [sp, #12]
 116:Core/Src/tim.c ****     GPIO_InitStruct.Alternate = GPIO_AF1_TIM2;
 157              		.loc 1 116 5 is_stmt 1 view .LVU32
 116:Core/Src/tim.c ****     GPIO_InitStruct.Alternate = GPIO_AF1_TIM2;
 158              		.loc 1 116 27 is_stmt 0 view .LVU33
 159 0044 0492     		str	r2, [sp, #16]
 117:Core/Src/tim.c ****     HAL_GPIO_Init(IMU_HEAT_GPIO_Port, &GPIO_InitStruct);
 160              		.loc 1 117 5 is_stmt 1 view .LVU34
 117:Core/Src/tim.c ****     HAL_GPIO_Init(IMU_HEAT_GPIO_Port, &GPIO_InitStruct);
 161              		.loc 1 117 31 is_stmt 0 view .LVU35
 162 0046 0593     		str	r3, [sp, #20]
 118:Core/Src/tim.c **** 
 163              		.loc 1 118 5 is_stmt 1 view .LVU36
 164 0048 01A9     		add	r1, sp, #4
 165 004a 0348     		ldr	r0, .L14+4
 166              	.LVL4:
 118:Core/Src/tim.c **** 
 167              		.loc 1 118 5 is_stmt 0 view .LVU37
 168 004c FFF7FEFF 		bl	HAL_GPIO_Init
 169              	.LVL5:
 170              		.loc 1 125 1 view .LVU38
 171 0050 E2E7     		b	.L10
 172              	.L15:
 173 0052 00BF     		.align	2
 174              	.L14:
 175 0054 00380240 		.word	1073887232
 176 0058 00040240 		.word	1073873920
 177              		.cfi_endproc
 178              	.LFE145:
 180              		.section	.text.MX_TIM2_Init,"ax",%progbits
 181              		.align	1
 182              		.global	MX_TIM2_Init
 183              		.syntax unified
 184              		.thumb
 185              		.thumb_func
 187              	MX_TIM2_Init:
 188              	.LFB143:
  31:Core/Src/tim.c **** 
 189              		.loc 1 31 1 is_stmt 1 view -0
 190              		.cfi_startproc
 191              		@ args = 0, pretend = 0, frame = 56
 192              		@ frame_needed = 0, uses_anonymous_args = 0
 193 0000 00B5     		push	{lr}
 194              	.LCFI6:
 195              		.cfi_def_cfa_offset 4
 196              		.cfi_offset 14, -4
 197 0002 8FB0     		sub	sp, sp, #60
 198              	.LCFI7:
 199              		.cfi_def_cfa_offset 64
  37:Core/Src/tim.c ****   TIM_MasterConfigTypeDef sMasterConfig = {0};
 200              		.loc 1 37 3 view .LVU40
  37:Core/Src/tim.c ****   TIM_MasterConfigTypeDef sMasterConfig = {0};
ARM GAS  C:\Users\30806\AppData\Local\Temp\cccn8dnO.s 			page 7


 201              		.loc 1 37 26 is_stmt 0 view .LVU41
 202 0004 0023     		movs	r3, #0
 203 0006 0A93     		str	r3, [sp, #40]
 204 0008 0B93     		str	r3, [sp, #44]
 205 000a 0C93     		str	r3, [sp, #48]
 206 000c 0D93     		str	r3, [sp, #52]
  38:Core/Src/tim.c ****   TIM_OC_InitTypeDef sConfigOC = {0};
 207              		.loc 1 38 3 is_stmt 1 view .LVU42
  38:Core/Src/tim.c ****   TIM_OC_InitTypeDef sConfigOC = {0};
 208              		.loc 1 38 27 is_stmt 0 view .LVU43
 209 000e 0893     		str	r3, [sp, #32]
 210 0010 0993     		str	r3, [sp, #36]
  39:Core/Src/tim.c **** 
 211              		.loc 1 39 3 is_stmt 1 view .LVU44
  39:Core/Src/tim.c **** 
 212              		.loc 1 39 22 is_stmt 0 view .LVU45
 213 0012 0193     		str	r3, [sp, #4]
 214 0014 0293     		str	r3, [sp, #8]
 215 0016 0393     		str	r3, [sp, #12]
 216 0018 0493     		str	r3, [sp, #16]
 217 001a 0593     		str	r3, [sp, #20]
 218 001c 0693     		str	r3, [sp, #24]
 219 001e 0793     		str	r3, [sp, #28]
  44:Core/Src/tim.c ****   htim2.Init.Prescaler = 0;
 220              		.loc 1 44 3 is_stmt 1 view .LVU46
  44:Core/Src/tim.c ****   htim2.Init.Prescaler = 0;
 221              		.loc 1 44 18 is_stmt 0 view .LVU47
 222 0020 2148     		ldr	r0, .L28
 223 0022 4FF08042 		mov	r2, #1073741824
 224 0026 0260     		str	r2, [r0]
  45:Core/Src/tim.c ****   htim2.Init.CounterMode = TIM_COUNTERMODE_UP;
 225              		.loc 1 45 3 is_stmt 1 view .LVU48
  45:Core/Src/tim.c ****   htim2.Init.CounterMode = TIM_COUNTERMODE_UP;
 226              		.loc 1 45 24 is_stmt 0 view .LVU49
 227 0028 4360     		str	r3, [r0, #4]
  46:Core/Src/tim.c ****   htim2.Init.Period = 65535;
 228              		.loc 1 46 3 is_stmt 1 view .LVU50
  46:Core/Src/tim.c ****   htim2.Init.Period = 65535;
 229              		.loc 1 46 26 is_stmt 0 view .LVU51
 230 002a 8360     		str	r3, [r0, #8]
  47:Core/Src/tim.c ****   htim2.Init.ClockDivision = TIM_CLOCKDIVISION_DIV1;
 231              		.loc 1 47 3 is_stmt 1 view .LVU52
  47:Core/Src/tim.c ****   htim2.Init.ClockDivision = TIM_CLOCKDIVISION_DIV1;
 232              		.loc 1 47 21 is_stmt 0 view .LVU53
 233 002c 4FF6FF72 		movw	r2, #65535
 234 0030 C260     		str	r2, [r0, #12]
  48:Core/Src/tim.c ****   htim2.Init.AutoReloadPreload = TIM_AUTORELOAD_PRELOAD_DISABLE;
 235              		.loc 1 48 3 is_stmt 1 view .LVU54
  48:Core/Src/tim.c ****   htim2.Init.AutoReloadPreload = TIM_AUTORELOAD_PRELOAD_DISABLE;
 236              		.loc 1 48 28 is_stmt 0 view .LVU55
 237 0032 0361     		str	r3, [r0, #16]
  49:Core/Src/tim.c ****   if (HAL_TIM_Base_Init(&htim2) != HAL_OK)
 238              		.loc 1 49 3 is_stmt 1 view .LVU56
  49:Core/Src/tim.c ****   if (HAL_TIM_Base_Init(&htim2) != HAL_OK)
 239              		.loc 1 49 32 is_stmt 0 view .LVU57
 240 0034 8361     		str	r3, [r0, #24]
  50:Core/Src/tim.c ****   {
ARM GAS  C:\Users\30806\AppData\Local\Temp\cccn8dnO.s 			page 8


 241              		.loc 1 50 3 is_stmt 1 view .LVU58
  50:Core/Src/tim.c ****   {
 242              		.loc 1 50 7 is_stmt 0 view .LVU59
 243 0036 FFF7FEFF 		bl	HAL_TIM_Base_Init
 244              	.LVL6:
  50:Core/Src/tim.c ****   {
 245              		.loc 1 50 6 view .LVU60
 246 003a 28BB     		cbnz	r0, .L23
 247              	.L17:
  54:Core/Src/tim.c ****   if (HAL_TIM_ConfigClockSource(&htim2, &sClockSourceConfig) != HAL_OK)
 248              		.loc 1 54 3 is_stmt 1 view .LVU61
  54:Core/Src/tim.c ****   if (HAL_TIM_ConfigClockSource(&htim2, &sClockSourceConfig) != HAL_OK)
 249              		.loc 1 54 34 is_stmt 0 view .LVU62
 250 003c 4FF48053 		mov	r3, #4096
 251 0040 0A93     		str	r3, [sp, #40]
  55:Core/Src/tim.c ****   {
 252              		.loc 1 55 3 is_stmt 1 view .LVU63
  55:Core/Src/tim.c ****   {
 253              		.loc 1 55 7 is_stmt 0 view .LVU64
 254 0042 0AA9     		add	r1, sp, #40
 255 0044 1848     		ldr	r0, .L28
 256 0046 FFF7FEFF 		bl	HAL_TIM_ConfigClockSource
 257              	.LVL7:
  55:Core/Src/tim.c ****   {
 258              		.loc 1 55 6 view .LVU65
 259 004a 00BB     		cbnz	r0, .L24
 260              	.L18:
  59:Core/Src/tim.c ****   {
 261              		.loc 1 59 3 is_stmt 1 view .LVU66
  59:Core/Src/tim.c ****   {
 262              		.loc 1 59 7 is_stmt 0 view .LVU67
 263 004c 1648     		ldr	r0, .L28
 264 004e FFF7FEFF 		bl	HAL_TIM_PWM_Init
 265              	.LVL8:
  59:Core/Src/tim.c ****   {
 266              		.loc 1 59 6 view .LVU68
 267 0052 F8B9     		cbnz	r0, .L25
 268              	.L19:
  63:Core/Src/tim.c ****   sMasterConfig.MasterSlaveMode = TIM_MASTERSLAVEMODE_DISABLE;
 269              		.loc 1 63 3 is_stmt 1 view .LVU69
  63:Core/Src/tim.c ****   sMasterConfig.MasterSlaveMode = TIM_MASTERSLAVEMODE_DISABLE;
 270              		.loc 1 63 37 is_stmt 0 view .LVU70
 271 0054 0023     		movs	r3, #0
 272 0056 0893     		str	r3, [sp, #32]
  64:Core/Src/tim.c ****   if (HAL_TIMEx_MasterConfigSynchronization(&htim2, &sMasterConfig) != HAL_OK)
 273              		.loc 1 64 3 is_stmt 1 view .LVU71
  64:Core/Src/tim.c ****   if (HAL_TIMEx_MasterConfigSynchronization(&htim2, &sMasterConfig) != HAL_OK)
 274              		.loc 1 64 33 is_stmt 0 view .LVU72
 275 0058 0993     		str	r3, [sp, #36]
  65:Core/Src/tim.c ****   {
 276              		.loc 1 65 3 is_stmt 1 view .LVU73
  65:Core/Src/tim.c ****   {
 277              		.loc 1 65 7 is_stmt 0 view .LVU74
 278 005a 08A9     		add	r1, sp, #32
 279 005c 1248     		ldr	r0, .L28
 280 005e FFF7FEFF 		bl	HAL_TIMEx_MasterConfigSynchronization
 281              	.LVL9:
ARM GAS  C:\Users\30806\AppData\Local\Temp\cccn8dnO.s 			page 9


  65:Core/Src/tim.c ****   {
 282              		.loc 1 65 6 view .LVU75
 283 0062 D0B9     		cbnz	r0, .L26
 284              	.L20:
  69:Core/Src/tim.c ****   sConfigOC.Pulse = 0;
 285              		.loc 1 69 3 is_stmt 1 view .LVU76
  69:Core/Src/tim.c ****   sConfigOC.Pulse = 0;
 286              		.loc 1 69 20 is_stmt 0 view .LVU77
 287 0064 6023     		movs	r3, #96
 288 0066 0193     		str	r3, [sp, #4]
  70:Core/Src/tim.c ****   sConfigOC.OCPolarity = TIM_OCPOLARITY_HIGH;
 289              		.loc 1 70 3 is_stmt 1 view .LVU78
  70:Core/Src/tim.c ****   sConfigOC.OCPolarity = TIM_OCPOLARITY_HIGH;
 290              		.loc 1 70 19 is_stmt 0 view .LVU79
 291 0068 0023     		movs	r3, #0
 292 006a 0293     		str	r3, [sp, #8]
  71:Core/Src/tim.c ****   sConfigOC.OCFastMode = TIM_OCFAST_DISABLE;
 293              		.loc 1 71 3 is_stmt 1 view .LVU80
  71:Core/Src/tim.c ****   sConfigOC.OCFastMode = TIM_OCFAST_DISABLE;
 294              		.loc 1 71 24 is_stmt 0 view .LVU81
 295 006c 0393     		str	r3, [sp, #12]
  72:Core/Src/tim.c ****   if (HAL_TIM_PWM_ConfigChannel(&htim2, &sConfigOC, TIM_CHANNEL_3) != HAL_OK)
 296              		.loc 1 72 3 is_stmt 1 view .LVU82
  72:Core/Src/tim.c ****   if (HAL_TIM_PWM_ConfigChannel(&htim2, &sConfigOC, TIM_CHANNEL_3) != HAL_OK)
 297              		.loc 1 72 24 is_stmt 0 view .LVU83
 298 006e 0593     		str	r3, [sp, #20]
  73:Core/Src/tim.c ****   {
 299              		.loc 1 73 3 is_stmt 1 view .LVU84
  73:Core/Src/tim.c ****   {
 300              		.loc 1 73 7 is_stmt 0 view .LVU85
 301 0070 0822     		movs	r2, #8
 302 0072 01A9     		add	r1, sp, #4
 303 0074 0C48     		ldr	r0, .L28
 304 0076 FFF7FEFF 		bl	HAL_TIM_PWM_ConfigChannel
 305              	.LVL10:
  73:Core/Src/tim.c ****   {
 306              		.loc 1 73 6 view .LVU86
 307 007a 88B9     		cbnz	r0, .L27
 308              	.L21:
  80:Core/Src/tim.c **** 
 309              		.loc 1 80 3 is_stmt 1 view .LVU87
 310 007c 0A48     		ldr	r0, .L28
 311 007e FFF7FEFF 		bl	HAL_TIM_MspPostInit
 312              	.LVL11:
  82:Core/Src/tim.c **** 
 313              		.loc 1 82 1 is_stmt 0 view .LVU88
 314 0082 0FB0     		add	sp, sp, #60
 315              	.LCFI8:
 316              		.cfi_remember_state
 317              		.cfi_def_cfa_offset 4
 318              		@ sp needed
 319 0084 5DF804FB 		ldr	pc, [sp], #4
 320              	.L23:
 321              	.LCFI9:
 322              		.cfi_restore_state
  52:Core/Src/tim.c ****   }
 323              		.loc 1 52 5 is_stmt 1 view .LVU89
ARM GAS  C:\Users\30806\AppData\Local\Temp\cccn8dnO.s 			page 10


 324 0088 FFF7FEFF 		bl	Error_Handler
 325              	.LVL12:
 326 008c D6E7     		b	.L17
 327              	.L24:
  57:Core/Src/tim.c ****   }
 328              		.loc 1 57 5 view .LVU90
 329 008e FFF7FEFF 		bl	Error_Handler
 330              	.LVL13:
 331 0092 DBE7     		b	.L18
 332              	.L25:
  61:Core/Src/tim.c ****   }
 333              		.loc 1 61 5 view .LVU91
 334 0094 FFF7FEFF 		bl	Error_Handler
 335              	.LVL14:
 336 0098 DCE7     		b	.L19
 337              	.L26:
  67:Core/Src/tim.c ****   }
 338              		.loc 1 67 5 view .LVU92
 339 009a FFF7FEFF 		bl	Error_Handler
 340              	.LVL15:
 341 009e E1E7     		b	.L20
 342              	.L27:
  75:Core/Src/tim.c ****   }
 343              		.loc 1 75 5 view .LVU93
 344 00a0 FFF7FEFF 		bl	Error_Handler
 345              	.LVL16:
 346 00a4 EAE7     		b	.L21
 347              	.L29:
 348 00a6 00BF     		.align	2
 349              	.L28:
 350 00a8 00000000 		.word	.LANCHOR0
 351              		.cfi_endproc
 352              	.LFE143:
 354              		.section	.text.HAL_TIM_Base_MspDeInit,"ax",%progbits
 355              		.align	1
 356              		.global	HAL_TIM_Base_MspDeInit
 357              		.syntax unified
 358              		.thumb
 359              		.thumb_func
 361              	HAL_TIM_Base_MspDeInit:
 362              	.LVL17:
 363              	.LFB146:
 126:Core/Src/tim.c **** 
 127:Core/Src/tim.c **** void HAL_TIM_Base_MspDeInit(TIM_HandleTypeDef* tim_baseHandle)
 128:Core/Src/tim.c **** {
 364              		.loc 1 128 1 view -0
 365              		.cfi_startproc
 366              		@ args = 0, pretend = 0, frame = 0
 367              		@ frame_needed = 0, uses_anonymous_args = 0
 368              		@ link register save eliminated.
 129:Core/Src/tim.c **** 
 130:Core/Src/tim.c ****   if(tim_baseHandle->Instance==TIM2)
 369              		.loc 1 130 3 view .LVU95
 370              		.loc 1 130 20 is_stmt 0 view .LVU96
 371 0000 0368     		ldr	r3, [r0]
 372              		.loc 1 130 5 view .LVU97
 373 0002 B3F1804F 		cmp	r3, #1073741824
ARM GAS  C:\Users\30806\AppData\Local\Temp\cccn8dnO.s 			page 11


 374 0006 00D0     		beq	.L32
 375              	.L30:
 131:Core/Src/tim.c ****   {
 132:Core/Src/tim.c ****   /* USER CODE BEGIN TIM2_MspDeInit 0 */
 133:Core/Src/tim.c **** 
 134:Core/Src/tim.c ****   /* USER CODE END TIM2_MspDeInit 0 */
 135:Core/Src/tim.c ****     /* Peripheral clock disable */
 136:Core/Src/tim.c ****     __HAL_RCC_TIM2_CLK_DISABLE();
 137:Core/Src/tim.c ****   /* USER CODE BEGIN TIM2_MspDeInit 1 */
 138:Core/Src/tim.c **** 
 139:Core/Src/tim.c ****   /* USER CODE END TIM2_MspDeInit 1 */
 140:Core/Src/tim.c ****   }
 141:Core/Src/tim.c **** }
 376              		.loc 1 141 1 view .LVU98
 377 0008 7047     		bx	lr
 378              	.L32:
 136:Core/Src/tim.c ****   /* USER CODE BEGIN TIM2_MspDeInit 1 */
 379              		.loc 1 136 5 is_stmt 1 view .LVU99
 380 000a 034A     		ldr	r2, .L33
 381 000c 136C     		ldr	r3, [r2, #64]
 382 000e 23F00103 		bic	r3, r3, #1
 383 0012 1364     		str	r3, [r2, #64]
 384              		.loc 1 141 1 is_stmt 0 view .LVU100
 385 0014 F8E7     		b	.L30
 386              	.L34:
 387 0016 00BF     		.align	2
 388              	.L33:
 389 0018 00380240 		.word	1073887232
 390              		.cfi_endproc
 391              	.LFE146:
 393              		.global	htim2
 394              		.section	.bss.htim2,"aw",%nobits
 395              		.align	2
 396              		.set	.LANCHOR0,. + 0
 399              	htim2:
 400 0000 00000000 		.space	72
 400      00000000 
 400      00000000 
 400      00000000 
 400      00000000 
 401              		.text
 402              	.Letext0:
 403              		.file 2 "d:\\stm_for_vs\\gcc-arm-none-eabi-10.3-2021.10\\arm-none-eabi\\include\\machine\\_default
 404              		.file 3 "d:\\stm_for_vs\\gcc-arm-none-eabi-10.3-2021.10\\arm-none-eabi\\include\\sys\\_stdint.h"
 405              		.file 4 "Drivers/CMSIS/Device/ST/STM32F4xx/Include/stm32f405xx.h"
 406              		.file 5 "Drivers/STM32F4xx_HAL_Driver/Inc/stm32f4xx_hal_def.h"
 407              		.file 6 "Drivers/STM32F4xx_HAL_Driver/Inc/stm32f4xx_hal_gpio.h"
 408              		.file 7 "Drivers/STM32F4xx_HAL_Driver/Inc/stm32f4xx_hal_dma.h"
 409              		.file 8 "Drivers/STM32F4xx_HAL_Driver/Inc/stm32f4xx_hal_tim.h"
 410              		.file 9 "Drivers/STM32F4xx_HAL_Driver/Inc/stm32f4xx_hal_tim_ex.h"
 411              		.file 10 "Core/Inc/main.h"
 412              		.file 11 "Core/Inc/tim.h"
ARM GAS  C:\Users\30806\AppData\Local\Temp\cccn8dnO.s 			page 12

