ARM GAS  C:\Users\30806\AppData\Local\Temp\ccZCY32q.s 			page 1


   1              		.cpu cortex-m4
   2              		.arch armv7e-m
   3              		.fpu fpv4-sp-d16
   4              		.eabi_attribute 27, 1	@ Tag_ABI_HardFP_use
   5              		.eabi_attribute 28, 1	@ Tag_ABI_VFP_args
   6              		.eabi_attribute 20, 1	@ Tag_ABI_FP_denormal
   7              		.eabi_attribute 21, 1	@ Tag_ABI_FP_exceptions
   8              		.eabi_attribute 23, 3	@ Tag_ABI_FP_number_model
   9              		.eabi_attribute 24, 1	@ Tag_ABI_align8_needed
  10              		.eabi_attribute 25, 1	@ Tag_ABI_align8_preserved
  11              		.eabi_attribute 26, 1	@ Tag_ABI_enum_size
  12              		.eabi_attribute 30, 1	@ Tag_ABI_optimization_goals
  13              		.eabi_attribute 34, 1	@ Tag_CPU_unaligned_access
  14              		.eabi_attribute 18, 4	@ Tag_ABI_PCS_wchar_t
  15              		.file	"user_maths.cpp"
  16              	@ GNU C++14 (GNU Arm Embedded Toolchain 10.3-2021.10) version 10.3.1 20210824 (release) (arm-none-e
  17              	@	compiled by GNU C version 7.3-win32 20180312, GMP version 6.1.0, MPFR version 3.1.4, MPC version 
  18              	
  19              	@ GGC heuristics: --param ggc-min-expand=100 --param ggc-min-heapsize=131072
  20              	@ options passed:  -I Core/Inc -I USB_DEVICE/App -I USB_DEVICE/Target
  21              	@ -I Drivers/STM32F4xx_HAL_Driver/Inc
  22              	@ -I Drivers/STM32F4xx_HAL_Driver/Inc/Legacy
  23              	@ -I Middlewares/Third_Party/FreeRTOS/Source/include
  24              	@ -I Middlewares/Third_Party/FreeRTOS/Source/CMSIS_RTOS
  25              	@ -I Middlewares/Third_Party/FreeRTOS/Source/portable/GCC/ARM_CM4F
  26              	@ -I Drivers/CMSIS/Device/ST/STM32F4xx/Include -I Drivers/CMSIS/Include
  27              	@ -I Middlewares/ST/ARM/DSP/Inc
  28              	@ -I Middlewares/ST/STM32_USB_Device_Library/Core/Inc
  29              	@ -I Middlewares/ST/STM32_USB_Device_Library/Class/CDC/Inc
  30              	@ -I ACE_ECF_25-ACE-ECF-CPP-V1.2/Algorithm/user_maths -I App/C_virtual
  31              	@ -I Task -I ACE_ECF_25-ACE-ECF-CPP-V1.2/Algorithm
  32              	@ -I ACE_ECF_25-ACE-ECF-CPP-V1.2/Algorithm/filter_alg
  33              	@ -I ACE_ECF_25-ACE-ECF-CPP-V1.2/Algorithm/kalman_filter
  34              	@ -I ACE_ECF_25-ACE-ECF-CPP-V1.2/Algorithm/lqr
  35              	@ -I ACE_ECF_25-ACE-ECF-CPP-V1.2/Algorithm/PID
  36              	@ -I ACE_ECF_25-ACE-ECF-CPP-V1.2/Algorithm/quaternion_kalman
  37              	@ -I ACE_ECF_25-ACE-ECF-CPP-V1.2/Algorithm/user_maths
  38              	@ -I ACE_ECF_25-ACE-ECF-CPP-V1.2/Algorithm/user_maths/cpp_files
  39              	@ -I ACE_ECF_25-ACE-ECF-CPP-V1.2/Bsp
  40              	@ -I ACE_ECF_25-ACE-ECF-CPP-V1.2/Bsp/bsp_usart
  41              	@ -I ACE_ECF_25-ACE-ECF-CPP-V1.2/Bsp/bsp_usart/F4
  42              	@ -I ACE_ECF_25-ACE-ECF-CPP-V1.2/Bsp/can_part
  43              	@ -I ACE_ECF_25-ACE-ECF-CPP-V1.2/Bsp/can_part/can
  44              	@ -I ACE_ECF_25-ACE-ECF-CPP-V1.2/Bsp/dwt
  45              	@ -I ACE_ECF_25-ACE-ECF-CPP-V1.2/module
  46              	@ -I ACE_ECF_25-ACE-ECF-CPP-V1.2/module/dr16
  47              	@ -I ACE_ECF_25-ACE-ECF-CPP-V1.2/module/motor
  48              	@ -I ACE_ECF_25-ACE-ECF-CPP-V1.2/module/motor/DJImotor
  49              	@ -I ACE_ECF_25-ACE-ECF-CPP-V1.2/module/motor/LK_motor
  50              	@ -I ACE_ECF_25-ACE-ECF-CPP-V1.2/module/motor/Cybergear
  51              	@ -I ACE_ECF_25-ACE-ECF-CPP-V1.2/module/imu
  52              	@ -I ACE_ECF_25-ACE-ECF-CPP-V1.2/App/safe_task -I App -I Main -I Task
  53              	@ -imultilib thumb/v7e-m+fp/hard
  54              	@ -iprefix d:\stm_for_vs\gcc-arm-none-eabi-10.3-2021.10\bin\../lib/gcc/arm-none-eabi/10.3.1/
  55              	@ -isysroot d:\stm_for_vs\gcc-arm-none-eabi-10.3-2021.10\bin\../arm-none-eabi
  56              	@ -MMD build/user_maths.d -MF build/user_maths.d -MP -MQ build/user_maths.o
  57              	@ -D__USES_INITFINI__ -D USE_HAL_DRIVER -D STM32F405xx
ARM GAS  C:\Users\30806\AppData\Local\Temp\ccZCY32q.s 			page 2


  58              	@ ACE_ECF_25-ACE-ECF-CPP-V1.2/Algorithm/user_maths/cpp_files/user_maths.cpp
  59              	@ -mcpu=cortex-m4 -mthumb -mfpu=fpv4-sp-d16 -mfloat-abi=hard
  60              	@ -mlibarch=armv7e-m+fp -march=armv7e-m+fp
  61              	@ -auxbase-strip build/user_maths.o -g -gdwarf-2 -g -ggdb3 -Og -Wall
  62              	@ -fno-rtti -fno-exceptions -fverbose-asm -fdata-sections
  63              	@ -ffunction-sections -fpermissive
  64              	@ options enabled:  -faggressive-loop-optimizations -fallocation-dce
  65              	@ -fauto-inc-dec -fcombine-stack-adjustments -fcompare-elim
  66              	@ -fcprop-registers -fdata-sections -fdefer-pop
  67              	@ -fdelete-null-pointer-checks -fdwarf2-cfi-asm -fearly-inlining
  68              	@ -feliminate-unused-debug-symbols -feliminate-unused-debug-types
  69              	@ -fforward-propagate -ffp-int-builtin-inexact -ffunction-cse
  70              	@ -ffunction-sections -fgcse-lm -fgnu-unique -fguess-branch-probability
  71              	@ -fident -finline -finline-atomics -fipa-profile -fipa-pure-const
  72              	@ -fipa-reference -fipa-reference-addressable -fipa-stack-alignment
  73              	@ -fira-hoist-pressure -fira-share-save-slots -fira-share-spill-slots
  74              	@ -fivopts -fkeep-static-consts -fleading-underscore -flifetime-dse
  75              	@ -fmath-errno -fmerge-constants -fmerge-debug-strings -fomit-frame-pointer
  76              	@ -fpeephole -fplt -fprefetch-loop-arrays -freg-struct-return
  77              	@ -freorder-blocks -fsched-critical-path-heuristic
  78              	@ -fsched-dep-count-heuristic -fsched-group-heuristic -fsched-interblock
  79              	@ -fsched-last-insn-heuristic -fsched-pressure -fsched-rank-heuristic
  80              	@ -fsched-spec -fsched-spec-insn-heuristic -fsched-stalled-insns-dep
  81              	@ -fsection-anchors -fsemantic-interposition -fshow-column -fshrink-wrap
  82              	@ -fshrink-wrap-separate -fsigned-zeros -fsplit-ivs-in-unroller
  83              	@ -fsplit-wide-types -fssa-backprop -fstdarg-opt
  84              	@ -fstrict-volatile-bitfields -fsync-libcalls -ftoplevel-reorder
  85              	@ -ftrapping-math -ftree-builtin-call-dce -ftree-ccp -ftree-ch
  86              	@ -ftree-coalesce-vars -ftree-copy-prop -ftree-cselim -ftree-dce
  87              	@ -ftree-dominator-opts -ftree-forwprop -ftree-fre -ftree-loop-if-convert
  88              	@ -ftree-loop-im -ftree-loop-ivcanon -ftree-loop-optimize
  89              	@ -ftree-parallelize-loops= -ftree-phiprop -ftree-reassoc -ftree-scev-cprop
  90              	@ -ftree-sink -ftree-slsr -ftree-ter -funit-at-a-time -fvar-tracking
  91              	@ -fvar-tracking-assignments -fverbose-asm -fzero-initialized-in-bss
  92              	@ -masm-syntax-unified -mbe32 -mlittle-endian -mpic-data-is-text-relative
  93              	@ -msched-prolog -mthumb -munaligned-access -mvectorize-with-neon-quad
  94              	
  95              		.text
  96              	.Ltext0:
  97              		.cfi_sections	.debug_frame
  98              		.section	.text._ZN12user_maths_c7invSqrtEf,"ax",%progbits
  99              		.align	1
 100              		.global	_ZN12user_maths_c7invSqrtEf
 101              		.syntax unified
 102              		.thumb
 103              		.thumb_func
 104              		.type	_ZN12user_maths_c7invSqrtEf, %function
 105              	_ZN12user_maths_c7invSqrtEf:
 106              	.LVL0:
 107              	.LFB374:
 108              		.file 1 "ACE_ECF_25-ACE-ECF-CPP-V1.2/Algorithm/user_maths/cpp_files/user_maths.cpp"
   1:ACE_ECF_25-ACE-ECF-CPP-V1.2/Algorithm/user_maths/cpp_files/user_maths.cpp **** #include "user_maths.hpp"
   2:ACE_ECF_25-ACE-ECF-CPP-V1.2/Algorithm/user_maths/cpp_files/user_maths.cpp **** #include <stddef.h>
   3:ACE_ECF_25-ACE-ECF-CPP-V1.2/Algorithm/user_maths/cpp_files/user_maths.cpp **** #include "arm_math.h"
   4:ACE_ECF_25-ACE-ECF-CPP-V1.2/Algorithm/user_maths/cpp_files/user_maths.cpp **** #include "list_of_trigfunction.h"
   5:ACE_ECF_25-ACE-ECF-CPP-V1.2/Algorithm/user_maths/cpp_files/user_maths.cpp **** 
   6:ACE_ECF_25-ACE-ECF-CPP-V1.2/Algorithm/user_maths/cpp_files/user_maths.cpp **** float user_maths_c::invSqrt(float x) //平方根倒数速算法
ARM GAS  C:\Users\30806\AppData\Local\Temp\ccZCY32q.s 			page 3


   7:ACE_ECF_25-ACE-ECF-CPP-V1.2/Algorithm/user_maths/cpp_files/user_maths.cpp **** {
 109              		.loc 1 7 1 view -0
 110              		.cfi_startproc
 111              		@ args = 0, pretend = 0, frame = 0
 112              		@ frame_needed = 0, uses_anonymous_args = 0
 113              		@ link register save eliminated.
   8:ACE_ECF_25-ACE-ECF-CPP-V1.2/Algorithm/user_maths/cpp_files/user_maths.cpp ****     float halfx = 0.5f * x;
 114              		.loc 1 8 5 view .LVU1
 115              	@ ACE_ECF_25-ACE-ECF-CPP-V1.2/Algorithm/user_maths/cpp_files/user_maths.cpp:8:     float halfx = 0.
 116              		.loc 1 8 11 is_stmt 0 view .LVU2
 117 0000 F6EE007A 		vmov.f32	s15, #5.0e-1	@ tmp124,
 118 0004 60EE277A 		vmul.f32	s15, s0, s15	@ halfx, x, tmp124
 119              	.LVL1:
   9:ACE_ECF_25-ACE-ECF-CPP-V1.2/Algorithm/user_maths/cpp_files/user_maths.cpp ****     float y = x;
 120              		.loc 1 9 5 is_stmt 1 view .LVU3
  10:ACE_ECF_25-ACE-ECF-CPP-V1.2/Algorithm/user_maths/cpp_files/user_maths.cpp ****     long i = *(long *)&y;
 121              		.loc 1 10 5 view .LVU4
 122              	@ ACE_ECF_25-ACE-ECF-CPP-V1.2/Algorithm/user_maths/cpp_files/user_maths.cpp:10:     long i = *(long
 123              		.loc 1 10 14 is_stmt 0 view .LVU5
 124 0008 10EE103A 		vmov	r3, s0	@ int	@ _1, x
 125              	.LVL2:
  11:ACE_ECF_25-ACE-ECF-CPP-V1.2/Algorithm/user_maths/cpp_files/user_maths.cpp ****     i = 0x5f3759df - (i >> 1);
 126              		.loc 1 11 5 is_stmt 1 view .LVU6
  12:ACE_ECF_25-ACE-ECF-CPP-V1.2/Algorithm/user_maths/cpp_files/user_maths.cpp ****     y = *(float *)&i;
 127              		.loc 1 12 5 view .LVU7
 128              	@ ACE_ECF_25-ACE-ECF-CPP-V1.2/Algorithm/user_maths/cpp_files/user_maths.cpp:12:     y = *(float *)&
 129              		.loc 1 12 9 is_stmt 0 view .LVU8
 130 000c 074A     		ldr	r2, .L2	@ tmp125,
 131 000e A2EB6303 		sub	r3, r2, r3, asr #1	@ tmp130, tmp125, _1,
 132              	.LVL3:
 133              		.loc 1 12 9 view .LVU9
 134 0012 07EE103A 		vmov	s14, r3	@ int	@ _4, tmp130
 135              	.LVL4:
  13:ACE_ECF_25-ACE-ECF-CPP-V1.2/Algorithm/user_maths/cpp_files/user_maths.cpp ****     y = y * (1.5f - (halfx * y * y));
 136              		.loc 1 13 5 is_stmt 1 view .LVU10
 137              	@ ACE_ECF_25-ACE-ECF-CPP-V1.2/Algorithm/user_maths/cpp_files/user_maths.cpp:13:     y = y * (1.5f -
 138              		.loc 1 13 28 is_stmt 0 view .LVU11
 139 0016 67EE277A 		vmul.f32	s15, s14, s15	@ _5, _4, halfx
 140              	.LVL5:
 141              	@ ACE_ECF_25-ACE-ECF-CPP-V1.2/Algorithm/user_maths/cpp_files/user_maths.cpp:13:     y = y * (1.5f -
 142              		.loc 1 13 32 view .LVU12
 143 001a 67EE277A 		vmul.f32	s15, s14, s15	@ _6, _4, _5
 144              	@ ACE_ECF_25-ACE-ECF-CPP-V1.2/Algorithm/user_maths/cpp_files/user_maths.cpp:13:     y = y * (1.5f -
 145              		.loc 1 13 19 view .LVU13
 146 001e B7EE080A 		vmov.f32	s0, #1.5e+0	@ tmp126,
 147              	.LVL6:
 148              		.loc 1 13 19 view .LVU14
 149 0022 30EE670A 		vsub.f32	s0, s0, s15	@ _7, tmp126, _6
 150              	.LVL7:
  14:ACE_ECF_25-ACE-ECF-CPP-V1.2/Algorithm/user_maths/cpp_files/user_maths.cpp ****     return y;
 151              		.loc 1 14 5 is_stmt 1 view .LVU15
 152              	@ ACE_ECF_25-ACE-ECF-CPP-V1.2/Algorithm/user_maths/cpp_files/user_maths.cpp:15: }
  15:ACE_ECF_25-ACE-ECF-CPP-V1.2/Algorithm/user_maths/cpp_files/user_maths.cpp **** }
 153              		.loc 1 15 1 is_stmt 0 view .LVU16
 154 0026 27EE000A 		vmul.f32	s0, s14, s0	@, _4, _7
 155 002a 7047     		bx	lr	@
 156              	.L3:
ARM GAS  C:\Users\30806\AppData\Local\Temp\ccZCY32q.s 			page 4


 157              		.align	2
 158              	.L2:
 159 002c DF59375F 		.word	1597463007
 160              		.cfi_endproc
 161              	.LFE374:
 162              		.size	_ZN12user_maths_c7invSqrtEf, .-_ZN12user_maths_c7invSqrtEf
 163              		.section	.text._ZN12user_maths_c7max_absEss,"ax",%progbits
 164              		.align	1
 165              		.global	_ZN12user_maths_c7max_absEss
 166              		.syntax unified
 167              		.thumb
 168              		.thumb_func
 169              		.type	_ZN12user_maths_c7max_absEss, %function
 170              	_ZN12user_maths_c7max_absEss:
 171              	.LVL8:
 172              	.LFB375:
  16:ACE_ECF_25-ACE-ECF-CPP-V1.2/Algorithm/user_maths/cpp_files/user_maths.cpp **** 
  17:ACE_ECF_25-ACE-ECF-CPP-V1.2/Algorithm/user_maths/cpp_files/user_maths.cpp **** /*取两个数最大值的绝对值*/
  18:ACE_ECF_25-ACE-ECF-CPP-V1.2/Algorithm/user_maths/cpp_files/user_maths.cpp **** int16_t user_maths_c::max_abs(int16_t x, int16_t y)
  19:ACE_ECF_25-ACE-ECF-CPP-V1.2/Algorithm/user_maths/cpp_files/user_maths.cpp **** {
 173              		.loc 1 19 1 is_stmt 1 view -0
 174              		.cfi_startproc
 175              		@ args = 0, pretend = 0, frame = 0
 176              		@ frame_needed = 0, uses_anonymous_args = 0
 177              		@ link register save eliminated.
  20:ACE_ECF_25-ACE-ECF-CPP-V1.2/Algorithm/user_maths/cpp_files/user_maths.cpp ****     if (user_abs(x) >= user_abs(y))
 178              		.loc 1 20 5 view .LVU18
 179              	@ ACE_ECF_25-ACE-ECF-CPP-V1.2/Algorithm/user_maths/cpp_files/user_maths.cpp:20:     if (user_abs(x)
 180              		.loc 1 20 9 is_stmt 0 view .LVU19
 181 0000 0029     		cmp	r1, #0	@ tmp119,
 182 0002 B8BF     		it	lt
 183 0004 4942     		rsblt	r1, r1, #0	@ tmp119, tmp122,
 184              	.LVL9:
 185              		.loc 1 20 9 view .LVU20
 186 0006 89B2     		uxth	r1, r1	@ _1, tmp119
 187              	@ ACE_ECF_25-ACE-ECF-CPP-V1.2/Algorithm/user_maths/cpp_files/user_maths.cpp:20:     if (user_abs(x)
 188              		.loc 1 20 24 view .LVU21
 189 0008 82EAE270 		eor	r0, r2, r2, asr #31	@ tmp120, tmp123, tmp123,
 190              	.LVL10:
 191              		.loc 1 20 24 view .LVU22
 192 000c A0EBE270 		sub	r0, r0, r2, asr #31	@ tmp120, tmp120, tmp123,
 193 0010 80B2     		uxth	r0, r0	@ _2, tmp120
 194              	@ ACE_ECF_25-ACE-ECF-CPP-V1.2/Algorithm/user_maths/cpp_files/user_maths.cpp:20:     if (user_abs(x)
 195              		.loc 1 20 5 view .LVU23
 196 0012 8142     		cmp	r1, r0	@ _1, _2
 197 0014 01D3     		bcc	.L5		@,
  21:ACE_ECF_25-ACE-ECF-CPP-V1.2/Algorithm/user_maths/cpp_files/user_maths.cpp ****         return user_abs(x);
 198              		.loc 1 21 9 is_stmt 1 view .LVU24
 199              	@ ACE_ECF_25-ACE-ECF-CPP-V1.2/Algorithm/user_maths/cpp_files/user_maths.cpp:21:         return user
 200              		.loc 1 21 16 is_stmt 0 view .LVU25
 201 0016 08B2     		sxth	r0, r1	@ <retval>, _1
 202 0018 7047     		bx	lr	@
 203              	.L5:
  22:ACE_ECF_25-ACE-ECF-CPP-V1.2/Algorithm/user_maths/cpp_files/user_maths.cpp ****     else
  23:ACE_ECF_25-ACE-ECF-CPP-V1.2/Algorithm/user_maths/cpp_files/user_maths.cpp ****         return user_abs(y);
 204              		.loc 1 23 9 is_stmt 1 view .LVU26
 205              	@ ACE_ECF_25-ACE-ECF-CPP-V1.2/Algorithm/user_maths/cpp_files/user_maths.cpp:23:         return user
ARM GAS  C:\Users\30806\AppData\Local\Temp\ccZCY32q.s 			page 5


 206              		.loc 1 23 16 is_stmt 0 view .LVU27
 207 001a 00B2     		sxth	r0, r0	@ <retval>, _2
 208              	@ ACE_ECF_25-ACE-ECF-CPP-V1.2/Algorithm/user_maths/cpp_files/user_maths.cpp:24: }
  24:ACE_ECF_25-ACE-ECF-CPP-V1.2/Algorithm/user_maths/cpp_files/user_maths.cpp **** }
 209              		.loc 1 24 1 view .LVU28
 210 001c 7047     		bx	lr	@
 211              		.cfi_endproc
 212              	.LFE375:
 213              		.size	_ZN12user_maths_c7max_absEss, .-_ZN12user_maths_c7max_absEss
 214              		.section	.text._ZN12user_maths_c27motion_acceleration_controlEss,"ax",%progbits
 215              		.align	1
 216              		.global	_ZN12user_maths_c27motion_acceleration_controlEss
 217              		.syntax unified
 218              		.thumb
 219              		.thumb_func
 220              		.type	_ZN12user_maths_c27motion_acceleration_controlEss, %function
 221              	_ZN12user_maths_c27motion_acceleration_controlEss:
 222              	.LVL11:
 223              	.LFB376:
  25:ACE_ECF_25-ACE-ECF-CPP-V1.2/Algorithm/user_maths/cpp_files/user_maths.cpp **** 
  26:ACE_ECF_25-ACE-ECF-CPP-V1.2/Algorithm/user_maths/cpp_files/user_maths.cpp **** /*
  27:ACE_ECF_25-ACE-ECF-CPP-V1.2/Algorithm/user_maths/cpp_files/user_maths.cpp ****  *功能：运动控制斜坡函数（加速度限制）
  28:ACE_ECF_25-ACE-ECF-CPP-V1.2/Algorithm/user_maths/cpp_files/user_maths.cpp ****  *传入：1.加速度限制对应结构体  2.控制量 3.限制加速度
  29:ACE_ECF_25-ACE-ECF-CPP-V1.2/Algorithm/user_maths/cpp_files/user_maths.cpp ****  *传出：处理量
  30:ACE_ECF_25-ACE-ECF-CPP-V1.2/Algorithm/user_maths/cpp_files/user_maths.cpp ****  *类型：16位整形
  31:ACE_ECF_25-ACE-ECF-CPP-V1.2/Algorithm/user_maths/cpp_files/user_maths.cpp ****  */
  32:ACE_ECF_25-ACE-ECF-CPP-V1.2/Algorithm/user_maths/cpp_files/user_maths.cpp **** int16_t user_maths_c::motion_acceleration_control( int16_t Input, int16_t Limit)
  33:ACE_ECF_25-ACE-ECF-CPP-V1.2/Algorithm/user_maths/cpp_files/user_maths.cpp **** {
 224              		.loc 1 33 1 is_stmt 1 view -0
 225              		.cfi_startproc
 226              		@ args = 0, pretend = 0, frame = 0
 227              		@ frame_needed = 0, uses_anonymous_args = 0
 228              		@ link register save eliminated.
 229              		.loc 1 33 1 is_stmt 0 view .LVU30
 230 0000 07EE901A 		vmov	s15, r1	@ int	@ tmp131, Input
 231 0004 07EE102A 		vmov	s14, r2	@ int	@ tmp132, Limit
  34:ACE_ECF_25-ACE-ECF-CPP-V1.2/Algorithm/user_maths/cpp_files/user_maths.cpp ****     this->acceleration_control.Input = Input;
 232              		.loc 1 34 5 is_stmt 1 view .LVU31
 233              	@ ACE_ECF_25-ACE-ECF-CPP-V1.2/Algorithm/user_maths/cpp_files/user_maths.cpp:34:     this->accelerat
 234              		.loc 1 34 38 is_stmt 0 view .LVU32
 235 0008 F8EEE77A 		vcvt.f32.s32	s15, s15	@ _1, tmp131
 236 000c C0ED007A 		vstr.32	s15, [r0]	@ _1, this_13(D)->acceleration_control.Input
  35:ACE_ECF_25-ACE-ECF-CPP-V1.2/Algorithm/user_maths/cpp_files/user_maths.cpp ****     this->acceleration_control.acc_limit = Limit;
 237              		.loc 1 35 5 is_stmt 1 view .LVU33
 238              	@ ACE_ECF_25-ACE-ECF-CPP-V1.2/Algorithm/user_maths/cpp_files/user_maths.cpp:35:     this->accelerat
 239              		.loc 1 35 42 is_stmt 0 view .LVU34
 240 0010 B8EEC77A 		vcvt.f32.s32	s14, s14	@ _2, tmp132
 241 0014 80ED047A 		vstr.32	s14, [r0, #16]	@ _2, this_13(D)->acceleration_control.acc_limit
  36:ACE_ECF_25-ACE-ECF-CPP-V1.2/Algorithm/user_maths/cpp_files/user_maths.cpp **** 
  37:ACE_ECF_25-ACE-ECF-CPP-V1.2/Algorithm/user_maths/cpp_files/user_maths.cpp ****     this->acceleration_control.acc_now = this->acceleration_control.Input - this->acceleration_cont
 242              		.loc 1 37 5 is_stmt 1 view .LVU35
 243              	@ ACE_ECF_25-ACE-ECF-CPP-V1.2/Algorithm/user_maths/cpp_files/user_maths.cpp:37:     this->accelerat
 244              		.loc 1 37 104 is_stmt 0 view .LVU36
 245 0018 D0ED016A 		vldr.32	s13, [r0, #4]	@ _3, this_13(D)->acceleration_control.Last_Input
 246              	@ ACE_ECF_25-ACE-ECF-CPP-V1.2/Algorithm/user_maths/cpp_files/user_maths.cpp:37:     this->accelerat
 247              		.loc 1 37 75 view .LVU37
 248 001c 77EEE67A 		vsub.f32	s15, s15, s13	@ _4, _1, _3
ARM GAS  C:\Users\30806\AppData\Local\Temp\ccZCY32q.s 			page 6


 249              	@ ACE_ECF_25-ACE-ECF-CPP-V1.2/Algorithm/user_maths/cpp_files/user_maths.cpp:37:     this->accelerat
 250              		.loc 1 37 40 view .LVU38
 251 0020 C0ED037A 		vstr.32	s15, [r0, #12]	@ _4, this_13(D)->acceleration_control.acc_now
  38:ACE_ECF_25-ACE-ECF-CPP-V1.2/Algorithm/user_maths/cpp_files/user_maths.cpp **** 
  39:ACE_ECF_25-ACE-ECF-CPP-V1.2/Algorithm/user_maths/cpp_files/user_maths.cpp ****     if (user_abs(this->acceleration_control.acc_now) > this->acceleration_control.acc_limit)
 252              		.loc 1 39 5 is_stmt 1 view .LVU39
 253              	@ ACE_ECF_25-ACE-ECF-CPP-V1.2/Algorithm/user_maths/cpp_files/user_maths.cpp:39:     if (user_abs(th
 254              		.loc 1 39 9 is_stmt 0 view .LVU40
 255 0024 F5EEC07A 		vcmpe.f32	s15, #0	@ _4
 256 0028 F1EE10FA 		vmrs	APSR_nzcv, FPSCR
 257 002c 18DD     		ble	.L13		@,
 258 002e B0EE676A 		vmov.f32	s12, s15	@ iftmp.6_9, _4
 259              	.L8:
 260              	@ ACE_ECF_25-ACE-ECF-CPP-V1.2/Algorithm/user_maths/cpp_files/user_maths.cpp:39:     if (user_abs(th
 261              		.loc 1 39 5 discriminator 4 view .LVU41
 262 0032 B4EEC67A 		vcmpe.f32	s14, s12	@ _2, iftmp.6_9
 263 0036 F1EE10FA 		vmrs	APSR_nzcv, FPSCR
 264 003a 07D5     		bpl	.L9		@,
  40:ACE_ECF_25-ACE-ECF-CPP-V1.2/Algorithm/user_maths/cpp_files/user_maths.cpp ****     {
  41:ACE_ECF_25-ACE-ECF-CPP-V1.2/Algorithm/user_maths/cpp_files/user_maths.cpp ****         this->acceleration_control.Output = this->acceleration_control.Last_Input + this->accelerat
 265              		.loc 1 41 9 is_stmt 1 discriminator 4 view .LVU42
 266              	@ ACE_ECF_25-ACE-ECF-CPP-V1.2/Algorithm/user_maths/cpp_files/user_maths.cpp:41:         this->accel
 267              		.loc 1 41 120 is_stmt 0 discriminator 4 view .LVU43
 268 003c C7EE865A 		vdiv.f32	s11, s15, s12	@ _5, _4, iftmp.6_9
 269              	@ ACE_ECF_25-ACE-ECF-CPP-V1.2/Algorithm/user_maths/cpp_files/user_maths.cpp:41:         this->accel
 270              		.loc 1 41 167 discriminator 4 view .LVU44
 271 0040 27EE257A 		vmul.f32	s14, s14, s11	@ _6, _2, _5
 272              	@ ACE_ECF_25-ACE-ECF-CPP-V1.2/Algorithm/user_maths/cpp_files/user_maths.cpp:41:         this->accel
 273              		.loc 1 41 83 discriminator 4 view .LVU45
 274 0044 36EE877A 		vadd.f32	s14, s13, s14	@ _7, _3, _6
 275              	@ ACE_ECF_25-ACE-ECF-CPP-V1.2/Algorithm/user_maths/cpp_files/user_maths.cpp:41:         this->accel
 276              		.loc 1 41 43 discriminator 4 view .LVU46
 277 0048 80ED027A 		vstr.32	s14, [r0, #8]	@ _7, this_13(D)->acceleration_control.Output
 278              	.L9:
  42:ACE_ECF_25-ACE-ECF-CPP-V1.2/Algorithm/user_maths/cpp_files/user_maths.cpp ****     }
  43:ACE_ECF_25-ACE-ECF-CPP-V1.2/Algorithm/user_maths/cpp_files/user_maths.cpp **** 
  44:ACE_ECF_25-ACE-ECF-CPP-V1.2/Algorithm/user_maths/cpp_files/user_maths.cpp ****     this->acceleration_control.Last_Input = this->acceleration_control.Output;
 279              		.loc 1 44 5 is_stmt 1 view .LVU47
 280              	@ ACE_ECF_25-ACE-ECF-CPP-V1.2/Algorithm/user_maths/cpp_files/user_maths.cpp:44:     this->accelerat
 281              		.loc 1 44 72 is_stmt 0 view .LVU48
 282 004c D0ED027A 		vldr.32	s15, [r0, #8]	@ _8, this_13(D)->acceleration_control.Output
 283              	@ ACE_ECF_25-ACE-ECF-CPP-V1.2/Algorithm/user_maths/cpp_files/user_maths.cpp:44:     this->accelerat
 284              		.loc 1 44 43 view .LVU49
 285 0050 C0ED017A 		vstr.32	s15, [r0, #4]	@ _8, this_13(D)->acceleration_control.Last_Input
  45:ACE_ECF_25-ACE-ECF-CPP-V1.2/Algorithm/user_maths/cpp_files/user_maths.cpp **** 
  46:ACE_ECF_25-ACE-ECF-CPP-V1.2/Algorithm/user_maths/cpp_files/user_maths.cpp ****     return this->acceleration_control.Output;
 286              		.loc 1 46 5 is_stmt 1 view .LVU50
 287              	@ ACE_ECF_25-ACE-ECF-CPP-V1.2/Algorithm/user_maths/cpp_files/user_maths.cpp:46:     return this->ac
 288              		.loc 1 46 39 is_stmt 0 view .LVU51
 289 0054 FDEEE77A 		vcvt.s32.f32	s15, s15	@ tmp128, _8
 290              	@ ACE_ECF_25-ACE-ECF-CPP-V1.2/Algorithm/user_maths/cpp_files/user_maths.cpp:47: }
  47:ACE_ECF_25-ACE-ECF-CPP-V1.2/Algorithm/user_maths/cpp_files/user_maths.cpp **** }
 291              		.loc 1 47 1 view .LVU52
 292 0058 17EE903A 		vmov	r3, s15	@ int	@ tmp128, tmp128
 293 005c 18B2     		sxth	r0, r3	@, tmp128
 294              	.LVL12:
 295              		.loc 1 47 1 view .LVU53
ARM GAS  C:\Users\30806\AppData\Local\Temp\ccZCY32q.s 			page 7


 296 005e 7047     		bx	lr	@
 297              	.LVL13:
 298              	.L13:
 299              	@ ACE_ECF_25-ACE-ECF-CPP-V1.2/Algorithm/user_maths/cpp_files/user_maths.cpp:39:     if (user_abs(th
  39:ACE_ECF_25-ACE-ECF-CPP-V1.2/Algorithm/user_maths/cpp_files/user_maths.cpp ****     {
 300              		.loc 1 39 9 discriminator 2 view .LVU54
 301 0060 B1EE676A 		vneg.f32	s12, s15	@ iftmp.6_9, _4
 302 0064 E5E7     		b	.L8		@
 303              		.cfi_endproc
 304              	.LFE376:
 305              		.size	_ZN12user_maths_c27motion_acceleration_controlEss, .-_ZN12user_maths_c27motion_acceleration_
 306              		.section	.text._ZN12user_maths_c22loop_restriction_int16Ess,"ax",%progbits
 307              		.align	1
 308              		.global	_ZN12user_maths_c22loop_restriction_int16Ess
 309              		.syntax unified
 310              		.thumb
 311              		.thumb_func
 312              		.type	_ZN12user_maths_c22loop_restriction_int16Ess, %function
 313              	_ZN12user_maths_c22loop_restriction_int16Ess:
 314              	.LVL14:
 315              	.LFB377:
  48:ACE_ECF_25-ACE-ECF-CPP-V1.2/Algorithm/user_maths/cpp_files/user_maths.cpp **** 
  49:ACE_ECF_25-ACE-ECF-CPP-V1.2/Algorithm/user_maths/cpp_files/user_maths.cpp **** /*
  50:ACE_ECF_25-ACE-ECF-CPP-V1.2/Algorithm/user_maths/cpp_files/user_maths.cpp ****  *功能：正负循环限制（16位）
  51:ACE_ECF_25-ACE-ECF-CPP-V1.2/Algorithm/user_maths/cpp_files/user_maths.cpp ****  *传入：1.输入值  2.限制幅度(正数)
  52:ACE_ECF_25-ACE-ECF-CPP-V1.2/Algorithm/user_maths/cpp_files/user_maths.cpp ****  *传出：限幅输出值
  53:ACE_ECF_25-ACE-ECF-CPP-V1.2/Algorithm/user_maths/cpp_files/user_maths.cpp ****  *描述：将输入值限制在 +-限制幅度 的范围内
  54:ACE_ECF_25-ACE-ECF-CPP-V1.2/Algorithm/user_maths/cpp_files/user_maths.cpp ****  */
  55:ACE_ECF_25-ACE-ECF-CPP-V1.2/Algorithm/user_maths/cpp_files/user_maths.cpp **** int16_t user_maths_c::loop_restriction_int16(int16_t num, int16_t limit_num)
  56:ACE_ECF_25-ACE-ECF-CPP-V1.2/Algorithm/user_maths/cpp_files/user_maths.cpp **** {
 316              		.loc 1 56 1 is_stmt 1 view -0
 317              		.cfi_startproc
 318              		@ args = 0, pretend = 0, frame = 0
 319              		@ frame_needed = 0, uses_anonymous_args = 0
 320              		@ link register save eliminated.
 321              		.loc 1 56 1 is_stmt 0 view .LVU56
 322 0000 0846     		mov	r0, r1	@ num, tmp136
 323              	.LVL15:
  57:ACE_ECF_25-ACE-ECF-CPP-V1.2/Algorithm/user_maths/cpp_files/user_maths.cpp ****     if (user_abs(num) > limit_num)
 324              		.loc 1 57 5 is_stmt 1 view .LVU57
 325              	@ ACE_ECF_25-ACE-ECF-CPP-V1.2/Algorithm/user_maths/cpp_files/user_maths.cpp:57:     if (user_abs(nu
 326              		.loc 1 57 9 is_stmt 0 view .LVU58
 327 0002 81EAE173 		eor	r3, r1, r1, asr #31	@ tmp126, num, num,
 328 0006 A3EBE173 		sub	r3, r3, r1, asr #31	@ tmp126, tmp126, num,
 329 000a 9BB2     		uxth	r3, r3	@ _2, tmp126
 330              	@ ACE_ECF_25-ACE-ECF-CPP-V1.2/Algorithm/user_maths/cpp_files/user_maths.cpp:57:     if (user_abs(nu
 331              		.loc 1 57 5 view .LVU59
 332 000c 9342     		cmp	r3, r2	@ _2, limit_num
 333 000e 06DD     		ble	.L15		@,
  58:ACE_ECF_25-ACE-ECF-CPP-V1.2/Algorithm/user_maths/cpp_files/user_maths.cpp ****     {
  59:ACE_ECF_25-ACE-ECF-CPP-V1.2/Algorithm/user_maths/cpp_files/user_maths.cpp ****         if (num >= 0)
 334              		.loc 1 59 9 is_stmt 1 view .LVU60
 335 0010 0029     		cmp	r1, #0	@ num,
 336 0012 02DB     		blt	.L16		@,
  60:ACE_ECF_25-ACE-ECF-CPP-V1.2/Algorithm/user_maths/cpp_files/user_maths.cpp ****             num -= limit_num;
 337              		.loc 1 60 13 view .LVU61
 338              	@ ACE_ECF_25-ACE-ECF-CPP-V1.2/Algorithm/user_maths/cpp_files/user_maths.cpp:60:             num -= 
ARM GAS  C:\Users\30806\AppData\Local\Temp\ccZCY32q.s 			page 8


 339              		.loc 1 60 17 is_stmt 0 view .LVU62
 340 0014 881A     		subs	r0, r1, r2	@ tmp131, num, limit_num
 341 0016 00B2     		sxth	r0, r0	@ num, tmp131
 342              	.LVL16:
 343              		.loc 1 60 17 view .LVU63
 344 0018 7047     		bx	lr	@
 345              	.LVL17:
 346              	.L16:
  61:ACE_ECF_25-ACE-ECF-CPP-V1.2/Algorithm/user_maths/cpp_files/user_maths.cpp ****         else
  62:ACE_ECF_25-ACE-ECF-CPP-V1.2/Algorithm/user_maths/cpp_files/user_maths.cpp ****             num += limit_num;
 347              		.loc 1 62 13 is_stmt 1 view .LVU64
 348              	@ ACE_ECF_25-ACE-ECF-CPP-V1.2/Algorithm/user_maths/cpp_files/user_maths.cpp:62:             num += 
 349              		.loc 1 62 17 is_stmt 0 view .LVU65
 350 001a 1044     		add	r0, r0, r2	@ tmp134, limit_num
 351 001c 00B2     		sxth	r0, r0	@ num, tmp134
 352              	.LVL18:
 353              	.L15:
  63:ACE_ECF_25-ACE-ECF-CPP-V1.2/Algorithm/user_maths/cpp_files/user_maths.cpp ****     }
  64:ACE_ECF_25-ACE-ECF-CPP-V1.2/Algorithm/user_maths/cpp_files/user_maths.cpp ****     return num;
 354              		.loc 1 64 5 is_stmt 1 view .LVU66
 355              	@ ACE_ECF_25-ACE-ECF-CPP-V1.2/Algorithm/user_maths/cpp_files/user_maths.cpp:65: }
  65:ACE_ECF_25-ACE-ECF-CPP-V1.2/Algorithm/user_maths/cpp_files/user_maths.cpp **** }
 356              		.loc 1 65 1 is_stmt 0 view .LVU67
 357 001e 7047     		bx	lr	@
 358              		.cfi_endproc
 359              	.LFE377:
 360              		.size	_ZN12user_maths_c22loop_restriction_int16Ess, .-_ZN12user_maths_c22loop_restriction_int16Ess
 361              		.section	.text._ZN12user_maths_c22loop_restriction_floatEff,"ax",%progbits
 362              		.align	1
 363              		.global	_ZN12user_maths_c22loop_restriction_floatEff
 364              		.syntax unified
 365              		.thumb
 366              		.thumb_func
 367              		.type	_ZN12user_maths_c22loop_restriction_floatEff, %function
 368              	_ZN12user_maths_c22loop_restriction_floatEff:
 369              	.LVL19:
 370              	.LFB378:
  66:ACE_ECF_25-ACE-ECF-CPP-V1.2/Algorithm/user_maths/cpp_files/user_maths.cpp **** 
  67:ACE_ECF_25-ACE-ECF-CPP-V1.2/Algorithm/user_maths/cpp_files/user_maths.cpp **** /*
  68:ACE_ECF_25-ACE-ECF-CPP-V1.2/Algorithm/user_maths/cpp_files/user_maths.cpp ****  *功能：正负循环限制（float）
  69:ACE_ECF_25-ACE-ECF-CPP-V1.2/Algorithm/user_maths/cpp_files/user_maths.cpp ****  *传入：1.输入值  2.限制幅度(正数)
  70:ACE_ECF_25-ACE-ECF-CPP-V1.2/Algorithm/user_maths/cpp_files/user_maths.cpp ****  *传出：限幅输出值
  71:ACE_ECF_25-ACE-ECF-CPP-V1.2/Algorithm/user_maths/cpp_files/user_maths.cpp ****  *描述：将输入值限制在 +-限制幅度 的范围内
  72:ACE_ECF_25-ACE-ECF-CPP-V1.2/Algorithm/user_maths/cpp_files/user_maths.cpp ****  */
  73:ACE_ECF_25-ACE-ECF-CPP-V1.2/Algorithm/user_maths/cpp_files/user_maths.cpp **** float user_maths_c::loop_restriction_float(float num, float limit_num)
  74:ACE_ECF_25-ACE-ECF-CPP-V1.2/Algorithm/user_maths/cpp_files/user_maths.cpp **** {
 371              		.loc 1 74 1 is_stmt 1 view -0
 372              		.cfi_startproc
 373              		@ args = 0, pretend = 0, frame = 0
 374              		@ frame_needed = 0, uses_anonymous_args = 0
 375              		@ link register save eliminated.
  75:ACE_ECF_25-ACE-ECF-CPP-V1.2/Algorithm/user_maths/cpp_files/user_maths.cpp ****     if (user_abs(num) > limit_num)
 376              		.loc 1 75 5 view .LVU69
 377              	@ ACE_ECF_25-ACE-ECF-CPP-V1.2/Algorithm/user_maths/cpp_files/user_maths.cpp:75:     if (user_abs(nu
 378              		.loc 1 75 9 is_stmt 0 view .LVU70
 379 0000 B5EEC00A 		vcmpe.f32	s0, #0	@ num
 380 0004 F1EE10FA 		vmrs	APSR_nzcv, FPSCR
ARM GAS  C:\Users\30806\AppData\Local\Temp\ccZCY32q.s 			page 9


 381 0008 0EDD     		ble	.L27		@,
 382 000a F0EE407A 		vmov.f32	s15, s0	@ iftmp.12_2, num
 383              	.L18:
 384              	@ ACE_ECF_25-ACE-ECF-CPP-V1.2/Algorithm/user_maths/cpp_files/user_maths.cpp:75:     if (user_abs(nu
 385              		.loc 1 75 5 discriminator 4 view .LVU71
 386 000e F4EEE07A 		vcmpe.f32	s15, s1	@ iftmp.12_2, limit_num
 387 0012 F1EE10FA 		vmrs	APSR_nzcv, FPSCR
 388 0016 0CDD     		ble	.L19		@,
  76:ACE_ECF_25-ACE-ECF-CPP-V1.2/Algorithm/user_maths/cpp_files/user_maths.cpp ****     {
  77:ACE_ECF_25-ACE-ECF-CPP-V1.2/Algorithm/user_maths/cpp_files/user_maths.cpp ****         if (num >= 0)
 389              		.loc 1 77 9 is_stmt 1 view .LVU72
 390 0018 B5EEC00A 		vcmpe.f32	s0, #0	@ num
 391 001c F1EE10FA 		vmrs	APSR_nzcv, FPSCR
 392 0020 05DB     		blt	.L26		@,
  78:ACE_ECF_25-ACE-ECF-CPP-V1.2/Algorithm/user_maths/cpp_files/user_maths.cpp ****             num -= limit_num;
 393              		.loc 1 78 13 view .LVU73
 394              	@ ACE_ECF_25-ACE-ECF-CPP-V1.2/Algorithm/user_maths/cpp_files/user_maths.cpp:78:             num -= 
 395              		.loc 1 78 17 is_stmt 0 view .LVU74
 396 0022 30EE600A 		vsub.f32	s0, s0, s1	@ num, num, limit_num
 397              	.LVL20:
 398              		.loc 1 78 17 view .LVU75
 399 0026 7047     		bx	lr	@
 400              	.L27:
 401              	@ ACE_ECF_25-ACE-ECF-CPP-V1.2/Algorithm/user_maths/cpp_files/user_maths.cpp:75:     if (user_abs(nu
  75:ACE_ECF_25-ACE-ECF-CPP-V1.2/Algorithm/user_maths/cpp_files/user_maths.cpp ****     if (user_abs(num) > limit_num)
 402              		.loc 1 75 9 discriminator 2 view .LVU76
 403 0028 F1EE407A 		vneg.f32	s15, s0	@ iftmp.12_2, num
 404 002c EFE7     		b	.L18		@
 405              	.L26:
  79:ACE_ECF_25-ACE-ECF-CPP-V1.2/Algorithm/user_maths/cpp_files/user_maths.cpp ****         else
  80:ACE_ECF_25-ACE-ECF-CPP-V1.2/Algorithm/user_maths/cpp_files/user_maths.cpp ****             num += limit_num;
 406              		.loc 1 80 13 is_stmt 1 view .LVU77
 407              	@ ACE_ECF_25-ACE-ECF-CPP-V1.2/Algorithm/user_maths/cpp_files/user_maths.cpp:80:             num += 
 408              		.loc 1 80 17 is_stmt 0 view .LVU78
 409 002e 30EE200A 		vadd.f32	s0, s0, s1	@ num, num, limit_num
 410              	.LVL21:
 411              	.L19:
  81:ACE_ECF_25-ACE-ECF-CPP-V1.2/Algorithm/user_maths/cpp_files/user_maths.cpp ****     }
  82:ACE_ECF_25-ACE-ECF-CPP-V1.2/Algorithm/user_maths/cpp_files/user_maths.cpp ****     return num;
 412              		.loc 1 82 5 is_stmt 1 view .LVU79
 413              	@ ACE_ECF_25-ACE-ECF-CPP-V1.2/Algorithm/user_maths/cpp_files/user_maths.cpp:83: }
  83:ACE_ECF_25-ACE-ECF-CPP-V1.2/Algorithm/user_maths/cpp_files/user_maths.cpp **** }
 414              		.loc 1 83 1 is_stmt 0 view .LVU80
 415 0032 7047     		bx	lr	@
 416              		.cfi_endproc
 417              	.LFE378:
 418              		.size	_ZN12user_maths_c22loop_restriction_floatEff, .-_ZN12user_maths_c22loop_restriction_floatEff
 419              		.section	.text._ZN12user_maths_c19loop_fp32_constrainEfff,"ax",%progbits
 420              		.align	1
 421              		.global	_ZN12user_maths_c19loop_fp32_constrainEfff
 422              		.syntax unified
 423              		.thumb
 424              		.thumb_func
 425              		.type	_ZN12user_maths_c19loop_fp32_constrainEfff, %function
 426              	_ZN12user_maths_c19loop_fp32_constrainEfff:
 427              	.LVL22:
 428              	.LFB379:
ARM GAS  C:\Users\30806\AppData\Local\Temp\ccZCY32q.s 			page 10


  84:ACE_ECF_25-ACE-ECF-CPP-V1.2/Algorithm/user_maths/cpp_files/user_maths.cpp **** 
  85:ACE_ECF_25-ACE-ECF-CPP-V1.2/Algorithm/user_maths/cpp_files/user_maths.cpp **** /*循环限幅32*/
  86:ACE_ECF_25-ACE-ECF-CPP-V1.2/Algorithm/user_maths/cpp_files/user_maths.cpp **** float user_maths_c::loop_fp32_constrain(float Input, float minValue, float maxValue)
  87:ACE_ECF_25-ACE-ECF-CPP-V1.2/Algorithm/user_maths/cpp_files/user_maths.cpp **** {
 429              		.loc 1 87 1 is_stmt 1 view -0
 430              		.cfi_startproc
 431              		@ args = 0, pretend = 0, frame = 0
 432              		@ frame_needed = 0, uses_anonymous_args = 0
 433              		@ link register save eliminated.
  88:ACE_ECF_25-ACE-ECF-CPP-V1.2/Algorithm/user_maths/cpp_files/user_maths.cpp ****     if (maxValue < minValue)
 434              		.loc 1 88 5 view .LVU82
 435 0000 B4EEE01A 		vcmpe.f32	s2, s1	@ maxValue, minValue
 436 0004 F1EE10FA 		vmrs	APSR_nzcv, FPSCR
 437 0008 0ED4     		bmi	.L29		@,
  89:ACE_ECF_25-ACE-ECF-CPP-V1.2/Algorithm/user_maths/cpp_files/user_maths.cpp ****     {
  90:ACE_ECF_25-ACE-ECF-CPP-V1.2/Algorithm/user_maths/cpp_files/user_maths.cpp ****         return Input;
  91:ACE_ECF_25-ACE-ECF-CPP-V1.2/Algorithm/user_maths/cpp_files/user_maths.cpp ****     }
  92:ACE_ECF_25-ACE-ECF-CPP-V1.2/Algorithm/user_maths/cpp_files/user_maths.cpp **** 
  93:ACE_ECF_25-ACE-ECF-CPP-V1.2/Algorithm/user_maths/cpp_files/user_maths.cpp ****     if (Input > maxValue)
 438              		.loc 1 93 5 view .LVU83
 439              	.LBB2:
 440 000a B4EEC01A 		vcmpe.f32	s2, s0	@ maxValue, Input
 441 000e F1EE10FA 		vmrs	APSR_nzcv, FPSCR
 442 0012 0AD5     		bpl	.L41		@,
 443              	.LBB3:
  94:ACE_ECF_25-ACE-ECF-CPP-V1.2/Algorithm/user_maths/cpp_files/user_maths.cpp ****     {
  95:ACE_ECF_25-ACE-ECF-CPP-V1.2/Algorithm/user_maths/cpp_files/user_maths.cpp ****         float len = maxValue - minValue;
 444              		.loc 1 95 9 view .LVU84
 445              	@ ACE_ECF_25-ACE-ECF-CPP-V1.2/Algorithm/user_maths/cpp_files/user_maths.cpp:95:         float len =
 446              		.loc 1 95 15 is_stmt 0 view .LVU85
 447 0014 71EE600A 		vsub.f32	s1, s2, s1	@ len, maxValue, minValue
 448              	.LVL23:
 449              		.loc 1 95 15 view .LVU86
 450 0018 01E0     		b	.L33		@
 451              	.L42:
  96:ACE_ECF_25-ACE-ECF-CPP-V1.2/Algorithm/user_maths/cpp_files/user_maths.cpp ****         while (Input > maxValue)
  97:ACE_ECF_25-ACE-ECF-CPP-V1.2/Algorithm/user_maths/cpp_files/user_maths.cpp ****         {
  98:ACE_ECF_25-ACE-ECF-CPP-V1.2/Algorithm/user_maths/cpp_files/user_maths.cpp ****             Input -= len;
 452              		.loc 1 98 13 is_stmt 1 view .LVU87
 453              	@ ACE_ECF_25-ACE-ECF-CPP-V1.2/Algorithm/user_maths/cpp_files/user_maths.cpp:98:             Input -
 454              		.loc 1 98 19 is_stmt 0 view .LVU88
 455 001a 30EE600A 		vsub.f32	s0, s0, s1	@ Input, Input, len
 456              	.LVL24:
 457              	.L33:
  96:ACE_ECF_25-ACE-ECF-CPP-V1.2/Algorithm/user_maths/cpp_files/user_maths.cpp ****         while (Input > maxValue)
 458              		.loc 1 96 9 is_stmt 1 view .LVU89
  96:ACE_ECF_25-ACE-ECF-CPP-V1.2/Algorithm/user_maths/cpp_files/user_maths.cpp ****         while (Input > maxValue)
 459              		.loc 1 96 22 view .LVU90
 460 001e B4EEC10A 		vcmpe.f32	s0, s2	@ Input, maxValue
 461 0022 F1EE10FA 		vmrs	APSR_nzcv, FPSCR
 462 0026 F8DC     		bgt	.L42		@,
 463              	.LVL25:
 464              	.L29:
  96:ACE_ECF_25-ACE-ECF-CPP-V1.2/Algorithm/user_maths/cpp_files/user_maths.cpp ****         while (Input > maxValue)
 465              		.loc 1 96 22 is_stmt 0 view .LVU91
 466              	.LBE3:
 467              	.LBE2:
ARM GAS  C:\Users\30806\AppData\Local\Temp\ccZCY32q.s 			page 11


 468              	@ ACE_ECF_25-ACE-ECF-CPP-V1.2/Algorithm/user_maths/cpp_files/user_maths.cpp:110: }
  99:ACE_ECF_25-ACE-ECF-CPP-V1.2/Algorithm/user_maths/cpp_files/user_maths.cpp ****         }
 100:ACE_ECF_25-ACE-ECF-CPP-V1.2/Algorithm/user_maths/cpp_files/user_maths.cpp ****     }
 101:ACE_ECF_25-ACE-ECF-CPP-V1.2/Algorithm/user_maths/cpp_files/user_maths.cpp ****     else if (Input < minValue)
 102:ACE_ECF_25-ACE-ECF-CPP-V1.2/Algorithm/user_maths/cpp_files/user_maths.cpp ****     {
 103:ACE_ECF_25-ACE-ECF-CPP-V1.2/Algorithm/user_maths/cpp_files/user_maths.cpp ****         float len = maxValue - minValue;
 104:ACE_ECF_25-ACE-ECF-CPP-V1.2/Algorithm/user_maths/cpp_files/user_maths.cpp ****         while (Input < minValue)
 105:ACE_ECF_25-ACE-ECF-CPP-V1.2/Algorithm/user_maths/cpp_files/user_maths.cpp ****         {
 106:ACE_ECF_25-ACE-ECF-CPP-V1.2/Algorithm/user_maths/cpp_files/user_maths.cpp ****             Input += len;
 107:ACE_ECF_25-ACE-ECF-CPP-V1.2/Algorithm/user_maths/cpp_files/user_maths.cpp ****         }
 108:ACE_ECF_25-ACE-ECF-CPP-V1.2/Algorithm/user_maths/cpp_files/user_maths.cpp ****     }
 109:ACE_ECF_25-ACE-ECF-CPP-V1.2/Algorithm/user_maths/cpp_files/user_maths.cpp ****     return Input;
 110:ACE_ECF_25-ACE-ECF-CPP-V1.2/Algorithm/user_maths/cpp_files/user_maths.cpp **** }
 469              		.loc 1 110 1 view .LVU92
 470 0028 7047     		bx	lr	@
 471              	.LVL26:
 472              	.L41:
 101:ACE_ECF_25-ACE-ECF-CPP-V1.2/Algorithm/user_maths/cpp_files/user_maths.cpp ****     {
 473              		.loc 1 101 10 is_stmt 1 view .LVU93
 474              	.LBB6:
 475              	.LBB4:
 476 002a F4EEC00A 		vcmpe.f32	s1, s0	@ minValue, Input
 477 002e F1EE10FA 		vmrs	APSR_nzcv, FPSCR
 478 0032 F9DD     		ble	.L29		@,
 479              	.LBB5:
 103:ACE_ECF_25-ACE-ECF-CPP-V1.2/Algorithm/user_maths/cpp_files/user_maths.cpp ****         while (Input < minValue)
 480              		.loc 1 103 9 view .LVU94
 481              	@ ACE_ECF_25-ACE-ECF-CPP-V1.2/Algorithm/user_maths/cpp_files/user_maths.cpp:103:         float len 
 103:ACE_ECF_25-ACE-ECF-CPP-V1.2/Algorithm/user_maths/cpp_files/user_maths.cpp ****         while (Input < minValue)
 482              		.loc 1 103 15 is_stmt 0 view .LVU95
 483 0034 31EE601A 		vsub.f32	s2, s2, s1	@ len, maxValue, minValue
 484              	.LVL27:
 485              	.L36:
 104:ACE_ECF_25-ACE-ECF-CPP-V1.2/Algorithm/user_maths/cpp_files/user_maths.cpp ****         {
 486              		.loc 1 104 9 is_stmt 1 view .LVU96
 104:ACE_ECF_25-ACE-ECF-CPP-V1.2/Algorithm/user_maths/cpp_files/user_maths.cpp ****         {
 487              		.loc 1 104 22 view .LVU97
 488 0038 B4EEE00A 		vcmpe.f32	s0, s1	@ Input, minValue
 489 003c F1EE10FA 		vmrs	APSR_nzcv, FPSCR
 490 0040 F2D5     		bpl	.L29		@,
 106:ACE_ECF_25-ACE-ECF-CPP-V1.2/Algorithm/user_maths/cpp_files/user_maths.cpp ****         }
 491              		.loc 1 106 13 view .LVU98
 492              	@ ACE_ECF_25-ACE-ECF-CPP-V1.2/Algorithm/user_maths/cpp_files/user_maths.cpp:106:             Input 
 106:ACE_ECF_25-ACE-ECF-CPP-V1.2/Algorithm/user_maths/cpp_files/user_maths.cpp ****         }
 493              		.loc 1 106 19 is_stmt 0 view .LVU99
 494 0042 30EE010A 		vadd.f32	s0, s0, s2	@ Input, Input, len
 495              	.LVL28:
 496              	@ ACE_ECF_25-ACE-ECF-CPP-V1.2/Algorithm/user_maths/cpp_files/user_maths.cpp:104:         while (Inp
 104:ACE_ECF_25-ACE-ECF-CPP-V1.2/Algorithm/user_maths/cpp_files/user_maths.cpp ****         {
 497              		.loc 1 104 9 view .LVU100
 498 0046 F7E7     		b	.L36		@
 499              	.LBE5:
 500              	.LBE4:
 501              	.LBE6:
 502              		.cfi_endproc
 503              	.LFE379:
 504              		.size	_ZN12user_maths_c19loop_fp32_constrainEfff, .-_ZN12user_maths_c19loop_fp32_constrainEfff
ARM GAS  C:\Users\30806\AppData\Local\Temp\ccZCY32q.s 			page 12


 505              		.section	.text._ZN12user_maths_c24data_accelerated_controlEPff,"ax",%progbits
 506              		.align	1
 507              		.global	_ZN12user_maths_c24data_accelerated_controlEPff
 508              		.syntax unified
 509              		.thumb
 510              		.thumb_func
 511              		.type	_ZN12user_maths_c24data_accelerated_controlEPff, %function
 512              	_ZN12user_maths_c24data_accelerated_controlEPff:
 513              	.LVL29:
 514              	.LFB380:
 111:ACE_ECF_25-ACE-ECF-CPP-V1.2/Algorithm/user_maths/cpp_files/user_maths.cpp **** 
 112:ACE_ECF_25-ACE-ECF-CPP-V1.2/Algorithm/user_maths/cpp_files/user_maths.cpp **** //斜坡函数(加速度限制)
 113:ACE_ECF_25-ACE-ECF-CPP-V1.2/Algorithm/user_maths/cpp_files/user_maths.cpp **** void user_maths_c::data_accelerated_control(float *input, float acc)
 114:ACE_ECF_25-ACE-ECF-CPP-V1.2/Algorithm/user_maths/cpp_files/user_maths.cpp **** {
 515              		.loc 1 114 1 is_stmt 1 view -0
 516              		.cfi_startproc
 517              		@ args = 0, pretend = 0, frame = 0
 518              		@ frame_needed = 0, uses_anonymous_args = 0
 519              		@ link register save eliminated.
 115:ACE_ECF_25-ACE-ECF-CPP-V1.2/Algorithm/user_maths/cpp_files/user_maths.cpp ****     static int16_t last_num = 0;
 520              		.loc 1 115 5 view .LVU102
 116:ACE_ECF_25-ACE-ECF-CPP-V1.2/Algorithm/user_maths/cpp_files/user_maths.cpp ****     int16_t temp;
 521              		.loc 1 116 5 view .LVU103
 117:ACE_ECF_25-ACE-ECF-CPP-V1.2/Algorithm/user_maths/cpp_files/user_maths.cpp ****     temp = *input - last_num;
 522              		.loc 1 117 5 view .LVU104
 523              	@ ACE_ECF_25-ACE-ECF-CPP-V1.2/Algorithm/user_maths/cpp_files/user_maths.cpp:117:     temp = *input 
 524              		.loc 1 117 12 is_stmt 0 view .LVU105
 525 0000 D1ED007A 		vldr.32	s15, [r1]	@ _1, *input_17(D)
 526              	@ ACE_ECF_25-ACE-ECF-CPP-V1.2/Algorithm/user_maths/cpp_files/user_maths.cpp:117:     temp = *input 
 527              		.loc 1 117 19 view .LVU106
 528 0004 184B     		ldr	r3, .L47	@ tmp131,
 529 0006 B3F90030 		ldrsh	r3, [r3]	@ last_num, last_num
 530 000a 07EE103A 		vmov	s14, r3	@ int	@ last_num, last_num
 531 000e B8EEC77A 		vcvt.f32.s32	s14, s14	@ _3, last_num
 532 0012 77EEC77A 		vsub.f32	s15, s15, s14	@ _4, _1, _3
 533              	@ ACE_ECF_25-ACE-ECF-CPP-V1.2/Algorithm/user_maths/cpp_files/user_maths.cpp:117:     temp = *input 
 534              		.loc 1 117 10 view .LVU107
 535 0016 FDEEE77A 		vcvt.s32.f32	s15, s15	@ tmp134, _4
 536 001a 17EE903A 		vmov	r3, s15	@ int	@ tmp134, tmp134
 537 001e 1BB2     		sxth	r3, r3	@ temp, tmp134
 538              	.LVL30:
 118:ACE_ECF_25-ACE-ECF-CPP-V1.2/Algorithm/user_maths/cpp_files/user_maths.cpp **** 
 119:ACE_ECF_25-ACE-ECF-CPP-V1.2/Algorithm/user_maths/cpp_files/user_maths.cpp ****     if (user_abs(temp) > acc)
 539              		.loc 1 119 5 is_stmt 1 view .LVU108
 540              	@ ACE_ECF_25-ACE-ECF-CPP-V1.2/Algorithm/user_maths/cpp_files/user_maths.cpp:119:     if (user_abs(t
 541              		.loc 1 119 9 is_stmt 0 view .LVU109
 542 0020 83EAE372 		eor	r2, r3, r3, asr #31	@ tmp135, temp, temp,
 543 0024 A2EBE372 		sub	r2, r2, r3, asr #31	@ tmp135, tmp135, temp,
 544 0028 92B2     		uxth	r2, r2	@ _6, tmp135
 545              	@ ACE_ECF_25-ACE-ECF-CPP-V1.2/Algorithm/user_maths/cpp_files/user_maths.cpp:119:     if (user_abs(t
 546              		.loc 1 119 24 view .LVU110
 547 002a 07EE902A 		vmov	s15, r2	@ int	@ _6, _6
 548 002e F8EEE77A 		vcvt.f32.s32	s15, s15	@ _7, _6
 549              	@ ACE_ECF_25-ACE-ECF-CPP-V1.2/Algorithm/user_maths/cpp_files/user_maths.cpp:119:     if (user_abs(t
 550              		.loc 1 119 5 view .LVU111
 551 0032 F4EEC07A 		vcmpe.f32	s15, s0	@ _7, acc
 552 0036 F1EE10FA 		vmrs	APSR_nzcv, FPSCR
ARM GAS  C:\Users\30806\AppData\Local\Temp\ccZCY32q.s 			page 13


 553 003a 0BDD     		ble	.L44		@,
 120:ACE_ECF_25-ACE-ECF-CPP-V1.2/Algorithm/user_maths/cpp_files/user_maths.cpp ****         *input = last_num + temp / user_abs(temp) * acc;
 554              		.loc 1 120 9 is_stmt 1 view .LVU112
 555              	@ ACE_ECF_25-ACE-ECF-CPP-V1.2/Algorithm/user_maths/cpp_files/user_maths.cpp:120:         *input = l
 556              		.loc 1 120 34 is_stmt 0 view .LVU113
 557 003c 93FBF2F3 		sdiv	r3, r3, r2	@ _9, temp, _6
 558              	.LVL31:
 559              	@ ACE_ECF_25-ACE-ECF-CPP-V1.2/Algorithm/user_maths/cpp_files/user_maths.cpp:120:         *input = l
 560              		.loc 1 120 51 view .LVU114
 561 0040 07EE903A 		vmov	s15, r3	@ int	@ _9, _9
 562 0044 F8EEE77A 		vcvt.f32.s32	s15, s15	@ tmp136, _9
 563 0048 27EE800A 		vmul.f32	s0, s15, s0	@ _11, tmp136, acc
 564              	.LVL32:
 565              	@ ACE_ECF_25-ACE-ECF-CPP-V1.2/Algorithm/user_maths/cpp_files/user_maths.cpp:120:         *input = l
 566              		.loc 1 120 27 view .LVU115
 567 004c 37EE000A 		vadd.f32	s0, s14, s0	@ _12, _3, _11
 568              	@ ACE_ECF_25-ACE-ECF-CPP-V1.2/Algorithm/user_maths/cpp_files/user_maths.cpp:120:         *input = l
 569              		.loc 1 120 16 view .LVU116
 570 0050 81ED000A 		vstr.32	s0, [r1]	@ _12, *input_17(D)
 571              	.LVL33:
 572              	.L44:
 121:ACE_ECF_25-ACE-ECF-CPP-V1.2/Algorithm/user_maths/cpp_files/user_maths.cpp **** 
 122:ACE_ECF_25-ACE-ECF-CPP-V1.2/Algorithm/user_maths/cpp_files/user_maths.cpp ****     last_num = *input;
 573              		.loc 1 122 5 is_stmt 1 view .LVU117
 574              	@ ACE_ECF_25-ACE-ECF-CPP-V1.2/Algorithm/user_maths/cpp_files/user_maths.cpp:122:     last_num = *in
 575              		.loc 1 122 16 is_stmt 0 view .LVU118
 576 0054 D1ED007A 		vldr.32	s15, [r1]	@ _13, *input_17(D)
 577              	@ ACE_ECF_25-ACE-ECF-CPP-V1.2/Algorithm/user_maths/cpp_files/user_maths.cpp:122:     last_num = *in
 578              		.loc 1 122 14 view .LVU119
 579 0058 FDEEE77A 		vcvt.s32.f32	s15, s15	@ tmp138, _13
 580 005c 024B     		ldr	r3, .L47	@ tmp137,
 581 005e 17EE902A 		vmov	r2, s15	@ int	@ tmp138, tmp138
 582 0062 1A80     		strh	r2, [r3]	@ movhi	@ tmp138, last_num
 583              	@ ACE_ECF_25-ACE-ECF-CPP-V1.2/Algorithm/user_maths/cpp_files/user_maths.cpp:123: }
 123:ACE_ECF_25-ACE-ECF-CPP-V1.2/Algorithm/user_maths/cpp_files/user_maths.cpp **** }
 584              		.loc 1 123 1 view .LVU120
 585 0064 7047     		bx	lr	@
 586              	.L48:
 587 0066 00BF     		.align	2
 588              	.L47:
 589 0068 00000000 		.word	.LANCHOR0
 590              		.cfi_endproc
 591              	.LFE380:
 592              		.size	_ZN12user_maths_c24data_accelerated_controlEPff, .-_ZN12user_maths_c24data_accelerated_contr
 593              		.section	.text._ZN12user_maths_c15limiting_filterEfff,"ax",%progbits
 594              		.align	1
 595              		.global	_ZN12user_maths_c15limiting_filterEfff
 596              		.syntax unified
 597              		.thumb
 598              		.thumb_func
 599              		.type	_ZN12user_maths_c15limiting_filterEfff, %function
 600              	_ZN12user_maths_c15limiting_filterEfff:
 601              	.LVL34:
 602              	.LFB381:
 124:ACE_ECF_25-ACE-ECF-CPP-V1.2/Algorithm/user_maths/cpp_files/user_maths.cpp **** 
 125:ACE_ECF_25-ACE-ECF-CPP-V1.2/Algorithm/user_maths/cpp_files/user_maths.cpp **** // 限幅滤波函数
 126:ACE_ECF_25-ACE-ECF-CPP-V1.2/Algorithm/user_maths/cpp_files/user_maths.cpp **** float user_maths_c::limiting_filter(float new_value, float last_value, float delat_max)
ARM GAS  C:\Users\30806\AppData\Local\Temp\ccZCY32q.s 			page 14


 127:ACE_ECF_25-ACE-ECF-CPP-V1.2/Algorithm/user_maths/cpp_files/user_maths.cpp **** {
 603              		.loc 1 127 1 is_stmt 1 view -0
 604              		.cfi_startproc
 605              		@ args = 0, pretend = 0, frame = 0
 606              		@ frame_needed = 0, uses_anonymous_args = 0
 607              		@ link register save eliminated.
 608              		.loc 1 127 1 is_stmt 0 view .LVU122
 609 0000 F0EE407A 		vmov.f32	s15, s0	@ new_value, tmp121
 610 0004 B0EE600A 		vmov.f32	s0, s1	@ last_value, tmp122
 611              	.LVL35:
 128:ACE_ECF_25-ACE-ECF-CPP-V1.2/Algorithm/user_maths/cpp_files/user_maths.cpp ****     if ((new_value - last_value > delat_max) || (last_value - new_value > delat_max))
 612              		.loc 1 128 5 is_stmt 1 view .LVU123
 613              	@ ACE_ECF_25-ACE-ECF-CPP-V1.2/Algorithm/user_maths/cpp_files/user_maths.cpp:128:     if ((new_value
 614              		.loc 1 128 20 is_stmt 0 view .LVU124
 615 0008 37EEE07A 		vsub.f32	s14, s15, s1	@ _1, new_value, last_value
 616              	@ ACE_ECF_25-ACE-ECF-CPP-V1.2/Algorithm/user_maths/cpp_files/user_maths.cpp:128:     if ((new_value
 617              		.loc 1 128 5 view .LVU125
 618 000c B4EEC17A 		vcmpe.f32	s14, s2	@ _1, delat_max
 619 0010 F1EE10FA 		vmrs	APSR_nzcv, FPSCR
 620 0014 08DC     		bgt	.L50		@,
 621              	@ ACE_ECF_25-ACE-ECF-CPP-V1.2/Algorithm/user_maths/cpp_files/user_maths.cpp:128:     if ((new_value
 622              		.loc 1 128 61 discriminator 1 view .LVU126
 623 0016 30EEE77A 		vsub.f32	s14, s1, s15	@ _2, last_value, new_value
 624              	@ ACE_ECF_25-ACE-ECF-CPP-V1.2/Algorithm/user_maths/cpp_files/user_maths.cpp:128:     if ((new_value
 625              		.loc 1 128 46 discriminator 1 view .LVU127
 626 001a B4EEC17A 		vcmpe.f32	s14, s2	@ _2, delat_max
 627 001e F1EE10FA 		vmrs	APSR_nzcv, FPSCR
 628 0022 01DC     		bgt	.L50		@,
 629              	@ ACE_ECF_25-ACE-ECF-CPP-V1.2/Algorithm/user_maths/cpp_files/user_maths.cpp:130:     return new_val
 129:ACE_ECF_25-ACE-ECF-CPP-V1.2/Algorithm/user_maths/cpp_files/user_maths.cpp ****         return last_value;
 130:ACE_ECF_25-ACE-ECF-CPP-V1.2/Algorithm/user_maths/cpp_files/user_maths.cpp ****     return new_value;
 630              		.loc 1 130 12 view .LVU128
 631 0024 B0EE670A 		vmov.f32	s0, s15	@ last_value, new_value
 632              	.L50:
 633              	@ ACE_ECF_25-ACE-ECF-CPP-V1.2/Algorithm/user_maths/cpp_files/user_maths.cpp:131: }
 131:ACE_ECF_25-ACE-ECF-CPP-V1.2/Algorithm/user_maths/cpp_files/user_maths.cpp **** }
 634              		.loc 1 131 1 view .LVU129
 635 0028 7047     		bx	lr	@
 636              		.cfi_endproc
 637              	.LFE381:
 638              		.size	_ZN12user_maths_c15limiting_filterEfff, .-_ZN12user_maths_c15limiting_filterEfff
 639              		.section	.text._ZN12user_maths_c13sin_calculateEf,"ax",%progbits
 640              		.align	1
 641              		.global	_ZN12user_maths_c13sin_calculateEf
 642              		.syntax unified
 643              		.thumb
 644              		.thumb_func
 645              		.type	_ZN12user_maths_c13sin_calculateEf, %function
 646              	_ZN12user_maths_c13sin_calculateEf:
 647              	.LVL36:
 648              	.LFB382:
 132:ACE_ECF_25-ACE-ECF-CPP-V1.2/Algorithm/user_maths/cpp_files/user_maths.cpp **** 
 133:ACE_ECF_25-ACE-ECF-CPP-V1.2/Algorithm/user_maths/cpp_files/user_maths.cpp **** // sin函数查表法
 134:ACE_ECF_25-ACE-ECF-CPP-V1.2/Algorithm/user_maths/cpp_files/user_maths.cpp **** float user_maths_c::sin_calculate(float angle)
 135:ACE_ECF_25-ACE-ECF-CPP-V1.2/Algorithm/user_maths/cpp_files/user_maths.cpp **** {
 649              		.loc 1 135 1 is_stmt 1 view -0
 650              		.cfi_startproc
ARM GAS  C:\Users\30806\AppData\Local\Temp\ccZCY32q.s 			page 15


 651              		@ args = 0, pretend = 0, frame = 0
 652              		@ frame_needed = 0, uses_anonymous_args = 0
 653              		@ link register save eliminated.
 136:ACE_ECF_25-ACE-ECF-CPP-V1.2/Algorithm/user_maths/cpp_files/user_maths.cpp ****     float sin_angle = 0.0f;
 654              		.loc 1 136 5 view .LVU131
 137:ACE_ECF_25-ACE-ECF-CPP-V1.2/Algorithm/user_maths/cpp_files/user_maths.cpp **** 
 138:ACE_ECF_25-ACE-ECF-CPP-V1.2/Algorithm/user_maths/cpp_files/user_maths.cpp ****     if (angle >= 0.0f && angle < 90.0f)
 655              		.loc 1 138 5 view .LVU132
 656 0000 B5EEC00A 		vcmpe.f32	s0, #0	@ angle
 657 0004 F1EE10FA 		vmrs	APSR_nzcv, FPSCR
 658 0008 20DB     		blt	.L52		@,
 659              	@ ACE_ECF_25-ACE-ECF-CPP-V1.2/Algorithm/user_maths/cpp_files/user_maths.cpp:138:     if (angle >= 0
 660              		.loc 1 138 23 is_stmt 0 discriminator 1 view .LVU133
 661 000a DFED567A 		vldr.32	s15, .L85	@ tmp135,
 662 000e B4EEE70A 		vcmpe.f32	s0, s15	@ angle, tmp135
 663 0012 F1EE10FA 		vmrs	APSR_nzcv, FPSCR
 664 0016 19D5     		bpl	.L52		@,
 139:ACE_ECF_25-ACE-ECF-CPP-V1.2/Algorithm/user_maths/cpp_files/user_maths.cpp ****         sin_angle = (Trigonometric_Functions[(int)(user_abs(angle) * 10.0f)] / 100.0f);
 665              		.loc 1 139 9 is_stmt 1 view .LVU134
 666              	@ ACE_ECF_25-ACE-ECF-CPP-V1.2/Algorithm/user_maths/cpp_files/user_maths.cpp:139:         sin_angle 
 667              		.loc 1 139 52 is_stmt 0 view .LVU135
 668 0018 B5EEC00A 		vcmpe.f32	s0, #0	@ angle
 669 001c F1EE10FA 		vmrs	APSR_nzcv, FPSCR
 670 0020 11DD     		ble	.L80		@,
 671              	.LVL37:
 672              	.L55:
 673              	@ ACE_ECF_25-ACE-ECF-CPP-V1.2/Algorithm/user_maths/cpp_files/user_maths.cpp:139:         sin_angle 
 674              		.loc 1 139 68 discriminator 4 view .LVU136
 675 0022 F2EE047A 		vmov.f32	s15, #1.0e+1	@ tmp137,
 676 0026 20EE270A 		vmul.f32	s0, s0, s15	@ _1, angle, tmp137
 677              	@ ACE_ECF_25-ACE-ECF-CPP-V1.2/Algorithm/user_maths/cpp_files/user_maths.cpp:139:         sin_angle 
 678              		.loc 1 139 46 discriminator 4 view .LVU137
 679 002a BDEEC00A 		vcvt.s32.f32	s0, s0	@ _2, _1
 680              	@ ACE_ECF_25-ACE-ECF-CPP-V1.2/Algorithm/user_maths/cpp_files/user_maths.cpp:139:         sin_angle 
 681              		.loc 1 139 76 discriminator 4 view .LVU138
 682 002e 4E4B     		ldr	r3, .L85+4	@ tmp138,
 683 0030 10EE102A 		vmov	r2, s0	@ int	@ _2, _2
 684 0034 03EB8203 		add	r3, r3, r2, lsl #2	@ tmp140, tmp138, _2,
 685 0038 93ED007A 		vldr.32	s14, [r3]	@ _3, Trigonometric_Functions[_2]
 686              	@ ACE_ECF_25-ACE-ECF-CPP-V1.2/Algorithm/user_maths/cpp_files/user_maths.cpp:139:         sin_angle 
 687              		.loc 1 139 19 discriminator 4 view .LVU139
 688 003c DFED4B7A 		vldr.32	s15, .L85+8	@ tmp141,
 689 0040 87EE270A 		vdiv.f32	s0, s14, s15	@ <retval>, _3, tmp141
 690              	.LVL38:
 691              		.loc 1 139 19 discriminator 4 view .LVU140
 692 0044 7047     		bx	lr	@
 693              	.LVL39:
 694              	.L80:
 695              	@ ACE_ECF_25-ACE-ECF-CPP-V1.2/Algorithm/user_maths/cpp_files/user_maths.cpp:139:         sin_angle 
 696              		.loc 1 139 52 discriminator 2 view .LVU141
 697 0046 B1EE400A 		vneg.f32	s0, s0	@ angle, angle
 698              	.LVL40:
 699              		.loc 1 139 52 discriminator 2 view .LVU142
 700 004a EAE7     		b	.L55		@
 701              	.LVL41:
 702              	.L52:
 140:ACE_ECF_25-ACE-ECF-CPP-V1.2/Algorithm/user_maths/cpp_files/user_maths.cpp ****     else if (angle >= 90.0f && angle < 180.f)
ARM GAS  C:\Users\30806\AppData\Local\Temp\ccZCY32q.s 			page 16


 703              		.loc 1 140 10 is_stmt 1 view .LVU143
 704 004c DFED457A 		vldr.32	s15, .L85	@ tmp142,
 705 0050 B4EEE70A 		vcmpe.f32	s0, s15	@ angle, tmp142
 706 0054 F1EE10FA 		vmrs	APSR_nzcv, FPSCR
 707 0058 22DB     		blt	.L57		@,
 708              	@ ACE_ECF_25-ACE-ECF-CPP-V1.2/Algorithm/user_maths/cpp_files/user_maths.cpp:140:     else if (angle
 709              		.loc 1 140 29 is_stmt 0 discriminator 1 view .LVU144
 710 005a DFED457A 		vldr.32	s15, .L85+12	@ tmp143,
 711 005e B4EEE70A 		vcmpe.f32	s0, s15	@ angle, tmp143
 712 0062 F1EE10FA 		vmrs	APSR_nzcv, FPSCR
 713 0066 1BD5     		bpl	.L57		@,
 141:ACE_ECF_25-ACE-ECF-CPP-V1.2/Algorithm/user_maths/cpp_files/user_maths.cpp ****         sin_angle = (Trigonometric_Functions[(int)(user_abs(180.0f - angle) * 10.0f)] / 100.0f);
 714              		.loc 1 141 9 is_stmt 1 view .LVU145
 715              	@ ACE_ECF_25-ACE-ECF-CPP-V1.2/Algorithm/user_maths/cpp_files/user_maths.cpp:141:         sin_angle 
 716              		.loc 1 141 52 is_stmt 0 view .LVU146
 717 0068 37EEC00A 		vsub.f32	s0, s15, s0	@ _4, tmp144, angle
 718              	.LVL42:
 719              		.loc 1 141 52 view .LVU147
 720 006c B5EEC00A 		vcmpe.f32	s0, #0	@ _4
 721 0070 F1EE10FA 		vmrs	APSR_nzcv, FPSCR
 722 0074 11DD     		ble	.L81		@,
 723              	.L60:
 724              	@ ACE_ECF_25-ACE-ECF-CPP-V1.2/Algorithm/user_maths/cpp_files/user_maths.cpp:141:         sin_angle 
 725              		.loc 1 141 77 discriminator 4 view .LVU148
 726 0076 F2EE047A 		vmov.f32	s15, #1.0e+1	@ tmp146,
 727 007a 20EE270A 		vmul.f32	s0, s0, s15	@ _5, _4, tmp146
 728              	@ ACE_ECF_25-ACE-ECF-CPP-V1.2/Algorithm/user_maths/cpp_files/user_maths.cpp:141:         sin_angle 
 729              		.loc 1 141 46 discriminator 4 view .LVU149
 730 007e BDEEC00A 		vcvt.s32.f32	s0, s0	@ _6, _5
 731              	@ ACE_ECF_25-ACE-ECF-CPP-V1.2/Algorithm/user_maths/cpp_files/user_maths.cpp:141:         sin_angle 
 732              		.loc 1 141 85 discriminator 4 view .LVU150
 733 0082 394B     		ldr	r3, .L85+4	@ tmp147,
 734 0084 10EE102A 		vmov	r2, s0	@ int	@ _6, _6
 735 0088 03EB8203 		add	r3, r3, r2, lsl #2	@ tmp149, tmp147, _6,
 736 008c 93ED007A 		vldr.32	s14, [r3]	@ _7, Trigonometric_Functions[_6]
 737              	@ ACE_ECF_25-ACE-ECF-CPP-V1.2/Algorithm/user_maths/cpp_files/user_maths.cpp:141:         sin_angle 
 738              		.loc 1 141 19 discriminator 4 view .LVU151
 739 0090 DFED367A 		vldr.32	s15, .L85+8	@ tmp150,
 740 0094 87EE270A 		vdiv.f32	s0, s14, s15	@ <retval>, _7, tmp150
 741              	.LVL43:
 742              		.loc 1 141 19 discriminator 4 view .LVU152
 743 0098 7047     		bx	lr	@
 744              	.LVL44:
 745              	.L81:
 746              	@ ACE_ECF_25-ACE-ECF-CPP-V1.2/Algorithm/user_maths/cpp_files/user_maths.cpp:141:         sin_angle 
 747              		.loc 1 141 52 discriminator 2 view .LVU153
 748 009a B1EE400A 		vneg.f32	s0, s0	@ _4, _4
 749 009e EAE7     		b	.L60		@
 750              	.LVL45:
 751              	.L57:
 142:ACE_ECF_25-ACE-ECF-CPP-V1.2/Algorithm/user_maths/cpp_files/user_maths.cpp ****     else if (angle >= -180.0f && angle < -90.f)
 752              		.loc 1 142 10 is_stmt 1 view .LVU154
 753 00a0 DFED347A 		vldr.32	s15, .L85+16	@ tmp151,
 754 00a4 B4EEE70A 		vcmpe.f32	s0, s15	@ angle, tmp151
 755 00a8 F1EE10FA 		vmrs	APSR_nzcv, FPSCR
 756 00ac 26DB     		blt	.L61		@,
 757              	@ ACE_ECF_25-ACE-ECF-CPP-V1.2/Algorithm/user_maths/cpp_files/user_maths.cpp:142:     else if (angle
ARM GAS  C:\Users\30806\AppData\Local\Temp\ccZCY32q.s 			page 17


 758              		.loc 1 142 31 is_stmt 0 discriminator 1 view .LVU155
 759 00ae DFED327A 		vldr.32	s15, .L85+20	@ tmp152,
 760 00b2 B4EEE70A 		vcmpe.f32	s0, s15	@ angle, tmp152
 761 00b6 F1EE10FA 		vmrs	APSR_nzcv, FPSCR
 762 00ba 1FD5     		bpl	.L61		@,
 143:ACE_ECF_25-ACE-ECF-CPP-V1.2/Algorithm/user_maths/cpp_files/user_maths.cpp ****         sin_angle = -(Trigonometric_Functions[(int)(user_abs(180.0f + angle) * 10.0f)] / 100.0f);
 763              		.loc 1 143 9 is_stmt 1 view .LVU156
 764              	@ ACE_ECF_25-ACE-ECF-CPP-V1.2/Algorithm/user_maths/cpp_files/user_maths.cpp:143:         sin_angle 
 765              		.loc 1 143 53 is_stmt 0 view .LVU157
 766 00bc DFED2C7A 		vldr.32	s15, .L85+12	@ tmp153,
 767 00c0 30EE270A 		vadd.f32	s0, s0, s15	@ _8, angle, tmp153
 768              	.LVL46:
 769              		.loc 1 143 53 view .LVU158
 770 00c4 B5EEC00A 		vcmpe.f32	s0, #0	@ _8
 771 00c8 F1EE10FA 		vmrs	APSR_nzcv, FPSCR
 772 00cc 13DD     		ble	.L82		@,
 773              	.L64:
 774              	@ ACE_ECF_25-ACE-ECF-CPP-V1.2/Algorithm/user_maths/cpp_files/user_maths.cpp:143:         sin_angle 
 775              		.loc 1 143 78 discriminator 4 view .LVU159
 776 00ce F2EE047A 		vmov.f32	s15, #1.0e+1	@ tmp155,
 777 00d2 20EE270A 		vmul.f32	s0, s0, s15	@ _9, _8, tmp155
 778              	@ ACE_ECF_25-ACE-ECF-CPP-V1.2/Algorithm/user_maths/cpp_files/user_maths.cpp:143:         sin_angle 
 779              		.loc 1 143 47 discriminator 4 view .LVU160
 780 00d6 BDEEC00A 		vcvt.s32.f32	s0, s0	@ _10, _9
 781              	@ ACE_ECF_25-ACE-ECF-CPP-V1.2/Algorithm/user_maths/cpp_files/user_maths.cpp:143:         sin_angle 
 782              		.loc 1 143 86 discriminator 4 view .LVU161
 783 00da 234B     		ldr	r3, .L85+4	@ tmp156,
 784 00dc 10EE102A 		vmov	r2, s0	@ int	@ _10, _10
 785 00e0 03EB8203 		add	r3, r3, r2, lsl #2	@ tmp158, tmp156, _10,
 786 00e4 93ED007A 		vldr.32	s14, [r3]	@ _11, Trigonometric_Functions[_10]
 787              	@ ACE_ECF_25-ACE-ECF-CPP-V1.2/Algorithm/user_maths/cpp_files/user_maths.cpp:143:         sin_angle 
 788              		.loc 1 143 88 discriminator 4 view .LVU162
 789 00e8 DFED207A 		vldr.32	s15, .L85+8	@ tmp159,
 790 00ec 87EE270A 		vdiv.f32	s0, s14, s15	@ _12, _11, tmp159
 791              	@ ACE_ECF_25-ACE-ECF-CPP-V1.2/Algorithm/user_maths/cpp_files/user_maths.cpp:143:         sin_angle 
 792              		.loc 1 143 19 discriminator 4 view .LVU163
 793 00f0 B1EE400A 		vneg.f32	s0, s0	@ <retval>, _12
 794              	.LVL47:
 795              		.loc 1 143 19 discriminator 4 view .LVU164
 796 00f4 7047     		bx	lr	@
 797              	.LVL48:
 798              	.L82:
 799              	@ ACE_ECF_25-ACE-ECF-CPP-V1.2/Algorithm/user_maths/cpp_files/user_maths.cpp:143:         sin_angle 
 800              		.loc 1 143 53 discriminator 2 view .LVU165
 801 00f6 B1EE400A 		vneg.f32	s0, s0	@ _8, _8
 802 00fa E8E7     		b	.L64		@
 803              	.LVL49:
 804              	.L61:
 144:ACE_ECF_25-ACE-ECF-CPP-V1.2/Algorithm/user_maths/cpp_files/user_maths.cpp ****     else if (angle >= -90.0f && angle < 0.f)
 805              		.loc 1 144 10 is_stmt 1 view .LVU166
 806 00fc DFED1E7A 		vldr.32	s15, .L85+20	@ tmp160,
 807 0100 B4EEE70A 		vcmpe.f32	s0, s15	@ angle, tmp160
 808 0104 F1EE10FA 		vmrs	APSR_nzcv, FPSCR
 809 0108 29DB     		blt	.L78		@,
 810              	@ ACE_ECF_25-ACE-ECF-CPP-V1.2/Algorithm/user_maths/cpp_files/user_maths.cpp:144:     else if (angle
 811              		.loc 1 144 30 is_stmt 0 discriminator 1 view .LVU167
 812 010a B5EEC00A 		vcmpe.f32	s0, #0	@ angle
ARM GAS  C:\Users\30806\AppData\Local\Temp\ccZCY32q.s 			page 18


 813 010e F1EE10FA 		vmrs	APSR_nzcv, FPSCR
 814 0112 02D4     		bmi	.L83		@,
 815              	@ ACE_ECF_25-ACE-ECF-CPP-V1.2/Algorithm/user_maths/cpp_files/user_maths.cpp:136:     float sin_angl
 136:ACE_ECF_25-ACE-ECF-CPP-V1.2/Algorithm/user_maths/cpp_files/user_maths.cpp **** 
 816              		.loc 1 136 11 view .LVU168
 817 0114 9FED190A 		vldr.32	s0, .L85+24	@ <retval>,
 818              	.LVL50:
 145:ACE_ECF_25-ACE-ECF-CPP-V1.2/Algorithm/user_maths/cpp_files/user_maths.cpp ****         sin_angle = -(Trigonometric_Functions[(int)(user_abs(180.0f - (180.0f + angle)) * 10.0f)] /
 146:ACE_ECF_25-ACE-ECF-CPP-V1.2/Algorithm/user_maths/cpp_files/user_maths.cpp ****     else if (angle == 180.f)
 147:ACE_ECF_25-ACE-ECF-CPP-V1.2/Algorithm/user_maths/cpp_files/user_maths.cpp ****         sin_angle = 0.0f;
 148:ACE_ECF_25-ACE-ECF-CPP-V1.2/Algorithm/user_maths/cpp_files/user_maths.cpp **** 
 149:ACE_ECF_25-ACE-ECF-CPP-V1.2/Algorithm/user_maths/cpp_files/user_maths.cpp ****     return sin_angle;
 819              		.loc 1 149 5 is_stmt 1 view .LVU169
 820              	@ ACE_ECF_25-ACE-ECF-CPP-V1.2/Algorithm/user_maths/cpp_files/user_maths.cpp:150: }
 150:ACE_ECF_25-ACE-ECF-CPP-V1.2/Algorithm/user_maths/cpp_files/user_maths.cpp **** }
 821              		.loc 1 150 1 is_stmt 0 view .LVU170
 822 0118 7047     		bx	lr	@
 823              	.LVL51:
 824              	.L83:
 145:ACE_ECF_25-ACE-ECF-CPP-V1.2/Algorithm/user_maths/cpp_files/user_maths.cpp ****         sin_angle = -(Trigonometric_Functions[(int)(user_abs(180.0f - (180.0f + angle)) * 10.0f)] /
 825              		.loc 1 145 9 is_stmt 1 view .LVU171
 826              	@ ACE_ECF_25-ACE-ECF-CPP-V1.2/Algorithm/user_maths/cpp_files/user_maths.cpp:145:         sin_angle 
 145:ACE_ECF_25-ACE-ECF-CPP-V1.2/Algorithm/user_maths/cpp_files/user_maths.cpp ****         sin_angle = -(Trigonometric_Functions[(int)(user_abs(180.0f - (180.0f + angle)) * 10.0f)] /
 827              		.loc 1 145 53 is_stmt 0 view .LVU172
 828 011a DFED157A 		vldr.32	s15, .L85+12	@ tmp162,
 829 011e 30EE270A 		vadd.f32	s0, s0, s15	@ _13, angle, tmp162
 830              	.LVL52:
 145:ACE_ECF_25-ACE-ECF-CPP-V1.2/Algorithm/user_maths/cpp_files/user_maths.cpp ****         sin_angle = -(Trigonometric_Functions[(int)(user_abs(180.0f - (180.0f + angle)) * 10.0f)] /
 831              		.loc 1 145 53 view .LVU173
 832 0122 37EEC00A 		vsub.f32	s0, s15, s0	@ _14, tmp162, _13
 833 0126 B5EEC00A 		vcmpe.f32	s0, #0	@ _14
 834 012a F1EE10FA 		vmrs	APSR_nzcv, FPSCR
 835 012e 13DD     		ble	.L84		@,
 836              	.L67:
 837              	@ ACE_ECF_25-ACE-ECF-CPP-V1.2/Algorithm/user_maths/cpp_files/user_maths.cpp:145:         sin_angle 
 145:ACE_ECF_25-ACE-ECF-CPP-V1.2/Algorithm/user_maths/cpp_files/user_maths.cpp ****         sin_angle = -(Trigonometric_Functions[(int)(user_abs(180.0f - (180.0f + angle)) * 10.0f)] /
 838              		.loc 1 145 89 discriminator 4 view .LVU174
 839 0130 F2EE047A 		vmov.f32	s15, #1.0e+1	@ tmp165,
 840 0134 20EE270A 		vmul.f32	s0, s0, s15	@ _15, _14, tmp165
 841              	@ ACE_ECF_25-ACE-ECF-CPP-V1.2/Algorithm/user_maths/cpp_files/user_maths.cpp:145:         sin_angle 
 145:ACE_ECF_25-ACE-ECF-CPP-V1.2/Algorithm/user_maths/cpp_files/user_maths.cpp ****         sin_angle = -(Trigonometric_Functions[(int)(user_abs(180.0f - (180.0f + angle)) * 10.0f)] /
 842              		.loc 1 145 47 discriminator 4 view .LVU175
 843 0138 BDEEC00A 		vcvt.s32.f32	s0, s0	@ _16, _15
 844              	@ ACE_ECF_25-ACE-ECF-CPP-V1.2/Algorithm/user_maths/cpp_files/user_maths.cpp:145:         sin_angle 
 145:ACE_ECF_25-ACE-ECF-CPP-V1.2/Algorithm/user_maths/cpp_files/user_maths.cpp ****         sin_angle = -(Trigonometric_Functions[(int)(user_abs(180.0f - (180.0f + angle)) * 10.0f)] /
 845              		.loc 1 145 97 discriminator 4 view .LVU176
 846 013c 0A4B     		ldr	r3, .L85+4	@ tmp166,
 847 013e 10EE102A 		vmov	r2, s0	@ int	@ _16, _16
 848 0142 03EB8203 		add	r3, r3, r2, lsl #2	@ tmp168, tmp166, _16,
 849 0146 93ED007A 		vldr.32	s14, [r3]	@ _17, Trigonometric_Functions[_16]
 850              	@ ACE_ECF_25-ACE-ECF-CPP-V1.2/Algorithm/user_maths/cpp_files/user_maths.cpp:145:         sin_angle 
 145:ACE_ECF_25-ACE-ECF-CPP-V1.2/Algorithm/user_maths/cpp_files/user_maths.cpp ****         sin_angle = -(Trigonometric_Functions[(int)(user_abs(180.0f - (180.0f + angle)) * 10.0f)] /
 851              		.loc 1 145 99 discriminator 4 view .LVU177
 852 014a DFED087A 		vldr.32	s15, .L85+8	@ tmp169,
 853 014e 87EE270A 		vdiv.f32	s0, s14, s15	@ _18, _17, tmp169
 854              	@ ACE_ECF_25-ACE-ECF-CPP-V1.2/Algorithm/user_maths/cpp_files/user_maths.cpp:145:         sin_angle 
 145:ACE_ECF_25-ACE-ECF-CPP-V1.2/Algorithm/user_maths/cpp_files/user_maths.cpp ****         sin_angle = -(Trigonometric_Functions[(int)(user_abs(180.0f - (180.0f + angle)) * 10.0f)] /
ARM GAS  C:\Users\30806\AppData\Local\Temp\ccZCY32q.s 			page 19


 855              		.loc 1 145 19 discriminator 4 view .LVU178
 856 0152 B1EE400A 		vneg.f32	s0, s0	@ <retval>, _18
 857              	.LVL53:
 145:ACE_ECF_25-ACE-ECF-CPP-V1.2/Algorithm/user_maths/cpp_files/user_maths.cpp ****         sin_angle = -(Trigonometric_Functions[(int)(user_abs(180.0f - (180.0f + angle)) * 10.0f)] /
 858              		.loc 1 145 19 discriminator 4 view .LVU179
 859 0156 7047     		bx	lr	@
 860              	.LVL54:
 861              	.L84:
 862              	@ ACE_ECF_25-ACE-ECF-CPP-V1.2/Algorithm/user_maths/cpp_files/user_maths.cpp:145:         sin_angle 
 145:ACE_ECF_25-ACE-ECF-CPP-V1.2/Algorithm/user_maths/cpp_files/user_maths.cpp ****         sin_angle = -(Trigonometric_Functions[(int)(user_abs(180.0f - (180.0f + angle)) * 10.0f)] /
 863              		.loc 1 145 53 discriminator 2 view .LVU180
 864 0158 B1EE400A 		vneg.f32	s0, s0	@ _14, _14
 865 015c E8E7     		b	.L67		@
 866              	.LVL55:
 867              	.L78:
 868              	@ ACE_ECF_25-ACE-ECF-CPP-V1.2/Algorithm/user_maths/cpp_files/user_maths.cpp:136:     float sin_angl
 136:ACE_ECF_25-ACE-ECF-CPP-V1.2/Algorithm/user_maths/cpp_files/user_maths.cpp **** 
 869              		.loc 1 136 11 view .LVU181
 870 015e 9FED070A 		vldr.32	s0, .L85+24	@ <retval>,
 871              	.LVL56:
 136:ACE_ECF_25-ACE-ECF-CPP-V1.2/Algorithm/user_maths/cpp_files/user_maths.cpp **** 
 872              		.loc 1 136 11 view .LVU182
 873 0162 7047     		bx	lr	@
 874              	.L86:
 875              		.align	2
 876              	.L85:
 877 0164 0000B442 		.word	1119092736
 878 0168 00000000 		.word	.LANCHOR1
 879 016c 0000C842 		.word	1120403456
 880 0170 00003443 		.word	1127481344
 881 0174 000034C3 		.word	-1020002304
 882 0178 0000B4C2 		.word	-1028390912
 883 017c 00000000 		.word	0
 884              		.cfi_endproc
 885              	.LFE382:
 886              		.size	_ZN12user_maths_c13sin_calculateEf, .-_ZN12user_maths_c13sin_calculateEf
 887              		.section	.text._ZN12user_maths_c13cos_calculateEf,"ax",%progbits
 888              		.align	1
 889              		.global	_ZN12user_maths_c13cos_calculateEf
 890              		.syntax unified
 891              		.thumb
 892              		.thumb_func
 893              		.type	_ZN12user_maths_c13cos_calculateEf, %function
 894              	_ZN12user_maths_c13cos_calculateEf:
 895              	.LVL57:
 896              	.LFB383:
 151:ACE_ECF_25-ACE-ECF-CPP-V1.2/Algorithm/user_maths/cpp_files/user_maths.cpp **** 
 152:ACE_ECF_25-ACE-ECF-CPP-V1.2/Algorithm/user_maths/cpp_files/user_maths.cpp **** // cos函数查表法
 153:ACE_ECF_25-ACE-ECF-CPP-V1.2/Algorithm/user_maths/cpp_files/user_maths.cpp **** float user_maths_c::cos_calculate(float angle)
 154:ACE_ECF_25-ACE-ECF-CPP-V1.2/Algorithm/user_maths/cpp_files/user_maths.cpp **** {
 897              		.loc 1 154 1 is_stmt 1 view -0
 898              		.cfi_startproc
 899              		@ args = 0, pretend = 0, frame = 0
 900              		@ frame_needed = 0, uses_anonymous_args = 0
 901              		@ link register save eliminated.
 155:ACE_ECF_25-ACE-ECF-CPP-V1.2/Algorithm/user_maths/cpp_files/user_maths.cpp ****     float cos_angle = 0.0f;
 902              		.loc 1 155 5 view .LVU184
ARM GAS  C:\Users\30806\AppData\Local\Temp\ccZCY32q.s 			page 20


 156:ACE_ECF_25-ACE-ECF-CPP-V1.2/Algorithm/user_maths/cpp_files/user_maths.cpp **** 
 157:ACE_ECF_25-ACE-ECF-CPP-V1.2/Algorithm/user_maths/cpp_files/user_maths.cpp ****     angle = user_abs(angle);
 903              		.loc 1 157 5 view .LVU185
 904              	@ ACE_ECF_25-ACE-ECF-CPP-V1.2/Algorithm/user_maths/cpp_files/user_maths.cpp:157:     angle = user_a
 905              		.loc 1 157 13 is_stmt 0 view .LVU186
 906 0000 B5EEC00A 		vcmpe.f32	s0, #0	@ angle
 907 0004 F1EE10FA 		vmrs	APSR_nzcv, FPSCR
 908 0008 24DD     		ble	.L103		@,
 909              	.LVL58:
 910              	.L88:
 158:ACE_ECF_25-ACE-ECF-CPP-V1.2/Algorithm/user_maths/cpp_files/user_maths.cpp **** 
 159:ACE_ECF_25-ACE-ECF-CPP-V1.2/Algorithm/user_maths/cpp_files/user_maths.cpp ****     if (angle >= 0.0f && angle < 90.0f)
 911              		.loc 1 159 5 is_stmt 1 discriminator 4 view .LVU187
 912 000a B5EEC00A 		vcmpe.f32	s0, #0	@ angle
 913 000e F1EE10FA 		vmrs	APSR_nzcv, FPSCR
 914 0012 25DB     		blt	.L89		@,
 915              	@ ACE_ECF_25-ACE-ECF-CPP-V1.2/Algorithm/user_maths/cpp_files/user_maths.cpp:159:     if (angle >= 0
 916              		.loc 1 159 23 is_stmt 0 discriminator 1 view .LVU188
 917 0014 DFED307A 		vldr.32	s15, .L106	@ tmp127,
 918 0018 B4EEE70A 		vcmpe.f32	s0, s15	@ angle, tmp127
 919 001c F1EE10FA 		vmrs	APSR_nzcv, FPSCR
 920 0020 1ED5     		bpl	.L89		@,
 160:ACE_ECF_25-ACE-ECF-CPP-V1.2/Algorithm/user_maths/cpp_files/user_maths.cpp ****         cos_angle = (Trigonometric_Functions[(int)(user_abs(90.0f - angle) * 10.0f)] / 100.0f);
 921              		.loc 1 160 9 is_stmt 1 view .LVU189
 922              	@ ACE_ECF_25-ACE-ECF-CPP-V1.2/Algorithm/user_maths/cpp_files/user_maths.cpp:160:         cos_angle 
 923              		.loc 1 160 52 is_stmt 0 view .LVU190
 924 0022 37EEC00A 		vsub.f32	s0, s15, s0	@ _1, tmp128, angle
 925              	.LVL59:
 926              		.loc 1 160 52 view .LVU191
 927 0026 B5EEC00A 		vcmpe.f32	s0, #0	@ _1
 928 002a F1EE10FA 		vmrs	APSR_nzcv, FPSCR
 929 002e 14DD     		ble	.L104		@,
 930              	.L92:
 931              	@ ACE_ECF_25-ACE-ECF-CPP-V1.2/Algorithm/user_maths/cpp_files/user_maths.cpp:160:         cos_angle 
 932              		.loc 1 160 76 discriminator 4 view .LVU192
 933 0030 F2EE047A 		vmov.f32	s15, #1.0e+1	@ tmp130,
 934 0034 20EE270A 		vmul.f32	s0, s0, s15	@ _2, _1, tmp130
 935              	@ ACE_ECF_25-ACE-ECF-CPP-V1.2/Algorithm/user_maths/cpp_files/user_maths.cpp:160:         cos_angle 
 936              		.loc 1 160 46 discriminator 4 view .LVU193
 937 0038 BDEEC00A 		vcvt.s32.f32	s0, s0	@ _3, _2
 938              	@ ACE_ECF_25-ACE-ECF-CPP-V1.2/Algorithm/user_maths/cpp_files/user_maths.cpp:160:         cos_angle 
 939              		.loc 1 160 84 discriminator 4 view .LVU194
 940 003c 274B     		ldr	r3, .L106+4	@ tmp131,
 941 003e 10EE102A 		vmov	r2, s0	@ int	@ _3, _3
 942 0042 03EB8203 		add	r3, r3, r2, lsl #2	@ tmp133, tmp131, _3,
 943 0046 93ED007A 		vldr.32	s14, [r3]	@ _4, Trigonometric_Functions[_3]
 944              	@ ACE_ECF_25-ACE-ECF-CPP-V1.2/Algorithm/user_maths/cpp_files/user_maths.cpp:160:         cos_angle 
 945              		.loc 1 160 19 discriminator 4 view .LVU195
 946 004a DFED257A 		vldr.32	s15, .L106+8	@ tmp134,
 947 004e 87EE270A 		vdiv.f32	s0, s14, s15	@ <retval>, _4, tmp134
 948              	.LVL60:
 949              		.loc 1 160 19 discriminator 4 view .LVU196
 950 0052 7047     		bx	lr	@
 951              	.LVL61:
 952              	.L103:
 953              	@ ACE_ECF_25-ACE-ECF-CPP-V1.2/Algorithm/user_maths/cpp_files/user_maths.cpp:157:     angle = user_a
 157:ACE_ECF_25-ACE-ECF-CPP-V1.2/Algorithm/user_maths/cpp_files/user_maths.cpp **** 
ARM GAS  C:\Users\30806\AppData\Local\Temp\ccZCY32q.s 			page 21


 954              		.loc 1 157 13 discriminator 2 view .LVU197
 955 0054 B1EE400A 		vneg.f32	s0, s0	@ angle, angle
 956              	.LVL62:
 157:ACE_ECF_25-ACE-ECF-CPP-V1.2/Algorithm/user_maths/cpp_files/user_maths.cpp **** 
 957              		.loc 1 157 13 discriminator 2 view .LVU198
 958 0058 D7E7     		b	.L88		@
 959              	.LVL63:
 960              	.L104:
 961              	@ ACE_ECF_25-ACE-ECF-CPP-V1.2/Algorithm/user_maths/cpp_files/user_maths.cpp:160:         cos_angle 
 962              		.loc 1 160 52 discriminator 2 view .LVU199
 963 005a B1EE400A 		vneg.f32	s0, s0	@ _1, _1
 964 005e E7E7     		b	.L92		@
 965              	.LVL64:
 966              	.L89:
 161:ACE_ECF_25-ACE-ECF-CPP-V1.2/Algorithm/user_maths/cpp_files/user_maths.cpp ****     else if (angle >= 90.0f && angle < 180.f)
 967              		.loc 1 161 10 is_stmt 1 view .LVU200
 968 0060 DFED1D7A 		vldr.32	s15, .L106	@ tmp135,
 969 0064 B4EEE70A 		vcmpe.f32	s0, s15	@ angle, tmp135
 970 0068 F1EE10FA 		vmrs	APSR_nzcv, FPSCR
 971 006c 26DB     		blt	.L94		@,
 972              	@ ACE_ECF_25-ACE-ECF-CPP-V1.2/Algorithm/user_maths/cpp_files/user_maths.cpp:161:     else if (angle
 973              		.loc 1 161 29 is_stmt 0 discriminator 1 view .LVU201
 974 006e DFED1D7A 		vldr.32	s15, .L106+12	@ tmp136,
 975 0072 B4EEE70A 		vcmpe.f32	s0, s15	@ angle, tmp136
 976 0076 F1EE10FA 		vmrs	APSR_nzcv, FPSCR
 977 007a 1FD5     		bpl	.L94		@,
 162:ACE_ECF_25-ACE-ECF-CPP-V1.2/Algorithm/user_maths/cpp_files/user_maths.cpp ****         cos_angle = -(Trigonometric_Functions[(int)(user_abs(angle - 90.0f) * 10.0f)] / 100.0f);
 978              		.loc 1 162 9 is_stmt 1 view .LVU202
 979              	@ ACE_ECF_25-ACE-ECF-CPP-V1.2/Algorithm/user_maths/cpp_files/user_maths.cpp:162:         cos_angle 
 980              		.loc 1 162 53 is_stmt 0 view .LVU203
 981 007c DFED167A 		vldr.32	s15, .L106	@ tmp137,
 982 0080 30EE670A 		vsub.f32	s0, s0, s15	@ _5, angle, tmp137
 983              	.LVL65:
 984              		.loc 1 162 53 view .LVU204
 985 0084 B5EEC00A 		vcmpe.f32	s0, #0	@ _5
 986 0088 F1EE10FA 		vmrs	APSR_nzcv, FPSCR
 987 008c 13DD     		ble	.L105		@,
 988              	.L97:
 989              	@ ACE_ECF_25-ACE-ECF-CPP-V1.2/Algorithm/user_maths/cpp_files/user_maths.cpp:162:         cos_angle 
 990              		.loc 1 162 77 discriminator 4 view .LVU205
 991 008e F2EE047A 		vmov.f32	s15, #1.0e+1	@ tmp139,
 992 0092 20EE270A 		vmul.f32	s0, s0, s15	@ _6, _5, tmp139
 993              	@ ACE_ECF_25-ACE-ECF-CPP-V1.2/Algorithm/user_maths/cpp_files/user_maths.cpp:162:         cos_angle 
 994              		.loc 1 162 47 discriminator 4 view .LVU206
 995 0096 BDEEC00A 		vcvt.s32.f32	s0, s0	@ _7, _6
 996              	@ ACE_ECF_25-ACE-ECF-CPP-V1.2/Algorithm/user_maths/cpp_files/user_maths.cpp:162:         cos_angle 
 997              		.loc 1 162 85 discriminator 4 view .LVU207
 998 009a 104B     		ldr	r3, .L106+4	@ tmp140,
 999 009c 10EE102A 		vmov	r2, s0	@ int	@ _7, _7
 1000 00a0 03EB8203 		add	r3, r3, r2, lsl #2	@ tmp142, tmp140, _7,
 1001 00a4 93ED007A 		vldr.32	s14, [r3]	@ _8, Trigonometric_Functions[_7]
 1002              	@ ACE_ECF_25-ACE-ECF-CPP-V1.2/Algorithm/user_maths/cpp_files/user_maths.cpp:162:         cos_angle 
 1003              		.loc 1 162 87 discriminator 4 view .LVU208
 1004 00a8 DFED0D7A 		vldr.32	s15, .L106+8	@ tmp143,
 1005 00ac 87EE270A 		vdiv.f32	s0, s14, s15	@ _9, _8, tmp143
 1006              	@ ACE_ECF_25-ACE-ECF-CPP-V1.2/Algorithm/user_maths/cpp_files/user_maths.cpp:162:         cos_angle 
 1007              		.loc 1 162 19 discriminator 4 view .LVU209
ARM GAS  C:\Users\30806\AppData\Local\Temp\ccZCY32q.s 			page 22


 1008 00b0 B1EE400A 		vneg.f32	s0, s0	@ <retval>, _9
 1009              	.LVL66:
 1010              		.loc 1 162 19 discriminator 4 view .LVU210
 1011 00b4 7047     		bx	lr	@
 1012              	.LVL67:
 1013              	.L105:
 1014              	@ ACE_ECF_25-ACE-ECF-CPP-V1.2/Algorithm/user_maths/cpp_files/user_maths.cpp:162:         cos_angle 
 1015              		.loc 1 162 53 discriminator 2 view .LVU211
 1016 00b6 B1EE400A 		vneg.f32	s0, s0	@ _5, _5
 1017 00ba E8E7     		b	.L97		@
 1018              	.LVL68:
 1019              	.L94:
 163:ACE_ECF_25-ACE-ECF-CPP-V1.2/Algorithm/user_maths/cpp_files/user_maths.cpp ****     else if (angle == 180.f)
 1020              		.loc 1 163 10 is_stmt 1 view .LVU212
 1021 00bc DFED097A 		vldr.32	s15, .L106+12	@ tmp144,
 1022 00c0 B4EE670A 		vcmp.f32	s0, s15	@ angle, tmp144
 1023 00c4 F1EE10FA 		vmrs	APSR_nzcv, FPSCR
 1024 00c8 02D0     		beq	.L98		@,
 1025              	@ ACE_ECF_25-ACE-ECF-CPP-V1.2/Algorithm/user_maths/cpp_files/user_maths.cpp:155:     float cos_angl
 155:ACE_ECF_25-ACE-ECF-CPP-V1.2/Algorithm/user_maths/cpp_files/user_maths.cpp **** 
 1026              		.loc 1 155 11 is_stmt 0 view .LVU213
 1027 00ca 9FED070A 		vldr.32	s0, .L106+16	@ <retval>,
 1028              	.LVL69:
 155:ACE_ECF_25-ACE-ECF-CPP-V1.2/Algorithm/user_maths/cpp_files/user_maths.cpp **** 
 1029              		.loc 1 155 11 view .LVU214
 1030 00ce 7047     		bx	lr	@
 1031              	.LVL70:
 1032              	.L98:
 1033              	@ ACE_ECF_25-ACE-ECF-CPP-V1.2/Algorithm/user_maths/cpp_files/user_maths.cpp:164:         cos_angle 
 164:ACE_ECF_25-ACE-ECF-CPP-V1.2/Algorithm/user_maths/cpp_files/user_maths.cpp ****         cos_angle = -1.0f;
 1034              		.loc 1 164 19 view .LVU215
 1035 00d0 BFEE000A 		vmov.f32	s0, #-1.0e+0	@ <retval>,
 1036              	.LVL71:
 165:ACE_ECF_25-ACE-ECF-CPP-V1.2/Algorithm/user_maths/cpp_files/user_maths.cpp **** 
 166:ACE_ECF_25-ACE-ECF-CPP-V1.2/Algorithm/user_maths/cpp_files/user_maths.cpp ****     return cos_angle;
 1037              		.loc 1 166 5 is_stmt 1 view .LVU216
 1038              	@ ACE_ECF_25-ACE-ECF-CPP-V1.2/Algorithm/user_maths/cpp_files/user_maths.cpp:167: }
 167:ACE_ECF_25-ACE-ECF-CPP-V1.2/Algorithm/user_maths/cpp_files/user_maths.cpp **** }
 1039              		.loc 1 167 1 is_stmt 0 view .LVU217
 1040 00d4 7047     		bx	lr	@
 1041              	.L107:
 1042 00d6 00BF     		.align	2
 1043              	.L106:
 1044 00d8 0000B442 		.word	1119092736
 1045 00dc 00000000 		.word	.LANCHOR1
 1046 00e0 0000C842 		.word	1120403456
 1047 00e4 00003443 		.word	1127481344
 1048 00e8 00000000 		.word	0
 1049              		.cfi_endproc
 1050              	.LFE383:
 1051              		.size	_ZN12user_maths_c13cos_calculateEf, .-_ZN12user_maths_c13cos_calculateEf
 1052              		.section	.text._ZN12user_maths_c18float_min_distanceEffff,"ax",%progbits
 1053              		.align	1
 1054              		.global	_ZN12user_maths_c18float_min_distanceEffff
 1055              		.syntax unified
 1056              		.thumb
 1057              		.thumb_func
ARM GAS  C:\Users\30806\AppData\Local\Temp\ccZCY32q.s 			page 23


 1058              		.type	_ZN12user_maths_c18float_min_distanceEffff, %function
 1059              	_ZN12user_maths_c18float_min_distanceEffff:
 1060              	.LVL72:
 1061              	.LFB384:
 168:ACE_ECF_25-ACE-ECF-CPP-V1.2/Algorithm/user_maths/cpp_files/user_maths.cpp **** 
 169:ACE_ECF_25-ACE-ECF-CPP-V1.2/Algorithm/user_maths/cpp_files/user_maths.cpp **** float user_maths_c::float_min_distance(float target, float actual, float minValue, float maxValue)
 170:ACE_ECF_25-ACE-ECF-CPP-V1.2/Algorithm/user_maths/cpp_files/user_maths.cpp **** {
 1062              		.loc 1 170 1 is_stmt 1 view -0
 1063              		.cfi_startproc
 1064              		@ args = 0, pretend = 0, frame = 0
 1065              		@ frame_needed = 0, uses_anonymous_args = 0
 171:ACE_ECF_25-ACE-ECF-CPP-V1.2/Algorithm/user_maths/cpp_files/user_maths.cpp **** 	if (maxValue < minValue)
 1066              		.loc 1 171 2 view .LVU219
 1067 0000 F4EEC11A 		vcmpe.f32	s3, s2	@ maxValue, minValue
 1068 0004 F1EE10FA 		vmrs	APSR_nzcv, FPSCR
 1069 0008 02D5     		bpl	.L123		@,
 1070              	@ ACE_ECF_25-ACE-ECF-CPP-V1.2/Algorithm/user_maths/cpp_files/user_maths.cpp:173:         return 0;
 172:ACE_ECF_25-ACE-ECF-CPP-V1.2/Algorithm/user_maths/cpp_files/user_maths.cpp ****     {
 173:ACE_ECF_25-ACE-ECF-CPP-V1.2/Algorithm/user_maths/cpp_files/user_maths.cpp ****         return 0;
 1071              		.loc 1 173 16 is_stmt 0 view .LVU220
 1072 000a 9FED200A 		vldr.32	s0, .L125	@ <retval>,
 1073              	.LVL73:
 1074              	@ ACE_ECF_25-ACE-ECF-CPP-V1.2/Algorithm/user_maths/cpp_files/user_maths.cpp:194: }
 174:ACE_ECF_25-ACE-ECF-CPP-V1.2/Algorithm/user_maths/cpp_files/user_maths.cpp ****     }
 175:ACE_ECF_25-ACE-ECF-CPP-V1.2/Algorithm/user_maths/cpp_files/user_maths.cpp **** 	
 176:ACE_ECF_25-ACE-ECF-CPP-V1.2/Algorithm/user_maths/cpp_files/user_maths.cpp **** 	target = this->loop_fp32_constrain(target, minValue,maxValue);
 177:ACE_ECF_25-ACE-ECF-CPP-V1.2/Algorithm/user_maths/cpp_files/user_maths.cpp **** 	
 178:ACE_ECF_25-ACE-ECF-CPP-V1.2/Algorithm/user_maths/cpp_files/user_maths.cpp **** 	if (user_abs(target - actual) > (maxValue - minValue) / 2.0f)
 179:ACE_ECF_25-ACE-ECF-CPP-V1.2/Algorithm/user_maths/cpp_files/user_maths.cpp **** 	{
 180:ACE_ECF_25-ACE-ECF-CPP-V1.2/Algorithm/user_maths/cpp_files/user_maths.cpp **** 		if(maxValue - actual < (maxValue - minValue) / 2.0f)
 181:ACE_ECF_25-ACE-ECF-CPP-V1.2/Algorithm/user_maths/cpp_files/user_maths.cpp **** 		{
 182:ACE_ECF_25-ACE-ECF-CPP-V1.2/Algorithm/user_maths/cpp_files/user_maths.cpp **** 			return maxValue - actual + target - minValue;
 183:ACE_ECF_25-ACE-ECF-CPP-V1.2/Algorithm/user_maths/cpp_files/user_maths.cpp **** 		}
 184:ACE_ECF_25-ACE-ECF-CPP-V1.2/Algorithm/user_maths/cpp_files/user_maths.cpp **** 		else
 185:ACE_ECF_25-ACE-ECF-CPP-V1.2/Algorithm/user_maths/cpp_files/user_maths.cpp **** 		{
 186:ACE_ECF_25-ACE-ECF-CPP-V1.2/Algorithm/user_maths/cpp_files/user_maths.cpp **** 			return minValue - actual + target - maxValue;
 187:ACE_ECF_25-ACE-ECF-CPP-V1.2/Algorithm/user_maths/cpp_files/user_maths.cpp **** 		}
 188:ACE_ECF_25-ACE-ECF-CPP-V1.2/Algorithm/user_maths/cpp_files/user_maths.cpp **** 	}
 189:ACE_ECF_25-ACE-ECF-CPP-V1.2/Algorithm/user_maths/cpp_files/user_maths.cpp **** 	else 
 190:ACE_ECF_25-ACE-ECF-CPP-V1.2/Algorithm/user_maths/cpp_files/user_maths.cpp **** 	{
 191:ACE_ECF_25-ACE-ECF-CPP-V1.2/Algorithm/user_maths/cpp_files/user_maths.cpp **** 		return target - actual;
 192:ACE_ECF_25-ACE-ECF-CPP-V1.2/Algorithm/user_maths/cpp_files/user_maths.cpp **** 	}
 193:ACE_ECF_25-ACE-ECF-CPP-V1.2/Algorithm/user_maths/cpp_files/user_maths.cpp **** 	
 194:ACE_ECF_25-ACE-ECF-CPP-V1.2/Algorithm/user_maths/cpp_files/user_maths.cpp **** }
 1075              		.loc 1 194 1 view .LVU221
 1076 000e 7047     		bx	lr	@
 1077              	.LVL74:
 1078              	.L123:
 1079              	@ ACE_ECF_25-ACE-ECF-CPP-V1.2/Algorithm/user_maths/cpp_files/user_maths.cpp:170: {
 170:ACE_ECF_25-ACE-ECF-CPP-V1.2/Algorithm/user_maths/cpp_files/user_maths.cpp **** 	if (maxValue < minValue)
 1080              		.loc 1 170 1 view .LVU222
 1081 0010 08B5     		push	{r3, lr}	@
 1082              	.LCFI0:
 1083              		.cfi_def_cfa_offset 8
 1084              		.cfi_offset 3, -8
 1085              		.cfi_offset 14, -4
 1086 0012 2DED048B 		vpush.64	{d8, d9}	@
ARM GAS  C:\Users\30806\AppData\Local\Temp\ccZCY32q.s 			page 24


 1087              	.LCFI1:
 1088              		.cfi_def_cfa_offset 24
 1089              		.cfi_offset 80, -24
 1090              		.cfi_offset 81, -20
 1091              		.cfi_offset 82, -16
 1092              		.cfi_offset 83, -12
 1093 0016 B0EE609A 		vmov.f32	s18, s1	@ actual, tmp132
 1094 001a B0EE418A 		vmov.f32	s16, s2	@ minValue, tmp133
 1095 001e F0EE618A 		vmov.f32	s17, s3	@ maxValue, tmp134
 176:ACE_ECF_25-ACE-ECF-CPP-V1.2/Algorithm/user_maths/cpp_files/user_maths.cpp **** 	
 1096              		.loc 1 176 2 is_stmt 1 view .LVU223
 1097              	@ ACE_ECF_25-ACE-ECF-CPP-V1.2/Algorithm/user_maths/cpp_files/user_maths.cpp:176: 	target = this->lo
 176:ACE_ECF_25-ACE-ECF-CPP-V1.2/Algorithm/user_maths/cpp_files/user_maths.cpp **** 	
 1098              		.loc 1 176 36 is_stmt 0 view .LVU224
 1099 0022 B0EE611A 		vmov.f32	s2, s3	@, maxValue
 1100              	.LVL75:
 176:ACE_ECF_25-ACE-ECF-CPP-V1.2/Algorithm/user_maths/cpp_files/user_maths.cpp **** 	
 1101              		.loc 1 176 36 view .LVU225
 1102 0026 F0EE480A 		vmov.f32	s1, s16	@, minValue
 1103              	.LVL76:
 176:ACE_ECF_25-ACE-ECF-CPP-V1.2/Algorithm/user_maths/cpp_files/user_maths.cpp **** 	
 1104              		.loc 1 176 36 view .LVU226
 1105 002a FFF7FEFF 		bl	_ZN12user_maths_c19loop_fp32_constrainEfff		@
 1106              	.LVL77:
 176:ACE_ECF_25-ACE-ECF-CPP-V1.2/Algorithm/user_maths/cpp_files/user_maths.cpp **** 	
 1107              		.loc 1 176 36 view .LVU227
 1108 002e B0EE407A 		vmov.f32	s14, s0	@ target, tmp135
 1109              	.LVL78:
 178:ACE_ECF_25-ACE-ECF-CPP-V1.2/Algorithm/user_maths/cpp_files/user_maths.cpp **** 	{
 1110              		.loc 1 178 2 is_stmt 1 view .LVU228
 1111              	@ ACE_ECF_25-ACE-ECF-CPP-V1.2/Algorithm/user_maths/cpp_files/user_maths.cpp:178: 	if (user_abs(targ
 178:ACE_ECF_25-ACE-ECF-CPP-V1.2/Algorithm/user_maths/cpp_files/user_maths.cpp **** 	{
 1112              		.loc 1 178 6 is_stmt 0 view .LVU229
 1113 0032 30EE490A 		vsub.f32	s0, s0, s18	@ <retval>, target, actual
 1114              	.LVL79:
 178:ACE_ECF_25-ACE-ECF-CPP-V1.2/Algorithm/user_maths/cpp_files/user_maths.cpp **** 	{
 1115              		.loc 1 178 6 view .LVU230
 1116 0036 B5EEC00A 		vcmpe.f32	s0, #0	@ <retval>
 1117 003a F1EE10FA 		vmrs	APSR_nzcv, FPSCR
 1118 003e 1ADD     		ble	.L124		@,
 178:ACE_ECF_25-ACE-ECF-CPP-V1.2/Algorithm/user_maths/cpp_files/user_maths.cpp **** 	{
 1119              		.loc 1 178 6 view .LVU231
 1120 0040 F0EE407A 		vmov.f32	s15, s0	@ iftmp.22_9, <retval>
 1121              	.L110:
 1122              	@ ACE_ECF_25-ACE-ECF-CPP-V1.2/Algorithm/user_maths/cpp_files/user_maths.cpp:178: 	if (user_abs(targ
 178:ACE_ECF_25-ACE-ECF-CPP-V1.2/Algorithm/user_maths/cpp_files/user_maths.cpp **** 	{
 1123              		.loc 1 178 44 discriminator 4 view .LVU232
 1124 0044 78EEC86A 		vsub.f32	s13, s17, s16	@ _2, maxValue, minValue
 1125              	@ ACE_ECF_25-ACE-ECF-CPP-V1.2/Algorithm/user_maths/cpp_files/user_maths.cpp:178: 	if (user_abs(targ
 178:ACE_ECF_25-ACE-ECF-CPP-V1.2/Algorithm/user_maths/cpp_files/user_maths.cpp **** 	{
 1126              		.loc 1 178 56 discriminator 4 view .LVU233
 1127 0048 B6EE006A 		vmov.f32	s12, #5.0e-1	@ tmp128,
 1128 004c 66EE866A 		vmul.f32	s13, s13, s12	@ _3, _2, tmp128
 1129              	@ ACE_ECF_25-ACE-ECF-CPP-V1.2/Algorithm/user_maths/cpp_files/user_maths.cpp:178: 	if (user_abs(targ
 178:ACE_ECF_25-ACE-ECF-CPP-V1.2/Algorithm/user_maths/cpp_files/user_maths.cpp **** 	{
 1130              		.loc 1 178 2 discriminator 4 view .LVU234
 1131 0050 F4EEE76A 		vcmpe.f32	s13, s15	@ _3, iftmp.22_9
ARM GAS  C:\Users\30806\AppData\Local\Temp\ccZCY32q.s 			page 25


 1132 0054 F1EE10FA 		vmrs	APSR_nzcv, FPSCR
 1133 0058 0AD5     		bpl	.L108		@,
 180:ACE_ECF_25-ACE-ECF-CPP-V1.2/Algorithm/user_maths/cpp_files/user_maths.cpp **** 		{
 1134              		.loc 1 180 3 is_stmt 1 view .LVU235
 1135              	@ ACE_ECF_25-ACE-ECF-CPP-V1.2/Algorithm/user_maths/cpp_files/user_maths.cpp:180: 		if(maxValue - ac
 180:ACE_ECF_25-ACE-ECF-CPP-V1.2/Algorithm/user_maths/cpp_files/user_maths.cpp **** 		{
 1136              		.loc 1 180 15 is_stmt 0 view .LVU236
 1137 005a 78EEC97A 		vsub.f32	s15, s17, s18	@ _4, maxValue, actual
 1138              	@ ACE_ECF_25-ACE-ECF-CPP-V1.2/Algorithm/user_maths/cpp_files/user_maths.cpp:180: 		if(maxValue - ac
 180:ACE_ECF_25-ACE-ECF-CPP-V1.2/Algorithm/user_maths/cpp_files/user_maths.cpp **** 		{
 1139              		.loc 1 180 3 view .LVU237
 1140 005e F4EEE76A 		vcmpe.f32	s13, s15	@ _3, _4
 1141 0062 F1EE10FA 		vmrs	APSR_nzcv, FPSCR
 1142 0066 09DD     		ble	.L118		@,
 182:ACE_ECF_25-ACE-ECF-CPP-V1.2/Algorithm/user_maths/cpp_files/user_maths.cpp **** 		}
 1143              		.loc 1 182 4 is_stmt 1 view .LVU238
 1144              	@ ACE_ECF_25-ACE-ECF-CPP-V1.2/Algorithm/user_maths/cpp_files/user_maths.cpp:182: 			return maxValue
 182:ACE_ECF_25-ACE-ECF-CPP-V1.2/Algorithm/user_maths/cpp_files/user_maths.cpp **** 		}
 1145              		.loc 1 182 29 is_stmt 0 view .LVU239
 1146 0068 37EE870A 		vadd.f32	s0, s15, s14	@ _5, _4, target
 1147              	@ ACE_ECF_25-ACE-ECF-CPP-V1.2/Algorithm/user_maths/cpp_files/user_maths.cpp:182: 			return maxValue
 182:ACE_ECF_25-ACE-ECF-CPP-V1.2/Algorithm/user_maths/cpp_files/user_maths.cpp **** 		}
 1148              		.loc 1 182 40 view .LVU240
 1149 006c 30EE480A 		vsub.f32	s0, s0, s16	@ <retval>, _5, minValue
 1150              	.LVL80:
 1151              	.L108:
 1152              	@ ACE_ECF_25-ACE-ECF-CPP-V1.2/Algorithm/user_maths/cpp_files/user_maths.cpp:194: }
 1153              		.loc 1 194 1 view .LVU241
 1154 0070 BDEC048B 		vldm	sp!, {d8-d9}	@,
 1155              	.LCFI2:
 1156              		.cfi_remember_state
 1157              		.cfi_restore 82
 1158              		.cfi_restore 83
 1159              		.cfi_restore 80
 1160              		.cfi_restore 81
 1161              		.cfi_def_cfa_offset 8
 1162              	.LVL81:
 1163              		.loc 1 194 1 view .LVU242
 1164 0074 08BD     		pop	{r3, pc}	@
 1165              	.LVL82:
 1166              	.L124:
 1167              	.LCFI3:
 1168              		.cfi_restore_state
 1169              	@ ACE_ECF_25-ACE-ECF-CPP-V1.2/Algorithm/user_maths/cpp_files/user_maths.cpp:178: 	if (user_abs(targ
 178:ACE_ECF_25-ACE-ECF-CPP-V1.2/Algorithm/user_maths/cpp_files/user_maths.cpp **** 	{
 1170              		.loc 1 178 6 discriminator 2 view .LVU243
 1171 0076 F1EE407A 		vneg.f32	s15, s0	@ iftmp.22_9, <retval>
 1172 007a E3E7     		b	.L110		@
 1173              	.L118:
 186:ACE_ECF_25-ACE-ECF-CPP-V1.2/Algorithm/user_maths/cpp_files/user_maths.cpp **** 		}
 1174              		.loc 1 186 4 is_stmt 1 view .LVU244
 1175              	@ ACE_ECF_25-ACE-ECF-CPP-V1.2/Algorithm/user_maths/cpp_files/user_maths.cpp:186: 			return minValue
 186:ACE_ECF_25-ACE-ECF-CPP-V1.2/Algorithm/user_maths/cpp_files/user_maths.cpp **** 		}
 1176              		.loc 1 186 20 is_stmt 0 view .LVU245
 1177 007c 38EE498A 		vsub.f32	s16, s16, s18	@ _6, minValue, actual
 1178              	.LVL83:
 1179              	@ ACE_ECF_25-ACE-ECF-CPP-V1.2/Algorithm/user_maths/cpp_files/user_maths.cpp:186: 			return minValue
ARM GAS  C:\Users\30806\AppData\Local\Temp\ccZCY32q.s 			page 26


 186:ACE_ECF_25-ACE-ECF-CPP-V1.2/Algorithm/user_maths/cpp_files/user_maths.cpp **** 		}
 1180              		.loc 1 186 29 view .LVU246
 1181 0080 38EE070A 		vadd.f32	s0, s16, s14	@ _7, _6, target
 1182              	@ ACE_ECF_25-ACE-ECF-CPP-V1.2/Algorithm/user_maths/cpp_files/user_maths.cpp:186: 			return minValue
 186:ACE_ECF_25-ACE-ECF-CPP-V1.2/Algorithm/user_maths/cpp_files/user_maths.cpp **** 		}
 1183              		.loc 1 186 40 view .LVU247
 1184 0084 30EE680A 		vsub.f32	s0, s0, s17	@ <retval>, _7, maxValue
 1185 0088 F2E7     		b	.L108		@
 1186              	.L126:
 1187 008a 00BF     		.align	2
 1188              	.L125:
 1189 008c 00000000 		.word	0
 1190              		.cfi_endproc
 1191              	.LFE384:
 1192              		.size	_ZN12user_maths_c18float_min_distanceEffff, .-_ZN12user_maths_c18float_min_distanceEffff
 1193              		.section	.text._ZN12user_maths_c19CircleIncreaseLimitEfff,"ax",%progbits
 1194              		.align	1
 1195              		.global	_ZN12user_maths_c19CircleIncreaseLimitEfff
 1196              		.syntax unified
 1197              		.thumb
 1198              		.thumb_func
 1199              		.type	_ZN12user_maths_c19CircleIncreaseLimitEfff, %function
 1200              	_ZN12user_maths_c19CircleIncreaseLimitEfff:
 1201              	.LVL84:
 1202              	.LFB385:
 195:ACE_ECF_25-ACE-ECF-CPP-V1.2/Algorithm/user_maths/cpp_files/user_maths.cpp **** /***
 196:ACE_ECF_25-ACE-ECF-CPP-V1.2/Algorithm/user_maths/cpp_files/user_maths.cpp ****  * @brief 周期递增限制
 197:ACE_ECF_25-ACE-ECF-CPP-V1.2/Algorithm/user_maths/cpp_files/user_maths.cpp ****  * @param current_val 当前实际值
 198:ACE_ECF_25-ACE-ECF-CPP-V1.2/Algorithm/user_maths/cpp_files/user_maths.cpp ****  * @param set_val 设定值
 199:ACE_ECF_25-ACE-ECF-CPP-V1.2/Algorithm/user_maths/cpp_files/user_maths.cpp ****  * @param limit 每次调用该函数最大递增的值, 为正数
 200:ACE_ECF_25-ACE-ECF-CPP-V1.2/Algorithm/user_maths/cpp_files/user_maths.cpp ****  * @return 返回一个处理好的值
 201:ACE_ECF_25-ACE-ECF-CPP-V1.2/Algorithm/user_maths/cpp_files/user_maths.cpp **** */
 202:ACE_ECF_25-ACE-ECF-CPP-V1.2/Algorithm/user_maths/cpp_files/user_maths.cpp **** float user_maths_c::CircleIncreaseLimit(float current_val, float set_val, float limit)
 203:ACE_ECF_25-ACE-ECF-CPP-V1.2/Algorithm/user_maths/cpp_files/user_maths.cpp **** {   
 1203              		.loc 1 203 1 is_stmt 1 view -0
 1204              		.cfi_startproc
 1205              		@ args = 0, pretend = 0, frame = 0
 1206              		@ frame_needed = 0, uses_anonymous_args = 0
 1207              		@ link register save eliminated.
 204:ACE_ECF_25-ACE-ECF-CPP-V1.2/Algorithm/user_maths/cpp_files/user_maths.cpp ****     limit = user_abs(limit);
 1208              		.loc 1 204 5 view .LVU249
 1209              	@ ACE_ECF_25-ACE-ECF-CPP-V1.2/Algorithm/user_maths/cpp_files/user_maths.cpp:204:     limit = user_a
 1210              		.loc 1 204 13 is_stmt 0 view .LVU250
 1211 0000 B5EEC01A 		vcmpe.f32	s2, #0	@ limit
 1212 0004 F1EE10FA 		vmrs	APSR_nzcv, FPSCR
 1213 0008 10DD     		ble	.L138		@,
 1214              	.LVL85:
 1215              	.L128:
 205:ACE_ECF_25-ACE-ECF-CPP-V1.2/Algorithm/user_maths/cpp_files/user_maths.cpp ****     if(set_val - current_val > limit)
 1216              		.loc 1 205 5 is_stmt 1 discriminator 4 view .LVU251
 1217              	@ ACE_ECF_25-ACE-ECF-CPP-V1.2/Algorithm/user_maths/cpp_files/user_maths.cpp:205:     if(set_val - c
 1218              		.loc 1 205 16 is_stmt 0 discriminator 4 view .LVU252
 1219 000a 70EEC07A 		vsub.f32	s15, s1, s0	@ _1, set_val, current_val
 1220              	@ ACE_ECF_25-ACE-ECF-CPP-V1.2/Algorithm/user_maths/cpp_files/user_maths.cpp:205:     if(set_val - c
 1221              		.loc 1 205 5 discriminator 4 view .LVU253
 1222 000e F4EEC17A 		vcmpe.f32	s15, s2	@ _1, limit
 1223 0012 F1EE10FA 		vmrs	APSR_nzcv, FPSCR
ARM GAS  C:\Users\30806\AppData\Local\Temp\ccZCY32q.s 			page 27


 1224 0016 0CDC     		bgt	.L139		@,
 206:ACE_ECF_25-ACE-ECF-CPP-V1.2/Algorithm/user_maths/cpp_files/user_maths.cpp ****     {
 207:ACE_ECF_25-ACE-ECF-CPP-V1.2/Algorithm/user_maths/cpp_files/user_maths.cpp ****         return current_val + limit;
 208:ACE_ECF_25-ACE-ECF-CPP-V1.2/Algorithm/user_maths/cpp_files/user_maths.cpp ****     }
 209:ACE_ECF_25-ACE-ECF-CPP-V1.2/Algorithm/user_maths/cpp_files/user_maths.cpp ****     else if(set_val - current_val < -limit)
 1225              		.loc 1 209 10 is_stmt 1 view .LVU254
 1226              	@ ACE_ECF_25-ACE-ECF-CPP-V1.2/Algorithm/user_maths/cpp_files/user_maths.cpp:209:     else if(set_va
 1227              		.loc 1 209 37 is_stmt 0 view .LVU255
 1228 0018 B1EE417A 		vneg.f32	s14, s2	@ _2, limit
 1229              	@ ACE_ECF_25-ACE-ECF-CPP-V1.2/Algorithm/user_maths/cpp_files/user_maths.cpp:209:     else if(set_va
 1230              		.loc 1 209 10 view .LVU256
 1231 001c F4EEC77A 		vcmpe.f32	s15, s14	@ _1, _2
 1232 0020 F1EE10FA 		vmrs	APSR_nzcv, FPSCR
 1233 0024 08D5     		bpl	.L137		@,
 210:ACE_ECF_25-ACE-ECF-CPP-V1.2/Algorithm/user_maths/cpp_files/user_maths.cpp ****     {
 211:ACE_ECF_25-ACE-ECF-CPP-V1.2/Algorithm/user_maths/cpp_files/user_maths.cpp ****         return current_val - limit;
 1234              		.loc 1 211 9 is_stmt 1 view .LVU257
 1235              	@ ACE_ECF_25-ACE-ECF-CPP-V1.2/Algorithm/user_maths/cpp_files/user_maths.cpp:211:         return cur
 1236              		.loc 1 211 30 is_stmt 0 view .LVU258
 1237 0026 30EE410A 		vsub.f32	s0, s0, s2	@ <retval>, current_val, limit
 1238              	.LVL86:
 1239              		.loc 1 211 30 view .LVU259
 1240 002a 7047     		bx	lr	@
 1241              	.LVL87:
 1242              	.L138:
 1243              	@ ACE_ECF_25-ACE-ECF-CPP-V1.2/Algorithm/user_maths/cpp_files/user_maths.cpp:204:     limit = user_a
 204:ACE_ECF_25-ACE-ECF-CPP-V1.2/Algorithm/user_maths/cpp_files/user_maths.cpp ****     if(set_val - current_val > limit)
 1244              		.loc 1 204 13 discriminator 2 view .LVU260
 1245 002c B1EE411A 		vneg.f32	s2, s2	@ limit, limit
 1246              	.LVL88:
 204:ACE_ECF_25-ACE-ECF-CPP-V1.2/Algorithm/user_maths/cpp_files/user_maths.cpp ****     if(set_val - current_val > limit)
 1247              		.loc 1 204 13 discriminator 2 view .LVU261
 1248 0030 EBE7     		b	.L128		@
 1249              	.LVL89:
 1250              	.L139:
 207:ACE_ECF_25-ACE-ECF-CPP-V1.2/Algorithm/user_maths/cpp_files/user_maths.cpp ****     }
 1251              		.loc 1 207 9 is_stmt 1 view .LVU262
 1252              	@ ACE_ECF_25-ACE-ECF-CPP-V1.2/Algorithm/user_maths/cpp_files/user_maths.cpp:207:         return cur
 207:ACE_ECF_25-ACE-ECF-CPP-V1.2/Algorithm/user_maths/cpp_files/user_maths.cpp ****     }
 1253              		.loc 1 207 30 is_stmt 0 view .LVU263
 1254 0032 31EE000A 		vadd.f32	s0, s2, s0	@ <retval>, limit, current_val
 1255              	.LVL90:
 207:ACE_ECF_25-ACE-ECF-CPP-V1.2/Algorithm/user_maths/cpp_files/user_maths.cpp ****     }
 1256              		.loc 1 207 30 view .LVU264
 1257 0036 7047     		bx	lr	@
 1258              	.LVL91:
 1259              	.L137:
 1260              	@ ACE_ECF_25-ACE-ECF-CPP-V1.2/Algorithm/user_maths/cpp_files/user_maths.cpp:215:         return set
 212:ACE_ECF_25-ACE-ECF-CPP-V1.2/Algorithm/user_maths/cpp_files/user_maths.cpp ****     }
 213:ACE_ECF_25-ACE-ECF-CPP-V1.2/Algorithm/user_maths/cpp_files/user_maths.cpp ****     else
 214:ACE_ECF_25-ACE-ECF-CPP-V1.2/Algorithm/user_maths/cpp_files/user_maths.cpp ****     {
 215:ACE_ECF_25-ACE-ECF-CPP-V1.2/Algorithm/user_maths/cpp_files/user_maths.cpp ****         return set_val;
 1261              		.loc 1 215 16 view .LVU265
 1262 0038 B0EE600A 		vmov.f32	s0, s1	@ <retval>, set_val
 1263              	.LVL92:
 1264              	@ ACE_ECF_25-ACE-ECF-CPP-V1.2/Algorithm/user_maths/cpp_files/user_maths.cpp:217: }
 216:ACE_ECF_25-ACE-ECF-CPP-V1.2/Algorithm/user_maths/cpp_files/user_maths.cpp ****     }
ARM GAS  C:\Users\30806\AppData\Local\Temp\ccZCY32q.s 			page 28


 217:ACE_ECF_25-ACE-ECF-CPP-V1.2/Algorithm/user_maths/cpp_files/user_maths.cpp **** }
 1265              		.loc 1 217 1 view .LVU266
 1266 003c 7047     		bx	lr	@
 1267              		.cfi_endproc
 1268              	.LFE385:
 1269              		.size	_ZN12user_maths_c19CircleIncreaseLimitEfff, .-_ZN12user_maths_c19CircleIncreaseLimitEfff
 1270              		.section	.text._ZN12user_maths_c14user_val_limitEfff,"ax",%progbits
 1271              		.align	1
 1272              		.global	_ZN12user_maths_c14user_val_limitEfff
 1273              		.syntax unified
 1274              		.thumb
 1275              		.thumb_func
 1276              		.type	_ZN12user_maths_c14user_val_limitEfff, %function
 1277              	_ZN12user_maths_c14user_val_limitEfff:
 1278              	.LVL93:
 1279              	.LFB386:
 218:ACE_ECF_25-ACE-ECF-CPP-V1.2/Algorithm/user_maths/cpp_files/user_maths.cpp **** 
 219:ACE_ECF_25-ACE-ECF-CPP-V1.2/Algorithm/user_maths/cpp_files/user_maths.cpp **** float user_maths_c::user_val_limit(float val, float min, float max)
 220:ACE_ECF_25-ACE-ECF-CPP-V1.2/Algorithm/user_maths/cpp_files/user_maths.cpp **** {
 1280              		.loc 1 220 1 is_stmt 1 view -0
 1281              		.cfi_startproc
 1282              		@ args = 0, pretend = 0, frame = 0
 1283              		@ frame_needed = 0, uses_anonymous_args = 0
 1284              		@ link register save eliminated.
 221:ACE_ECF_25-ACE-ECF-CPP-V1.2/Algorithm/user_maths/cpp_files/user_maths.cpp ****     (val) = (val) < (min) ? (min) : (val);
 1285              		.loc 1 221 5 view .LVU268
 1286              	@ ACE_ECF_25-ACE-ECF-CPP-V1.2/Algorithm/user_maths/cpp_files/user_maths.cpp:221:     (val) = (val) 
 1287              		.loc 1 221 27 is_stmt 0 view .LVU269
 1288 0000 B4EEE00A 		vcmpe.f32	s0, s1	@ val, min
 1289 0004 F1EE10FA 		vmrs	APSR_nzcv, FPSCR
 1290 0008 01D5     		bpl	.L141		@,
 1291 000a B0EE600A 		vmov.f32	s0, s1	@ val, min
 1292              	.LVL94:
 1293              	.L141:
 222:ACE_ECF_25-ACE-ECF-CPP-V1.2/Algorithm/user_maths/cpp_files/user_maths.cpp ****     (val) = (val) > (max) ? (max) : (val);
 1294              		.loc 1 222 5 is_stmt 1 discriminator 4 view .LVU270
 1295              	@ ACE_ECF_25-ACE-ECF-CPP-V1.2/Algorithm/user_maths/cpp_files/user_maths.cpp:222:     (val) = (val) 
 1296              		.loc 1 222 27 is_stmt 0 discriminator 4 view .LVU271
 1297 000e B4EEC10A 		vcmpe.f32	s0, s2	@ val, max
 1298 0012 F1EE10FA 		vmrs	APSR_nzcv, FPSCR
 1299 0016 01DD     		ble	.L143		@,
 1300              	@ ACE_ECF_25-ACE-ECF-CPP-V1.2/Algorithm/user_maths/cpp_files/user_maths.cpp:222:     (val) = (val) 
 1301              		.loc 1 222 27 view .LVU272
 1302 0018 B0EE410A 		vmov.f32	s0, s2	@ val, max
 1303              	.LVL95:
 1304              	.L143:
 223:ACE_ECF_25-ACE-ECF-CPP-V1.2/Algorithm/user_maths/cpp_files/user_maths.cpp ****     return val;
 1305              		.loc 1 223 5 is_stmt 1 discriminator 4 view .LVU273
 1306              	@ ACE_ECF_25-ACE-ECF-CPP-V1.2/Algorithm/user_maths/cpp_files/user_maths.cpp:224: }
 224:ACE_ECF_25-ACE-ECF-CPP-V1.2/Algorithm/user_maths/cpp_files/user_maths.cpp **** }
 1307              		.loc 1 224 1 is_stmt 0 discriminator 4 view .LVU274
 1308 001c 7047     		bx	lr	@
 1309              		.cfi_endproc
 1310              	.LFE386:
 1311              		.size	_ZN12user_maths_c14user_val_limitEfff, .-_ZN12user_maths_c14user_val_limitEfff
 1312              		.section	.bss._ZZN12user_maths_c24data_accelerated_controlEPffE8last_num,"aw",%nobits
 1313              		.align	1
ARM GAS  C:\Users\30806\AppData\Local\Temp\ccZCY32q.s 			page 29


 1314              		.set	.LANCHOR0,. + 0
 1315              		.type	_ZZN12user_maths_c24data_accelerated_controlEPffE8last_num, %object
 1316              		.size	_ZZN12user_maths_c24data_accelerated_controlEPffE8last_num, 2
 1317              	_ZZN12user_maths_c24data_accelerated_controlEPffE8last_num:
 1318 0000 0000     		.space	2
 1319              		.section	.rodata._ZL23Trigonometric_Functions,"a"
 1320              		.align	2
 1321              		.set	.LANCHOR1,. + 0
 1322              		.type	_ZL23Trigonometric_Functions, %object
 1323              		.size	_ZL23Trigonometric_Functions, 3604
 1324              	_ZL23Trigonometric_Functions:
 1325 0000 00000000 		.word	0
 1326 0004 BCB8323E 		.word	1043511484
 1327 0008 ABB8B23E 		.word	1051900075
 1328 000c 6A0A063F 		.word	1057360490
 1329 0010 63B8323F 		.word	1060288611
 1330 0014 39665F3F 		.word	1063216697
 1331 0018 F109863F 		.word	1065748977
 1332 001c AB609C3F 		.word	1067212971
 1333 0020 46B7B23F 		.word	1068676934
 1334 0024 BD0DC93F 		.word	1070140861
 1335 0028 0C64DF3F 		.word	1071604748
 1336 002c 2EBAF53F 		.word	1073068590
 1337 0030 10080640 		.word	1074137104
 1338 0034 ED321140 		.word	1074868973
 1339 0038 AE5D1C40 		.word	1075600814
 1340 003c 50882740 		.word	1076332624
 1341 0040 D0B23240 		.word	1077064400
 1342 0044 2DDD3D40 		.word	1077796141
 1343 0048 63074940 		.word	1078527843
 1344 004c 72315440 		.word	1079259506
 1345 0050 565B5F40 		.word	1079991126
 1346 0054 0D856A40 		.word	1080722701
 1347 0058 96AE7540 		.word	1081454230
 1348 005c F76B8040 		.word	1082158071
 1349 0060 89008640 		.word	1082523785
 1350 0064 01958B40 		.word	1082889473
 1351 0068 5C299140 		.word	1083255132
 1352 006c 9BBD9640 		.word	1083620763
 1353 0070 BB519C40 		.word	1083986363
 1354 0074 BDE5A140 		.word	1084351933
 1355 0078 9E79A740 		.word	1084717470
 1356 007c 5D0DAD40 		.word	1085082973
 1357 0080 FAA0B240 		.word	1085448442
 1358 0084 7334B840 		.word	1085813875
 1359 0088 C8C7BD40 		.word	1086179272
 1360 008c F75AC340 		.word	1086544631
 1361 0090 FEEDC840 		.word	1086909950
 1362 0094 DE80CE40 		.word	1087275230
 1363 0098 9413D440 		.word	1087640468
 1364 009c 20A6D940 		.word	1088005664
 1365 00a0 8138DF40 		.word	1088370817
 1366 00a4 B5CAE440 		.word	1088735925
 1367 00a8 BB5CEA40 		.word	1089100987
 1368 00ac 93EEEF40 		.word	1089466003
 1369 00b0 3A80F540 		.word	1089830970
 1370 00b4 B111FB40 		.word	1090195889
ARM GAS  C:\Users\30806\AppData\Local\Temp\ccZCY32q.s 			page 30


 1371 00b8 7B510041 		.word	1090539899
 1372 00bc 031A0341 		.word	1090722307
 1373 00c0 72E20541 		.word	1090904690
 1374 00c4 C6AA0841 		.word	1091087046
 1375 00c8 FE720B41 		.word	1091269374
 1376 00cc 1B3B0E41 		.word	1091451675
 1377 00d0 1B031141 		.word	1091633947
 1378 00d4 FECA1341 		.word	1091816190
 1379 00d8 C4921641 		.word	1091998404
 1380 00dc 6C5A1941 		.word	1092180588
 1381 00e0 F5211C41 		.word	1092362741
 1382 00e4 5FE91E41 		.word	1092544863
 1383 00e8 A9B02141 		.word	1092726953
 1384 00ec D3772441 		.word	1092909011
 1385 00f0 DC3E2741 		.word	1093091036
 1386 00f4 C3052A41 		.word	1093273027
 1387 00f8 89CC2C41 		.word	1093454985
 1388 00fc 2C932F41 		.word	1093636908
 1389 0100 AD593241 		.word	1093818797
 1390 0104 09203541 		.word	1094000649
 1391 0108 42E63741 		.word	1094182466
 1392 010c 55AC3A41 		.word	1094364245
 1393 0110 44723D41 		.word	1094545988
 1394 0114 0D384041 		.word	1094727693
 1395 0118 AFFD4241 		.word	1094909359
 1396 011c 2AC34541 		.word	1095090986
 1397 0120 7E884841 		.word	1095272574
 1398 0124 AA4D4B41 		.word	1095454122
 1399 0128 AD124E41 		.word	1095635629
 1400 012c 87D75041 		.word	1095817095
 1401 0130 389C5341 		.word	1095998520
 1402 0134 BE605641 		.word	1096179902
 1403 0138 19255941 		.word	1096361241
 1404 013c 49E95B41 		.word	1096542537
 1405 0140 4DAD5E41 		.word	1096723789
 1406 0144 25716141 		.word	1096904997
 1407 0148 D0346441 		.word	1097086160
 1408 014c 4DF86641 		.word	1097267277
 1409 0150 9CBB6941 		.word	1097448348
 1410 0154 BC7E6C41 		.word	1097629372
 1411 0158 AD416F41 		.word	1097810349
 1412 015c 6F047241 		.word	1097991279
 1413 0160 00C77441 		.word	1098172160
 1414 0164 60897741 		.word	1098352992
 1415 0168 8F4B7A41 		.word	1098533775
 1416 016c 8B0D7D41 		.word	1098714507
 1417 0170 56CF7F41 		.word	1098895190
 1418 0174 76488141 		.word	1098991734
 1419 0178 28A98241 		.word	1099082024
 1420 017c C0098441 		.word	1099172288
 1421 0180 3D6A8541 		.word	1099262525
 1422 0184 A0CA8641 		.word	1099352736
 1423 0188 E82A8841 		.word	1099442920
 1424 018c 148B8941 		.word	1099533076
 1425 0190 26EB8A41 		.word	1099623206
 1426 0194 1B4B8C41 		.word	1099713307
 1427 0198 F4AA8D41 		.word	1099803380
ARM GAS  C:\Users\30806\AppData\Local\Temp\ccZCY32q.s 			page 31


 1428 019c B20A8F41 		.word	1099893426
 1429 01a0 526A9041 		.word	1099983442
 1430 01a4 D6C99141 		.word	1100073430
 1431 01a8 3D299341 		.word	1100163389
 1432 01ac 86889441 		.word	1100253318
 1433 01b0 B1E79541 		.word	1100343217
 1434 01b4 BF469741 		.word	1100433087
 1435 01b8 AFA59841 		.word	1100522927
 1436 01bc 80049A41 		.word	1100612736
 1437 01c0 32639B41 		.word	1100702514
 1438 01c4 C5C19C41 		.word	1100792261
 1439 01c8 39209E41 		.word	1100881977
 1440 01cc 8E7E9F41 		.word	1100971662
 1441 01d0 C2DCA041 		.word	1101061314
 1442 01d4 D73AA241 		.word	1101150935
 1443 01d8 CB98A341 		.word	1101240523
 1444 01dc 9EF6A441 		.word	1101330078
 1445 01e0 5054A641 		.word	1101419600
 1446 01e4 E2B1A741 		.word	1101509090
 1447 01e8 510FA941 		.word	1101598545
 1448 01ec A06CAA41 		.word	1101687968
 1449 01f0 CCC9AB41 		.word	1101777356
 1450 01f4 D526AD41 		.word	1101866709
 1451 01f8 BC83AE41 		.word	1101956028
 1452 01fc 81E0AF41 		.word	1102045313
 1453 0200 223DB141 		.word	1102134562
 1454 0204 A099B241 		.word	1102223776
 1455 0208 FAF5B341 		.word	1102312954
 1456 020c 3052B541 		.word	1102402096
 1457 0210 42AEB641 		.word	1102491202
 1458 0214 300AB841 		.word	1102580272
 1459 0218 F865B941 		.word	1102669304
 1460 021c 9CC1BA41 		.word	1102758300
 1461 0220 1B1DBC41 		.word	1102847259
 1462 0224 7478BD41 		.word	1102936180
 1463 0228 A7D3BE41 		.word	1103025063
 1464 022c B42EC041 		.word	1103113908
 1465 0230 9B89C141 		.word	1103202715
 1466 0234 5BE4C241 		.word	1103291483
 1467 0238 F43EC441 		.word	1103380212
 1468 023c 6699C541 		.word	1103468902
 1469 0240 B0F3C641 		.word	1103557552
 1470 0244 D34DC841 		.word	1103646163
 1471 0248 CEA7C941 		.word	1103734734
 1472 024c A101CB41 		.word	1103823265
 1473 0250 4B5BCC41 		.word	1103911755
 1474 0254 CCB4CD41 		.word	1104000204
 1475 0258 240ECF41 		.word	1104088612
 1476 025c 5367D041 		.word	1104176979
 1477 0260 58C0D141 		.word	1104265304
 1478 0264 3319D341 		.word	1104353587
 1479 0268 E571D441 		.word	1104441829
 1480 026c 6BCAD541 		.word	1104530027
 1481 0270 C722D741 		.word	1104618183
 1482 0274 F97AD841 		.word	1104706297
 1483 0278 FFD2D941 		.word	1104794367
 1484 027c D92ADB41 		.word	1104882393
ARM GAS  C:\Users\30806\AppData\Local\Temp\ccZCY32q.s 			page 32


 1485 0280 8882DC41 		.word	1104970376
 1486 0284 0ADADD41 		.word	1105058314
 1487 0288 6131DF41 		.word	1105146209
 1488 028c 8B88E041 		.word	1105234059
 1489 0290 88DFE141 		.word	1105321864
 1490 0294 5836E341 		.word	1105409624
 1491 0298 FA8CE441 		.word	1105497338
 1492 029c 6FE3E541 		.word	1105585007
 1493 02a0 B639E741 		.word	1105672630
 1494 02a4 CF8FE841 		.word	1105760207
 1495 02a8 BAE5E941 		.word	1105847738
 1496 02ac 753BEB41 		.word	1105935221
 1497 02b0 0291EC41 		.word	1106022658
 1498 02b4 60E6ED41 		.word	1106110048
 1499 02b8 8E3BEF41 		.word	1106197390
 1500 02bc 8C90F041 		.word	1106284684
 1501 02c0 5BE5F141 		.word	1106371931
 1502 02c4 F939F341 		.word	1106459129
 1503 02c8 668EF441 		.word	1106546278
 1504 02cc A3E2F541 		.word	1106633379
 1505 02d0 AE36F741 		.word	1106720430
 1506 02d4 888AF841 		.word	1106807432
 1507 02d8 31DEF941 		.word	1106894385
 1508 02dc A831FB41 		.word	1106981288
 1509 02e0 EC84FC41 		.word	1107068140
 1510 02e4 FED7FD41 		.word	1107154942
 1511 02e8 DE2AFF41 		.word	1107241694
 1512 02ec C53E0042 		.word	1107312325
 1513 02f0 02E80042 		.word	1107355650
 1514 02f4 25910142 		.word	1107398949
 1515 02f8 2E3A0242 		.word	1107442222
 1516 02fc 1DE30242 		.word	1107485469
 1517 0300 F28B0342 		.word	1107528690
 1518 0304 AC340442 		.word	1107571884
 1519 0308 4DDD0442 		.word	1107615053
 1520 030c D3850542 		.word	1107658195
 1521 0310 3E2E0642 		.word	1107701310
 1522 0314 8ED60642 		.word	1107744398
 1523 0318 C37E0742 		.word	1107787459
 1524 031c DE260842 		.word	1107830494
 1525 0320 DDCE0842 		.word	1107873501
 1526 0324 C1760942 		.word	1107916481
 1527 0328 891E0A42 		.word	1107959433
 1528 032c 36C60A42 		.word	1108002358
 1529 0330 C76D0B42 		.word	1108045255
 1530 0334 3C150C42 		.word	1108088124
 1531 0338 96BC0C42 		.word	1108130966
 1532 033c D3630D42 		.word	1108173779
 1533 0340 F40A0E42 		.word	1108216564
 1534 0344 F9B10E42 		.word	1108259321
 1535 0348 E1580F42 		.word	1108302049
 1536 034c ACFF0F42 		.word	1108344748
 1537 0350 5BA61042 		.word	1108387419
 1538 0354 ED4C1142 		.word	1108430061
 1539 0358 62F31142 		.word	1108472674
 1540 035c BA991242 		.word	1108515258
 1541 0360 F43F1342 		.word	1108557812
ARM GAS  C:\Users\30806\AppData\Local\Temp\ccZCY32q.s 			page 33


 1542 0364 11E61342 		.word	1108600337
 1543 0368 118C1442 		.word	1108642833
 1544 036c F3311542 		.word	1108685299
 1545 0370 B7D71542 		.word	1108727735
 1546 0374 5D7D1642 		.word	1108770141
 1547 0378 E6221742 		.word	1108812518
 1548 037c 50C81742 		.word	1108854864
 1549 0380 9B6D1842 		.word	1108897179
 1550 0384 C9121942 		.word	1108939465
 1551 0388 D7B71942 		.word	1108981719
 1552 038c C75C1A42 		.word	1109023943
 1553 0390 99011B42 		.word	1109066137
 1554 0394 4BA61B42 		.word	1109108299
 1555 0398 DE4A1C42 		.word	1109150430
 1556 039c 52EF1C42 		.word	1109192530
 1557 03a0 A7931D42 		.word	1109234599
 1558 03a4 DC371E42 		.word	1109276636
 1559 03a8 F2DB1E42 		.word	1109318642
 1560 03ac E87F1F42 		.word	1109360616
 1561 03b0 BE232042 		.word	1109402558
 1562 03b4 74C72042 		.word	1109444468
 1563 03b8 0A6B2142 		.word	1109486346
 1564 03bc 800E2242 		.word	1109528192
 1565 03c0 D5B12242 		.word	1109570005
 1566 03c4 0A552342 		.word	1109611786
 1567 03c8 1EF82342 		.word	1109653534
 1568 03cc 129B2442 		.word	1109695250
 1569 03d0 E53D2542 		.word	1109736933
 1570 03d4 97E02542 		.word	1109778583
 1571 03d8 27832642 		.word	1109820199
 1572 03dc 97252742 		.word	1109861783
 1573 03e0 E5C72742 		.word	1109903333
 1574 03e4 116A2842 		.word	1109944849
 1575 03e8 1C0C2942 		.word	1109986332
 1576 03ec 05AE2942 		.word	1110027781
 1577 03f0 CD4F2A42 		.word	1110069197
 1578 03f4 72F12A42 		.word	1110110578
 1579 03f8 F5922B42 		.word	1110151925
 1580 03fc 56342C42 		.word	1110193238
 1581 0400 95D52C42 		.word	1110234517
 1582 0404 B1762D42 		.word	1110275761
 1583 0408 AA172E42 		.word	1110316970
 1584 040c 81B82E42 		.word	1110358145
 1585 0410 35592F42 		.word	1110399285
 1586 0414 C5F92F42 		.word	1110440389
 1587 0418 339A3042 		.word	1110481459
 1588 041c 7D3A3142 		.word	1110522493
 1589 0420 A4DA3142 		.word	1110563492
 1590 0424 A87A3242 		.word	1110604456
 1591 0428 881A3342 		.word	1110645384
 1592 042c 44BA3342 		.word	1110686276
 1593 0430 DC593442 		.word	1110727132
 1594 0434 50F93442 		.word	1110767952
 1595 0438 A1983542 		.word	1110808737
 1596 043c CC373642 		.word	1110849484
 1597 0440 D4D63642 		.word	1110890196
 1598 0444 B7753742 		.word	1110930871
ARM GAS  C:\Users\30806\AppData\Local\Temp\ccZCY32q.s 			page 34


 1599 0448 75143842 		.word	1110971509
 1600 044c 0FB33842 		.word	1111012111
 1601 0450 84513942 		.word	1111052676
 1602 0454 D3EF3942 		.word	1111093203
 1603 0458 FE8D3A42 		.word	1111133694
 1604 045c 032C3B42 		.word	1111174147
 1605 0460 E3C93B42 		.word	1111214563
 1606 0464 9E673C42 		.word	1111254942
 1607 0468 33053D42 		.word	1111295283
 1608 046c A2A23D42 		.word	1111335586
 1609 0470 EB3F3E42 		.word	1111375851
 1610 0474 0FDD3E42 		.word	1111416079
 1611 0478 0C7A3F42 		.word	1111456268
 1612 047c E3164042 		.word	1111496419
 1613 0480 94B34042 		.word	1111536532
 1614 0484 1E504142 		.word	1111576606
 1615 0488 81EC4142 		.word	1111616641
 1616 048c BE884242 		.word	1111656638
 1617 0490 D4244342 		.word	1111696596
 1618 0494 C3C04342 		.word	1111736515
 1619 0498 8B5C4442 		.word	1111776395
 1620 049c 2CF84442 		.word	1111816236
 1621 04a0 A6934542 		.word	1111856038
 1622 04a4 F82E4642 		.word	1111895800
 1623 04a8 22CA4642 		.word	1111935522
 1624 04ac 25654742 		.word	1111975205
 1625 04b0 00004842 		.word	1112014848
 1626 04b4 B39A4842 		.word	1112054451
 1627 04b8 3E354942 		.word	1112094014
 1628 04bc A1CF4942 		.word	1112133537
 1629 04c0 DC694A42 		.word	1112173020
 1630 04c4 EE034B42 		.word	1112212462
 1631 04c8 D79D4B42 		.word	1112251863
 1632 04cc 98374C42 		.word	1112291224
 1633 04d0 30D14C42 		.word	1112330544
 1634 04d4 A06A4D42 		.word	1112369824
 1635 04d8 E6034E42 		.word	1112409062
 1636 04dc 039D4E42 		.word	1112448259
 1637 04e0 F7354F42 		.word	1112487415
 1638 04e4 C2CE4F42 		.word	1112526530
 1639 04e8 63675042 		.word	1112565603
 1640 04ec DAFF5042 		.word	1112604634
 1641 04f0 28985142 		.word	1112643624
 1642 04f4 4C305242 		.word	1112682572
 1643 04f8 46C85242 		.word	1112721478
 1644 04fc 16605342 		.word	1112760342
 1645 0500 BCF75342 		.word	1112799164
 1646 0504 378F5442 		.word	1112837943
 1647 0508 88265542 		.word	1112876680
 1648 050c AEBD5542 		.word	1112915374
 1649 0510 AA545642 		.word	1112954026
 1650 0514 7BEB5642 		.word	1112992635
 1651 0518 21825742 		.word	1113031201
 1652 051c 9C185842 		.word	1113069724
 1653 0520 ECAE5842 		.word	1113108204
 1654 0524 10455942 		.word	1113146640
 1655 0528 0ADB5942 		.word	1113185034
ARM GAS  C:\Users\30806\AppData\Local\Temp\ccZCY32q.s 			page 35


 1656 052c D7705A42 		.word	1113223383
 1657 0530 79065B42 		.word	1113261689
 1658 0534 F09B5B42 		.word	1113299952
 1659 0538 3A315C42 		.word	1113338170
 1660 053c 59C65C42 		.word	1113376345
 1661 0540 4B5B5D42 		.word	1113414475
 1662 0544 12F05D42 		.word	1113452562
 1663 0548 AC845E42 		.word	1113490604
 1664 054c 19195F42 		.word	1113528601
 1665 0550 5AAD5F42 		.word	1113566554
 1666 0554 6F416042 		.word	1113604463
 1667 0558 57D56042 		.word	1113642327
 1668 055c 11696142 		.word	1113680145
 1669 0560 9FFC6142 		.word	1113717919
 1670 0564 00906242 		.word	1113755648
 1671 0568 33236342 		.word	1113793331
 1672 056c 39B66342 		.word	1113830969
 1673 0570 12496442 		.word	1113868562
 1674 0574 BDDB6442 		.word	1113906109
 1675 0578 3A6E6542 		.word	1113943610
 1676 057c 8A006642 		.word	1113981066
 1677 0580 AB926642 		.word	1114018475
 1678 0584 9F246742 		.word	1114055839
 1679 0588 64B66742 		.word	1114093156
 1680 058c FC476842 		.word	1114130428
 1681 0590 64D96842 		.word	1114167652
 1682 0594 9F6A6942 		.word	1114204831
 1683 0598 AAFB6942 		.word	1114241962
 1684 059c 888C6A42 		.word	1114279048
 1685 05a0 361D6B42 		.word	1114316086
 1686 05a4 B5AD6B42 		.word	1114353077
 1687 05a8 053E6C42 		.word	1114390021
 1688 05ac 26CE6C42 		.word	1114426918
 1689 05b0 185E6D42 		.word	1114463768
 1690 05b4 DAED6D42 		.word	1114500570
 1691 05b8 6D7D6E42 		.word	1114537325
 1692 05bc D10C6F42 		.word	1114574033
 1693 05c0 049C6F42 		.word	1114610692
 1694 05c4 082B7042 		.word	1114647304
 1695 05c8 DCB97042 		.word	1114683868
 1696 05cc 7F487142 		.word	1114720383
 1697 05d0 F3D67142 		.word	1114756851
 1698 05d4 36657242 		.word	1114793270
 1699 05d8 49F37242 		.word	1114829641
 1700 05dc 2C817342 		.word	1114865964
 1701 05e0 DD0E7442 		.word	1114902237
 1702 05e4 5E9C7442 		.word	1114938462
 1703 05e8 AF297542 		.word	1114974639
 1704 05ec CEB67542 		.word	1115010766
 1705 05f0 BC437642 		.word	1115046844
 1706 05f4 79D07642 		.word	1115082873
 1707 05f8 055D7742 		.word	1115118853
 1708 05fc 5FE97742 		.word	1115154783
 1709 0600 88757842 		.word	1115190664
 1710 0604 80017942 		.word	1115226496
 1711 0608 458D7942 		.word	1115262277
 1712 060c D9187A42 		.word	1115298009
ARM GAS  C:\Users\30806\AppData\Local\Temp\ccZCY32q.s 			page 36


 1713 0610 3BA47A42 		.word	1115333691
 1714 0614 6B2F7B42 		.word	1115369323
 1715 0618 68BA7B42 		.word	1115404904
 1716 061c 34457C42 		.word	1115440436
 1717 0620 CDCF7C42 		.word	1115475917
 1718 0624 345A7D42 		.word	1115511348
 1719 0628 68E47D42 		.word	1115546728
 1720 062c 696E7E42 		.word	1115582057
 1721 0630 37F87E42 		.word	1115617335
 1722 0634 D3817F42 		.word	1115652563
 1723 0638 9E058042 		.word	1115686302
 1724 063c 394A8042 		.word	1115703865
 1725 0640 BA8E8042 		.word	1115721402
 1726 0644 21D38042 		.word	1115738913
 1727 0648 6F178142 		.word	1115756399
 1728 064c A35B8142 		.word	1115773859
 1729 0650 BD9F8142 		.word	1115791293
 1730 0654 BDE38142 		.word	1115808701
 1731 0658 A4278242 		.word	1115826084
 1732 065c 706B8242 		.word	1115843440
 1733 0660 23AF8242 		.word	1115860771
 1734 0664 BBF28242 		.word	1115878075
 1735 0668 39368342 		.word	1115895353
 1736 066c 9D798342 		.word	1115912605
 1737 0670 E6BC8342 		.word	1115929830
 1738 0674 16008442 		.word	1115947030
 1739 0678 2B438442 		.word	1115964203
 1740 067c 25868442 		.word	1115981349
 1741 0680 06C98442 		.word	1115998470
 1742 0684 CB0B8542 		.word	1116015563
 1743 0688 764E8542 		.word	1116032630
 1744 068c 07918542 		.word	1116049671
 1745 0690 7DD38542 		.word	1116066685
 1746 0694 D8158642 		.word	1116083672
 1747 0698 18588642 		.word	1116100632
 1748 069c 3E9A8642 		.word	1116117566
 1749 06a0 48DC8642 		.word	1116134472
 1750 06a4 381E8742 		.word	1116151352
 1751 06a8 0D608742 		.word	1116168205
 1752 06ac C6A18742 		.word	1116185030
 1753 06b0 65E38742 		.word	1116201829
 1754 06b4 E9248842 		.word	1116218601
 1755 06b8 51668842 		.word	1116235345
 1756 06bc 9EA78842 		.word	1116252062
 1757 06c0 D0E88842 		.word	1116268752
 1758 06c4 E6298942 		.word	1116285414
 1759 06c8 E16A8942 		.word	1116302049
 1760 06cc C1AB8942 		.word	1116318657
 1761 06d0 85EC8942 		.word	1116335237
 1762 06d4 2E2D8A42 		.word	1116351790
 1763 06d8 BB6D8A42 		.word	1116368315
 1764 06dc 2CAE8A42 		.word	1116384812
 1765 06e0 82EE8A42 		.word	1116401282
 1766 06e4 BC2E8B42 		.word	1116417724
 1767 06e8 DA6E8B42 		.word	1116434138
 1768 06ec DDAE8B42 		.word	1116450525
 1769 06f0 C3EE8B42 		.word	1116466883
ARM GAS  C:\Users\30806\AppData\Local\Temp\ccZCY32q.s 			page 37


 1770 06f4 8E2E8C42 		.word	1116483214
 1771 06f8 3C6E8C42 		.word	1116499516
 1772 06fc CFAD8C42 		.word	1116515791
 1773 0700 46ED8C42 		.word	1116532038
 1774 0704 A02C8D42 		.word	1116548256
 1775 0708 DE6B8D42 		.word	1116564446
 1776 070c 00AB8D42 		.word	1116580608
 1777 0710 06EA8D42 		.word	1116596742
 1778 0714 EF288E42 		.word	1116612847
 1779 0718 BC678E42 		.word	1116628924
 1780 071c 6CA68E42 		.word	1116644972
 1781 0720 00E58E42 		.word	1116660992
 1782 0724 78238F42 		.word	1116676984
 1783 0728 D3618F42 		.word	1116692947
 1784 072c 11A08F42 		.word	1116708881
 1785 0730 33DE8F42 		.word	1116724787
 1786 0734 381C9042 		.word	1116740664
 1787 0738 205A9042 		.word	1116756512
 1788 073c EB979042 		.word	1116772331
 1789 0740 99D59042 		.word	1116788121
 1790 0744 2B139142 		.word	1116803883
 1791 0748 A0509142 		.word	1116819616
 1792 074c F78D9142 		.word	1116835319
 1793 0750 32CB9142 		.word	1116850994
 1794 0754 4F089242 		.word	1116866639
 1795 0758 4F459242 		.word	1116882255
 1796 075c 32829242 		.word	1116897842
 1797 0760 F8BE9242 		.word	1116913400
 1798 0764 A1FB9242 		.word	1116928929
 1799 0768 2C389342 		.word	1116944428
 1800 076c 9A749342 		.word	1116959898
 1801 0770 EAB09342 		.word	1116975338
 1802 0774 1DED9342 		.word	1116990749
 1803 0778 32299442 		.word	1117006130
 1804 077c 2A659442 		.word	1117021482
 1805 0780 04A19442 		.word	1117036804
 1806 0784 C0DC9442 		.word	1117052096
 1807 0788 5F189542 		.word	1117067359
 1808 078c E0539542 		.word	1117082592
 1809 0790 438F9542 		.word	1117097795
 1810 0794 88CA9542 		.word	1117112968
 1811 0798 B0059642 		.word	1117128112
 1812 079c B9409642 		.word	1117143225
 1813 07a0 A57B9642 		.word	1117158309
 1814 07a4 72B69642 		.word	1117173362
 1815 07a8 21F19642 		.word	1117188385
 1816 07ac B32B9742 		.word	1117203379
 1817 07b0 26669742 		.word	1117218342
 1818 07b4 7AA09742 		.word	1117233274
 1819 07b8 B1DA9742 		.word	1117248177
 1820 07bc C9149842 		.word	1117263049
 1821 07c0 C34E9842 		.word	1117277891
 1822 07c4 9E889842 		.word	1117292702
 1823 07c8 5BC29842 		.word	1117307483
 1824 07cc FAFB9842 		.word	1117322234
 1825 07d0 7A359942 		.word	1117336954
 1826 07d4 DB6E9942 		.word	1117351643
ARM GAS  C:\Users\30806\AppData\Local\Temp\ccZCY32q.s 			page 38


 1827 07d8 1EA89942 		.word	1117366302
 1828 07dc 42E19942 		.word	1117380930
 1829 07e0 471A9A42 		.word	1117395527
 1830 07e4 2E539A42 		.word	1117410094
 1831 07e8 F58B9A42 		.word	1117424629
 1832 07ec 9EC49A42 		.word	1117439134
 1833 07f0 28FD9A42 		.word	1117453608
 1834 07f4 93359B42 		.word	1117468051
 1835 07f8 E06D9B42 		.word	1117482464
 1836 07fc 0DA69B42 		.word	1117496845
 1837 0800 1BDE9B42 		.word	1117511195
 1838 0804 09169C42 		.word	1117525513
 1839 0808 D94D9C42 		.word	1117539801
 1840 080c 8A859C42 		.word	1117554058
 1841 0810 1BBD9C42 		.word	1117568283
 1842 0814 8DF49C42 		.word	1117582477
 1843 0818 DF2B9D42 		.word	1117596639
 1844 081c 13639D42 		.word	1117610771
 1845 0820 279A9D42 		.word	1117624871
 1846 0824 1BD19D42 		.word	1117638939
 1847 0828 F0079E42 		.word	1117652976
 1848 082c A53E9E42 		.word	1117666981
 1849 0830 3B759E42 		.word	1117680955
 1850 0834 B1AB9E42 		.word	1117694897
 1851 0838 07E29E42 		.word	1117708807
 1852 083c 3E189F42 		.word	1117722686
 1853 0840 554E9F42 		.word	1117736533
 1854 0844 4C849F42 		.word	1117750348
 1855 0848 23BA9F42 		.word	1117764131
 1856 084c DBEF9F42 		.word	1117777883
 1857 0850 7225A042 		.word	1117791602
 1858 0854 EA5AA042 		.word	1117805290
 1859 0858 4190A042 		.word	1117818945
 1860 085c 79C5A042 		.word	1117832569
 1861 0860 90FAA042 		.word	1117846160
 1862 0864 872FA142 		.word	1117859719
 1863 0868 5E64A142 		.word	1117873246
 1864 086c 1599A142 		.word	1117886741
 1865 0870 ACCDA142 		.word	1117900204
 1866 0874 2202A242 		.word	1117913634
 1867 0878 7836A242 		.word	1117927032
 1868 087c AD6AA242 		.word	1117940397
 1869 0880 C29EA242 		.word	1117953730
 1870 0884 B7D2A242 		.word	1117967031
 1871 0888 8B06A342 		.word	1117980299
 1872 088c 3F3AA342 		.word	1117993535
 1873 0890 D26DA342 		.word	1118006738
 1874 0894 44A1A342 		.word	1118019908
 1875 0898 96D4A342 		.word	1118033046
 1876 089c C707A442 		.word	1118046151
 1877 08a0 D73AA442 		.word	1118059223
 1878 08a4 C66DA442 		.word	1118072262
 1879 08a8 95A0A442 		.word	1118085269
 1880 08ac 43D3A442 		.word	1118098243
 1881 08b0 D005A542 		.word	1118111184
 1882 08b4 3C38A542 		.word	1118124092
 1883 08b8 876AA542 		.word	1118136967
ARM GAS  C:\Users\30806\AppData\Local\Temp\ccZCY32q.s 			page 39


 1884 08bc B09CA542 		.word	1118149808
 1885 08c0 B9CEA542 		.word	1118162617
 1886 08c4 A100A642 		.word	1118175393
 1887 08c8 6832A642 		.word	1118188136
 1888 08cc 0D64A642 		.word	1118200845
 1889 08d0 9195A642 		.word	1118213521
 1890 08d4 F4C6A642 		.word	1118226164
 1891 08d8 36F8A642 		.word	1118238774
 1892 08dc 5629A742 		.word	1118251350
 1893 08e0 555AA742 		.word	1118263893
 1894 08e4 338BA742 		.word	1118276403
 1895 08e8 EFBBA742 		.word	1118288879
 1896 08ec 89ECA742 		.word	1118301321
 1897 08f0 031DA842 		.word	1118313731
 1898 08f4 5A4DA842 		.word	1118326106
 1899 08f8 907DA842 		.word	1118338448
 1900 08fc A4ADA842 		.word	1118350756
 1901 0900 97DDA842 		.word	1118363031
 1902 0904 680DA942 		.word	1118375272
 1903 0908 173DA942 		.word	1118387479
 1904 090c A46CA942 		.word	1118399652
 1905 0910 109CA942 		.word	1118411792
 1906 0914 5ACBA942 		.word	1118423898
 1907 0918 82FAA942 		.word	1118435970
 1908 091c 8729AA42 		.word	1118448007
 1909 0920 6B58AA42 		.word	1118460011
 1910 0924 2D87AA42 		.word	1118471981
 1911 0928 CDB5AA42 		.word	1118483917
 1912 092c 4BE4AA42 		.word	1118495819
 1913 0930 A612AB42 		.word	1118507686
 1914 0934 E040AB42 		.word	1118519520
 1915 0938 F76EAB42 		.word	1118531319
 1916 093c EC9CAB42 		.word	1118543084
 1917 0940 BFCAAB42 		.word	1118554815
 1918 0944 70F8AB42 		.word	1118566512
 1919 0948 FE25AC42 		.word	1118578174
 1920 094c 6A53AC42 		.word	1118589802
 1921 0950 B380AC42 		.word	1118601395
 1922 0954 DAADAC42 		.word	1118612954
 1923 0958 DFDAAC42 		.word	1118624479
 1924 095c C107AD42 		.word	1118635969
 1925 0960 8034AD42 		.word	1118647424
 1926 0964 1D61AD42 		.word	1118658845
 1927 0968 978DAD42 		.word	1118670231
 1928 096c EFB9AD42 		.word	1118681583
 1929 0970 24E6AD42 		.word	1118692900
 1930 0974 3612AE42 		.word	1118704182
 1931 0978 263EAE42 		.word	1118715430
 1932 097c F269AE42 		.word	1118726642
 1933 0980 9C95AE42 		.word	1118737820
 1934 0984 23C1AE42 		.word	1118748963
 1935 0988 87ECAE42 		.word	1118760071
 1936 098c C917AF42 		.word	1118771145
 1937 0990 E742AF42 		.word	1118782183
 1938 0994 E26DAF42 		.word	1118793186
 1939 0998 BA98AF42 		.word	1118804154
 1940 099c 70C3AF42 		.word	1118815088
ARM GAS  C:\Users\30806\AppData\Local\Temp\ccZCY32q.s 			page 40


 1941 09a0 02EEAF42 		.word	1118825986
 1942 09a4 7118B042 		.word	1118836849
 1943 09a8 BD42B042 		.word	1118847677
 1944 09ac E56CB042 		.word	1118858469
 1945 09b0 EB96B042 		.word	1118869227
 1946 09b4 CDC0B042 		.word	1118879949
 1947 09b8 8CEAB042 		.word	1118890636
 1948 09bc 2714B142 		.word	1118901287
 1949 09c0 A03DB142 		.word	1118911904
 1950 09c4 F466B142 		.word	1118922484
 1951 09c8 2690B142 		.word	1118933030
 1952 09cc 34B9B142 		.word	1118943540
 1953 09d0 1EE2B142 		.word	1118954014
 1954 09d4 E50AB242 		.word	1118964453
 1955 09d8 8933B242 		.word	1118974857
 1956 09dc 095CB242 		.word	1118985225
 1957 09e0 6584B242 		.word	1118995557
 1958 09e4 9DACB242 		.word	1119005853
 1959 09e8 B2D4B242 		.word	1119016114
 1960 09ec A4FCB242 		.word	1119026340
 1961 09f0 7124B342 		.word	1119036529
 1962 09f4 1B4CB342 		.word	1119046683
 1963 09f8 A173B342 		.word	1119056801
 1964 09fc 039BB342 		.word	1119066883
 1965 0a00 41C2B342 		.word	1119076929
 1966 0a04 5CE9B342 		.word	1119086940
 1967 0a08 5210B442 		.word	1119096914
 1968 0a0c 2537B442 		.word	1119106853
 1969 0a10 D35DB442 		.word	1119116755
 1970 0a14 5E84B442 		.word	1119126622
 1971 0a18 C4AAB442 		.word	1119136452
 1972 0a1c 07D1B442 		.word	1119146247
 1973 0a20 25F7B442 		.word	1119156005
 1974 0a24 1F1DB542 		.word	1119165727
 1975 0a28 F542B542 		.word	1119175413
 1976 0a2c A768B542 		.word	1119185063
 1977 0a30 358EB542 		.word	1119194677
 1978 0a34 9EB3B542 		.word	1119204254
 1979 0a38 E4D8B542 		.word	1119213796
 1980 0a3c 04FEB542 		.word	1119223300
 1981 0a40 0123B642 		.word	1119232769
 1982 0a44 D947B642 		.word	1119242201
 1983 0a48 8D6CB642 		.word	1119251597
 1984 0a4c 1C91B642 		.word	1119260956
 1985 0a50 87B5B642 		.word	1119270279
 1986 0a54 CDD9B642 		.word	1119279565
 1987 0a58 EFFDB642 		.word	1119288815
 1988 0a5c ED21B742 		.word	1119298029
 1989 0a60 C645B742 		.word	1119307206
 1990 0a64 7A69B742 		.word	1119316346
 1991 0a68 098DB742 		.word	1119325449
 1992 0a6c 74B0B742 		.word	1119334516
 1993 0a70 BBD3B742 		.word	1119343547
 1994 0a74 DCF6B742 		.word	1119352540
 1995 0a78 D919B842 		.word	1119361497
 1996 0a7c B13CB842 		.word	1119370417
 1997 0a80 655FB842 		.word	1119379301
ARM GAS  C:\Users\30806\AppData\Local\Temp\ccZCY32q.s 			page 41


 1998 0a84 F381B842 		.word	1119388147
 1999 0a88 5DA4B842 		.word	1119396957
 2000 0a8c A2C6B842 		.word	1119405730
 2001 0a90 C2E8B842 		.word	1119414466
 2002 0a94 BD0AB942 		.word	1119423165
 2003 0a98 932CB942 		.word	1119431827
 2004 0a9c 444EB942 		.word	1119440452
 2005 0aa0 D06FB942 		.word	1119449040
 2006 0aa4 3791B942 		.word	1119457591
 2007 0aa8 79B2B942 		.word	1119466105
 2008 0aac 96D3B942 		.word	1119474582
 2009 0ab0 8EF4B942 		.word	1119483022
 2010 0ab4 6115BA42 		.word	1119491425
 2011 0ab8 0F36BA42 		.word	1119499791
 2012 0abc 9756BA42 		.word	1119508119
 2013 0ac0 FB76BA42 		.word	1119516411
 2014 0ac4 3997BA42 		.word	1119524665
 2015 0ac8 51B7BA42 		.word	1119532881
 2016 0acc 45D7BA42 		.word	1119541061
 2017 0ad0 13F7BA42 		.word	1119549203
 2018 0ad4 BC16BB42 		.word	1119557308
 2019 0ad8 4036BB42 		.word	1119565376
 2020 0adc 9E55BB42 		.word	1119573406
 2021 0ae0 D674BB42 		.word	1119581398
 2022 0ae4 EA93BB42 		.word	1119589354
 2023 0ae8 D8B2BB42 		.word	1119597272
 2024 0aec A0D1BB42 		.word	1119605152
 2025 0af0 43F0BB42 		.word	1119612995
 2026 0af4 C10EBC42 		.word	1119620801
 2027 0af8 182DBC42 		.word	1119628568
 2028 0afc 4B4BBC42 		.word	1119636299
 2029 0b00 5769BC42 		.word	1119643991
 2030 0b04 3F87BC42 		.word	1119651647
 2031 0b08 00A5BC42 		.word	1119659264
 2032 0b0c 9CC2BC42 		.word	1119666844
 2033 0b10 12E0BC42 		.word	1119674386
 2034 0b14 62FDBC42 		.word	1119681890
 2035 0b18 8D1ABD42 		.word	1119689357
 2036 0b1c 9237BD42 		.word	1119696786
 2037 0b20 7154BD42 		.word	1119704177
 2038 0b24 2B71BD42 		.word	1119711531
 2039 0b28 BE8DBD42 		.word	1119718846
 2040 0b2c 2CAABD42 		.word	1119726124
 2041 0b30 74C6BD42 		.word	1119733364
 2042 0b34 96E2BD42 		.word	1119740566
 2043 0b38 92FEBD42 		.word	1119747730
 2044 0b3c 681ABE42 		.word	1119754856
 2045 0b40 1836BE42 		.word	1119761944
 2046 0b44 A251BE42 		.word	1119768994
 2047 0b48 066DBE42 		.word	1119776006
 2048 0b4c 4588BE42 		.word	1119782981
 2049 0b50 5DA3BE42 		.word	1119789917
 2050 0b54 4FBEBE42 		.word	1119796815
 2051 0b58 1BD9BE42 		.word	1119803675
 2052 0b5c C1F3BE42 		.word	1119810497
 2053 0b60 410EBF42 		.word	1119817281
 2054 0b64 9A28BF42 		.word	1119824026
ARM GAS  C:\Users\30806\AppData\Local\Temp\ccZCY32q.s 			page 42


 2055 0b68 CE42BF42 		.word	1119830734
 2056 0b6c DB5CBF42 		.word	1119837403
 2057 0b70 C276BF42 		.word	1119844034
 2058 0b74 8390BF42 		.word	1119850627
 2059 0b78 1EAABF42 		.word	1119857182
 2060 0b7c 92C3BF42 		.word	1119863698
 2061 0b80 E0DCBF42 		.word	1119870176
 2062 0b84 08F6BF42 		.word	1119876616
 2063 0b88 090FC042 		.word	1119883017
 2064 0b8c E527C042 		.word	1119889381
 2065 0b90 9940C042 		.word	1119895705
 2066 0b94 2859C042 		.word	1119901992
 2067 0b98 9071C042 		.word	1119908240
 2068 0b9c D189C042 		.word	1119914449
 2069 0ba0 ECA1C042 		.word	1119920620
 2070 0ba4 E1B9C042 		.word	1119926753
 2071 0ba8 AFD1C042 		.word	1119932847
 2072 0bac 57E9C042 		.word	1119938903
 2073 0bb0 D800C142 		.word	1119944920
 2074 0bb4 3318C142 		.word	1119950899
 2075 0bb8 672FC142 		.word	1119956839
 2076 0bbc 7546C142 		.word	1119962741
 2077 0bc0 5C5DC142 		.word	1119968604
 2078 0bc4 1C74C142 		.word	1119974428
 2079 0bc8 B68AC142 		.word	1119980214
 2080 0bcc 29A1C142 		.word	1119985961
 2081 0bd0 75B7C142 		.word	1119991669
 2082 0bd4 9BCDC142 		.word	1119997339
 2083 0bd8 9AE3C142 		.word	1120002970
 2084 0bdc 72F9C142 		.word	1120008562
 2085 0be0 240FC242 		.word	1120014116
 2086 0be4 AF24C242 		.word	1120019631
 2087 0be8 133AC242 		.word	1120025107
 2088 0bec 514FC242 		.word	1120030545
 2089 0bf0 6764C242 		.word	1120035943
 2090 0bf4 5779C242 		.word	1120041303
 2091 0bf8 208EC242 		.word	1120046624
 2092 0bfc C2A2C242 		.word	1120051906
 2093 0c00 3DB7C242 		.word	1120057149
 2094 0c04 92CBC242 		.word	1120062354
 2095 0c08 BFDFC242 		.word	1120067519
 2096 0c0c C6F3C242 		.word	1120072646
 2097 0c10 A607C342 		.word	1120077734
 2098 0c14 5E1BC342 		.word	1120082782
 2099 0c18 F02EC342 		.word	1120087792
 2100 0c1c 5B42C342 		.word	1120092763
 2101 0c20 9F55C342 		.word	1120097695
 2102 0c24 BC68C342 		.word	1120102588
 2103 0c28 B27BC342 		.word	1120107442
 2104 0c2c 808EC342 		.word	1120112256
 2105 0c30 28A1C342 		.word	1120117032
 2106 0c34 A9B3C342 		.word	1120121769
 2107 0c38 03C6C342 		.word	1120126467
 2108 0c3c 35D8C342 		.word	1120131125
 2109 0c40 41EAC342 		.word	1120135745
 2110 0c44 25FCC342 		.word	1120140325
 2111 0c48 E20DC442 		.word	1120144866
ARM GAS  C:\Users\30806\AppData\Local\Temp\ccZCY32q.s 			page 43


 2112 0c4c 781FC442 		.word	1120149368
 2113 0c50 E730C442 		.word	1120153831
 2114 0c54 2F42C442 		.word	1120158255
 2115 0c58 5053C442 		.word	1120162640
 2116 0c5c 4964C442 		.word	1120166985
 2117 0c60 1B75C442 		.word	1120171291
 2118 0c64 C685C442 		.word	1120175558
 2119 0c68 4A96C442 		.word	1120179786
 2120 0c6c A7A6C442 		.word	1120183975
 2121 0c70 DCB6C442 		.word	1120188124
 2122 0c74 EAC6C442 		.word	1120192234
 2123 0c78 D1D6C442 		.word	1120196305
 2124 0c7c 90E6C442 		.word	1120200336
 2125 0c80 28F6C442 		.word	1120204328
 2126 0c84 9905C542 		.word	1120208281
 2127 0c88 E214C542 		.word	1120212194
 2128 0c8c 0524C542 		.word	1120216069
 2129 0c90 FF32C542 		.word	1120219903
 2130 0c94 D341C542 		.word	1120223699
 2131 0c98 7F50C542 		.word	1120227455
 2132 0c9c 035FC542 		.word	1120231171
 2133 0ca0 606DC542 		.word	1120234848
 2134 0ca4 967BC542 		.word	1120238486
 2135 0ca8 A589C542 		.word	1120242085
 2136 0cac 8C97C542 		.word	1120245644
 2137 0cb0 4BA5C542 		.word	1120249163
 2138 0cb4 E3B2C542 		.word	1120252643
 2139 0cb8 54C0C542 		.word	1120256084
 2140 0cbc 9DCDC542 		.word	1120259485
 2141 0cc0 BEDAC542 		.word	1120262846
 2142 0cc4 B8E7C542 		.word	1120266168
 2143 0cc8 8BF4C542 		.word	1120269451
 2144 0ccc 3601C642 		.word	1120272694
 2145 0cd0 BA0DC642 		.word	1120275898
 2146 0cd4 161AC642 		.word	1120279062
 2147 0cd8 4A26C642 		.word	1120282186
 2148 0cdc 5732C642 		.word	1120285271
 2149 0ce0 3C3EC642 		.word	1120288316
 2150 0ce4 FA49C642 		.word	1120291322
 2151 0ce8 9055C642 		.word	1120294288
 2152 0cec FF60C642 		.word	1120297215
 2153 0cf0 466CC642 		.word	1120300102
 2154 0cf4 6577C642 		.word	1120302949
 2155 0cf8 5D82C642 		.word	1120305757
 2156 0cfc 2D8DC642 		.word	1120308525
 2157 0d00 D697C642 		.word	1120311254
 2158 0d04 56A2C642 		.word	1120313942
 2159 0d08 B0ACC642 		.word	1120316592
 2160 0d0c E1B6C642 		.word	1120319201
 2161 0d10 EBC0C642 		.word	1120321771
 2162 0d14 CDCAC642 		.word	1120324301
 2163 0d18 88D4C642 		.word	1120326792
 2164 0d1c 1ADEC642 		.word	1120329242
 2165 0d20 85E7C642 		.word	1120331653
 2166 0d24 C9F0C642 		.word	1120334025
 2167 0d28 E4F9C642 		.word	1120336356
 2168 0d2c D802C742 		.word	1120338648
ARM GAS  C:\Users\30806\AppData\Local\Temp\ccZCY32q.s 			page 44


 2169 0d30 A50BC742 		.word	1120340901
 2170 0d34 4914C742 		.word	1120343113
 2171 0d38 C61CC742 		.word	1120345286
 2172 0d3c 1B25C742 		.word	1120347419
 2173 0d40 482DC742 		.word	1120349512
 2174 0d44 4D35C742 		.word	1120351565
 2175 0d48 2B3DC742 		.word	1120353579
 2176 0d4c E144C742 		.word	1120355553
 2177 0d50 6F4CC742 		.word	1120357487
 2178 0d54 D653C742 		.word	1120359382
 2179 0d58 145BC742 		.word	1120361236
 2180 0d5c 2B62C742 		.word	1120363051
 2181 0d60 1A69C742 		.word	1120364826
 2182 0d64 E16FC742 		.word	1120366561
 2183 0d68 8076C742 		.word	1120368256
 2184 0d6c F87CC742 		.word	1120369912
 2185 0d70 4883C742 		.word	1120371528
 2186 0d74 6F89C742 		.word	1120373103
 2187 0d78 6F8FC742 		.word	1120374639
 2188 0d7c 4895C742 		.word	1120376136
 2189 0d80 F89AC742 		.word	1120377592
 2190 0d84 80A0C742 		.word	1120379008
 2191 0d88 E1A5C742 		.word	1120380385
 2192 0d8c 1AABC742 		.word	1120381722
 2193 0d90 2BB0C742 		.word	1120383019
 2194 0d94 14B5C742 		.word	1120384276
 2195 0d98 D5B9C742 		.word	1120385493
 2196 0d9c 6EBEC742 		.word	1120386670
 2197 0da0 E0C2C742 		.word	1120387808
 2198 0da4 29C7C742 		.word	1120388905
 2199 0da8 4BCBC742 		.word	1120389963
 2200 0dac 45CFC742 		.word	1120390981
 2201 0db0 17D3C742 		.word	1120391959
 2202 0db4 C1D6C742 		.word	1120392897
 2203 0db8 43DAC742 		.word	1120393795
 2204 0dbc 9DDDC742 		.word	1120394653
 2205 0dc0 CFE0C742 		.word	1120395471
 2206 0dc4 DAE3C742 		.word	1120396250
 2207 0dc8 BCE6C742 		.word	1120396988
 2208 0dcc 77E9C742 		.word	1120397687
 2209 0dd0 0AECC742 		.word	1120398346
 2210 0dd4 74EEC742 		.word	1120398964
 2211 0dd8 B7F0C742 		.word	1120399543
 2212 0ddc D2F2C742 		.word	1120400082
 2213 0de0 C5F4C742 		.word	1120400581
 2214 0de4 91F6C742 		.word	1120401041
 2215 0de8 34F8C742 		.word	1120401460
 2216 0dec AFF9C742 		.word	1120401839
 2217 0df0 02FBC742 		.word	1120402178
 2218 0df4 2EFCC742 		.word	1120402478
 2219 0df8 31FDC742 		.word	1120402737
 2220 0dfc 0DFEC742 		.word	1120402957
 2221 0e00 C1FEC742 		.word	1120403137
 2222 0e04 4CFFC742 		.word	1120403276
 2223 0e08 B0FFC742 		.word	1120403376
 2224 0e0c ECFFC742 		.word	1120403436
 2225 0e10 0000C842 		.word	1120403456
ARM GAS  C:\Users\30806\AppData\Local\Temp\ccZCY32q.s 			page 45


 2226              		.text
 2227              	.Letext0:
 2228              		.file 2 "d:\\stm_for_vs\\gcc-arm-none-eabi-10.3-2021.10\\arm-none-eabi\\include\\machine\\_default
 2229              		.file 3 "d:\\stm_for_vs\\gcc-arm-none-eabi-10.3-2021.10\\arm-none-eabi\\include\\sys\\_stdint.h"
 2230              		.file 4 "ACE_ECF_25-ACE-ECF-CPP-V1.2/Algorithm/user_maths/cpp_files/user_maths.hpp"
 2231              		.file 5 "d:\\stm_for_vs\\gcc-arm-none-eabi-10.3-2021.10\\arm-none-eabi\\include\\c++\\10.3.1\\bits
 2232              		.file 6 "d:\\stm_for_vs\\gcc-arm-none-eabi-10.3-2021.10\\arm-none-eabi\\include\\c++\\10.3.1\\cmat
 2233              		.file 7 "d:\\stm_for_vs\\gcc-arm-none-eabi-10.3-2021.10\\arm-none-eabi\\include\\c++\\10.3.1\\bits
 2234              		.file 8 "d:\\stm_for_vs\\gcc-arm-none-eabi-10.3-2021.10\\arm-none-eabi\\include\\c++\\10.3.1\\arm-
 2235              		.file 9 "d:\\stm_for_vs\\gcc-arm-none-eabi-10.3-2021.10\\arm-none-eabi\\include\\math.h"
 2236              		.file 10 "d:\\stm_for_vs\\gcc-arm-none-eabi-10.3-2021.10\\arm-none-eabi\\include\\c++\\10.3.1\\mat
 2237              		.file 11 "ACE_ECF_25-ACE-ECF-CPP-V1.2/Algorithm/user_maths/list_of_trigfunction.h"
 2238              		.file 12 "<built-in>"